 ClubServer

 Timestamp is 651e7f9e (Thu Oct  5 17:19:26 2023)

 Preferred load address is 00400000

 Start         Length     Name                   Class
 0001:00000000 00000050H .text$di                CODE
 0001:00000050 00020b20H .text$mn                CODE
 0001:00020b70 000016d0H .text$x                 CODE
 0001:00022240 00000025H .text$yd                CODE
 0002:00000000 000005a0H .idata$5                DATA
 0002:000005a0 00000004H .00cfg                  DATA
 0002:000005a4 00000004H .CRT$XCA                DATA
 0002:000005a8 00000004H .CRT$XCAA               DATA
 0002:000005ac 00000008H .CRT$XCL                DATA
 0002:000005b4 00000004H .CRT$XCU                DATA
 0002:000005b8 00000004H .CRT$XCZ                DATA
 0002:000005bc 00000004H .CRT$XIA                DATA
 0002:000005c0 00000004H .CRT$XIAA               DATA
 0002:000005c4 00000004H .CRT$XIAC               DATA
 0002:000005c8 00000004H .CRT$XIC                DATA
 0002:000005cc 00000004H .CRT$XIZ                DATA
 0002:000005d0 00000004H .CRT$XLA                DATA
 0002:000005d4 00000004H .CRT$XLZ                DATA
 0002:000005d8 00000004H .CRT$XPA                DATA
 0002:000005dc 00000004H .CRT$XPZ                DATA
 0002:000005e0 00000004H .CRT$XTA                DATA
 0002:000005e4 0000000cH .CRT$XTZ                DATA
 0002:000005f0 000053b4H .rdata                  DATA
 0002:000059a4 00000018H .rdata$T                DATA
 0002:000059bc 00000f54H .rdata$r                DATA
 0002:00006910 0000018cH .rdata$sxdata           DATA
 0002:00006a9c 000003ecH .rdata$zzzdbg           DATA
 0002:00006e88 00000004H .rtc$IAA                DATA
 0002:00006e8c 00000004H .rtc$IZZ                DATA
 0002:00006e90 00000004H .rtc$TAA                DATA
 0002:00006e94 00000004H .rtc$TZZ                DATA
 0002:00006e98 000020a4H .xdata$x                DATA
 0002:00008f3c 00000000H ATL$__a                 DATA
 0002:00008f3c 00000000H ATL$__z                 DATA
 0002:00008f3c 00000000H .edata                  DATA
 0002:00008f3c 00000168H .idata$2                DATA
 0002:000090a4 00000014H .idata$3                DATA
 0002:000090b8 000005a0H .idata$4                DATA
 0002:00009658 00000f8cH .idata$6                DATA
 0003:00000000 00000220H .data                   DATA
 0003:00000220 00000888H .data$r                 DATA
 0003:00000aa8 000014dcH .bss                    DATA
 0004:00000000 00000038H .gfids$y                DATA
 0005:00000000 00000004H .tls                    DATA
 0005:00000004 00000004H .tls$                   DATA
 0005:00000008 00000001H .tls$ZZZ                DATA
 0006:00000000 00000390H .rsrc$01                DATA
 0006:00000390 000593d8H .rsrc$02                DATA

  Address         Publics by Value              Rva+Base       Lib:Object

 0000:00000000       ___guard_fids_count        00000000     <absolute>
 0000:00000000       ___guard_longjmp_table     00000000     <absolute>
 0000:00000000       ___guard_iat_table         00000000     <absolute>
 0000:00000000       ___guard_iat_count         00000000     <absolute>
 0000:00000000       ___guard_longjmp_count     00000000     <absolute>
 0000:00000000       ___guard_fids_table        00000000     <absolute>
 0000:00000000       ___dynamic_value_reloc_table 00000000     <absolute>
 0000:0000002c       __tls_array                0000002c     <absolute>
 0000:00000063       ___safe_se_handler_count   00000063     <absolute>
 0000:00000100       ___guard_flags             00000100     <absolute>
 0000:00000000       ___ImageBase               00400000     <linker-defined>
 0001:00000050       ??_GCAccessServerApp@@UAEPAXI@Z 00401050 f i AccessServer.obj
 0001:00000050       ??_ECAccessServerApp@@UAEPAXI@Z 00401050 f i AccessServer.obj
 0001:00000090       ?Serialize@CObject@@UAEXAAVCArchive@@@Z 00401090 f i AccessServer.obj
 0001:00000090       ?Dump@CObject@@UBEXAAVCDumpContext@@@Z 00401090 f i AccessServer.obj
 0001:00000090       ?DoDataExchange@CWnd@@MAEXPAVCDataExchange@@@Z 00401090 f i AccessServerDlg.obj
 0001:000000a0       ?GetApplicationRecoveryPingInterval@CWinApp@@UAEKXZ 004010a0 f i AccessServer.obj
 0001:000000b0       ?GetMessageMap@CAccessServerApp@@MBEPBUAFX_MSGMAP@@XZ 004010b0 f   AccessServer.obj
 0001:000000c0       ?InitInstance@CAccessServerApp@@UAEHXZ 004010c0 f   AccessServer.obj
 0001:00000170       ?ReopenPreviousFilesAtRestart@CWinApp@@UBEHXZ 00401170 f i AccessServer.obj
 0001:00000180       ?RestoreAutosavedFilesAtRestart@CWinApp@@UBEHXZ 00401180 f i AccessServer.obj
 0001:00000190       ?SupportsApplicationRecovery@CWinApp@@UBEHXZ 00401190 f i AccessServer.obj
 0001:000001a0       ?SupportsAutosaveAtInterval@CWinApp@@UBEHXZ 004011a0 f i AccessServer.obj
 0001:000001b0       ?SupportsAutosaveAtRestart@CWinApp@@UBEHXZ 004011b0 f i AccessServer.obj
 0001:000001c0       ?SupportsRestartManager@CWinApp@@UBEHXZ 004011c0 f i AccessServer.obj
 0001:000001d0       ??$_snwprintf_s@$0IA@@@YAHAAY0IA@_WIPB_WZZ 004011d0 f i AccessServerDlg.obj
 0001:00000210       ??0CAccessServerDlg@@QAE@XZ 00401210 f   AccessServerDlg.obj
 0001:00000290       ??1CAccessServerDlg@@UAE@XZ 00401290 f   AccessServerDlg.obj
 0001:000002d0       ??_GCAccessServerDlg@@UAEPAXI@Z 004012d0 f i AccessServerDlg.obj
 0001:000002d0       ??_ECAccessServerDlg@@UAEPAXI@Z 004012d0 f i AccessServerDlg.obj
 0001:00000340       ?BeginModalState@CWnd@@UAEXXZ 00401340 f i AccessServerDlg.obj
 0001:00000350       ?Create@CDialog@@UAEHIPAVCWnd@@@Z 00401350 f i AccessServerDlg.obj
 0001:00000360       ?DoDataExchange@CAccessServerDlg@@MAEXPAVCDataExchange@@@Z 00401360 f   AccessServerDlg.obj
 0001:00000380       ?EndModalState@CWnd@@UAEXXZ 00401380 f i AccessServerDlg.obj
 0001:00000390       ?GetMessageMap@CAccessServerDlg@@MBEPBUAFX_MSGMAP@@XZ 00401390 f   AccessServerDlg.obj
 0001:000003a0       ?OnBnClickedStartService@CAccessServerDlg@@IAEXXZ 004013a0 f   AccessServerDlg.obj
 0001:00000440       ?OnBnClickedStopService@CAccessServerDlg@@IAEXXZ 00401440 f   AccessServerDlg.obj
 0001:000004a0       ?OnCancel@CAccessServerDlg@@MAEXXZ 004014a0 f   AccessServerDlg.obj
 0001:000004f0       ?OnInitDialog@CAccessServerDlg@@MAEHXZ 004014f0 f   AccessServerDlg.obj
 0001:00000550       ?AssertValid@CObject@@UBEXXZ 00401550 f   AccessServer.obj
 0001:00000550       __initialize_denormal_control 00401550 f   msvcrt:denormal_control.obj
 0001:00000550       ?OnOK@CAccessServerDlg@@MAEXXZ 00401550 f   AccessServerDlg.obj
 0001:00000550       ?__empty_global_delete@@YAXPAXI@Z 00401550 f   AccessServer.obj
 0001:00000550       ?Release@CAttemperEngineSink@@UAEXXZ 00401550 f   AttemperEngineSink.obj
 0001:00000550       ?OnBnClickedLoadOption@CAccessServerDlg@@IAEXXZ 00401550 f   AccessServerDlg.obj
 0001:00000550       __initialize_invalid_parameter_handler 00401550 f   msvcrt:invalid_parameter_handler.obj
 0001:00000550       ?__global_delete@@YAXPAXI@Z 00401550 f   AccessServer.obj
 0001:00000550       @_guard_check_icall_nop@4  00401550 f   msvcrt:guard_support.obj
 0001:00000550       ?Release@CDataBaseEngineSink@@UAEXXZ 00401550 f   DataBaseEngineSink.obj
 0001:00000560       ?OnQueryEndSession@CAccessServerDlg@@QAEHXZ 00401560 f   AccessServerDlg.obj
 0001:000005a0       ?OnServiceUnitsStatus@CAccessServerDlg@@UAEXW4enServiceStatus@@@Z 004015a0 f   AccessServerDlg.obj
 0001:000007a0       ?PreTranslateMessage@CAccessServerDlg@@MAEHPAUtagMSG@@@Z 004017a0 f   AccessServerDlg.obj
 0001:000007d0       ___local_stdio_printf_options 004017d0 f i AccessServerDlg.obj
 0001:000007e0       ??$_snwprintf_s@$0BAE@@@YAHAAY0BAE@_WIPB_WZZ 004017e0 f i AttemperEngineSink.obj
 0001:00000820       ??$_snwprintf_s@$0CAA@@@YAHAAY0CAA@_WIPB_WZZ 00401820 f i AttemperEngineSink.obj
 0001:00000860       ??$swprintf_s@$0BAE@@@YAHAAY0BAE@_WPB_WZZ 00401860 f i AttemperEngineSink.obj
 0001:000008a0       ??0CAttemperEngineSink@@QAE@XZ 004018a0 f   AttemperEngineSink.obj
 0001:00000a10       ??1?$CWHArray@UtagIMGroupOption@@ABU1@@@UAE@XZ 00401a10 f i AttemperEngineSink.obj
 0001:00000a40       ??1CAttemperEngineSink@@UAE@XZ 00401a40 f   AttemperEngineSink.obj
 0001:00000aa0       ??_E?$CWHArray@UtagIMGroupOption@@ABU1@@@UAEPAXI@Z 00401aa0 f i AttemperEngineSink.obj
 0001:00000aa0       ??_G?$CWHArray@UtagIMGroupOption@@ABU1@@@UAEPAXI@Z 00401aa0 f i AttemperEngineSink.obj
 0001:00000ae0       ??_ECAttemperEngineSink@@UAEPAXI@Z 00401ae0 f i AttemperEngineSink.obj
 0001:00000ae0       ??_GCAttemperEngineSink@@UAEPAXI@Z 00401ae0 f i AttemperEngineSink.obj
 0001:00000b10       ?AllocMemory@?$CWHArray@UtagIMGroupOption@@ABU1@@@QAEXH@Z 00401b10 f i AttemperEngineSink.obj
 0001:00000ba0       ?AtlThrowImpl@ATL@@YGXJ@Z  00401ba0 f i AttemperEngineSink.obj
 0001:00000bc0       ?CheckClubName@CAttemperEngineSink@@IAEHPB_W@Z 00401bc0 f   AttemperEngineSink.obj
 0001:00000ca0       ?CheckClubUser@CAttemperEngineSink@@IAE_NKK@Z 00401ca0 f   AttemperEngineSink.obj
 0001:00000de0       ?GetAssocAt@?$CMap@KKUtagClubTableInfo@@AAU1@@@IBEPAVCAssoc@1@KAAI0@Z 00401de0 f i AttemperEngineSink.obj
 0001:00000e50       ?GetBindParameter@CAttemperEngineSink@@IAEPAUtagBindParameter@@G@Z 00401e50 f   AttemperEngineSink.obj
 0001:00000e90       ?GetLocalTm@CTime@ATL@@QBEPAUtm@@PAU3@@Z 00401e90 f i AttemperEngineSink.obj
 0001:00000f00       ?GetNextAssoc@?$CMap@KKUtagClubTableInfo@@AAU1@@@QBEXAAPAU__POSITION@@AAKAAUtagClubTableInfo@@@Z 00401f00 f i AttemperEngineSink.obj
 0001:00000fa0       ?Lookup@?$CMap@KKUtagClubTableInfo@@AAU1@@@QBEHKAAUtagClubTableInfo@@@Z 00401fa0 f i AttemperEngineSink.obj
 0001:00000fe0       ?OnAttemperEngineConclude@CAttemperEngineSink@@UAE_NPAUIUnknownEx@@@Z 00401fe0 f   AttemperEngineSink.obj
 0001:00001140       ?OnAttemperEngineStart@CAttemperEngineSink@@UAE_NPAUIUnknownEx@@@Z 00402140 f   AttemperEngineSink.obj
 0001:000011f0       ?OnDBAddTeamer@CAttemperEngineSink@@IAE_NKPAXG@Z 004021f0 f   AttemperEngineSink.obj
 0001:00001450       ?OnDBAppendConfig@CAttemperEngineSink@@IAE_NKPAXG@Z 00402450 f   AttemperEngineSink.obj
 0001:00001660       ?OnDBApplyDelResult@CAttemperEngineSink@@IAE_NKPAXG@Z 00402660 f   AttemperEngineSink.obj
 0001:00001810       ?OnDBApplyMessage@CAttemperEngineSink@@IAE_NKPAXG@Z 00402810 f   AttemperEngineSink.obj
 0001:000018c0       ?OnDBBattleResult@CAttemperEngineSink@@IAE_NKPAXG@Z 004028c0 f   AttemperEngineSink.obj
 0001:00001960       ?OnDBBigWinnerShow@CAttemperEngineSink@@IAE_NKPAXG@Z 00402960 f   AttemperEngineSink.obj
 0001:000019c0       ?OnDBBlindCode@CAttemperEngineSink@@IAE_NKPAXG@Z 004029c0 f   AttemperEngineSink.obj
 0001:00001b00       ?OnDBBoxInfo@CAttemperEngineSink@@IAE_NKPAXG@Z 00402b00 f   AttemperEngineSink.obj
 0001:00001b60       ?OnDBCaptainList@CAttemperEngineSink@@IAE_NKPAXG@Z 00402b60 f   AttemperEngineSink.obj
 0001:00001bc0       ?OnDBCaptainPoint@CAttemperEngineSink@@IAE_NKPAXG@Z 00402bc0 f   AttemperEngineSink.obj
 0001:00001cc0       ?OnDBClearMedal@CAttemperEngineSink@@IAE_NKPAXG@Z 00402cc0 f   AttemperEngineSink.obj
 0001:00001d50       ?OnDBCreateGroup@CAttemperEngineSink@@IAE_NKPAXG@Z 00402d50 f   AttemperEngineSink.obj
 0001:00001f20       ?OnDBDayRecordList@CAttemperEngineSink@@IAE_NKPAXG@Z 00402f20 f   AttemperEngineSink.obj
 0001:00001f80       ?OnDBDeleteConfig@CAttemperEngineSink@@IAE_NKPAXG@Z 00402f80 f   AttemperEngineSink.obj
 0001:00002180       ?OnDBDeleteGroup@CAttemperEngineSink@@IAE_NKPAXG@Z 00403180 f   AttemperEngineSink.obj
 0001:000022c0       ?OnDBDeleteMember@CAttemperEngineSink@@IAE_NKPAXG@Z 004032c0 f   AttemperEngineSink.obj
 0001:00002520       ?OnDBFavoriteConfig@CAttemperEngineSink@@IAE_NKPAXG@Z 00403520 f   AttemperEngineSink.obj
 0001:000025c0       ?OnDBForbidWords@CAttemperEngineSink@@IAE_NKPAXG@Z 004035c0 f   AttemperEngineSink.obj
 0001:000026a0       ?OnDBFreeTableLImit@CAttemperEngineSink@@IAE_NKPAXG@Z 004036a0 f   AttemperEngineSink.obj
 0001:00002700       ?OnDBGetAwardScore@CAttemperEngineSink@@IAE_NKPAXG@Z 00403700 f   AttemperEngineSink.obj
 0001:00002810       ?OnDBGroupCommonInfo@CAttemperEngineSink@@IAE_NKPAXG@Z 00403810 f   AttemperEngineSink.obj
 0001:00002880       ?OnDBGroupConfig@CAttemperEngineSink@@IAE_NKPAXG@Z 00403880 f   AttemperEngineSink.obj
 0001:00002990       ?OnDBGroupDayDetailList@CAttemperEngineSink@@IAE_NKPAXG@Z 00403990 f   AttemperEngineSink.obj
 0001:000029f0       ?OnDBGroupItem@CAttemperEngineSink@@IAE_NKPAXG@Z 004039f0 f   AttemperEngineSink.obj
 0001:00002a50       ?OnDBGroupList@CAttemperEngineSink@@IAE_NKPAXG@Z 00403a50 f   AttemperEngineSink.obj
 0001:00002b30       ?OnDBGroupListFinish@CAttemperEngineSink@@IAE_NKPAXG@Z 00403b30 f   AttemperEngineSink.obj
 0001:00002c00       ?OnDBGroupMember@CAttemperEngineSink@@IAE_NKPAXG@Z 00403c00 f   AttemperEngineSink.obj
 0001:00002e30       ?OnDBGroupName@CAttemperEngineSink@@IAE_NKPAXG@Z 00403e30 f   AttemperEngineSink.obj
 0001:00002eb0       ?OnDBGroupOption@CAttemperEngineSink@@IAE_NKPAXG@Z 00403eb0 f   AttemperEngineSink.obj
 0001:00002fc0       ?OnDBGroupPrivacy@CAttemperEngineSink@@IAE_NKPAXG@Z 00403fc0 f   AttemperEngineSink.obj
 0001:00003020       ?OnDBGroupStatus@CAttemperEngineSink@@IAE_NKPAXG@Z 00404020 f   AttemperEngineSink.obj
 0001:00003080       ?OnDBInOutMode@CAttemperEngineSink@@IAE_NKPAXG@Z 00404080 f   AttemperEngineSink.obj
 0001:00003100       ?OnDBInsertMember@CAttemperEngineSink@@IAE_NKPAXG@Z 00404100 f   AttemperEngineSink.obj
 0001:000033f0       ?OnDBInvitationCode@CAttemperEngineSink@@IAE_NKPAXG@Z 004043f0 f   AttemperEngineSink.obj
 0001:00003450       ?OnDBLogonFailure@CAttemperEngineSink@@IAE_NKPAXG@Z 00404450 f   AttemperEngineSink.obj
 0001:00003520       ?OnDBLogonSuccess@CAttemperEngineSink@@IAE_NKPAXG@Z 00404520 f   AttemperEngineSink.obj
 0001:00003830       ?OnDBMedalMode@CAttemperEngineSink@@IAE_NKPAXG@Z 00404830 f   AttemperEngineSink.obj
 0001:00003a10       ?OnDBModifyConfig@CAttemperEngineSink@@IAE_NKPAXG@Z 00404a10 f   AttemperEngineSink.obj
 0001:00003b70       ?OnDBModifyInfo@CAttemperEngineSink@@IAE_NKPAXG@Z 00404b70 f   AttemperEngineSink.obj
 0001:00003d90       ?OnDBModifyRight@CAttemperEngineSink@@IAE_NKPAXG@Z 00404d90 f   AttemperEngineSink.obj
 0001:00003f80       ?OnDBOperateFailure@CAttemperEngineSink@@IAE_NKPAXG@Z 00404f80 f   AttemperEngineSink.obj
 0001:00004090       ?OnDBOperateSuccess@CAttemperEngineSink@@IAE_NKPAXG@Z 00405090 f   AttemperEngineSink.obj
 0001:00004180       ?OnDBPresentList@CAttemperEngineSink@@IAE_NKPAXG@Z 00405180 f   AttemperEngineSink.obj
 0001:000041e0       ?OnDBPresentSuccess@CAttemperEngineSink@@IAE_NKPAXG@Z 004051e0 f   AttemperEngineSink.obj
 0001:00004400       ?OnDBQueryCreateResult@CAttemperEngineSink@@IAE_NKPAXG@Z 00405400 f   AttemperEngineSink.obj
 0001:000044e0       ?OnDBQueryManagerRight@CAttemperEngineSink@@IAE_NKPAXG@Z 004054e0 f   AttemperEngineSink.obj
 0001:000045a0       ?OnDBQueryScore@CAttemperEngineSink@@IAE_NKPAXG@Z 004055a0 f   AttemperEngineSink.obj
 0001:00004600       ?OnDBRevenueList@CAttemperEngineSink@@IAE_NKPAXG@Z 00405600 f   AttemperEngineSink.obj
 0001:00004660       ?OnDBRollMsg@CAttemperEngineSink@@IAE_NKPAXG@Z 00405660 f   AttemperEngineSink.obj
 0001:00004810       ?OnDBRoomDetailInfo@CAttemperEngineSink@@IAE_NKPAXG@Z 00405810 f   AttemperEngineSink.obj
 0001:00004880       ?OnDBSetFlag@CAttemperEngineSink@@IAE_NKPAXG@Z 00405880 f   AttemperEngineSink.obj
 0001:00004970       ?OnDBSetManagerRight@CAttemperEngineSink@@IAE_NKPAXG@Z 00405970 f   AttemperEngineSink.obj
 0001:00004a70       ?OnDBTeamDayRecord@CAttemperEngineSink@@IAE_NKPAXG@Z 00405a70 f   AttemperEngineSink.obj
 0001:00004ad0       ?OnDBTeamerDayRecord@CAttemperEngineSink@@IAE_NKPAXG@Z 00405ad0 f   AttemperEngineSink.obj
 0001:00004b30       ?OnDBUpdateGroup@CAttemperEngineSink@@IAE_NKPAXG@Z 00405b30 f   AttemperEngineSink.obj
 0001:00004ce0       ?OnDBUpdateMember@CAttemperEngineSink@@IAE_NKPAXG@Z 00405ce0 f   AttemperEngineSink.obj
 0001:00004d40       ?OnDBUserDayDetailList@CAttemperEngineSink@@IAE_NKPAXG@Z 00405d40 f   AttemperEngineSink.obj
 0001:00004da0       ?OnDBWealthUpdate@CAttemperEngineSink@@IAE_NKPAXG@Z 00405da0 f   AttemperEngineSink.obj
 0001:00004e60       ?OnEventAttemperData@CAttemperEngineSink@@UAE_NGPAXG@Z 00405e60 f   AttemperEngineSink.obj
 0001:00004e60       ?OnDataBaseEngineControl@CDataBaseEngineSink@@UAE_NGPAXG@Z 00405e60 f   DataBaseEngineSink.obj
 0001:00004e70       ?OnEventControl@CAttemperEngineSink@@UAE_NGPAXG@Z 00405e70 f   AttemperEngineSink.obj
 0001:000050b0       ?OnEventDataBase@CAttemperEngineSink@@UAE_NGKPAXG@Z 004060b0 f   AttemperEngineSink.obj
 0001:00005c60       ?OnEventTCPNetworkBind@CAttemperEngineSink@@UAE_NKK@Z 00406c60 f   AttemperEngineSink.obj
 0001:00005d30       ?OnEventTCPNetworkRead@CAttemperEngineSink@@UAE_NUTCP_Command@@PAXGK@Z 00406d30 f   AttemperEngineSink.obj
 0001:00005ea0       ?OnEventTCPNetworkShut@CAttemperEngineSink@@UAE_NKKK@Z 00406ea0 f   AttemperEngineSink.obj
 0001:000060c0       ?OnEventTCPSocketLink@CAttemperEngineSink@@UAE_NGH@Z 004070c0 f   AttemperEngineSink.obj
 0001:00006410       ?OnEventTCPSocketRead@CAttemperEngineSink@@UAE_NGUTCP_Command@@PAXG@Z 00407410 f   AttemperEngineSink.obj
 0001:00006760       ?OnEventTCPSocketShut@CAttemperEngineSink@@UAE_NGE@Z 00407760 f   AttemperEngineSink.obj
 0001:00006960       ?OnEventTimer@CAttemperEngineSink@@UAE_NKI@Z 00407960 f   AttemperEngineSink.obj
 0001:00006d80       ?OnEventUserLogon@CAttemperEngineSink@@IAE_NPAVCLocalUserItem@@@Z 00407d80 f   AttemperEngineSink.obj
 0001:00007250       ?OnTCPNetworkMainBattleService@CAttemperEngineSink@@IAE_NGPAXGK@Z 00408250 f   AttemperEngineSink.obj
 0001:00007690       ?OnTCPNetworkMainGroupService@CAttemperEngineSink@@IAE_NGPAXGK@Z 00408690 f   AttemperEngineSink.obj
 0001:00007be0       ?OnTCPNetworkMainLogicService@CAttemperEngineSink@@IAE_NGPAXGK@Z 00408be0 f   AttemperEngineSink.obj
 0001:00009ef0       ?OnTCPSocketAIMainRegister@CAttemperEngineSink@@IAE_NGPAXG@Z 0040aef0 f   AttemperEngineSink.obj
 0001:0000a150       ?OnTCPSocketBattleMainBattleService@CAttemperEngineSink@@IAE_NGPAXG@Z 0040b150 f   AttemperEngineSink.obj
 0001:0000ae50       ?OnTCPSocketBattleMainRegister@CAttemperEngineSink@@IAE_NGPAXG@Z 0040be50 f   AttemperEngineSink.obj
 0001:0000aee0       ?OnTCPSocketClubInfo@CAttemperEngineSink@@IAE_NGPAXG@Z 0040bee0 f   AttemperEngineSink.obj
 0001:0000af50       ?OnTCPSocketMainRegister@CAttemperEngineSink@@IAE_NGPAXG@Z 0040bf50 f   AttemperEngineSink.obj
 0001:0000afe0       ?OnTCPSocketMainServiceInfo@CAttemperEngineSink@@IAE_NGPAXG@Z 0040bfe0 f   AttemperEngineSink.obj
 0001:0000b150       ?OnTCPSocketWebInfo@CAttemperEngineSink@@IAE_NGPAXG@Z 0040c150 f   AttemperEngineSink.obj
 0001:0000b1e0       ?QueryInterface@CAttemperEngineSink@@UAEPAXABU_GUID@@K@Z 0040c1e0 f   AttemperEngineSink.obj
 0001:0000b290       ?SendDataToGroupManager@CAttemperEngineSink@@IAE_NKGGPAXG@Z 0040c290 f   AttemperEngineSink.obj
 0001:0000b360       ?SendDataToGroupMember@CAttemperEngineSink@@IAE_NKGGPAXG_N@Z 0040c360 f   AttemperEngineSink.obj
 0001:0000b510       ?SendDataToGroupTeamer@CAttemperEngineSink@@IAE_NKKGGPAXG@Z 0040c510 f   AttemperEngineSink.obj
 0001:0000b5e0       ?SendGroupConfigToUser@CAttemperEngineSink@@IAE_NKK@Z 0040c5e0 f   AttemperEngineSink.obj
 0001:0000b730       ?SendGroupMemberToUser@CAttemperEngineSink@@IAE_NKK@Z 0040c730 f   AttemperEngineSink.obj
 0001:0000b8b0       ?SendLogData@CAttemperEngineSink@@IAAXPB_WZZ 0040c8b0 f   AttemperEngineSink.obj
 0001:0000be00       ?UpdateGroupExtraInfo@CAttemperEngineSink@@IAE_NKK@Z 0040ce00 f   AttemperEngineSink.obj
 0001:0000bfc0       ?WHCrashHandler@@YAJPAU_EXCEPTION_POINTERS@@@Z 0040cfc0 f   AttemperEngineSink.obj
 0001:0000c0a0       __swprintf                 0040d0a0 f i AttemperEngineSink.obj
 0001:0000c170       ??$_snprintf_s@$0CAA@@@YAHAAY0CAA@DIPBDZZ 0040d170 f i DataBaseEngineSink.obj
 0001:0000c1b0       ??0CDataBaseEngineSink@@QAE@XZ 0040d1b0 f   DataBaseEngineSink.obj
 0001:0000c260       ??1CDataBaseEngineSink@@UAE@XZ 0040d260 f   DataBaseEngineSink.obj
 0001:0000c300       ??1_variant_t@@QAE@XZ      0040d300 f i DataBaseEngineSink.obj
 0001:0000c310       ??_GCDataBaseEngineSink@@UAEPAXI@Z 0040d310 f i DataBaseEngineSink.obj
 0001:0000c310       ??_ECDataBaseEngineSink@@UAEPAXI@Z 0040d310 f i DataBaseEngineSink.obj
 0001:0000c340       ??_GCDataBaseHelper@@UAEPAXI@Z 0040d340 f i DataBaseEngineSink.obj
 0001:0000c340       ??_G?$CTempldateHelper@UIDataBase@@@@UAEPAXI@Z 0040d340 f i DataBaseEngineSink.obj
 0001:0000c340       ??_ECDataBaseHelper@@UAEPAXI@Z 0040d340 f i DataBaseEngineSink.obj
 0001:0000c340       ??_E?$CTempldateHelper@UIDataBase@@@@UAEPAXI@Z 0040d340 f i DataBaseEngineSink.obj
 0001:0000c3e0       ?ExtractGroupID@CDataBaseEngineSink@@IAEGPB_WAAVCDWordArray@@@Z 0040d3e0 f   DataBaseEngineSink.obj
 0001:0000c500       ?OnDataBaseEngineConclude@CDataBaseEngineSink@@UAE_NPAUIUnknownEx@@@Z 0040d500 f   DataBaseEngineSink.obj
 0001:0000c580       ?OnDataBaseEngineRequest@CDataBaseEngineSink@@UAE_NGKPAXG@Z 0040d580 f   DataBaseEngineSink.obj
 0001:0000cac0       ?OnDataBaseEngineStart@CDataBaseEngineSink@@UAE_NPAUIUnknownEx@@@Z 0040dac0 f   DataBaseEngineSink.obj
 0001:0000cbb0       ?OnDataBaseEngineTimer@CDataBaseEngineSink@@UAE_NKI@Z 0040dbb0 f   DataBaseEngineSink.obj
 0001:0000cbc0       ?OnRequestAddTeamer@CDataBaseEngineSink@@IAE_NKPAXG@Z 0040dbc0 f   DataBaseEngineSink.obj
 0001:0000cf10       ?OnRequestAppendConfig@CDataBaseEngineSink@@IAE_NKPAXG@Z 0040df10 f   DataBaseEngineSink.obj
 0001:0000d3e0       ?OnRequestApplyDelete@CDataBaseEngineSink@@IAE_NKPAXG@Z 0040e3e0 f   DataBaseEngineSink.obj
 0001:0000d6a0       ?OnRequestApplyRequest@CDataBaseEngineSink@@IAE_NKPAXG@Z 0040e6a0 f   DataBaseEngineSink.obj
 0001:0000ddc0       ?OnRequestApplyRespond@CDataBaseEngineSink@@IAE_NKPAXG@Z 0040edc0 f   DataBaseEngineSink.obj
 0001:0000e4b0       ?OnRequestBlindCode@CDataBaseEngineSink@@IAE_NKPAXG@Z 0040f4b0 f   DataBaseEngineSink.obj
 0001:0000e6d0       ?OnRequestCaptainList@CDataBaseEngineSink@@IAE_NKPAXG@Z 0040f6d0 f   DataBaseEngineSink.obj
 0001:0000eab0       ?OnRequestCheckNewUser@CDataBaseEngineSink@@IAE_NKPAXG@Z 0040fab0 f   DataBaseEngineSink.obj
 0001:0000f040       ?OnRequestClearMedal@CDataBaseEngineSink@@IAE_NKPAXG@Z 00410040 f   DataBaseEngineSink.obj
 0001:0000f140       ?OnRequestCreateGroup@CDataBaseEngineSink@@IAE_NKPAXG@Z 00410140 f   DataBaseEngineSink.obj
 0001:0000f860       ?OnRequestDeleteConfig@CDataBaseEngineSink@@IAE_NKPAXG@Z 00410860 f   DataBaseEngineSink.obj
 0001:0000fad0       ?OnRequestDeleteGroup@CDataBaseEngineSink@@IAE_NKPAXG@Z 00410ad0 f   DataBaseEngineSink.obj
 0001:0000fdb0       ?OnRequestDeleteMember@CDataBaseEngineSink@@IAE_NKPAXG@Z 00410db0 f   DataBaseEngineSink.obj
 0001:00010220       ?OnRequestGetAwardScore@CDataBaseEngineSink@@IAE_NKPAXG@Z 00411220 f   DataBaseEngineSink.obj
 0001:00010490       ?OnRequestGroupDayDetail@CDataBaseEngineSink@@IAE_NKPAXG@Z 00411490 f   DataBaseEngineSink.obj
 0001:00010820       ?OnRequestInvitationCode@CDataBaseEngineSink@@IAE_NKPAXG@Z 00411820 f   DataBaseEngineSink.obj
 0001:00010a50       ?OnRequestLoadForbidWords@CDataBaseEngineSink@@IAE_NKPAXG@Z 00411a50 f   DataBaseEngineSink.obj
 0001:00010c10       ?OnRequestLoadGroupConfig@CDataBaseEngineSink@@IAE_NKPAXG@Z 00411c10 f   DataBaseEngineSink.obj
 0001:00010ff0       ?OnRequestLoadGroupItem@CDataBaseEngineSink@@IAE_NKPAXG@Z 00411ff0 f   DataBaseEngineSink.obj
 0001:00011250       ?OnRequestLoadGroupList@CDataBaseEngineSink@@IAE_NKPAXG@Z 00412250 f   DataBaseEngineSink.obj
 0001:00011640       ?OnRequestLoadGroupMember@CDataBaseEngineSink@@IAE_NKPAXG@Z 00412640 f   DataBaseEngineSink.obj
 0001:000119e0       ?OnRequestLoadSingleGroup@CDataBaseEngineSink@@IAE_NKPAXG@Z 004129e0 f   DataBaseEngineSink.obj
 0001:00011e00       ?OnRequestLogonServer@CDataBaseEngineSink@@IAE_NKPAXG@Z 00412e00 f   DataBaseEngineSink.obj
 0001:000123f0       ?OnRequestModifyConfig@CDataBaseEngineSink@@IAE_NKPAXG@Z 004133f0 f   DataBaseEngineSink.obj
 0001:00012860       ?OnRequestModifyGroupName@CDataBaseEngineSink@@IAE_NKPAXG@Z 00413860 f   DataBaseEngineSink.obj
 0001:00012a80       ?OnRequestModifyInfo@CDataBaseEngineSink@@IAE_NKPAXG@Z 00413a80 f   DataBaseEngineSink.obj
 0001:00012d90       ?OnRequestModifyRight@CDataBaseEngineSink@@IAE_NKPAXG@Z 00413d90 f   DataBaseEngineSink.obj
 0001:00013090       ?OnRequestOpenBox@CDataBaseEngineSink@@IAE_NKPAXG@Z 00414090 f   DataBaseEngineSink.obj
 0001:00013470       ?OnRequestPresentScore@CDataBaseEngineSink@@IAE_NKPAXG@Z 00414470 f   DataBaseEngineSink.obj
 0001:00013890       ?OnRequestQueryBattle@CDataBaseEngineSink@@IAE_NKPAXG@Z 00414890 f   DataBaseEngineSink.obj
 0001:00013bb0       ?OnRequestQueryCreate@CDataBaseEngineSink@@IAE_NKPAXG@Z 00414bb0 f   DataBaseEngineSink.obj
 0001:00013dd0       ?OnRequestQueryDayDetail@CDataBaseEngineSink@@IAE_NKPAXG@Z 00414dd0 f   DataBaseEngineSink.obj
 0001:00014290       ?OnRequestQueryDayRecord@CDataBaseEngineSink@@IAE_NKPAXG@Z 00415290 f   DataBaseEngineSink.obj
 0001:000145e0       ?OnRequestQueryMedalMode@CDataBaseEngineSink@@IAE_NKPAXG@Z 004155e0 f   DataBaseEngineSink.obj
 0001:000147d0       ?OnRequestQueryPresent@CDataBaseEngineSink@@IAE_NKPAXG@Z 004157d0 f   DataBaseEngineSink.obj
 0001:00014b90       ?OnRequestQueryRevenue@CDataBaseEngineSink@@IAE_NKPAXG@Z 00415b90 f   DataBaseEngineSink.obj
 0001:00014e80       ?OnRequestQueryScore@CDataBaseEngineSink@@IAE_NKPAXG@Z 00415e80 f   DataBaseEngineSink.obj
 0001:000150b0       ?OnRequestQueryTotalBattle@CDataBaseEngineSink@@IAE_NKPAXG@Z 004160b0 f   DataBaseEngineSink.obj
 0001:000152f0       ?OnRequestRightManagement@CDataBaseEngineSink@@IAE_NKPAXG@Z 004162f0 f   DataBaseEngineSink.obj
 0001:00015600       ?OnRequestRoomDetail@CDataBaseEngineSink@@IAE_NKPAXG@Z 00416600 f   DataBaseEngineSink.obj
 0001:00015af0       ?OnRequestSetBigWinner@CDataBaseEngineSink@@IAE_NKPAXG@Z 00416af0 f   DataBaseEngineSink.obj
 0001:00015dc0       ?OnRequestSetCaptainPoint@CDataBaseEngineSink@@IAE_NKPAXG@Z 00416dc0 f   DataBaseEngineSink.obj
 0001:00015fd0       ?OnRequestSetFavoriteConfig@CDataBaseEngineSink@@IAE_NKPAXG@Z 00416fd0 f   DataBaseEngineSink.obj
 0001:000161b0       ?OnRequestSetFlag@CDataBaseEngineSink@@IAE_NKPAXG@Z 004171b0 f   DataBaseEngineSink.obj
 0001:00016420       ?OnRequestSetFreeTableLimit@CDataBaseEngineSink@@IAE_NKPAXG@Z 00417420 f   DataBaseEngineSink.obj
 0001:000166f0       ?OnRequestSetGroupStatus@CDataBaseEngineSink@@IAE_NKPAXG@Z 004176f0 f   DataBaseEngineSink.obj
 0001:00016970       ?OnRequestSetInOut@CDataBaseEngineSink@@IAE_NKPAXG@Z 00417970 f   DataBaseEngineSink.obj
 0001:00016c80       ?OnRequestSetMedal@CDataBaseEngineSink@@IAE_NKPAXG@Z 00417c80 f   DataBaseEngineSink.obj
 0001:00016fc0       ?OnRequestSetPrivacy@CDataBaseEngineSink@@IAE_NKPAXG@Z 00417fc0 f   DataBaseEngineSink.obj
 0001:000171b0       ?OnRequestSetRollMSg@CDataBaseEngineSink@@IAE_NKPAXG@Z 004181b0 f   DataBaseEngineSink.obj
 0001:00017490       ?OnRequestSettleBattle@CDataBaseEngineSink@@IAE_NKPAXG@Z 00418490 f   DataBaseEngineSink.obj
 0001:00017750       ?OnRequestTeamerDayRecord@CDataBaseEngineSink@@IAE_NKPAXG@Z 00418750 f   DataBaseEngineSink.obj
 0001:00017ac0       ?OnRequestUpdateGroup@CDataBaseEngineSink@@IAE_NKPAXG@Z 00418ac0 f   DataBaseEngineSink.obj
 0001:00018160       ?OnRequestUpdateMember@CDataBaseEngineSink@@IAE_NKPAXG@Z 00419160 f   DataBaseEngineSink.obj
 0001:000182f0       ?OnRequestUpdateOnlineStatus@CDataBaseEngineSink@@IAE_NKPAXG@Z 004192f0 f   DataBaseEngineSink.obj
 0001:00018450       ?QueryInterface@CDataBaseEngineSink@@UAEPAXABU_GUID@@K@Z 00419450 f   DataBaseEngineSink.obj
 0001:00018500       ?TraceDatabaseException@CDataBaseEngineSink@@IAEXPAD0HPAUIDataBaseException@@@Z 00419500 f   DataBaseEngineSink.obj
 0001:00018650       ??0CGroupInfoManager@@QAE@XZ 00419650 f   GroupInfoManager.obj
 0001:00018750       ??0CGroupItem@@IAE@XZ      00419750 f   GroupInfoManager.obj
 0001:00018890       ??1?$CMap@KKPAVCGroupItem@@PAV1@@@UAE@XZ 00419890 f i GroupInfoManager.obj
 0001:000188d0       ??1?$CWHArray@PAVCGroupItem@@ABQAV1@@@UAE@XZ 004198d0 f i GroupInfoManager.obj
 0001:00018900       ??1CGroupInfoManager@@UAE@XZ 00419900 f   GroupInfoManager.obj
 0001:00018ab0       ??1CGroupItem@@MAE@XZ      00419ab0 f   GroupInfoManager.obj
 0001:00018bc0       ??A?$CMap@KKPAVCGroupItem@@PAV1@@@QAEAAPAVCGroupItem@@K@Z 00419bc0 f i GroupInfoManager.obj
 0001:00018bc0       ??A?$CMap@KKPAVCServerUserItem@@PAV1@@@QAEAAPAVCServerUserItem@@K@Z 00419bc0 f i ServerUserManager.obj
 0001:00018bc0       ??A?$CMap@KKPAV?$CWHArray@KABK@@PAV1@@@QAEAAPAV?$CWHArray@KABK@@K@Z 00419bc0 f i ServiceUnits.obj
 0001:00018c70       ??A?$CMap@KKUtagClubTableInfo@@AAU1@@@QAEAAUtagClubTableInfo@@K@Z 00419c70 f i GroupInfoManager.obj
 0001:00018d20       ??_E?$CMap@KKPAVCGroupItem@@PAV1@@@UAEPAXI@Z 00419d20 f i GroupInfoManager.obj
 0001:00018d20       ??_G?$CMap@KKPAVCGroupItem@@PAV1@@@UAEPAXI@Z 00419d20 f i GroupInfoManager.obj
 0001:00018da0       ??_G?$CMap@KKUtagClubTableInfo@@AAU1@@@UAEPAXI@Z 00419da0 f i GroupInfoManager.obj
 0001:00018da0       ??_E?$CMap@KKUtagClubTableInfo@@AAU1@@@UAEPAXI@Z 00419da0 f i GroupInfoManager.obj
 0001:00018e20       ??_G?$CWHArray@PAVCGroupItem@@ABQAV1@@@UAEPAXI@Z 00419e20 f i GroupInfoManager.obj
 0001:00018e20       ??_E?$CWHArray@PAVCGroupItem@@ABQAV1@@@UAEPAXI@Z 00419e20 f i GroupInfoManager.obj
 0001:00018e60       ??_G?$CWHArray@UtagClubRollMsg@@ABU1@@@UAEPAXI@Z 00419e60 f i GroupInfoManager.obj
 0001:00018e60       ??_E?$CWHArray@UtagClubRollMsg@@ABU1@@@UAEPAXI@Z 00419e60 f i GroupInfoManager.obj
 0001:00018ea0       ??_G?$CWHArray@UtagGroupConfigInfo@@ABU1@@@UAEPAXI@Z 00419ea0 f i GroupInfoManager.obj
 0001:00018ea0       ??_E?$CWHArray@UtagGroupConfigInfo@@ABU1@@@UAEPAXI@Z 00419ea0 f i GroupInfoManager.obj
 0001:00018ee0       ??_G?$CWHArray@UtagIMGroupMember@@ABU1@@@UAEPAXI@Z 00419ee0 f i GroupInfoManager.obj
 0001:00018ee0       ??_E?$CWHArray@UtagIMGroupMember@@ABU1@@@UAEPAXI@Z 00419ee0 f i GroupInfoManager.obj
 0001:00018f20       ??_ECGroupInfoManager@@UAEPAXI@Z 00419f20 f i GroupInfoManager.obj
 0001:00018f20       ??_GCGroupInfoManager@@UAEPAXI@Z 00419f20 f i GroupInfoManager.obj
 0001:00018f50       ??_ECGroupItem@@MAEPAXI@Z  00419f50 f i GroupInfoManager.obj
 0001:00018f50       ??_GCGroupItem@@MAEPAXI@Z  00419f50 f i GroupInfoManager.obj
 0001:00018f80       ?ActiveGroupItem@CGroupInfoManager@@UAE_NAAUtagIMGroupItem@@@Z 00419f80 f   GroupInfoManager.obj
 0001:000190b0       ?AddConfig@CGroupItem@@UAE_NAAUtagGroupConfigInfo@@@Z 0041a0b0 f   GroupInfoManager.obj
 0001:00019120       ?AddMember@CGroupItem@@UAE_NAAUtagIMGroupMember@@@Z 0041a120 f   GroupInfoManager.obj
 0001:00019160       ?AddPersonalTable@CGroupItem@@UAE_NKUtagClubTableInfo@@@Z 0041a160 f   GroupInfoManager.obj
 0001:000191b0       ?AddRollMsg@CGroupItem@@UAEXAAUtagClubRollMsg@@@Z 0041a1b0 f   GroupInfoManager.obj
 0001:000191f0       ?AllocMemory@?$CWHArray@UtagClubRollMsg@@ABU1@@@QAEXH@Z 0041a1f0 f i GroupInfoManager.obj
 0001:00019280       ?AllocMemory@?$CWHArray@UtagGroupConfigInfo@@ABU1@@@QAEXH@Z 0041a280 f i GroupInfoManager.obj
 0001:00019310       ?AllocMemory@?$CWHArray@UtagIMGroupMember@@ABU1@@@QAEXH@Z 0041a310 f i GroupInfoManager.obj
 0001:000193a0       ?CheckValid@CGroupInfoManager@@UAEHXZ 0041a3a0 f   GroupInfoManager.obj
 0001:000193b0       ?EnumConfig@CGroupItem@@UAEPAUtagGroupConfigInfo@@H@Z 0041a3b0 f   GroupInfoManager.obj
 0001:000193f0       ?EnumGroupItem@CGroupInfoManager@@UAEPAVCGroupItem@@AAPAU__POSITION@@@Z 0041a3f0 f   GroupInfoManager.obj
 0001:00019440       ?EnumMember@CGroupItem@@UAEPAUtagIMGroupMember@@H@Z 0041a440 f   GroupInfoManager.obj
 0001:00019480       ?EnumTable@CGroupItem@@UAE?AUtagClubTableInfo@@AAPAU__POSITION@@@Z 0041a480 f   GroupInfoManager.obj
 0001:000194d0       ?GetCMapClubTableInfo@CGroupItem@@UAEPAV?$CMap@KKUtagClubTableInfo@@AAU1@@@XZ 0041a4d0 f i GroupInfoManager.obj
 0001:000194e0       ?GetConfigCount@CGroupItem@@UAEKXZ 0041a4e0 f i GroupInfoManager.obj
 0001:000194f0       ?GetConfigID@CGroupItem@@UAEKK@Z 0041a4f0 f   GroupInfoManager.obj
 0001:00019540       ?GetGroupBattleRule@CGroupItem@@UAEPAUtagIMGroupBattleRule@@XZ 0041a540 f i GroupInfoManager.obj
 0001:00019550       ?GetGroupCreaterID@CGroupItem@@UAEKXZ 0041a550 f i GroupInfoManager.obj
 0001:00019560       ?GetGroupID@CGroupItem@@UAEKXZ 0041a560 f i GroupInfoManager.obj
 0001:00019570       ?GetGroupWealth@CGroupItem@@UAEPAUtagIMGroupWealth@@XZ 0041a570 f i GroupInfoManager.obj
 0001:00019570       ?GetGroupItem@CGroupItem@@UAEPAUtagIMGroupItem@@XZ 0041a570 f i GroupInfoManager.obj
 0001:00019580       ?GetGroupProperty@CGroupItem@@UAEPAUtagIMGroupProperty@@XZ 0041a580 f i GroupInfoManager.obj
 0001:00019590       ?GetNextAssoc@?$CMap@KKPAVCGroupItem@@PAV1@@@QBEXAAPAU__POSITION@@AAKAAPAVCGroupItem@@@Z 0041a590 f i GroupInfoManager.obj
 0001:00019620       ?GetNotice@CGroupItem@@UAEPA_WXZ 0041a620 f i GroupInfoManager.obj
 0001:00019630       ?GetNullTableCount@CGroupItem@@UAEHK@Z 0041a630 f   GroupInfoManager.obj
 0001:000196f0       ?GetRecommendGroup@CGroupInfoManager@@UAEGKGPAUtagIMGroupProperty@@@Z 0041a6f0 f   GroupInfoManager.obj
 0001:00019850       ?GetTableInfo@CGroupItem@@UAE_NKAAUtagClubTableInfo@@@Z 0041a850 f   GroupInfoManager.obj
 0001:000198a0       ?IsUserInGame@CGroupItem@@UAE_NKAAUtagClubTableInfo@@_N@Z 0041a8a0 f   GroupInfoManager.obj
 0001:000198e0       ?ModifyConfig@CGroupItem@@UAE_NAAUtagGroupConfigInfo@@@Z 0041a8e0 f   GroupInfoManager.obj
 0001:000198f0       ?NewAssoc@?$CMap@KKUtagClubTableInfo@@AAU1@@@IAEPAVCAssoc@1@K@Z 0041a8f0 f i GroupInfoManager.obj
 0001:000199b0       ?RemoveConfig@CGroupItem@@UAE_NH@Z 0041a9b0 f   GroupInfoManager.obj
 0001:00019a20       ?RemoveConfig@CGroupItem@@UAE_NK@Z 0041aa20 f   GroupInfoManager.obj
 0001:00019ab0       ?RemoveGroupItem@CGroupInfoManager@@UAE_NK@Z 0041aab0 f   GroupInfoManager.obj
 0001:00019b10       ?RemoveGroupItem@CGroupInfoManager@@UAE_NXZ 0041ab10 f   GroupInfoManager.obj
 0001:00019bb0       ?RemoveKey@?$CMap@KKPAVCGroupItem@@PAV1@@@QAEHK@Z 0041abb0 f i GroupInfoManager.obj
 0001:00019bb0       ?RemoveKey@?$CMap@KKPAVCServerUserItem@@PAV1@@@QAEHK@Z 0041abb0 f i ServerUserManager.obj
 0001:00019c40       ?RemoveKey@?$CMap@KKUtagClubTableInfo@@AAU1@@@QAEHK@Z 0041ac40 f i GroupInfoManager.obj
 0001:00019ce0       ?RemoveMember@CGroupItem@@UAE_NK@Z 0041ace0 f   GroupInfoManager.obj
 0001:00019d70       ?RemovePersonalTable@CGroupItem@@UAE_NG@Z 0041ad70 f   GroupInfoManager.obj
 0001:00019e50       ?RemovePersonalTable@CGroupItem@@UAE_NK@Z 0041ae50 f   GroupInfoManager.obj
 0001:00019e70       ?ResetGroupItem@CGroupItem@@MAEXXZ 0041ae70 f   GroupInfoManager.obj
 0001:00019ec0       ?SearchConfig@CGroupItem@@UAEPAUtagGroupConfigInfo@@K@Z 0041aec0 f   GroupInfoManager.obj
 0001:00019f20       ?SearchUserItem@CServerUserManager@@UAEPAVCServerUserItem@@K@Z 0041af20 f   ServerUserManager.obj
 0001:00019f20       ?SearchGroupItem@CGroupInfoManager@@UAEPAVCGroupItem@@K@Z 0041af20 f   GroupInfoManager.obj
 0001:00019f50       ?SearchMember@CGroupItem@@UAEPAUtagIMGroupMember@@K@Z 0041af50 f   GroupInfoManager.obj
 0001:00019fb0       ?SearchRollMsg@CGroupItem@@UAEPAUtagClubRollMsg@@K@Z 0041afb0 f   GroupInfoManager.obj
 0001:0001a010       ?Serialize@?$CMap@KKPAVCServerUserItem@@PAV1@@@UAEXAAVCArchive@@@Z 0041b010 f i ServerUserManager.obj
 0001:0001a010       ?Serialize@?$CMap@KKPAV?$CWHArray@KABK@@PAV1@@@UAEXAAVCArchive@@@Z 0041b010 f i ServiceUnits.obj
 0001:0001a010       ?Serialize@?$CMap@KKPAVCGroupItem@@PAV1@@@UAEXAAVCArchive@@@Z 0041b010 f i GroupInfoManager.obj
 0001:0001a320       ?Serialize@?$CMap@KKUtagClubTableInfo@@AAU1@@@UAEXAAVCArchive@@@Z 0041b320 f i GroupInfoManager.obj
 0001:0001a730       ?SetAtGrow@?$CWHArray@UtagClubRollMsg@@ABU1@@@QAEXHABUtagClubRollMsg@@@Z 0041b730 f i GroupInfoManager.obj
 0001:0001a7a0       ?SetAtGrow@?$CWHArray@UtagIMGroupMember@@ABU1@@@QAEXHABUtagIMGroupMember@@@Z 0041b7a0 f i GroupInfoManager.obj
 0001:0001a810       ?SetNotice@CGroupItem@@UAEXPA_W@Z 0041b810 f i GroupInfoManager.obj
 0001:0001a820       ?SetSize@?$CWHArray@UtagGroupConfigInfo@@ABU1@@@QAEXH@Z 0041b820 f i GroupInfoManager.obj
 0001:0001a8c0       ?UpdateTableUserInfo@CGroupItem@@UAE_NPAUCMD_CS_S_UpdateTable@@@Z 0041b8c0 f   GroupInfoManager.obj
 0001:0001a930       ??0CInitParameter@@QAE@XZ  0041b930 f   InitParameter.obj
 0001:0001a950       ??1CInitParameter@@UAE@XZ  0041b950 f   InitParameter.obj
 0001:0001a960       ??_ECInitParameter@@UAEPAXI@Z 0041b960 f i InitParameter.obj
 0001:0001a960       ??_GCInitParameter@@UAEPAXI@Z 0041b960 f i InitParameter.obj
 0001:0001a990       ?InitParameter@CInitParameter@@QAEXXZ 0041b990 f   InitParameter.obj
 0001:0001aa50       ?LoadInitParameter@CInitParameter@@QAEXXZ 0041ba50 f   InitParameter.obj
 0001:0001adb0       ??0CServerListManager@NServerListManager@@QAE@XZ 0041bdb0 f   ServerListManager.obj
 0001:0001aeb0       ??1?$CMap@GGPAVCGameServerItem@NServerListManager@@AAPAV12@@@UAE@XZ 0041beb0 f i ServerListManager.obj
 0001:0001aef0       ??1?$CWHArray@PAVCGameServerItem@NServerListManager@@ABQAV12@@@UAE@XZ 0041bef0 f i ServerListManager.obj
 0001:0001af20       ??1CServerListManager@NServerListManager@@UAE@XZ 0041bf20 f   ServerListManager.obj
 0001:0001b0d0       ??A?$CMap@GGPAVCGameServerItem@NServerListManager@@AAPAV12@@@QAEAAPAVCGameServerItem@NServerListManager@@G@Z 0041c0d0 f i ServerListManager.obj
 0001:0001b180       ??_E?$CMap@GGPAVCGameServerItem@NServerListManager@@AAPAV12@@@UAEPAXI@Z 0041c180 f i ServerListManager.obj
 0001:0001b180       ??_G?$CMap@GGPAVCGameServerItem@NServerListManager@@AAPAV12@@@UAEPAXI@Z 0041c180 f i ServerListManager.obj
 0001:0001b200       ??_E?$CWHArray@PAVCGameServerItem@NServerListManager@@ABQAV12@@@UAEPAXI@Z 0041c200 f i ServerListManager.obj
 0001:0001b200       ??_G?$CWHArray@PAVCGameServerItem@NServerListManager@@ABQAV12@@@UAEPAXI@Z 0041c200 f i ServerListManager.obj
 0001:0001b240       ??_GCServerListManager@NServerListManager@@UAEPAXI@Z 0041c240 f i ServerListManager.obj
 0001:0001b240       ??_ECServerListManager@NServerListManager@@UAEPAXI@Z 0041c240 f i ServerListManager.obj
 0001:0001b270       ?Add@?$CWHArray@PAVCGroupItem@@ABQAV1@@@QAEHABQAVCGroupItem@@@Z 0041c270 f i GroupInfoManager.obj
 0001:0001b270       ?Add@?$CWHArray@PAVCGameServerItem@NServerListManager@@ABQAV12@@@QAEHABQAVCGameServerItem@NServerListManager@@@Z 0041c270 f i ServerListManager.obj
 0001:0001b2d0       ?AllocMemory@?$CWHArray@PAVCServerUserItem@@ABQAV1@@@QAEXH@Z 0041c2d0 f i ServerUserManager.obj
 0001:0001b2d0       ?AllocMemory@?$CWHArray@PAVCGroupItem@@ABQAV1@@@QAEXH@Z 0041c2d0 f i GroupInfoManager.obj
 0001:0001b2d0       ?AllocMemory@?$CWHArray@PAVCGameServerItem@NServerListManager@@ABQAV12@@@QAEXH@Z 0041c2d0 f i ServerListManager.obj
 0001:0001b360       ?CleanServerItem@CServerListManager@NServerListManager@@QAEXXZ 0041c360 f   ServerListManager.obj
 0001:0001b420       ?DeleteGameServer@CServerListManager@NServerListManager@@QAE_NG@Z 0041c420 f   ServerListManager.obj
 0001:0001b470       ?DisuseServerItem@CServerListManager@NServerListManager@@QAEXXZ 0041c470 f   ServerListManager.obj
 0001:0001b510       ?GetAssocAt@?$CMap@GGPAVCGameServerItem@NServerListManager@@AAPAV12@@@IBEPAVCAssoc@1@GAAI0@Z 0041c510 f i ServerListManager.obj
 0001:0001b580       ?GetNextAssoc@?$CMap@GGPAVCGameServerItem@NServerListManager@@AAPAV12@@@QBEXAAPAU__POSITION@@AAGAAPAVCGameServerItem@NServerListManager@@@Z 0041c580 f i ServerListManager.obj
 0001:0001b610       ?InsertGameServer@CServerListManager@NServerListManager@@QAE_NPAUtagGameServer@@@Z 0041c610 f   ServerListManager.obj
 0001:0001b770       ?IsGroupPersonalMaxChairGame@CServerListManager@NServerListManager@@QAE_NG@Z 0041c770 f   ServerListManager.obj
 0001:0001b7f0       ?NewAssoc@?$CMap@GGPAVCGameServerItem@NServerListManager@@AAPAV12@@@IAEPAVCAssoc@1@G@Z 0041c7f0 f i ServerListManager.obj
 0001:0001b870       ?RemoveKey@?$CMap@GGPAVCGameServerItem@NServerListManager@@AAPAV12@@@QAEHG@Z 0041c870 f i ServerListManager.obj
 0001:0001b910       ?ResetServerList@CServerListManager@NServerListManager@@QAEXXZ 0041c910 f   ServerListManager.obj
 0001:0001b920       ?SearchGameServer@CServerListManager@NServerListManager@@QAEPAVCGameServerItem@2@G@Z 0041c920 f   ServerListManager.obj
 0001:0001b950       ?Serialize@?$CMap@GGPAVCGameServerItem@NServerListManager@@AAPAV12@@@UAEXAAVCArchive@@@Z 0041c950 f i ServerListManager.obj
 0001:0001bc50       ??0CLocalUserItem@@IAE@XZ  0041cc50 f   ServerUserManager.obj
 0001:0001bcf0       ??0CServerUserManager@@QAE@XZ 0041ccf0 f   ServerUserManager.obj
 0001:0001be10       ??1?$CMap@KKPAVCServerUserItem@@PAV1@@@UAE@XZ 0041ce10 f i ServerUserManager.obj
 0001:0001be50       ??1?$CWHArray@PAVCServerUserItem@@ABQAV1@@@UAE@XZ 0041ce50 f i ServerUserManager.obj
 0001:0001be80       ??1CServerUserItem@@MAE@XZ 0041ce80 f   ServerUserManager.obj
 0001:0001be90       ??1CServerUserManager@@UAE@XZ 0041ce90 f   ServerUserManager.obj
 0001:0001c060       ??_G?$CMap@KKPAVCServerUserItem@@PAV1@@@UAEPAXI@Z 0041d060 f i ServerUserManager.obj
 0001:0001c060       ??_E?$CMap@KKPAVCServerUserItem@@PAV1@@@UAEPAXI@Z 0041d060 f i ServerUserManager.obj
 0001:0001c0e0       ??_G?$CWHArray@PAVCServerUserItem@@ABQAV1@@@UAEPAXI@Z 0041d0e0 f i ServerUserManager.obj
 0001:0001c0e0       ??_E?$CWHArray@PAVCServerUserItem@@ABQAV1@@@UAEPAXI@Z 0041d0e0 f i ServerUserManager.obj
 0001:0001c120       ??_ECLocalUserItem@@MAEPAXI@Z 0041d120 f i ServerUserManager.obj
 0001:0001c120       ??_GCLocalUserItem@@MAEPAXI@Z 0041d120 f i ServerUserManager.obj
 0001:0001c160       ??_ECRemoteUserItem@@MAEPAXI@Z 0041d160 f i ServerUserManager.obj
 0001:0001c160       ??_GCServerUserItem@@MAEPAXI@Z 0041d160 f i ServerUserManager.obj
 0001:0001c160       ??_GCRemoteUserItem@@MAEPAXI@Z 0041d160 f i ServerUserManager.obj
 0001:0001c160       ??_ECServerUserItem@@MAEPAXI@Z 0041d160 f i ServerUserManager.obj
 0001:0001c190       ??_ECServerUserManager@@UAEPAXI@Z 0041d190 f i ServerUserManager.obj
 0001:0001c190       ??_GCServerUserManager@@UAEPAXI@Z 0041d190 f i ServerUserManager.obj
 0001:0001c1c0       ?Append@?$CWHArray@PAVCServerUserItem@@ABQAV1@@@QAEHABV1@@Z 0041d1c0 f i ServerUserManager.obj
 0001:0001c220       ?ContrastLogonPass@CLocalUserItem@@UAE_NPB_W@Z 0041d220 f   ServerUserManager.obj
 0001:0001c270       ?ContrastNickName@CLocalUserItem@@UAE_NPB_W@Z 0041d270 f   ServerUserManager.obj
 0001:0001c2c0       ?DeleteUserItem@CServerUserManager@@UAE_NK@Z 0041d2c0 f   ServerUserManager.obj
 0001:0001c3a0       ?DeleteUserItem@CServerUserManager@@UAE_NXZ 0041d3a0 f   ServerUserManager.obj
 0001:0001c3e0       ?EnumUserItem@CServerUserManager@@UAEPAVCServerUserItem@@G@Z 0041d3e0 f   ServerUserManager.obj
 0001:0001c400       ?GetActiveGroupID@CServerUserItem@@UAEKXZ 0041d400 f i ServerUserManager.obj
 0001:0001c410       ?GetGameID@CServerUserItem@@UAEKXZ 0041d410 f i ServerUserManager.obj
 0001:0001c410       ?GetGroupItemCount@CGroupInfoManager@@UAEKXZ 0041d410 f i GroupInfoManager.obj
 0001:0001c420       ?GetGender@CServerUserItem@@UAEEXZ 0041d420 f i ServerUserManager.obj
 0001:0001c430       ?GetGroupCount@CLocalUserItem@@UAEGXZ 0041d430 f i ServerUserManager.obj
 0001:0001c440       ?GetGroupData@CLocalUserItem@@UAEPAKXZ 0041d440 f i ServerUserManager.obj
 0001:0001c450       ?GetLogonTime@CLocalUserItem@@UAEKXZ 0041d450 f i ServerUserManager.obj
 0001:0001c460       ?GetNickName@CServerUserItem@@UAEPB_WXZ 0041d460 f i ServerUserManager.obj
 0001:0001c470       ?GetSocketID@CServerUserItem@@UAEKXZ 0041d470 f i ServerUserManager.obj
 0001:0001c480       ?GetUserID@CServerUserItem@@UAEKXZ 0041d480 f i ServerUserManager.obj
 0001:0001c490       ?GetUserInfo@CServerUserItem@@UAEPAUtagIMUserInfo@@XZ 0041d490 f i ServerUserManager.obj
 0001:0001c4a0       ?GetUserItemCount@CServerUserManager@@UAEKXZ 0041d4a0 f i ServerUserManager.obj
 0001:0001c4b0       ?GetUserStatus@CServerUserItem@@UAEEXZ 0041d4b0 f i ServerUserManager.obj
 0001:0001c4c0       ?InsertGroupID@CLocalUserItem@@UAE_NK@Z 0041d4c0 f   ServerUserManager.obj
 0001:0001c510       ?InsertLocalUserItem@CServerUserManager@@UAEPAVCLocalUserItem@@AAUtagIMUserInfo@@PB_W@Z 0041d510 f   ServerUserManager.obj
 0001:0001c6b0       ?InsertRemoteUserItem@CServerUserManager@@UAEPAVCRemoteUserItem@@AAUtagIMUserInfo@@@Z 0041d6b0 f   ServerUserManager.obj
 0001:0001c850       ?ModifyLogonPassword@CLocalUserItem@@QAEXPB_W@Z 0041d850 f   ServerUserManager.obj
 0001:0001c870       ?RemoveAll@?$CMap@KKUtagClubTableInfo@@AAU1@@@QAEXXZ 0041d870 f i GroupInfoManager.obj
 0001:0001c870       ?RemoveAll@?$CMap@KKPAVCServerUserItem@@PAV1@@@QAEXXZ 0041d870 f i ServerUserManager.obj
 0001:0001c870       ?RemoveAll@?$CMap@KKPAV?$CWHArray@KABK@@PAV1@@@QAEXXZ 0041d870 f i ServiceUnits.obj
 0001:0001c870       ?RemoveAll@?$CMap@KKPAVCGroupItem@@PAV1@@@QAEXXZ 0041d870 f i GroupInfoManager.obj
 0001:0001c870       ?RemoveAll@?$CMap@GGPAVCGameServerItem@NServerListManager@@AAPAV12@@@QAEXXZ 0041d870 f i ServerListManager.obj
 0001:0001c870       ?RemoveAll@?$CMap@DDPAVCWordNode@@PAV1@@@QAEXXZ 0041d870 f i WordFilter.obj
 0001:0001c8d0       ?RemoveGroupID@CLocalUserItem@@UAEXXZ 0041d8d0 f i ServerUserManager.obj
 0001:0001c8e0       ?RemoveGroupID@CLocalUserItem@@UAE_NK@Z 0041d8e0 f   ServerUserManager.obj
 0001:0001c930       ?ResetUserItem@CLocalUserItem@@MAEXXZ 0041d930 f   ServerUserManager.obj
 0001:0001c970       ?ResetUserItem@CServerUserItem@@MAEXXZ 0041d970 f   ServerUserManager.obj
 0001:0001c970       ?ResetUserItem@CRemoteUserItem@@MAEXXZ 0041d970 f   ServerUserManager.obj
 0001:0001c990       ?SetActiveGroupID@CServerUserItem@@UAEXK@Z 0041d990 f i ServerUserManager.obj
 0001:0001c9a0       ?SetLogonTime@CLocalUserItem@@UAEXK@Z 0041d9a0 f i ServerUserManager.obj
 0001:0001c9b0       ?SetSocketID@CServerUserItem@@UAEXK@Z 0041d9b0 f i ServerUserManager.obj
 0001:0001c9c0       ?SetUserStatus@CServerUserItem@@UAEXE@Z 0041d9c0 f i ServerUserManager.obj
 0001:0001c9d0       ??0CServiceUnits@@QAE@XZ   0041d9d0 f   ServiceUnits.obj
 0001:0001ce30       ??1CServiceUnits@@UAE@XZ   0041de30 f   ServiceUnits.obj
 0001:0001d160       ??_G?$CMap@KKPAV?$CWHArray@KABK@@PAV1@@@UAEPAXI@Z 0041e160 f i ServiceUnits.obj
 0001:0001d160       ??_E?$CMap@KKPAV?$CWHArray@KABK@@PAV1@@@UAEPAXI@Z 0041e160 f i ServiceUnits.obj
 0001:0001d1e0       ??_E?$CTempldateHelper@UIAttemperEngine@@@@UAEPAXI@Z 0041e1e0 f i ServiceUnits.obj
 0001:0001d1e0       ??_GCAttemperEngineHelper@@UAEPAXI@Z 0041e1e0 f i ServiceUnits.obj
 0001:0001d1e0       ??_ECAttemperEngineHelper@@UAEPAXI@Z 0041e1e0 f i ServiceUnits.obj
 0001:0001d1e0       ??_G?$CTempldateHelper@UIAttemperEngine@@@@UAEPAXI@Z 0041e1e0 f i ServiceUnits.obj
 0001:0001d280       ??_GCCriticalSection@@UAEPAXI@Z 0041e280 f i ServiceUnits.obj
 0001:0001d280       ??_ECCriticalSection@@UAEPAXI@Z 0041e280 f i ServiceUnits.obj
 0001:0001d2d0       ??_G?$CTempldateHelper@UIDataBaseEngine@@@@UAEPAXI@Z 0041e2d0 f i ServiceUnits.obj
 0001:0001d2d0       ??_GCDataBaseEngineHelper@@UAEPAXI@Z 0041e2d0 f i ServiceUnits.obj
 0001:0001d2d0       ??_E?$CTempldateHelper@UIDataBaseEngine@@@@UAEPAXI@Z 0041e2d0 f i ServiceUnits.obj
 0001:0001d2d0       ??_ECDataBaseEngineHelper@@UAEPAXI@Z 0041e2d0 f i ServiceUnits.obj
 0001:0001d370       ??_GCServiceUnits@@UAEPAXI@Z 0041e370 f i ServiceUnits.obj
 0001:0001d370       ??_ECServiceUnits@@UAEPAXI@Z 0041e370 f i ServiceUnits.obj
 0001:0001d3b0       ??_G?$CTempldateHelper@UITCPNetworkEngine@@@@UAEPAXI@Z 0041e3b0 f i ServiceUnits.obj
 0001:0001d3b0       ??_E?$CTempldateHelper@UITCPNetworkEngine@@@@UAEPAXI@Z 0041e3b0 f i ServiceUnits.obj
 0001:0001d3b0       ??_GCTCPNetworkEngineHelper@@UAEPAXI@Z 0041e3b0 f i ServiceUnits.obj
 0001:0001d3b0       ??_ECTCPNetworkEngineHelper@@UAEPAXI@Z 0041e3b0 f i ServiceUnits.obj
 0001:0001d450       ??_GCTCPSocketServiceHelper@@UAEPAXI@Z 0041e450 f i ServiceUnits.obj
 0001:0001d450       ??_ECTCPSocketServiceHelper@@UAEPAXI@Z 0041e450 f i ServiceUnits.obj
 0001:0001d450       ??_E?$CTempldateHelper@UITCPSocketService@@@@UAEPAXI@Z 0041e450 f i ServiceUnits.obj
 0001:0001d450       ??_G?$CTempldateHelper@UITCPSocketService@@@@UAEPAXI@Z 0041e450 f i ServiceUnits.obj
 0001:0001d4f0       ??_ECTimerEngineHelper@@UAEPAXI@Z 0041e4f0 f i ServiceUnits.obj
 0001:0001d4f0       ??_E?$CTempldateHelper@UITimerEngine@@@@UAEPAXI@Z 0041e4f0 f i ServiceUnits.obj
 0001:0001d4f0       ??_G?$CTempldateHelper@UITimerEngine@@@@UAEPAXI@Z 0041e4f0 f i ServiceUnits.obj
 0001:0001d4f0       ??_GCTimerEngineHelper@@UAEPAXI@Z 0041e4f0 f i ServiceUnits.obj
 0001:0001d590       ?ConcludeService@CServiceUnits@@UAA_NXZ 0041e590 f   ServiceUnits.obj
 0001:0001d650       ?CreateInstance@?$CTempldateHelper@UIDataBaseEngine@@@@QAE_NXZ 0041e650 f i ServiceUnits.obj
 0001:0001d650       ?CreateInstance@?$CTempldateHelper@UITCPNetworkEngine@@@@QAE_NXZ 0041e650 f i ServiceUnits.obj
 0001:0001d650       ?CreateInstance@?$CTempldateHelper@UITCPSocketService@@@@QAE_NXZ 0041e650 f i ServiceUnits.obj
 0001:0001d650       ?CreateInstance@?$CTempldateHelper@UITimerEngine@@@@QAE_NXZ 0041e650 f i ServiceUnits.obj
 0001:0001d650       ?CreateInstance@?$CTempldateHelper@UIDataBase@@@@QAE_NXZ 0041e650 f i DataBaseEngineSink.obj
 0001:0001d650       ?CreateInstance@?$CTempldateHelper@UIAttemperEngine@@@@QAE_NXZ 0041e650 f i ServiceUnits.obj
 0001:0001d7d0       ?GetAssocAt@?$CMap@KKPAVCGroupItem@@PAV1@@@IBEPAVCAssoc@1@KAAI0@Z 0041e7d0 f i GroupInfoManager.obj
 0001:0001d7d0       ?GetAssocAt@?$CMap@KKPAVCServerUserItem@@PAV1@@@IBEPAVCAssoc@1@KAAI0@Z 0041e7d0 f i ServerUserManager.obj
 0001:0001d7d0       ?GetAssocAt@?$CMap@KKPAV?$CWHArray@KABK@@PAV1@@@IBEPAVCAssoc@1@KAAI0@Z 0041e7d0 f i ServiceUnits.obj
 0001:0001d840       ?GetMessageMap@CServiceUnits@@MBEPBUAFX_MSGMAP@@XZ 0041e840 f   ServiceUnits.obj
 0001:0001d850       ?GetServiceStatus@CServiceUnits@@UAA?AW4enServiceStatus@@XZ 0041e850 f i ServiceUnits.obj
 0001:0001d860       ?InitializeService@CServiceUnits@@IAE_NXZ 0041e860 f   ServiceUnits.obj
 0001:0001dbb0       ?Lock@CCriticalSection@@UAEHK@Z 0041ebb0 f i ServiceUnits.obj
 0001:0001dbd0       ?NewAssoc@?$CMap@KKPAVCGroupItem@@PAV1@@@IAEPAVCAssoc@1@K@Z 0041ebd0 f i GroupInfoManager.obj
 0001:0001dbd0       ?NewAssoc@?$CMap@KKPAV?$CWHArray@KABK@@PAV1@@@IAEPAVCAssoc@1@K@Z 0041ebd0 f i ServiceUnits.obj
 0001:0001dbd0       ?NewAssoc@?$CMap@KKPAVCServerUserItem@@PAV1@@@IAEPAVCAssoc@1@K@Z 0041ebd0 f i ServerUserManager.obj
 0001:0001dc50       ?OnUIControlRequest@CServiceUnits@@IAEJIJ@Z 0041ec50 f   ServiceUnits.obj
 0001:0001de20       ?PostControlRequest@CServiceUnits@@UAA_NGPAXG@Z 0041ee20 f   ServiceUnits.obj
 0001:0001dee0       ?SendControlPacket@CServiceUnits@@AAE_NGPAXG@Z 0041eee0 f   ServiceUnits.obj
 0001:0001df10       ?SetServiceUnitsSink@CServiceUnits@@UAA_NPAUIServiceUnitsSink@@@Z 0041ef10 f   ServiceUnits.obj
 0001:0001df30       ?StartKernelService@CServiceUnits@@IAE_NXZ 0041ef30 f   ServiceUnits.obj
 0001:0001dfa0       ?StartNetworkService@CServiceUnits@@IAE_NXZ 0041efa0 f   ServiceUnits.obj
 0001:0001dfc0       ?StartService@CServiceUnits@@UAA_NXZ 0041efc0 f   ServiceUnits.obj
 0001:0001e0a0       ?Unlock@CCriticalSection@@UAEHXZ 0041f0a0 f i ServiceUnits.obj
 0001:0001e0b0       ?Unlock@CSyncObject@@UAEHJPAJ@Z 0041f0b0 f i ServiceUnits.obj
 0001:0001e0c0       ??$AtlConvAllocMemory@D@ATL@@YAXPAPADHPADH@Z 0041f0c0 f i WordFilter.obj
 0001:0001e160       ??$_snprintf_s@$0IB@@@YAHAAY0IB@DIPBDZZ 0041f160 f i WordFilter.obj
 0001:0001e1a0       ??0CWordFilter@@QAE@XZ     0041f1a0 f   WordFilter.obj
 0001:0001e210       ??0CWordNode@@QAE@D@Z      0041f210 f   WordFilter.obj
 0001:0001e270       ??1?$CMap@DDPAVCWordNode@@PAV1@@@UAE@XZ 0041f270 f i WordFilter.obj
 0001:0001e2b0       ??1?$CW2AEX@$0IA@@ATL@@QAE@XZ 0041f2b0 f i WordFilter.obj
 0001:0001e2d0       ??1CWordFilter@@UAE@XZ     0041f2d0 f   WordFilter.obj
 0001:0001e2e0       ??1CWordNode@@UAE@XZ       0041f2e0 f   WordFilter.obj
 0001:0001e3f0       ??1CWordTree@@UAE@XZ       0041f3f0 f   WordFilter.obj
 0001:0001e410       ??A?$CMap@DDPAVCWordNode@@PAV1@@@QAEAAPAVCWordNode@@D@Z 0041f410 f i WordFilter.obj
 0001:0001e4c0       ??_E?$CMap@DDPAVCWordNode@@PAV1@@@UAEPAXI@Z 0041f4c0 f i WordFilter.obj
 0001:0001e4c0       ??_G?$CMap@DDPAVCWordNode@@PAV1@@@UAEPAXI@Z 0041f4c0 f i WordFilter.obj
 0001:0001e540       ??_GCWordFilter@@UAEPAXI@Z 0041f540 f i WordFilter.obj
 0001:0001e540       ??_ECWordFilter@@UAEPAXI@Z 0041f540 f i WordFilter.obj
 0001:0001e570       ??_GCWordNode@@UAEPAXI@Z   0041f570 f i WordFilter.obj
 0001:0001e570       ??_ECWordNode@@UAEPAXI@Z   0041f570 f i WordFilter.obj
 0001:0001e5a0       ??_ECWordTree@@UAEPAXI@Z   0041f5a0 f i WordFilter.obj
 0001:0001e5a0       ??_GCWordTree@@UAEPAXI@Z   0041f5a0 f i WordFilter.obj
 0001:0001e5d0       ?AtlThrowLastWin32@ATL@@YGXXZ 0041f5d0 f i WordFilter.obj
 0001:0001e5f0       ?FilterWords@CWordFilter@@QAE_NPBD@Z 0041f5f0 f   WordFilter.obj
 0001:0001e650       ?FilterWords@CWordFilter@@QAE_NPB_W@Z 0041f650 f   WordFilter.obj
 0001:0001e6f0       ?Find@CWordTree@@AAEPAVCWordNode@@PAV2@PBD1@Z 0041f6f0 f   WordFilter.obj
 0001:0001e800       ?FindKeyword@CWordNode@@QAE_NPBD@Z 0041f800 f   WordFilter.obj
 0001:0001e860       ?GetAssocAt@?$CMap@DDPAVCWordNode@@PAV1@@@IBEPAVCAssoc@1@DAAI0@Z 0041f860 f i WordFilter.obj
 0001:0001e8d0       ?Init@?$CW2AEX@$0IA@@ATL@@AAEXPB_WI@Z 0041f8d0 f i WordFilter.obj
 0001:0001e9c0       ?Insert@CWordTree@@AAEPAVCWordNode@@PAV2@PBD1@Z 0041f9c0 f   WordFilter.obj
 0001:0001eac0       ?InsertBranch@CWordTree@@AAEPAVCWordNode@@PAV2@PBD1@Z 0041fac0 f   WordFilter.obj
 0001:0001eb80       ?InsertChild@CWordNode@@QAEPAV1@D@Z 0041fb80 f   WordFilter.obj
 0001:0001ec40       ?InsertKeyword@CWordFilter@@QAE_NPB_W@Z 0041fc40 f   WordFilter.obj
 0001:0001ed00       ?NewAssoc@?$CMap@DDPAVCWordNode@@PAV1@@@IAEPAVCAssoc@1@D@Z 0041fd00 f i WordFilter.obj
 0001:0001ed80       ?RebuildTree@CWordTree@@IAEXXZ 0041fd80 f   WordFilter.obj
 0001:0001ee50       ?ResetFilter@CWordFilter@@QAEXXZ 0041fe50 f   WordFilter.obj
 0001:0001ee60       ?Serialize@?$CMap@DDPAVCWordNode@@PAV1@@@UAEXAAVCArchive@@@Z 0041fe60 f i WordFilter.obj
 0001:0001f106       ??3@YAXPAX@Z               00420106 f   mfc140u:mfc140u.dll
 0001:0001f10c       ?OnCmdMsg@CCmdTarget@@UAEHIHPAXPAUAFX_CMDHANDLERINFO@@@Z 0042010c f   mfc140u:mfc140u.dll
 0001:0001f112       ?OnFinalRelease@CCmdTarget@@UAEXXZ 00420112 f   mfc140u:mfc140u.dll
 0001:0001f118       ?IsInvokeAllowed@CCmdTarget@@UAEHJ@Z 00420118 f   mfc140u:mfc140u.dll
 0001:0001f11e       ?GetDispatchIID@CCmdTarget@@UAEHPAU_GUID@@@Z 0042011e f   mfc140u:mfc140u.dll
 0001:0001f124       ?GetTypeInfoCount@CCmdTarget@@UAEIXZ 00420124 f   mfc140u:mfc140u.dll
 0001:0001f12a       ?GetTypeLibCache@CCmdTarget@@UAEPAVCTypeLibCache@@XZ 0042012a f   mfc140u:mfc140u.dll
 0001:0001f130       ?GetTypeLib@CCmdTarget@@UAEJKPAPAUITypeLib@@@Z 00420130 f   mfc140u:mfc140u.dll
 0001:0001f136       ?GetCommandMap@CCmdTarget@@MBEPBUAFX_OLECMDMAP@@XZ 00420136 f   mfc140u:mfc140u.dll
 0001:0001f13c       ?GetDispatchMap@CCmdTarget@@MBEPBUAFX_DISPMAP@@XZ 0042013c f   mfc140u:mfc140u.dll
 0001:0001f142       ?GetConnectionMap@CCmdTarget@@MBEPBUAFX_CONNECTIONMAP@@XZ 00420142 f   mfc140u:mfc140u.dll
 0001:0001f148       ?GetInterfaceMap@CCmdTarget@@MBEPBUAFX_INTERFACEMAP@@XZ 00420148 f   mfc140u:mfc140u.dll
 0001:0001f14e       ?GetEventSinkMap@CCmdTarget@@MBEPBUAFX_EVENTSINKMAP@@XZ 0042014e f   mfc140u:mfc140u.dll
 0001:0001f154       ?OnCreateAggregates@CCmdTarget@@UAEHXZ 00420154 f   mfc140u:mfc140u.dll
 0001:0001f15a       ?GetInterfaceHook@CCmdTarget@@UAEPAUIUnknown@@PBX@Z 0042015a f   mfc140u:mfc140u.dll
 0001:0001f160       ?GetExtraConnectionPoints@CCmdTarget@@MAEHPAVCPtrArray@@@Z 00420160 f   mfc140u:mfc140u.dll
 0001:0001f166       ?GetConnectionHook@CCmdTarget@@MAEPAUIConnectionPoint@@ABU_GUID@@@Z 00420166 f   mfc140u:mfc140u.dll
 0001:0001f16c       ?AfxInitRichEdit2@@YGHXZ   0042016c f   mfc140u:mfc140u.dll
 0001:0001f172       ?DoModal@CDialog@@UAEHXZ   00420172 f   mfc140u:mfc140u.dll
 0001:0001f178       ?PreTranslateMessage@CWinThread@@UAEHPAUtagMSG@@@Z 00420178 f   mfc140u:mfc140u.dll
 0001:0001f17e       ?PumpMessage@CWinThread@@UAEHXZ 0042017e f   mfc140u:mfc140u.dll
 0001:0001f184       ?IsIdleMessage@CWinThread@@UAEHPAUtagMSG@@@Z 00420184 f   mfc140u:mfc140u.dll
 0001:0001f18a       ?ProcessMessageFilter@CWinThread@@UAEHHPAUtagMSG@@@Z 0042018a f   mfc140u:mfc140u.dll
 0001:0001f190       ?GetMainWnd@CWinThread@@UAEPAVCWnd@@XZ 00420190 f   mfc140u:mfc140u.dll
 0001:0001f196       ?Delete@CWinThread@@UAEXXZ 00420196 f   mfc140u:mfc140u.dll
 0001:0001f19c       ?GetRuntimeClass@CWinApp@@UBEPAUCRuntimeClass@@XZ 0042019c f   mfc140u:mfc140u.dll
 0001:0001f1a2       ??0CWinApp@@QAE@PB_W@Z     004201a2 f   mfc140u:mfc140u.dll
 0001:0001f1a8       ?SetRegistryKey@CWinApp@@IAEXPB_W@Z 004201a8 f   mfc140u:mfc140u.dll
 0001:0001f1ae       ?GetProfileIntW@CWinApp@@UAEIPB_W0H@Z 004201ae f   mfc140u:mfc140u.dll
 0001:0001f1b4       ?WriteProfileInt@CWinApp@@UAEHPB_W0H@Z 004201b4 f   mfc140u:mfc140u.dll
 0001:0001f1ba       ?GetProfileStringW@CWinApp@@UAE?AV?$CStringT@_WV?$StrTraitMFC_DLL@_WV?$ChTraitsCRT@_W@ATL@@@@@ATL@@PB_W00@Z 004201ba f   mfc140u:mfc140u.dll
 0001:0001f1c0       ?WriteProfileStringW@CWinApp@@UAEHPB_W00@Z 004201c0 f   mfc140u:mfc140u.dll
 0001:0001f1c6       ?GetProfileBinary@CWinApp@@UAEHPB_W0PAPAEPAI@Z 004201c6 f   mfc140u:mfc140u.dll
 0001:0001f1cc       ?WriteProfileBinary@CWinApp@@UAEHPB_W0PAEI@Z 004201cc f   mfc140u:mfc140u.dll
 0001:0001f1d2       ?InitLibId@CWinApp@@UAEXXZ 004201d2 f   mfc140u:mfc140u.dll
 0001:0001f1d8       ?Register@CWinApp@@UAEHXZ  004201d8 f   mfc140u:mfc140u.dll
 0001:0001f1de       ?Unregister@CWinApp@@UAEHXZ 004201de f   mfc140u:mfc140u.dll
 0001:0001f1e4       ?OpenDocumentFile@CWinApp@@UAEPAVCDocument@@PB_W@Z 004201e4 f   mfc140u:mfc140u.dll
 0001:0001f1ea       ?OpenDocumentFile@CWinApp@@UAEPAVCDocument@@PB_WH@Z 004201ea f   mfc140u:mfc140u.dll
 0001:0001f1f0       ?AddToRecentFileList@CWinApp@@UAEXPB_W@Z 004201f0 f   mfc140u:mfc140u.dll
 0001:0001f1f6       ?InitApplication@CWinApp@@UAEHXZ 004201f6 f   mfc140u:mfc140u.dll
 0001:0001f1fc       ?SaveAllModified@CWinApp@@UAEHXZ 004201fc f   mfc140u:mfc140u.dll
 0001:0001f202       ?DoMessageBox@CWinApp@@UAEHPB_WII@Z 00420202 f   mfc140u:mfc140u.dll
 0001:0001f208       ?DoWaitCursor@CWinApp@@UAEXH@Z 00420208 f   mfc140u:mfc140u.dll
 0001:0001f20e       ?OnDDECommand@CWinApp@@UAEHPA_W@Z 0042020e f   mfc140u:mfc140u.dll
 0001:0001f214       ?WinHelpW@CWinApp@@UAEXKI@Z 00420214 f   mfc140u:mfc140u.dll
 0001:0001f21a       ?HtmlHelpW@CWinApp@@UAEXKI@Z 0042021a f   mfc140u:mfc140u.dll
 0001:0001f220       ?WinHelpInternal@CWinApp@@UAEXKI@Z 00420220 f   mfc140u:mfc140u.dll
 0001:0001f226       ?RegisterWithRestartManager@CWinApp@@UAEJHABV?$CStringT@_WV?$StrTraitMFC_DLL@_WV?$ChTraitsCRT@_W@ATL@@@@@ATL@@@Z 00420226 f   mfc140u:mfc140u.dll
 0001:0001f22c       ?RegisterWithRestartManager@CWinApp@@UAEJPB_WKP6GKPAX@Z1KK@Z 0042022c f   mfc140u:mfc140u.dll
 0001:0001f232       ?ApplicationRecoveryCallback@CWinApp@@UAEKPAX@Z 00420232 f   mfc140u:mfc140u.dll
 0001:0001f238       ?GetDataRecoveryHandler@CWinApp@@UAEPAVCDataRecoveryHandler@@XZ 00420238 f   mfc140u:mfc140u.dll
 0001:0001f23e       ?IsTaskbarInteractionEnabled@CWinApp@@UAEHXZ 0042023e f   mfc140u:mfc140u.dll
 0001:0001f244       ?InitInstance@CWinApp@@UAEHXZ 00420244 f   mfc140u:mfc140u.dll
 0001:0001f24a       ?ExitInstance@CWinApp@@UAEHXZ 0042024a f   mfc140u:mfc140u.dll
 0001:0001f250       ?RestartInstance@CWinApp@@UAEHXZ 00420250 f   mfc140u:mfc140u.dll
 0001:0001f256       ?Run@CWinApp@@UAEHXZ       00420256 f   mfc140u:mfc140u.dll
 0001:0001f25c       ?OnIdle@CWinApp@@UAEHJ@Z   0042025c f   mfc140u:mfc140u.dll
 0001:0001f262       ?ProcessWndProcException@CWinApp@@UAEJPAVCException@@PBUtagMSG@@@Z 00420262 f   mfc140u:mfc140u.dll
 0001:0001f268       ?LoadAppLangResourceDLL@CWinApp@@UAEPAUHINSTANCE__@@XZ 00420268 f   mfc140u:mfc140u.dll
 0001:0001f26e       ??1CWinApp@@UAE@XZ         0042026e f   mfc140u:mfc140u.dll
 0001:0001f274       ?GetThisMessageMap@CWinApp@@KGPBUAFX_MSGMAP@@XZ 00420274 f   mfc140u:mfc140u.dll
 0001:0001f27a       ?LoadSysPolicies@CWinApp@@UAEHXZ 0042027a f   mfc140u:mfc140u.dll
 0001:0001f280       ?AfxEnableControlContainer@@YAXPAVCOccManager@@@Z 00420280 f   mfc140u:mfc140u.dll
 0001:0001f286       ?AfxGetModuleState@@YGPAVAFX_MODULE_STATE@@XZ 00420286 f   mfc140u:mfc140u.dll
 0001:0001f28c       ?DDX_Control@@YGXPAVCDataExchange@@HAAVCWnd@@@Z 0042028c f   mfc140u:mfc140u.dll
 0001:0001f292       ?PreSubclassWindow@CWnd@@UAEXXZ 00420292 f   mfc140u:mfc140u.dll
 0001:0001f298       ?Create@CWnd@@UAEHPB_W0KABUtagRECT@@PAV1@IPAUCCreateContext@@@Z 00420298 f   mfc140u:mfc140u.dll
 0001:0001f29e       ?CreateEx@CWnd@@UAEHKPB_W0KHHHHPAUHWND__@@PAUHMENU__@@PAX@Z 0042029e f   mfc140u:mfc140u.dll
 0001:0001f2a4       ?CreateEx@CWnd@@UAEHKPB_W0KABUtagRECT@@PAV1@IPAX@Z 004202a4 f   mfc140u:mfc140u.dll
 0001:0001f2aa       ?DestroyWindow@CWnd@@UAEHXZ 004202aa f   mfc140u:mfc140u.dll
 0001:0001f2b0       ?PreCreateWindow@CWnd@@UAEHAAUtagCREATESTRUCTW@@@Z 004202b0 f   mfc140u:mfc140u.dll
 0001:0001f2b6       ?CalcWindowRect@CWnd@@UAEXPAUtagRECT@@I@Z 004202b6 f   mfc140u:mfc140u.dll
 0001:0001f2bc       ?GetDlgItem@CWnd@@QBEPAV1@H@Z 004202bc f   mfc140u:mfc140u.dll
 0001:0001f2c2       ?SetWindowTextW@CWnd@@QAEXPB_W@Z 004202c2 f   mfc140u:mfc140u.dll
 0001:0001f2c8       ?GetMenu@CWnd@@UBEPAVCMenu@@XZ 004202c8 f   mfc140u:mfc140u.dll
 0001:0001f2ce       ?SetMenu@CWnd@@UAEHPAVCMenu@@@Z 004202ce f   mfc140u:mfc140u.dll
 0001:0001f2d4       ?OnToolHitTest@CWnd@@UBEHVCPoint@@PAUtagTOOLINFOW@@@Z 004202d4 f   mfc140u:mfc140u.dll
 0001:0001f2da       ?EnableWindow@CWnd@@QAEHH@Z 004202da f   mfc140u:mfc140u.dll
 0001:0001f2e0       ?GetScrollBarCtrl@CWnd@@UBEPAVCScrollBar@@H@Z 004202e0 f   mfc140u:mfc140u.dll
 0001:0001f2e6       ?WinHelpW@CWnd@@UAEXKI@Z   004202e6 f   mfc140u:mfc140u.dll
 0001:0001f2ec       ?HtmlHelpW@CWnd@@UAEXKI@Z  004202ec f   mfc140u:mfc140u.dll
 0001:0001f2f2       ?WinHelpInternal@CWnd@@UAEXKI@Z 004202f2 f   mfc140u:mfc140u.dll
 0001:0001f2f8       ?ContinueModal@CWnd@@UAEHXZ 004202f8 f   mfc140u:mfc140u.dll
 0001:0001f2fe       ?EndModalLoop@CWnd@@UAEXH@Z 004202fe f   mfc140u:mfc140u.dll
 0001:0001f304       ?OnDrawIconicThumbnailOrLivePreview@CWnd@@UAEXAAVCDC@@VCRect@@VCSize@@HAAH@Z 00420304 f   mfc140u:mfc140u.dll
 0001:0001f30a       ?GetInterfaceMap@CWnd@@MBEPBUAFX_INTERFACEMAP@@XZ 0042030a f   mfc140u:mfc140u.dll
 0001:0001f310       ?EnsureStdObj@CWnd@@UAEJXZ 00420310 f   mfc140u:mfc140u.dll
 0001:0001f316       ?get_accParent@CWnd@@UAEJPAPAUIDispatch@@@Z 00420316 f   mfc140u:mfc140u.dll
 0001:0001f31c       ?get_accChildCount@CWnd@@UAEJPAJ@Z 0042031c f   mfc140u:mfc140u.dll
 0001:0001f322       ?get_accChild@CWnd@@UAEJUtagVARIANT@@PAPAUIDispatch@@@Z 00420322 f   mfc140u:mfc140u.dll
 0001:0001f328       ?get_accName@CWnd@@UAEJUtagVARIANT@@PAPA_W@Z 00420328 f   mfc140u:mfc140u.dll
 0001:0001f32e       ?get_accValue@CWnd@@UAEJUtagVARIANT@@PAPA_W@Z 0042032e f   mfc140u:mfc140u.dll
 0001:0001f334       ?get_accDescription@CWnd@@UAEJUtagVARIANT@@PAPA_W@Z 00420334 f   mfc140u:mfc140u.dll
 0001:0001f33a       ?get_accRole@CWnd@@UAEJUtagVARIANT@@PAU2@@Z 0042033a f   mfc140u:mfc140u.dll
 0001:0001f340       ?get_accState@CWnd@@UAEJUtagVARIANT@@PAU2@@Z 00420340 f   mfc140u:mfc140u.dll
 0001:0001f346       ?get_accHelp@CWnd@@UAEJUtagVARIANT@@PAPA_W@Z 00420346 f   mfc140u:mfc140u.dll
 0001:0001f34c       ?get_accHelpTopic@CWnd@@UAEJPAPA_WUtagVARIANT@@PAJ@Z 0042034c f   mfc140u:mfc140u.dll
 0001:0001f352       ?get_accKeyboardShortcut@CWnd@@UAEJUtagVARIANT@@PAPA_W@Z 00420352 f   mfc140u:mfc140u.dll
 0001:0001f358       ?get_accFocus@CWnd@@UAEJPAUtagVARIANT@@@Z 00420358 f   mfc140u:mfc140u.dll
 0001:0001f35e       ?get_accSelection@CWnd@@UAEJPAUtagVARIANT@@@Z 0042035e f   mfc140u:mfc140u.dll
 0001:0001f364       ?get_accDefaultAction@CWnd@@UAEJUtagVARIANT@@PAPA_W@Z 00420364 f   mfc140u:mfc140u.dll
 0001:0001f36a       ?accSelect@CWnd@@UAEJJUtagVARIANT@@@Z 0042036a f   mfc140u:mfc140u.dll
 0001:0001f370       ?accLocation@CWnd@@UAEJPAJ000UtagVARIANT@@@Z 00420370 f   mfc140u:mfc140u.dll
 0001:0001f376       ?accNavigate@CWnd@@UAEJJUtagVARIANT@@PAU2@@Z 00420376 f   mfc140u:mfc140u.dll
 0001:0001f37c       ?accHitTest@CWnd@@UAEJJJPAUtagVARIANT@@@Z 0042037c f   mfc140u:mfc140u.dll
 0001:0001f382       ?accDoDefaultAction@CWnd@@UAEJUtagVARIANT@@@Z 00420382 f   mfc140u:mfc140u.dll
 0001:0001f388       ?put_accName@CWnd@@UAEJUtagVARIANT@@PA_W@Z 00420388 f   mfc140u:mfc140u.dll
 0001:0001f38e       ?put_accValue@CWnd@@UAEJUtagVARIANT@@PA_W@Z 0042038e f   mfc140u:mfc140u.dll
 0001:0001f394       ?SetProxy@CWnd@@UAEJPAUIAccessibleProxy@@@Z 00420394 f   mfc140u:mfc140u.dll
 0001:0001f39a       ?CreateAccessibleProxy@CWnd@@UAEJIJPAJ@Z 0042039a f   mfc140u:mfc140u.dll
 0001:0001f3a0       ?OnCommand@CWnd@@MAEHIJ@Z  004203a0 f   mfc140u:mfc140u.dll
 0001:0001f3a6       ?OnNotify@CWnd@@MAEHIJPAJ@Z 004203a6 f   mfc140u:mfc140u.dll
 0001:0001f3ac       ?GetSuperWndProcAddr@CWnd@@MAEPAP6GJPAUHWND__@@IIJ@ZXZ 004203ac f   mfc140u:mfc140u.dll
 0001:0001f3b2       ?OnAmbientProperty@CWnd@@UAEHPAVCOleControlSite@@JPAUtagVARIANT@@@Z 004203b2 f   mfc140u:mfc140u.dll
 0001:0001f3b8       ?WindowProc@CWnd@@MAEJIIJ@Z 004203b8 f   mfc140u:mfc140u.dll
 0001:0001f3be       ?OnWndMsg@CWnd@@MAEHIIJPAJ@Z 004203be f   mfc140u:mfc140u.dll
 0001:0001f3c4       ?DefWindowProcW@CWnd@@MAEJIIJ@Z 004203c4 f   mfc140u:mfc140u.dll
 0001:0001f3ca       ?PostNcDestroy@CWnd@@MAEXXZ 004203ca f   mfc140u:mfc140u.dll
 0001:0001f3d0       ?OnChildNotify@CWnd@@MAEHIIJPAJ@Z 004203d0 f   mfc140u:mfc140u.dll
 0001:0001f3d6       ?OnTouchInputs@CWnd@@MAEHIPAUtagTOUCHINPUT@@@Z 004203d6 f   mfc140u:mfc140u.dll
 0001:0001f3dc       ?OnTouchInput@CWnd@@MAEHVCPoint@@HHPAUtagTOUCHINPUT@@@Z 004203dc f   mfc140u:mfc140u.dll
 0001:0001f3e2       ?GetGestureStatus@CWnd@@MAEKVCPoint@@@Z 004203e2 f   mfc140u:mfc140u.dll
 0001:0001f3e8       ?OnGestureZoom@CWnd@@MAEHVCPoint@@J@Z 004203e8 f   mfc140u:mfc140u.dll
 0001:0001f3ee       ?OnGesturePan@CWnd@@MAEHVCPoint@@0@Z 004203ee f   mfc140u:mfc140u.dll
 0001:0001f3f4       ?OnGestureRotate@CWnd@@MAEHVCPoint@@N@Z 004203f4 f   mfc140u:mfc140u.dll
 0001:0001f3fa       ?OnGestureTwoFingerTap@CWnd@@MAEHVCPoint@@@Z 004203fa f   mfc140u:mfc140u.dll
 0001:0001f400       ?OnGesturePressAndTap@CWnd@@MAEHVCPoint@@J@Z 00420400 f   mfc140u:mfc140u.dll
 0001:0001f406       ?ResizeDynamicLayout@CWnd@@MAEXXZ 00420406 f   mfc140u:mfc140u.dll
 0001:0001f40c       ?IsFrameWnd@CWnd@@UBEHXZ   0042040c f   mfc140u:mfc140u.dll
 0001:0001f412       ?OnFinalRelease@CWnd@@UAEXXZ 00420412 f   mfc140u:mfc140u.dll
 0001:0001f418       ?CreateControlContainer@CWnd@@MAEHPAPAVCOleControlContainer@@@Z 00420418 f   mfc140u:mfc140u.dll
 0001:0001f41e       ?CreateControlSite@CWnd@@MAEHPAVCOleControlContainer@@PAPAVCOleControlSite@@IABU_GUID@@@Z 0042041e f   mfc140u:mfc140u.dll
 0001:0001f424       ?GetRuntimeClass@CDialog@@UBEPAUCRuntimeClass@@XZ 00420424 f   mfc140u:mfc140u.dll
 0001:0001f42a       ?Create@CDialog@@UAEHPB_WPAVCWnd@@@Z 0042042a f   mfc140u:mfc140u.dll
 0001:0001f430       ?CreateIndirect@CDialog@@UAEHPBUDLGTEMPLATE@@PAVCWnd@@PAX@Z 00420430 f   mfc140u:mfc140u.dll
 0001:0001f436       ?CreateIndirect@CDialog@@UAEHPAXPAVCWnd@@@Z 00420436 f   mfc140u:mfc140u.dll
 0001:0001f43c       ??0CDialog@@QAE@IPAVCWnd@@@Z 0042043c f   mfc140u:mfc140u.dll
 0001:0001f442       ?OnInitDialog@CDialog@@UAEHXZ 00420442 f   mfc140u:mfc140u.dll
 0001:0001f448       ?OnSetFont@CDialog@@UAEXPAVCFont@@@Z 00420448 f   mfc140u:mfc140u.dll
 0001:0001f44e       ?OnCancel@CDialog@@MAEXXZ  0042044e f   mfc140u:mfc140u.dll
 0001:0001f454       ??1CDialog@@UAE@XZ         00420454 f   mfc140u:mfc140u.dll
 0001:0001f45a       ?PreTranslateMessage@CDialog@@UAEHPAUtagMSG@@@Z 0042045a f   mfc140u:mfc140u.dll
 0001:0001f460       ?OnCmdMsg@CDialog@@UAEHIHPAXPAUAFX_CMDHANDLERINFO@@@Z 00420460 f   mfc140u:mfc140u.dll
 0001:0001f466       ?CheckAutoCenter@CDialog@@UAEHXZ 00420466 f   mfc140u:mfc140u.dll
 0001:0001f46c       ?SetOccDialogInfo@CDialog@@MAEHPAU_AFX_OCC_DIALOG_INFO@@@Z 0042046c f   mfc140u:mfc140u.dll
 0001:0001f472       ?GetOccDialogInfo@CDialog@@MAEPAU_AFX_OCC_DIALOG_INFO@@XZ 00420472 f   mfc140u:mfc140u.dll
 0001:0001f478       ?PreInitDialog@CDialog@@MAEXXZ 00420478 f   mfc140u:mfc140u.dll
 0001:0001f47e       ?GetThisMessageMap@CDialog@@KGPBUAFX_MSGMAP@@XZ 0042047e f   mfc140u:mfc140u.dll
 0001:0001f484       ?AfxMessageBox@@YGHPB_WII@Z 00420484 f   mfc140u:mfc140u.dll
 0001:0001f48a       ??_U@YAPAXI@Z              0042048a f   mfc140u:mfc140u.dll
 0001:0001f490       ??_V@YAXPAX@Z              00420490 f   mfc140u:mfc140u.dll
 0001:0001f496       ?AfxThrowMemoryException@@YGXXZ 00420496 f   mfc140u:mfc140u.dll
 0001:0001f49c       ?AfxThrowInvalidArgException@@YGXXZ 0042049c f   mfc140u:mfc140u.dll
 0001:0001f4a2       ?AfxThrowOleException@@YGXJ@Z 004204a2 f   mfc140u:mfc140u.dll
 0001:0001f4a8       ??0CStdioFile@@QAE@XZ      004204a8 f   mfc140u:mfc140u.dll
 0001:0001f4ae       ?WriteString@CStdioFile@@UAEXPB_W@Z 004204ae f   mfc140u:mfc140u.dll
 0001:0001f4b4       ??1CStdioFile@@UAE@XZ      004204b4 f   mfc140u:mfc140u.dll
 0001:0001f4ba       ?GetLength@CStdioFile@@UBE_KXZ 004204ba f   mfc140u:mfc140u.dll
 0001:0001f4c0       ?Open@CStdioFile@@UAEHPB_WIPAVCFileException@@@Z 004204c0 f   mfc140u:mfc140u.dll
 0001:0001f4c6       ?Flush@CStdioFile@@UAEXXZ  004204c6 f   mfc140u:mfc140u.dll
 0001:0001f4cc       ?Close@CStdioFile@@UAEXXZ  004204cc f   mfc140u:mfc140u.dll
 0001:0001f4d2       ??0CDWordArray@@QAE@XZ     004204d2 f   mfc140u:mfc140u.dll
 0001:0001f4d8       ?SetSize@CDWordArray@@QAEXHH@Z 004204d8 f   mfc140u:mfc140u.dll
 0001:0001f4de       ?SetAtGrow@CDWordArray@@QAEXHK@Z 004204de f   mfc140u:mfc140u.dll
 0001:0001f4e4       ??1CDWordArray@@UAE@XZ     004204e4 f   mfc140u:mfc140u.dll
 0001:0001f4ea       ?AfxLoadLibrary@@YGPAUHINSTANCE__@@PB_W@Z 004204ea f   mfc140u:mfc140u.dll
 0001:0001f4f0       ?AfxFreeLibrary@@YGHPAUHINSTANCE__@@@Z 004204f0 f   mfc140u:mfc140u.dll
 0001:0001f4f6       ??2@YAPAXI@Z               004204f6 f   mfc140u:mfc140u.dll
 0001:0001f4fc       ?AfxThrowArchiveException@@YGXHPB_W@Z 004204fc f   mfc140u:mfc140u.dll
 0001:0001f502       ?GetRuntimeClass@CObject@@UBEPAUCRuntimeClass@@XZ 00420502 f   mfc140u:mfc140u.dll
 0001:0001f508       ?Read@CArchive@@QAEIPAXI@Z 00420508 f   mfc140u:mfc140u.dll
 0001:0001f50e       ?Write@CArchive@@QAEXPBXI@Z 0042050e f   mfc140u:mfc140u.dll
 0001:0001f514       ?ReadCount@CArchive@@QAEKXZ 00420514 f   mfc140u:mfc140u.dll
 0001:0001f51a       ?WriteCount@CArchive@@QAEXK@Z 0042051a f   mfc140u:mfc140u.dll
 0001:0001f520       ?Create@CPlex@@SGPAU1@AAPAU1@II@Z 00420520 f   mfc140u:mfc140u.dll
 0001:0001f526       ?FreeDataChain@CPlex@@QAEXXZ 00420526 f   mfc140u:mfc140u.dll
 0001:0001f52c       ?RemoveAt@CDWordArray@@QAEXHH@Z 0042052c f   mfc140u:mfc140u.dll
 0001:0001f532       ?GetRuntimeClass@CWnd@@UBEPAUCRuntimeClass@@XZ 00420532 f   mfc140u:mfc140u.dll
 0001:0001f538       ??0CWnd@@QAE@XZ            00420538 f   mfc140u:mfc140u.dll
 0001:0001f53e       ?PreTranslateMessage@CWnd@@UAEHPAUtagMSG@@@Z 0042053e f   mfc140u:mfc140u.dll
 0001:0001f544       ??1CWnd@@UAE@XZ            00420544 f   mfc140u:mfc140u.dll
 0001:0001f54a       ?CheckAutoCenter@CWnd@@UAEHXZ 0042054a f   mfc140u:mfc140u.dll
 0001:0001f550       ?SetOccDialogInfo@CWnd@@MAEHPAU_AFX_OCC_DIALOG_INFO@@@Z 00420550 f   mfc140u:mfc140u.dll
 0001:0001f556       ?GetOccDialogInfo@CWnd@@MAEPAU_AFX_OCC_DIALOG_INFO@@XZ 00420556 f   mfc140u:mfc140u.dll
 0001:0001f55c       ?GetThisMessageMap@CWnd@@KGPBUAFX_MSGMAP@@XZ 0042055c f   mfc140u:mfc140u.dll
 0001:0001f562       ?AfxGetThread@@YGPAVCWinThread@@XZ 00420562 f   mfc140u:mfc140u.dll
 0001:0001f568       ??0CSyncObject@@QAE@PB_W@Z 00420568 f   mfc140u:mfc140u.dll
 0001:0001f56e       ??1CSyncObject@@UAE@XZ     0042056e f   mfc140u:mfc140u.dll
 0001:0001f574       ?GetRuntimeClass@CCriticalSection@@UBEPAUCRuntimeClass@@XZ 00420574 f   mfc140u:mfc140u.dll
 0001:0001f57a       ?Init@CComCriticalSection@ATL@@QAEJXZ 0042057a f i mfcs140u:nolib.obj
 0001:0001f7c8       _wWinMainCRTStartup        004207c8 f   msvcrt:exe_wwinmain.obj
 0001:0001f816       ___scrt_acquire_startup_lock 00420816 f   msvcrt:utility.obj
 0001:0001f84b       ___scrt_initialize_crt     0042084b f   msvcrt:utility.obj
 0001:0001f884       ___scrt_initialize_onexit_tables 00420884 f   msvcrt:utility.obj
 0001:0001f91b       ___scrt_is_nonwritable_in_current_image 0042091b f   msvcrt:utility.obj
 0001:0001f9a5       ___scrt_release_startup_lock 004209a5 f   msvcrt:utility.obj
 0001:0001f9c2       ___scrt_uninitialize_crt   004209c2 f   msvcrt:utility.obj
 0001:0001f9ea       __onexit                   004209ea f   msvcrt:utility.obj
 0001:0001fa25       _atexit                    00420a25 f   msvcrt:utility.obj
 0001:0001fa3a       @__security_check_cookie@4 00420a3a f   msvcrt:_secchk_.obj
 0001:0001fa50       __chkstk                   00420a50 f   msvcrt:chkstk.obj
 0001:0001fa50       __alloca_probe             00420a50 f   msvcrt:chkstk.obj
 0001:0001fa7d       ??_Gtype_info@@UAEPAXI@Z   00420a7d f i msvcrt:std_type_info_static.obj
 0001:0001fa7d       ??_Etype_info@@UAEPAXI@Z   00420a7d f i msvcrt:std_type_info_static.obj
 0001:0001faa0       ??3@YAXPAXI@Z              00420aa0 f   msvcrt:delete_scalar_size.obj
 0001:0001fb6e       ??$__crt_fast_encode_pointer@P6GXPAU_RTL_CONDITION_VARIABLE@@@Z@@YAP6GXPAU_RTL_CONDITION_VARIABLE@@@ZQ6GX0@Z@Z 00420b6e f i msvcrt:thread_safe_statics.obj
 0001:0001fb6e       ??$__crt_fast_encode_pointer@P6GHPAU_RTL_CONDITION_VARIABLE@@PAU_RTL_CRITICAL_SECTION@@K@Z@@YAP6GHPAU_RTL_CONDITION_VARIABLE@@PAU_RTL_CRITICAL_SECTION@@K@ZQ6GH01K@Z@Z 00420b6e f i msvcrt:thread_safe_statics.obj
 0001:0001fba7       __Init_thread_footer       00420ba7 f   msvcrt:thread_safe_statics.obj
 0001:0001fbe6       __Init_thread_header       00420be6 f   msvcrt:thread_safe_statics.obj
 0001:0001fc2c       __Init_thread_lock         00420c2c f   msvcrt:thread_safe_statics.obj
 0001:0001fc38       __Init_thread_notify       00420c38 f   msvcrt:thread_safe_statics.obj
 0001:0001fc79       __Init_thread_unlock       00420c79 f   msvcrt:thread_safe_statics.obj
 0001:0001fc85       __Init_thread_wait         00420c85 f   msvcrt:thread_safe_statics.obj
 0001:0001fcf0       __ftoui3                   00420cf0 f   msvcrt:_ftol3_.obj
 0001:0001fcff       __ftoul3                   00420cff f   msvcrt:_ftol3_.obj
 0001:0001fd0e       __ftol3                    00420d0e f   msvcrt:_ftol3_.obj
 0001:0001fd1b       __ftol3_NaN                00420d1b f   msvcrt:_ftol3_.obj
 0001:0001fd33       __ftol3_work               00420d33 f   msvcrt:_ftol3_.obj
 0001:0001fdb9       __ftol3_common             00420db9 f   msvcrt:_ftol3_.obj
 0001:0001fe7b       __ftol3_arg_error          00420e7b f   msvcrt:_ftol3_.obj
 0001:0001fe8d       __ftol3_except             00420e8d f   msvcrt:_ftol3_.obj
 0001:0001fed1       __dtoui3                   00420ed1 f   msvcrt:_ftol3_.obj
 0001:0001fee0       __dtoul3                   00420ee0 f   msvcrt:_ftol3_.obj
 0001:0001feef       __dtol3                    00420eef f   msvcrt:_ftol3_.obj
 0001:0001fefc       __dtol3_NaN                00420efc f   msvcrt:_ftol3_.obj
 0001:0001ff19       __dtol3_work               00420f19 f   msvcrt:_ftol3_.obj
 0001:00020000       __ultod3                   00421000 f   msvcrt:_ftol3_.obj
 0001:00020040       __ltod3                    00421040 f   msvcrt:_ftol3_.obj
 0001:00020070       __ftol2_sse                00421070 f   msvcrt:_ftol2_.obj
 0001:00020079       __ftol2_pentium4           00421079 f   msvcrt:_ftol2_.obj
 0001:0002008c       __ftol2_sse_excpt          0042108c f   msvcrt:_ftol2_.obj
 0001:000200b0       __ftol2                    004210b0 f   msvcrt:_ftol2_.obj
 0001:00020130       __allmul                   00421130 f   msvcrt:llmul.obj
 0001:00020164       ??_L@YGXPAXIIP6EX0@Z1@Z    00421164 f   msvcrt:ehvecctr.obj
 0001:000201cd       ??_M@YGXPAXIIP6EX0@Z@Z     004211cd f   msvcrt:ehvecdtr.obj
 0001:00020247       ?__ArrayUnwind@@YGXPAXIIP6EX0@Z@Z 00421247 f   msvcrt:ehvecdtr.obj
 0001:000202b4       @_guard_check_icall@4      004212b4 f i msvcrt:checkcfg.obj
 0001:000202c0       __SEH_prolog4              004212c0 f   msvcrt:_sehprolg4_.obj
 0001:00020306       __SEH_epilog4              00421306 f   msvcrt:_sehprolg4_.obj
 0001:00020320       __SEH_prolog4_GS           00421320 f   msvcrt:_sehprolg4gs_.obj
 0001:00020369       __SEH_epilog4_GS           00421369 f   msvcrt:_sehprolg4gs_.obj
 0001:0002037a       __except_handler4          0042137a f   msvcrt:_chandler4gs_.obj
 0001:0002039d       ___security_init_cookie    0042139d f   msvcrt:gs_support.obj
 0001:00020439       __get_startup_argv_mode    00421439 f   msvcrt:argv_mode.obj
 0001:0002043d       __get_startup_file_mode    0042143d f   msvcrt:file_mode.obj
 0001:00020450       __matherr                  00421450 f   msvcrt:matherr.obj
 0001:00020450       ___scrt_initialize_winrt   00421450 f   msvcrt:utility_desktop.obj
 0001:00020450       ?GetApplicationRestartFlags@CWinApp@@UAEKXZ 00421450 f   AccessServer.obj
 0001:00020450       __get_startup_new_mode     00421450 f   msvcrt:new_mode.obj
 0001:00020450       __get_startup_thread_locale_mode 00421450 f   msvcrt:thread_locale.obj
 0001:00020450       __get_startup_commit_mode  00421450 f   msvcrt:commit_mode.obj
 0001:00020450       ?GetApplicationRecoveryParameter@CWinApp@@UAEPAXXZ 00421450 f   AccessServer.obj
 0001:00020453       ?__scrt_initialize_type_info@@YAXXZ 00421453 f   msvcrt:tncleanup.obj
 0001:0002045f       __initialize_default_precision 0042145f f   msvcrt:default_precision.obj
 0001:00020480       ___local_stdio_scanf_options 00421480 f i msvcrt:default_local_stdio_options.obj
 0001:00020486       ___scrt_initialize_default_local_stdio_options 00421486 f   msvcrt:default_local_stdio_options.obj
 0001:000204a3       ___scrt_is_user_matherr_present 004214a3 f   msvcrt:matherr_detection.obj
 0001:000204af       ___scrt_get_dyn_tls_init_callback 004214af f   msvcrt:dyn_tls_init.obj
 0001:000204b5       ___scrt_get_dyn_tls_dtor_callback 004214b5 f   msvcrt:dyn_tls_dtor.obj
 0001:000204bb       ___scrt_fastfail           004214bb f   msvcrt:utility_desktop.obj
 0001:000205d6       ___scrt_get_show_window_mode 004215d6 f   msvcrt:utility_desktop.obj
 0001:00020609       ___scrt_is_managed_app     00421609 f   msvcrt:utility_desktop.obj
 0001:0002064d       ___scrt_set_unhandled_exception_filter 0042164d f   msvcrt:utility_desktop.obj
 0001:00020659       ___scrt_unhandled_exception_filter@4 00421659 f   msvcrt:utility_desktop.obj
 0001:0002069a       __RTC_Initialize           0042169a f   msvcrt:_initsect_.obj
 0001:000206c5       __RTC_Terminate            004216c5 f   msvcrt:_initsect_.obj
 0001:000206f0       ___isa_available_init      004216f0 f   msvcrt:_cpu_disp_.obj
 0001:00020894       ___scrt_is_ucrt_dll_in_use 00421894 f   msvcrt:ucrt_detection.obj
 0001:000208a0       ___raise_securityfailure   004218a0 f   msvcrt:gs_report.obj
 0001:000208c8       ___report_gsfailure        004218c8 f   msvcrt:gs_report.obj
 0001:000209c4       _IsProcessorFeaturePresent@4 004219c4 f   kernel32:KERNEL32.dll
 0001:000209ca       ??0CAtlBaseModule@ATL@@QAE@XZ 004219ca f   atls:atlbase.obj
 0001:00020a1d       ??0_ATL_BASE_MODULE70@ATL@@QAE@XZ 00421a1d f i atls:atlbase.obj
 0001:00020a40       ??1CAtlBaseModule@ATL@@QAE@XZ 00421a40 f   atls:atlbase.obj
 0001:00020a56       ?RemoveAll@?$CSimpleArray@PAUHINSTANCE__@@V?$CSimpleArrayEqualHelper@PAUHINSTANCE__@@@ATL@@@ATL@@QAEXXZ 00421a56 f i atls:atlbase.obj
 0001:00020a74       _MiniDumpWriteDump@28      00421a74 f   DbgHelp:dbghelp.dll
 0001:00020a7a       ___CxxFrameHandler3        00421a7a f   vcruntime:VCRUNTIME140.dll
 0001:00020a80       __purecall                 00421a80 f   vcruntime:VCRUNTIME140.dll
 0001:00020a86       _memset                    00421a86 f   vcruntime:VCRUNTIME140.dll
 0001:00020a8c       _memcpy                    00421a8c f   vcruntime:VCRUNTIME140.dll
 0001:00020a92       ___std_terminate           00421a92 f   vcruntime:VCRUNTIME140.dll
 0001:00020a98       __CxxThrowException@8      00421a98 f   vcruntime:VCRUNTIME140.dll
 0001:00020a9e       ___vcrt_InitializeCriticalSectionEx 00421a9e f   vcruntime:VCRUNTIME140.dll
 0001:00020aa4       __except_handler4_common   00421aa4 f   vcruntime:VCRUNTIME140.dll
 0001:00020aaa       _free                      00421aaa f   ucrt:api-ms-win-crt-heap-l1-1-0.dll
 0001:00020ab0       __seh_filter_exe           00421ab0 f   ucrt:api-ms-win-crt-runtime-l1-1-0.dll
 0001:00020ab6       __set_app_type             00421ab6 f   ucrt:api-ms-win-crt-runtime-l1-1-0.dll
 0001:00020abc       ___setusermatherr          00421abc f   ucrt:api-ms-win-crt-math-l1-1-0.dll
 0001:00020ac2       __configure_wide_argv      00421ac2 f   ucrt:api-ms-win-crt-runtime-l1-1-0.dll
 0001:00020ac8       __initialize_wide_environment 00421ac8 f   ucrt:api-ms-win-crt-runtime-l1-1-0.dll
 0001:00020ace       __get_wide_winmain_command_line 00421ace f   ucrt:api-ms-win-crt-runtime-l1-1-0.dll
 0001:00020ad4       __initterm                 00421ad4 f   ucrt:api-ms-win-crt-runtime-l1-1-0.dll
 0001:00020ada       __initterm_e               00421ada f   ucrt:api-ms-win-crt-runtime-l1-1-0.dll
 0001:00020ae0       _exit                      00421ae0 f   ucrt:api-ms-win-crt-runtime-l1-1-0.dll
 0001:00020ae6       __exit                     00421ae6 f   ucrt:api-ms-win-crt-runtime-l1-1-0.dll
 0001:00020aec       __set_fmode                00421aec f   ucrt:api-ms-win-crt-stdio-l1-1-0.dll
 0001:00020af2       __cexit                    00421af2 f   ucrt:api-ms-win-crt-runtime-l1-1-0.dll
 0001:00020af8       __c_exit                   00421af8 f   ucrt:api-ms-win-crt-runtime-l1-1-0.dll
 0001:00020afe       __register_thread_local_exe_atexit_callback 00421afe f   ucrt:api-ms-win-crt-runtime-l1-1-0.dll
 0001:00020b04       __configthreadlocale       00421b04 f   ucrt:api-ms-win-crt-locale-l1-1-0.dll
 0001:00020b0a       __set_new_mode             00421b0a f   ucrt:api-ms-win-crt-heap-l1-1-0.dll
 0001:00020b10       ___p__commode              00421b10 f   ucrt:api-ms-win-crt-stdio-l1-1-0.dll
 0001:00020b16       __initialize_onexit_table  00421b16 f   ucrt:api-ms-win-crt-runtime-l1-1-0.dll
 0001:00020b1c       __register_onexit_function 00421b1c f   ucrt:api-ms-win-crt-runtime-l1-1-0.dll
 0001:00020b22       __crt_atexit               00421b22 f   ucrt:api-ms-win-crt-runtime-l1-1-0.dll
 0001:00020b28       __except1                  00421b28 f   ucrt:api-ms-win-crt-math-l1-1-0.dll
 0001:00020b2e       _terminate                 00421b2e f   ucrt:api-ms-win-crt-runtime-l1-1-0.dll
 0001:00020b34       __controlfp_s              00421b34 f   ucrt:api-ms-win-crt-runtime-l1-1-0.dll
 0001:00020b3a       ?AfxInitialize@@YGHHK@Z    00421b3a f   mfcs140u:appmodul.obj
 0001:00020b55       _wWinMain@16               00421b55 f   mfcs140u:appmodul.obj
 0001:00020b5e       ?AfxWinMain@@YGHPAUHINSTANCE__@@0PA_WH@Z 00421b5e f   mfc140u:mfc140u.dll
 0001:00020b64       ___acrt_initialize         00421b64 f   msvcrt:ucrt_stubs.obj
 0001:00020b64       ___scrt_stub_for_acrt_initialize 00421b64 f   msvcrt:ucrt_stubs.obj
 0001:00020b64       ___acrt_uninitialize       00421b64 f   msvcrt:ucrt_stubs.obj
 0001:00020b64       ___scrt_stub_for_acrt_uninitialize 00421b64 f   msvcrt:ucrt_stubs.obj
 0001:00020b64       __should_initialize_environment 00421b64 f   msvcrt:env_mode.obj
 0001:00020b64       ___vcrt_initialize         00421b64 f   msvcrt:ucrt_stubs.obj
 0001:00020b64       ___vcrt_uninitialize       00421b64 f   msvcrt:ucrt_stubs.obj
 0002:00000000       __imp__InitCommonControls@0 00424000     comctl32:COMCTL32.dll
 0002:00000004       \177COMCTL32_NULL_THUNK_DATA 00424004     comctl32:COMCTL32.dll
 0002:00000008       __imp__CreateFileW@28      00424008     kernel32:KERNEL32.dll
 0002:0000000c       __imp__GetFileAttributesW@4 0042400c     kernel32:KERNEL32.dll
 0002:00000010       __imp__CloseHandle@4       00424010     kernel32:KERNEL32.dll
 0002:00000014       __imp__SetUnhandledExceptionFilter@4 00424014     kernel32:KERNEL32.dll
 0002:00000018       __imp__GetCurrentProcess@0 00424018     kernel32:KERNEL32.dll
 0002:0000001c       __imp__GetCurrentProcessId@0 0042401c     kernel32:KERNEL32.dll
 0002:00000020       __imp__GetCurrentThreadId@0 00424020     kernel32:KERNEL32.dll
 0002:00000024       __imp__GetModuleFileNameW@12 00424024     kernel32:KERNEL32.dll
 0002:00000028       __imp__lstrcpynW@12        00424028     kernel32:KERNEL32.dll
 0002:0000002c       __imp__lstrlenW@4          0042402c     kernel32:KERNEL32.dll
 0002:00000030       __imp__GetLastError@0      00424030     kernel32:KERNEL32.dll
 0002:00000034       __imp__GetLocalTime@4      00424034     kernel32:KERNEL32.dll
 0002:00000038       __imp__GetProcAddress@8    00424038     kernel32:KERNEL32.dll
 0002:0000003c       __imp__lstrcpynA@12        0042403c     kernel32:KERNEL32.dll
 0002:00000040       __imp__MultiByteToWideChar@24 00424040     kernel32:KERNEL32.dll
 0002:00000044       __imp__CompareStringW@24   00424044     kernel32:KERNEL32.dll
 0002:00000048       __imp__EnterCriticalSection@4 00424048     kernel32:KERNEL32.dll
 0002:0000004c       __imp__LeaveCriticalSection@4 0042404c     kernel32:KERNEL32.dll
 0002:00000050       __imp__InitializeCriticalSectionAndSpinCount@8 00424050     kernel32:KERNEL32.dll
 0002:00000054       __imp__DeleteCriticalSection@4 00424054     kernel32:KERNEL32.dll
 0002:00000058       __imp__CreateDirectoryW@8  00424058     kernel32:KERNEL32.dll
 0002:0000005c       __imp__lstrlenA@4          0042405c     kernel32:KERNEL32.dll
 0002:00000060       __imp__WideCharToMultiByte@32 00424060     kernel32:KERNEL32.dll
 0002:00000064       __imp__GetModuleHandleW@4  00424064     kernel32:KERNEL32.dll
 0002:00000068       __imp__SetEvent@4          00424068     kernel32:KERNEL32.dll
 0002:0000006c       __imp__ResetEvent@4        0042406c     kernel32:KERNEL32.dll
 0002:00000070       __imp__WaitForSingleObjectEx@12 00424070     kernel32:KERNEL32.dll
 0002:00000074       __imp__CreateEventW@16     00424074     kernel32:KERNEL32.dll
 0002:00000078       __imp__QueryPerformanceCounter@4 00424078     kernel32:KERNEL32.dll
 0002:0000007c       __imp__GetSystemTimeAsFileTime@4 0042407c     kernel32:KERNEL32.dll
 0002:00000080       __imp__InitializeSListHead@4 00424080     kernel32:KERNEL32.dll
 0002:00000084       __imp__IsDebuggerPresent@0 00424084     kernel32:KERNEL32.dll
 0002:00000088       __imp__UnhandledExceptionFilter@4 00424088     kernel32:KERNEL32.dll
 0002:0000008c       __imp__GetStartupInfoW@4   0042408c     kernel32:KERNEL32.dll
 0002:00000090       __imp__IsProcessorFeaturePresent@4 00424090     kernel32:KERNEL32.dll
 0002:00000094       __imp__TerminateProcess@8  00424094     kernel32:KERNEL32.dll
 0002:00000098       __imp__OutputDebugStringW@4 00424098     kernel32:KERNEL32.dll
 0002:0000009c       __imp__GetCurrentDirectoryW@8 0042409c     kernel32:KERNEL32.dll
 0002:000000a0       \177KERNEL32_NULL_THUNK_DATA 004240a0     kernel32:KERNEL32.dll
 0002:000000a4       __imp_?ResetParameter@CDataBaseAide@@QAEXXZ 004240a4     KernelEngine:KernelEngine.dll
 0002:000000a8       __imp_?ExecuteProcess@CDataBaseAide@@QAEJPB_W_N@Z 004240a8     KernelEngine:KernelEngine.dll
 0002:000000ac       __imp_?AddParameterOutput@CDataBaseAide@@QAEXPB_WPA_WIW4ParameterDirectionEnum@ADOCG@@@Z 004240ac     KernelEngine:KernelEngine.dll
 0002:000000b0       __imp_?AddParameter@CDataBaseAide@@QAEXPB_WAAU_SYSTEMTIME@@W4ParameterDirectionEnum@ADOCG@@@Z 004240b0     KernelEngine:KernelEngine.dll
 0002:000000b4       __imp_?AddParameter@CDataBaseAide@@QAEXPB_W0W4ParameterDirectionEnum@ADOCG@@@Z 004240b4     KernelEngine:KernelEngine.dll
 0002:000000b8       __imp_?AddParameter@CDataBaseAide@@QAEXPB_WKW4ParameterDirectionEnum@ADOCG@@@Z 004240b8     KernelEngine:KernelEngine.dll
 0002:000000bc       __imp_?AddParameter@CDataBaseAide@@QAEXPB_WGW4ParameterDirectionEnum@ADOCG@@@Z 004240bc     KernelEngine:KernelEngine.dll
 0002:000000c0       __imp_?AddParameter@CDataBaseAide@@QAEXPB_WEW4ParameterDirectionEnum@ADOCG@@@Z 004240c0     KernelEngine:KernelEngine.dll
 0002:000000c4       __imp_?AddParameter@CDataBaseAide@@QAEXPB_W_JW4ParameterDirectionEnum@ADOCG@@@Z 004240c4     KernelEngine:KernelEngine.dll
 0002:000000c8       __imp_?AddParameter@CDataBaseAide@@QAEXPB_WHW4ParameterDirectionEnum@ADOCG@@@Z 004240c8     KernelEngine:KernelEngine.dll
 0002:000000cc       __imp_??1CTraceServiceControl@@UAE@XZ 004240cc     KernelEngine:KernelEngine.dll
 0002:000000d0       __imp_??0CTraceServiceControl@@QAE@XZ 004240d0     KernelEngine:KernelEngine.dll
 0002:000000d4       __imp_?TraceString@CTraceService@@SA_NPB_WW4enTraceLevel@@@Z 004240d4     KernelEngine:KernelEngine.dll
 0002:000000d8       __imp_??0CDataBaseAide@@QAE@PAUIUnknownEx@@@Z 004240d8     KernelEngine:KernelEngine.dll
 0002:000000dc       __imp_?GetValue_String@CDataBaseAide@@QAEXPB_WPA_WI@Z 004240dc     KernelEngine:KernelEngine.dll
 0002:000000e0       __imp_?GetValue_SystemTime@CDataBaseAide@@QAEXPB_WAAU_SYSTEMTIME@@@Z 004240e0     KernelEngine:KernelEngine.dll
 0002:000000e4       __imp_?GetValue_LONGLONG@CDataBaseAide@@QAE_JPB_W@Z 004240e4     KernelEngine:KernelEngine.dll
 0002:000000e8       __imp_?GetValue_DWORD@CDataBaseAide@@QAEKPB_W@Z 004240e8     KernelEngine:KernelEngine.dll
 0002:000000ec       __imp_?GetValue_WORD@CDataBaseAide@@QAEGPB_W@Z 004240ec     KernelEngine:KernelEngine.dll
 0002:000000f0       __imp_?GetValue_BYTE@CDataBaseAide@@QAEEPB_W@Z 004240f0     KernelEngine:KernelEngine.dll
 0002:000000f4       __imp_?GetValue_INT@CDataBaseAide@@QAEHPB_W@Z 004240f4     KernelEngine:KernelEngine.dll
 0002:000000f8       __imp_?SetDataBase@CDataBaseAide@@QAE_NPAUIUnknownEx@@@Z 004240f8     KernelEngine:KernelEngine.dll
 0002:000000fc       __imp_??1CDataBaseAide@@UAE@XZ 004240fc     KernelEngine:KernelEngine.dll
 0002:00000100       \177KernelEngine_NULL_THUNK_DATA 00424100     KernelEngine:KernelEngine.dll
 0002:00000104       __imp__VariantClear@4      00424104     oleaut32:OLEAUT32.dll
 0002:00000108       __imp__VariantInit@4       00424108     oleaut32:OLEAUT32.dll
 0002:0000010c       \177OLEAUT32_NULL_THUNK_DATA 0042410c     oleaut32:OLEAUT32.dll
 0002:00000110       __imp_?DistillData@CWHDataQueue@@QAE_NAAUtagDataHead@@PAXG@Z 00424110     ServiceCore:ServiceCore.dll
 0002:00000114       __imp_??1CWHDataQueue@@UAE@XZ 00424114     ServiceCore:ServiceCore.dll
 0002:00000118       __imp_??0CWHDataQueue@@QAE@XZ 00424118     ServiceCore:ServiceCore.dll
 0002:0000011c       __imp_?ReadEncryptString@CWHIniData@@QAEPB_WPB_W00PA_WG@Z 0042411c     ServiceCore:ServiceCore.dll
 0002:00000120       __imp_?ReadInt@CWHIniData@@QAEIPB_W0H@Z 00424120     ServiceCore:ServiceCore.dll
 0002:00000124       __imp_?SetIniFilePath@CWHIniData@@QAEXPB_W@Z 00424124     ServiceCore:ServiceCore.dll
 0002:00000128       __imp_??1CWHIniData@@UAE@XZ 00424128     ServiceCore:ServiceCore.dll
 0002:0000012c       __imp_??0CWHIniData@@QAE@XZ 0042412c     ServiceCore:ServiceCore.dll
 0002:00000130       __imp_??1CWHDataLocker@@UAE@XZ 00424130     ServiceCore:ServiceCore.dll
 0002:00000134       __imp_??0CWHDataLocker@@QAE@AAVCCriticalSection@@_N@Z 00424134     ServiceCore:ServiceCore.dll
 0002:00000138       __imp_?GetWorkDirectory@CWHService@@SA_NQA_WG@Z 00424138     ServiceCore:ServiceCore.dll
 0002:0000013c       __imp_?InsertData@CWHDataQueue@@QAE_NGPAXG@Z 0042413c     ServiceCore:ServiceCore.dll
 0002:00000140       \177ServiceCore_NULL_THUNK_DATA 00424140     ServiceCore:ServiceCore.dll
 0002:00000144       __imp__IsWindow@4          00424144     user32:USER32.dll
 0002:00000148       __imp__PostMessageW@16     00424148     user32:USER32.dll
 0002:0000014c       __imp__wsprintfW           0042414c     user32:USER32.dll
 0002:00000150       __imp__LoadIconW@8         00424150     user32:USER32.dll
 0002:00000154       __imp__EnableWindow@8      00424154     user32:USER32.dll
 0002:00000158       __imp__SendMessageW@16     00424158     user32:USER32.dll
 0002:0000015c       \177USER32_NULL_THUNK_DATA 0042415c     user32:USER32.dll
 0002:00000160       __imp___purecall           00424160     vcruntime:VCRUNTIME140.dll
 0002:00000164       __imp__memset              00424164     vcruntime:VCRUNTIME140.dll
 0002:00000168       __imp____CxxFrameHandler3  00424168     vcruntime:VCRUNTIME140.dll
 0002:0000016c       __imp__memcpy              0042416c     vcruntime:VCRUNTIME140.dll
 0002:00000170       __imp____std_terminate     00424170     vcruntime:VCRUNTIME140.dll
 0002:00000174       __imp__memmove             00424174     vcruntime:VCRUNTIME140.dll
 0002:00000178       __imp___CxxThrowException@8 00424178     vcruntime:VCRUNTIME140.dll
 0002:0000017c       __imp____vcrt_InitializeCriticalSectionEx 0042417c     vcruntime:VCRUNTIME140.dll
 0002:00000180       __imp___except_handler4_common 00424180     vcruntime:VCRUNTIME140.dll
 0002:00000184       __imp__wcsrchr             00424184     vcruntime:VCRUNTIME140.dll
 0002:00000188       \177VCRUNTIME140_NULL_THUNK_DATA 00424188     vcruntime:VCRUNTIME140.dll
 0002:0000018c       __imp___wtol               0042418c     ucrt:api-ms-win-crt-convert-l1-1-0.dll
 0002:00000190       __imp___wtoi               00424190     ucrt:api-ms-win-crt-convert-l1-1-0.dll
 0002:00000194       \177api-ms-win-crt-convert-l1-1-0_NULL_THUNK_DATA 00424194     ucrt:api-ms-win-crt-convert-l1-1-0.dll
 0002:00000198       __imp___recalloc           00424198     ucrt:api-ms-win-crt-heap-l1-1-0.dll
 0002:0000019c       __imp__calloc              0042419c     ucrt:api-ms-win-crt-heap-l1-1-0.dll
 0002:000001a0       __imp__free                004241a0     ucrt:api-ms-win-crt-heap-l1-1-0.dll
 0002:000001a4       __imp___set_new_mode       004241a4     ucrt:api-ms-win-crt-heap-l1-1-0.dll
 0002:000001a8       \177api-ms-win-crt-heap-l1-1-0_NULL_THUNK_DATA 004241a8     ucrt:api-ms-win-crt-heap-l1-1-0.dll
 0002:000001ac       __imp__setlocale           004241ac     ucrt:api-ms-win-crt-locale-l1-1-0.dll
 0002:000001b0       __imp___configthreadlocale 004241b0     ucrt:api-ms-win-crt-locale-l1-1-0.dll
 0002:000001b4       \177api-ms-win-crt-locale-l1-1-0_NULL_THUNK_DATA 004241b4     ucrt:api-ms-win-crt-locale-l1-1-0.dll
 0002:000001b8       __imp____setusermatherr    004241b8     ucrt:api-ms-win-crt-math-l1-1-0.dll
 0002:000001bc       __imp___except1            004241bc     ucrt:api-ms-win-crt-math-l1-1-0.dll
 0002:000001c0       \177api-ms-win-crt-math-l1-1-0_NULL_THUNK_DATA 004241c0     ucrt:api-ms-win-crt-math-l1-1-0.dll
 0002:000001c4       __imp__exit                004241c4     ucrt:api-ms-win-crt-runtime-l1-1-0.dll
 0002:000001c8       __imp___invalid_parameter_noinfo 004241c8     ucrt:api-ms-win-crt-runtime-l1-1-0.dll
 0002:000001cc       __imp___seh_filter_exe     004241cc     ucrt:api-ms-win-crt-runtime-l1-1-0.dll
 0002:000001d0       __imp___controlfp_s        004241d0     ucrt:api-ms-win-crt-runtime-l1-1-0.dll
 0002:000001d4       __imp__terminate           004241d4     ucrt:api-ms-win-crt-runtime-l1-1-0.dll
 0002:000001d8       __imp___crt_atexit         004241d8     ucrt:api-ms-win-crt-runtime-l1-1-0.dll
 0002:000001dc       __imp___register_onexit_function 004241dc     ucrt:api-ms-win-crt-runtime-l1-1-0.dll
 0002:000001e0       __imp___initialize_onexit_table 004241e0     ucrt:api-ms-win-crt-runtime-l1-1-0.dll
 0002:000001e4       __imp___set_app_type       004241e4     ucrt:api-ms-win-crt-runtime-l1-1-0.dll
 0002:000001e8       __imp___register_thread_local_exe_atexit_callback 004241e8     ucrt:api-ms-win-crt-runtime-l1-1-0.dll
 0002:000001ec       __imp___c_exit             004241ec     ucrt:api-ms-win-crt-runtime-l1-1-0.dll
 0002:000001f0       __imp___cexit              004241f0     ucrt:api-ms-win-crt-runtime-l1-1-0.dll
 0002:000001f4       __imp___configure_wide_argv 004241f4     ucrt:api-ms-win-crt-runtime-l1-1-0.dll
 0002:000001f8       __imp___exit               004241f8     ucrt:api-ms-win-crt-runtime-l1-1-0.dll
 0002:000001fc       __imp___initialize_wide_environment 004241fc     ucrt:api-ms-win-crt-runtime-l1-1-0.dll
 0002:00000200       __imp___initterm_e         00424200     ucrt:api-ms-win-crt-runtime-l1-1-0.dll
 0002:00000204       __imp___initterm           00424204     ucrt:api-ms-win-crt-runtime-l1-1-0.dll
 0002:00000208       __imp___get_wide_winmain_command_line 00424208     ucrt:api-ms-win-crt-runtime-l1-1-0.dll
 0002:0000020c       __imp___errno              0042420c     ucrt:api-ms-win-crt-runtime-l1-1-0.dll
 0002:00000210       \177api-ms-win-crt-runtime-l1-1-0_NULL_THUNK_DATA 00424210     ucrt:api-ms-win-crt-runtime-l1-1-0.dll
 0002:00000214       __imp____p__commode        00424214     ucrt:api-ms-win-crt-stdio-l1-1-0.dll
 0002:00000218       __imp____stdio_common_vsnprintf_s 00424218     ucrt:api-ms-win-crt-stdio-l1-1-0.dll
 0002:0000021c       __imp___set_fmode          0042421c     ucrt:api-ms-win-crt-stdio-l1-1-0.dll
 0002:00000220       __imp____stdio_common_vsnwprintf_s 00424220     ucrt:api-ms-win-crt-stdio-l1-1-0.dll
 0002:00000224       __imp____stdio_common_vswprintf 00424224     ucrt:api-ms-win-crt-stdio-l1-1-0.dll
 0002:00000228       __imp____stdio_common_vswprintf_s 00424228     ucrt:api-ms-win-crt-stdio-l1-1-0.dll
 0002:0000022c       \177api-ms-win-crt-stdio-l1-1-0_NULL_THUNK_DATA 0042422c     ucrt:api-ms-win-crt-stdio-l1-1-0.dll
 0002:00000230       __imp___strdup             00424230     ucrt:api-ms-win-crt-string-l1-1-0.dll
 0002:00000234       \177api-ms-win-crt-string-l1-1-0_NULL_THUNK_DATA 00424234     ucrt:api-ms-win-crt-string-l1-1-0.dll
 0002:00000238       __imp___localtime64_s      00424238     ucrt:api-ms-win-crt-time-l1-1-0.dll
 0002:0000023c       __imp___mktime64           0042423c     ucrt:api-ms-win-crt-time-l1-1-0.dll
 0002:00000240       __imp___difftime64         00424240     ucrt:api-ms-win-crt-time-l1-1-0.dll
 0002:00000244       __imp___localtime64        00424244     ucrt:api-ms-win-crt-time-l1-1-0.dll
 0002:00000248       __imp___time64             00424248     ucrt:api-ms-win-crt-time-l1-1-0.dll
 0002:0000024c       \177api-ms-win-crt-time-l1-1-0_NULL_THUNK_DATA 0042424c     ucrt:api-ms-win-crt-time-l1-1-0.dll
 0002:00000250       __imp__ldiv                00424250     ucrt:api-ms-win-crt-utility-l1-1-0.dll
 0002:00000254       \177api-ms-win-crt-utility-l1-1-0_NULL_THUNK_DATA 00424254     ucrt:api-ms-win-crt-utility-l1-1-0.dll
 0002:00000258       __imp__MiniDumpWriteDump@28 00424258     DbgHelp:dbghelp.dll
 0002:0000025c       \177dbghelp_NULL_THUNK_DATA 0042425c     DbgHelp:dbghelp.dll
 0002:00000260       __imp_?Mid@?$CStringT@_WV?$StrTraitMFC_DLL@_WV?$ChTraitsCRT@_W@ATL@@@@@ATL@@QBE?AV12@HH@Z 00424260     mfc140u:mfc140u.dll
 0002:00000264       __imp_??0CDWordArray@@QAE@XZ 00424264     mfc140u:mfc140u.dll
 0002:00000268       __imp_?SetSize@CDWordArray@@QAEXHH@Z 00424268     mfc140u:mfc140u.dll
 0002:0000026c       __imp_?SetAtGrow@CDWordArray@@QAEXHK@Z 0042426c     mfc140u:mfc140u.dll
 0002:00000270       __imp_??1CDWordArray@@UAE@XZ 00424270     mfc140u:mfc140u.dll
 0002:00000274       __imp_?AfxLoadLibrary@@YGPAUHINSTANCE__@@PB_W@Z 00424274     mfc140u:mfc140u.dll
 0002:00000278       __imp_?AfxFreeLibrary@@YGHPAUHINSTANCE__@@@Z 00424278     mfc140u:mfc140u.dll
 0002:0000027c       __imp_??2@YAPAXI@Z         0042427c     mfc140u:mfc140u.dll
 0002:00000280       __imp_?AfxThrowArchiveException@@YGXHPB_W@Z 00424280     mfc140u:mfc140u.dll
 0002:00000284       __imp_?GetRuntimeClass@CObject@@UBEPAUCRuntimeClass@@XZ 00424284     mfc140u:mfc140u.dll
 0002:00000288       __imp_?Read@CArchive@@QAEIPAXI@Z 00424288     mfc140u:mfc140u.dll
 0002:0000028c       __imp_?Write@CArchive@@QAEXPBXI@Z 0042428c     mfc140u:mfc140u.dll
 0002:00000290       __imp_?ReadCount@CArchive@@QAEKXZ 00424290     mfc140u:mfc140u.dll
 0002:00000294       __imp_?WriteCount@CArchive@@QAEXK@Z 00424294     mfc140u:mfc140u.dll
 0002:00000298       __imp_?Create@CPlex@@SGPAU1@AAPAU1@II@Z 00424298     mfc140u:mfc140u.dll
 0002:0000029c       __imp_?FreeDataChain@CPlex@@QAEXXZ 0042429c     mfc140u:mfc140u.dll
 0002:000002a0       __imp_?RemoveAt@CDWordArray@@QAEXHH@Z 004242a0     mfc140u:mfc140u.dll
 0002:000002a4       __imp_?OnGesturePressAndTap@CWnd@@MAEHVCPoint@@J@Z 004242a4     mfc140u:mfc140u.dll
 0002:000002a8       __imp_??0CWnd@@QAE@XZ      004242a8     mfc140u:mfc140u.dll
 0002:000002ac       __imp_?PreTranslateMessage@CWnd@@UAEHPAUtagMSG@@@Z 004242ac     mfc140u:mfc140u.dll
 0002:000002b0       __imp_??1CWnd@@UAE@XZ      004242b0     mfc140u:mfc140u.dll
 0002:000002b4       __imp_?CheckAutoCenter@CWnd@@UAEHXZ 004242b4     mfc140u:mfc140u.dll
 0002:000002b8       __imp_?SetOccDialogInfo@CWnd@@MAEHPAU_AFX_OCC_DIALOG_INFO@@@Z 004242b8     mfc140u:mfc140u.dll
 0002:000002bc       __imp_?GetOccDialogInfo@CWnd@@MAEPAU_AFX_OCC_DIALOG_INFO@@XZ 004242bc     mfc140u:mfc140u.dll
 0002:000002c0       __imp_?GetThisMessageMap@CWnd@@KGPBUAFX_MSGMAP@@XZ 004242c0     mfc140u:mfc140u.dll
 0002:000002c4       __imp_?AfxGetThread@@YGPAVCWinThread@@XZ 004242c4     mfc140u:mfc140u.dll
 0002:000002c8       __imp_??0CSyncObject@@QAE@PB_W@Z 004242c8     mfc140u:mfc140u.dll
 0002:000002cc       __imp_??1CSyncObject@@UAE@XZ 004242cc     mfc140u:mfc140u.dll
 0002:000002d0       __imp_?GetRuntimeClass@CCriticalSection@@UBEPAUCRuntimeClass@@XZ 004242d0     mfc140u:mfc140u.dll
 0002:000002d4       __imp_?Append@?$CSimpleStringT@D$00@ATL@@QAEXPBD@Z 004242d4     mfc140u:mfc140u.dll
 0002:000002d8       __imp_?Empty@?$CSimpleStringT@D$00@ATL@@QAEXXZ 004242d8     mfc140u:mfc140u.dll
 0002:000002dc       __imp_??0?$CStringT@DV?$StrTraitMFC_DLL@DV?$ChTraitsCRT@D@ATL@@@@@ATL@@QAE@XZ 004242dc     mfc140u:mfc140u.dll
 0002:000002e0       __imp_??1?$CStringT@DV?$StrTraitMFC_DLL@DV?$ChTraitsCRT@D@ATL@@@@@ATL@@QAE@XZ 004242e0     mfc140u:mfc140u.dll
 0002:000002e4       __imp_?Find@?$CStringT@DV?$StrTraitMFC_DLL@DV?$ChTraitsCRT@D@ATL@@@@@ATL@@QBEHPBDH@Z 004242e4     mfc140u:mfc140u.dll
 0002:000002e8       __imp_?OnGestureTwoFingerTap@CWnd@@MAEHVCPoint@@@Z 004242e8     mfc140u:mfc140u.dll
 0002:000002ec       __imp_?OnGestureRotate@CWnd@@MAEHVCPoint@@N@Z 004242ec     mfc140u:mfc140u.dll
 0002:000002f0       __imp_?OnGesturePan@CWnd@@MAEHVCPoint@@0@Z 004242f0     mfc140u:mfc140u.dll
 0002:000002f4       __imp_?OnGestureZoom@CWnd@@MAEHVCPoint@@J@Z 004242f4     mfc140u:mfc140u.dll
 0002:000002f8       __imp_?GetGestureStatus@CWnd@@MAEKVCPoint@@@Z 004242f8     mfc140u:mfc140u.dll
 0002:000002fc       __imp_?OnTouchInput@CWnd@@MAEHVCPoint@@HHPAUtagTOUCHINPUT@@@Z 004242fc     mfc140u:mfc140u.dll
 0002:00000300       __imp_?OnTouchInputs@CWnd@@MAEHIPAUtagTOUCHINPUT@@@Z 00424300     mfc140u:mfc140u.dll
 0002:00000304       __imp_?OnChildNotify@CWnd@@MAEHIIJPAJ@Z 00424304     mfc140u:mfc140u.dll
 0002:00000308       __imp_?PostNcDestroy@CWnd@@MAEXXZ 00424308     mfc140u:mfc140u.dll
 0002:0000030c       __imp_?DefWindowProcW@CWnd@@MAEJIIJ@Z 0042430c     mfc140u:mfc140u.dll
 0002:00000310       __imp_?OnWndMsg@CWnd@@MAEHIIJPAJ@Z 00424310     mfc140u:mfc140u.dll
 0002:00000314       __imp_?WindowProc@CWnd@@MAEJIIJ@Z 00424314     mfc140u:mfc140u.dll
 0002:00000318       __imp_?OnAmbientProperty@CWnd@@UAEHPAVCOleControlSite@@JPAUtagVARIANT@@@Z 00424318     mfc140u:mfc140u.dll
 0002:0000031c       __imp_?GetSuperWndProcAddr@CWnd@@MAEPAP6GJPAUHWND__@@IIJ@ZXZ 0042431c     mfc140u:mfc140u.dll
 0002:00000320       __imp_?OnNotify@CWnd@@MAEHIJPAJ@Z 00424320     mfc140u:mfc140u.dll
 0002:00000324       __imp_?OnCommand@CWnd@@MAEHIJ@Z 00424324     mfc140u:mfc140u.dll
 0002:00000328       __imp_?CreateAccessibleProxy@CWnd@@UAEJIJPAJ@Z 00424328     mfc140u:mfc140u.dll
 0002:0000032c       __imp_?SetProxy@CWnd@@UAEJPAUIAccessibleProxy@@@Z 0042432c     mfc140u:mfc140u.dll
 0002:00000330       __imp_?put_accValue@CWnd@@UAEJUtagVARIANT@@PA_W@Z 00424330     mfc140u:mfc140u.dll
 0002:00000334       __imp_?put_accName@CWnd@@UAEJUtagVARIANT@@PA_W@Z 00424334     mfc140u:mfc140u.dll
 0002:00000338       __imp_?accDoDefaultAction@CWnd@@UAEJUtagVARIANT@@@Z 00424338     mfc140u:mfc140u.dll
 0002:0000033c       __imp_?accHitTest@CWnd@@UAEJJJPAUtagVARIANT@@@Z 0042433c     mfc140u:mfc140u.dll
 0002:00000340       __imp_?accNavigate@CWnd@@UAEJJUtagVARIANT@@PAU2@@Z 00424340     mfc140u:mfc140u.dll
 0002:00000344       __imp_?accLocation@CWnd@@UAEJPAJ000UtagVARIANT@@@Z 00424344     mfc140u:mfc140u.dll
 0002:00000348       __imp_?accSelect@CWnd@@UAEJJUtagVARIANT@@@Z 00424348     mfc140u:mfc140u.dll
 0002:0000034c       __imp_?get_accDefaultAction@CWnd@@UAEJUtagVARIANT@@PAPA_W@Z 0042434c     mfc140u:mfc140u.dll
 0002:00000350       __imp_?get_accSelection@CWnd@@UAEJPAUtagVARIANT@@@Z 00424350     mfc140u:mfc140u.dll
 0002:00000354       __imp_?get_accFocus@CWnd@@UAEJPAUtagVARIANT@@@Z 00424354     mfc140u:mfc140u.dll
 0002:00000358       __imp_?get_accKeyboardShortcut@CWnd@@UAEJUtagVARIANT@@PAPA_W@Z 00424358     mfc140u:mfc140u.dll
 0002:0000035c       __imp_?get_accHelpTopic@CWnd@@UAEJPAPA_WUtagVARIANT@@PAJ@Z 0042435c     mfc140u:mfc140u.dll
 0002:00000360       __imp_?get_accHelp@CWnd@@UAEJUtagVARIANT@@PAPA_W@Z 00424360     mfc140u:mfc140u.dll
 0002:00000364       __imp_?get_accState@CWnd@@UAEJUtagVARIANT@@PAU2@@Z 00424364     mfc140u:mfc140u.dll
 0002:00000368       __imp_?Find@?$CStringT@_WV?$StrTraitMFC_DLL@_WV?$ChTraitsCRT@_W@ATL@@@@@ATL@@QBEH_WH@Z 00424368     mfc140u:mfc140u.dll
 0002:0000036c       __imp_?get_accDescription@CWnd@@UAEJUtagVARIANT@@PAPA_W@Z 0042436c     mfc140u:mfc140u.dll
 0002:00000370       __imp_?get_accValue@CWnd@@UAEJUtagVARIANT@@PAPA_W@Z 00424370     mfc140u:mfc140u.dll
 0002:00000374       __imp_?get_accName@CWnd@@UAEJUtagVARIANT@@PAPA_W@Z 00424374     mfc140u:mfc140u.dll
 0002:00000378       __imp_?get_accChild@CWnd@@UAEJUtagVARIANT@@PAPAUIDispatch@@@Z 00424378     mfc140u:mfc140u.dll
 0002:0000037c       __imp_?get_accChildCount@CWnd@@UAEJPAJ@Z 0042437c     mfc140u:mfc140u.dll
 0002:00000380       __imp_?get_accParent@CWnd@@UAEJPAPAUIDispatch@@@Z 00424380     mfc140u:mfc140u.dll
 0002:00000384       __imp_?EnsureStdObj@CWnd@@UAEJXZ 00424384     mfc140u:mfc140u.dll
 0002:00000388       __imp_?GetInterfaceMap@CWnd@@MBEPBUAFX_INTERFACEMAP@@XZ 00424388     mfc140u:mfc140u.dll
 0002:0000038c       __imp_?OnDrawIconicThumbnailOrLivePreview@CWnd@@UAEXAAVCDC@@VCRect@@VCSize@@HAAH@Z 0042438c     mfc140u:mfc140u.dll
 0002:00000390       __imp_?EndModalLoop@CWnd@@UAEXH@Z 00424390     mfc140u:mfc140u.dll
 0002:00000394       __imp_?ContinueModal@CWnd@@UAEHXZ 00424394     mfc140u:mfc140u.dll
 0002:00000398       __imp_??0?$CStringT@_WV?$StrTraitMFC_DLL@_WV?$ChTraitsCRT@_W@ATL@@@@@ATL@@QAE@PB_W@Z 00424398     mfc140u:mfc140u.dll
 0002:0000039c       __imp_?HtmlHelpW@CWnd@@UAEXKI@Z 0042439c     mfc140u:mfc140u.dll
 0002:000003a0       __imp_?WinHelpW@CWnd@@UAEXKI@Z 004243a0     mfc140u:mfc140u.dll
 0002:000003a4       __imp_?GetScrollBarCtrl@CWnd@@UBEPAVCScrollBar@@H@Z 004243a4     mfc140u:mfc140u.dll
 0002:000003a8       __imp_?EnableWindow@CWnd@@QAEHH@Z 004243a8     mfc140u:mfc140u.dll
 0002:000003ac       __imp_?OnToolHitTest@CWnd@@UBEHVCPoint@@PAUtagTOOLINFOW@@@Z 004243ac     mfc140u:mfc140u.dll
 0002:000003b0       __imp_?SetMenu@CWnd@@UAEHPAVCMenu@@@Z 004243b0     mfc140u:mfc140u.dll
 0002:000003b4       __imp_?GetMenu@CWnd@@UBEPAVCMenu@@XZ 004243b4     mfc140u:mfc140u.dll
 0002:000003b8       __imp_?SetWindowTextW@CWnd@@QAEXPB_W@Z 004243b8     mfc140u:mfc140u.dll
 0002:000003bc       __imp_?GetDlgItem@CWnd@@QBEPAV1@H@Z 004243bc     mfc140u:mfc140u.dll
 0002:000003c0       __imp_?CalcWindowRect@CWnd@@UAEXPAUtagRECT@@I@Z 004243c0     mfc140u:mfc140u.dll
 0002:000003c4       __imp_?PreCreateWindow@CWnd@@UAEHAAUtagCREATESTRUCTW@@@Z 004243c4     mfc140u:mfc140u.dll
 0002:000003c8       __imp_?DestroyWindow@CWnd@@UAEHXZ 004243c8     mfc140u:mfc140u.dll
 0002:000003cc       __imp_?CreateEx@CWnd@@UAEHKPB_W0KABUtagRECT@@PAV1@IPAX@Z 004243cc     mfc140u:mfc140u.dll
 0002:000003d0       __imp_?CreateEx@CWnd@@UAEHKPB_W0KHHHHPAUHWND__@@PAUHMENU__@@PAX@Z 004243d0     mfc140u:mfc140u.dll
 0002:000003d4       __imp_?Create@CWnd@@UAEHPB_W0KABUtagRECT@@PAV1@IPAUCCreateContext@@@Z 004243d4     mfc140u:mfc140u.dll
 0002:000003d8       __imp_?PreSubclassWindow@CWnd@@UAEXXZ 004243d8     mfc140u:mfc140u.dll
 0002:000003dc       __imp_?DDX_Control@@YGXPAVCDataExchange@@HAAVCWnd@@@Z 004243dc     mfc140u:mfc140u.dll
 0002:000003e0       __imp_?AfxGetModuleState@@YGPAVAFX_MODULE_STATE@@XZ 004243e0     mfc140u:mfc140u.dll
 0002:000003e4       __imp_?AfxEnableControlContainer@@YAXPAVCOccManager@@@Z 004243e4     mfc140u:mfc140u.dll
 0002:000003e8       __imp_?LoadSysPolicies@CWinApp@@UAEHXZ 004243e8     mfc140u:mfc140u.dll
 0002:000003ec       __imp_?GetThisMessageMap@CWinApp@@KGPBUAFX_MSGMAP@@XZ 004243ec     mfc140u:mfc140u.dll
 0002:000003f0       __imp_??1CWinApp@@UAE@XZ   004243f0     mfc140u:mfc140u.dll
 0002:000003f4       __imp_?LoadAppLangResourceDLL@CWinApp@@UAEPAUHINSTANCE__@@XZ 004243f4     mfc140u:mfc140u.dll
 0002:000003f8       __imp_?ProcessWndProcException@CWinApp@@UAEJPAVCException@@PBUtagMSG@@@Z 004243f8     mfc140u:mfc140u.dll
 0002:000003fc       __imp_?OnIdle@CWinApp@@UAEHJ@Z 004243fc     mfc140u:mfc140u.dll
 0002:00000400       __imp_?Run@CWinApp@@UAEHXZ 00424400     mfc140u:mfc140u.dll
 0002:00000404       __imp_?RestartInstance@CWinApp@@UAEHXZ 00424404     mfc140u:mfc140u.dll
 0002:00000408       __imp_?ExitInstance@CWinApp@@UAEHXZ 00424408     mfc140u:mfc140u.dll
 0002:0000040c       __imp_?InitInstance@CWinApp@@UAEHXZ 0042440c     mfc140u:mfc140u.dll
 0002:00000410       __imp_?IsTaskbarInteractionEnabled@CWinApp@@UAEHXZ 00424410     mfc140u:mfc140u.dll
 0002:00000414       __imp_?GetDataRecoveryHandler@CWinApp@@UAEPAVCDataRecoveryHandler@@XZ 00424414     mfc140u:mfc140u.dll
 0002:00000418       __imp_?ApplicationRecoveryCallback@CWinApp@@UAEKPAX@Z 00424418     mfc140u:mfc140u.dll
 0002:0000041c       __imp_?RegisterWithRestartManager@CWinApp@@UAEJPB_WKP6GKPAX@Z1KK@Z 0042441c     mfc140u:mfc140u.dll
 0002:00000420       __imp_?RegisterWithRestartManager@CWinApp@@UAEJHABV?$CStringT@_WV?$StrTraitMFC_DLL@_WV?$ChTraitsCRT@_W@ATL@@@@@ATL@@@Z 00424420     mfc140u:mfc140u.dll
 0002:00000424       __imp_?WinHelpInternal@CWinApp@@UAEXKI@Z 00424424     mfc140u:mfc140u.dll
 0002:00000428       __imp_?HtmlHelpW@CWinApp@@UAEXKI@Z 00424428     mfc140u:mfc140u.dll
 0002:0000042c       __imp_?WinHelpW@CWinApp@@UAEXKI@Z 0042442c     mfc140u:mfc140u.dll
 0002:00000430       __imp_?OnDDECommand@CWinApp@@UAEHPA_W@Z 00424430     mfc140u:mfc140u.dll
 0002:00000434       __imp_?DoWaitCursor@CWinApp@@UAEXH@Z 00424434     mfc140u:mfc140u.dll
 0002:00000438       __imp_?DoMessageBox@CWinApp@@UAEHPB_WII@Z 00424438     mfc140u:mfc140u.dll
 0002:0000043c       __imp_?SaveAllModified@CWinApp@@UAEHXZ 0042443c     mfc140u:mfc140u.dll
 0002:00000440       __imp_?InitApplication@CWinApp@@UAEHXZ 00424440     mfc140u:mfc140u.dll
 0002:00000444       __imp_?AddToRecentFileList@CWinApp@@UAEXPB_W@Z 00424444     mfc140u:mfc140u.dll
 0002:00000448       __imp_?OpenDocumentFile@CWinApp@@UAEPAVCDocument@@PB_WH@Z 00424448     mfc140u:mfc140u.dll
 0002:0000044c       __imp_?OpenDocumentFile@CWinApp@@UAEPAVCDocument@@PB_W@Z 0042444c     mfc140u:mfc140u.dll
 0002:00000450       __imp_?Unregister@CWinApp@@UAEHXZ 00424450     mfc140u:mfc140u.dll
 0002:00000454       __imp_?Register@CWinApp@@UAEHXZ 00424454     mfc140u:mfc140u.dll
 0002:00000458       __imp_?InitLibId@CWinApp@@UAEXXZ 00424458     mfc140u:mfc140u.dll
 0002:0000045c       __imp_?WriteProfileBinary@CWinApp@@UAEHPB_W0PAEI@Z 0042445c     mfc140u:mfc140u.dll
 0002:00000460       __imp_?GetProfileBinary@CWinApp@@UAEHPB_W0PAPAEPAI@Z 00424460     mfc140u:mfc140u.dll
 0002:00000464       __imp_?WriteProfileStringW@CWinApp@@UAEHPB_W00@Z 00424464     mfc140u:mfc140u.dll
 0002:00000468       __imp_?GetProfileStringW@CWinApp@@UAE?AV?$CStringT@_WV?$StrTraitMFC_DLL@_WV?$ChTraitsCRT@_W@ATL@@@@@ATL@@PB_W00@Z 00424468     mfc140u:mfc140u.dll
 0002:0000046c       __imp_?WriteProfileInt@CWinApp@@UAEHPB_W0H@Z 0042446c     mfc140u:mfc140u.dll
 0002:00000470       __imp_?GetProfileIntW@CWinApp@@UAEIPB_W0H@Z 00424470     mfc140u:mfc140u.dll
 0002:00000474       __imp_?SetRegistryKey@CWinApp@@IAEXPB_W@Z 00424474     mfc140u:mfc140u.dll
 0002:00000478       __imp_??0CWinApp@@QAE@PB_W@Z 00424478     mfc140u:mfc140u.dll
 0002:0000047c       __imp_?get_accRole@CWnd@@UAEJUtagVARIANT@@PAU2@@Z 0042447c     mfc140u:mfc140u.dll
 0002:00000480       __imp_??4?$CStringT@_WV?$StrTraitMFC_DLL@_WV?$ChTraitsCRT@_W@ATL@@@@@ATL@@QAEAAV01@ABV01@@Z 00424480     mfc140u:mfc140u.dll
 0002:00000484       __imp_?GetRuntimeClass@CWinApp@@UBEPAUCRuntimeClass@@XZ 00424484     mfc140u:mfc140u.dll
 0002:00000488       __imp_?Delete@CWinThread@@UAEXXZ 00424488     mfc140u:mfc140u.dll
 0002:0000048c       __imp_?GetMainWnd@CWinThread@@UAEPAVCWnd@@XZ 0042448c     mfc140u:mfc140u.dll
 0002:00000490       __imp_?ProcessMessageFilter@CWinThread@@UAEHHPAUtagMSG@@@Z 00424490     mfc140u:mfc140u.dll
 0002:00000494       __imp_?IsIdleMessage@CWinThread@@UAEHPAUtagMSG@@@Z 00424494     mfc140u:mfc140u.dll
 0002:00000498       __imp_?PumpMessage@CWinThread@@UAEHXZ 00424498     mfc140u:mfc140u.dll
 0002:0000049c       __imp_?PreTranslateMessage@CWinThread@@UAEHPAUtagMSG@@@Z 0042449c     mfc140u:mfc140u.dll
 0002:000004a0       __imp_?DoModal@CDialog@@UAEHXZ 004244a0     mfc140u:mfc140u.dll
 0002:000004a4       __imp_?AfxInitRichEdit2@@YGHXZ 004244a4     mfc140u:mfc140u.dll
 0002:000004a8       __imp_?GetConnectionHook@CCmdTarget@@MAEPAUIConnectionPoint@@ABU_GUID@@@Z 004244a8     mfc140u:mfc140u.dll
 0002:000004ac       __imp_?GetExtraConnectionPoints@CCmdTarget@@MAEHPAVCPtrArray@@@Z 004244ac     mfc140u:mfc140u.dll
 0002:000004b0       __imp_?GetInterfaceHook@CCmdTarget@@UAEPAUIUnknown@@PBX@Z 004244b0     mfc140u:mfc140u.dll
 0002:000004b4       __imp_?Close@CStdioFile@@UAEXXZ 004244b4     mfc140u:mfc140u.dll
 0002:000004b8       __imp_?Flush@CStdioFile@@UAEXXZ 004244b8     mfc140u:mfc140u.dll
 0002:000004bc       __imp_?Open@CStdioFile@@UAEHPB_WIPAVCFileException@@@Z 004244bc     mfc140u:mfc140u.dll
 0002:000004c0       __imp_?GetLength@CStdioFile@@UBE_KXZ 004244c0     mfc140u:mfc140u.dll
 0002:000004c4       __imp_??1CStdioFile@@UAE@XZ 004244c4     mfc140u:mfc140u.dll
 0002:000004c8       __imp_?WriteString@CStdioFile@@UAEXPB_W@Z 004244c8     mfc140u:mfc140u.dll
 0002:000004cc       __imp_?OnCreateAggregates@CCmdTarget@@UAEHXZ 004244cc     mfc140u:mfc140u.dll
 0002:000004d0       __imp_?GetEventSinkMap@CCmdTarget@@MBEPBUAFX_EVENTSINKMAP@@XZ 004244d0     mfc140u:mfc140u.dll
 0002:000004d4       __imp_??0CStdioFile@@QAE@XZ 004244d4     mfc140u:mfc140u.dll
 0002:000004d8       __imp_?AppendFormat@?$CStringT@_WV?$StrTraitMFC_DLL@_WV?$ChTraitsCRT@_W@ATL@@@@@ATL@@QAAXPB_WZZ 004244d8     mfc140u:mfc140u.dll
 0002:000004dc       __imp_?Format@?$CStringT@_WV?$StrTraitMFC_DLL@_WV?$ChTraitsCRT@_W@ATL@@@@@ATL@@QAAXPB_WZZ 004244dc     mfc140u:mfc140u.dll
 0002:000004e0       __imp_??1?$CStringT@_WV?$StrTraitMFC_DLL@_WV?$ChTraitsCRT@_W@ATL@@@@@ATL@@QAE@XZ 004244e0     mfc140u:mfc140u.dll
 0002:000004e4       __imp_??0?$CStringT@_WV?$StrTraitMFC_DLL@_WV?$ChTraitsCRT@_W@ATL@@@@@ATL@@QAE@XZ 004244e4     mfc140u:mfc140u.dll
 0002:000004e8       __imp_?IsEmpty@?$CSimpleStringT@_W$00@ATL@@QBE_NXZ 004244e8     mfc140u:mfc140u.dll
 0002:000004ec       __imp_?GetInterfaceMap@CCmdTarget@@MBEPBUAFX_INTERFACEMAP@@XZ 004244ec     mfc140u:mfc140u.dll
 0002:000004f0       __imp_?GetConnectionMap@CCmdTarget@@MBEPBUAFX_CONNECTIONMAP@@XZ 004244f0     mfc140u:mfc140u.dll
 0002:000004f4       __imp_?GetString@?$CSimpleStringT@_W$00@ATL@@QBEPB_WXZ 004244f4     mfc140u:mfc140u.dll
 0002:000004f8       __imp_?GetDispatchMap@CCmdTarget@@MBEPBUAFX_DISPMAP@@XZ 004244f8     mfc140u:mfc140u.dll
 0002:000004fc       __imp_?GetCommandMap@CCmdTarget@@MBEPBUAFX_OLECMDMAP@@XZ 004244fc     mfc140u:mfc140u.dll
 0002:00000500       __imp_??B?$CSimpleStringT@_W$00@ATL@@QBEPB_WXZ 00424500     mfc140u:mfc140u.dll
 0002:00000504       __imp_?AfxThrowOleException@@YGXJ@Z 00424504     mfc140u:mfc140u.dll
 0002:00000508       __imp_?GetTypeLib@CCmdTarget@@UAEJKPAPAUITypeLib@@@Z 00424508     mfc140u:mfc140u.dll
 0002:0000050c       __imp_?AfxThrowInvalidArgException@@YGXXZ 0042450c     mfc140u:mfc140u.dll
 0002:00000510       __imp_?AfxThrowMemoryException@@YGXXZ 00424510     mfc140u:mfc140u.dll
 0002:00000514       __imp_??_V@YAXPAX@Z        00424514     mfc140u:mfc140u.dll
 0002:00000518       __imp_??_U@YAPAXI@Z        00424518     mfc140u:mfc140u.dll
 0002:0000051c       __imp_?AfxMessageBox@@YGHPB_WII@Z 0042451c     mfc140u:mfc140u.dll
 0002:00000520       __imp_?GetThisMessageMap@CDialog@@KGPBUAFX_MSGMAP@@XZ 00424520     mfc140u:mfc140u.dll
 0002:00000524       __imp_?PreInitDialog@CDialog@@MAEXXZ 00424524     mfc140u:mfc140u.dll
 0002:00000528       __imp_?GetOccDialogInfo@CDialog@@MAEPAU_AFX_OCC_DIALOG_INFO@@XZ 00424528     mfc140u:mfc140u.dll
 0002:0000052c       __imp_?SetOccDialogInfo@CDialog@@MAEHPAU_AFX_OCC_DIALOG_INFO@@@Z 0042452c     mfc140u:mfc140u.dll
 0002:00000530       __imp_?CheckAutoCenter@CDialog@@UAEHXZ 00424530     mfc140u:mfc140u.dll
 0002:00000534       __imp_?OnCmdMsg@CDialog@@UAEHIHPAXPAUAFX_CMDHANDLERINFO@@@Z 00424534     mfc140u:mfc140u.dll
 0002:00000538       __imp_?GetTypeLibCache@CCmdTarget@@UAEPAVCTypeLibCache@@XZ 00424538     mfc140u:mfc140u.dll
 0002:0000053c       __imp_?GetTypeInfoCount@CCmdTarget@@UAEIXZ 0042453c     mfc140u:mfc140u.dll
 0002:00000540       __imp_?PreTranslateMessage@CDialog@@UAEHPAUtagMSG@@@Z 00424540     mfc140u:mfc140u.dll
 0002:00000544       __imp_??1CDialog@@UAE@XZ   00424544     mfc140u:mfc140u.dll
 0002:00000548       __imp_?OnCancel@CDialog@@MAEXXZ 00424548     mfc140u:mfc140u.dll
 0002:0000054c       __imp_?OnSetFont@CDialog@@UAEXPAVCFont@@@Z 0042454c     mfc140u:mfc140u.dll
 0002:00000550       __imp_?OnInitDialog@CDialog@@UAEHXZ 00424550     mfc140u:mfc140u.dll
 0002:00000554       __imp_??0CDialog@@QAE@IPAVCWnd@@@Z 00424554     mfc140u:mfc140u.dll
 0002:00000558       __imp_?CreateIndirect@CDialog@@UAEHPAXPAVCWnd@@@Z 00424558     mfc140u:mfc140u.dll
 0002:0000055c       __imp_?CreateIndirect@CDialog@@UAEHPBUDLGTEMPLATE@@PAVCWnd@@PAX@Z 0042455c     mfc140u:mfc140u.dll
 0002:00000560       __imp_?Create@CDialog@@UAEHPB_WPAVCWnd@@@Z 00424560     mfc140u:mfc140u.dll
 0002:00000564       __imp_?GetDispatchIID@CCmdTarget@@UAEHPAU_GUID@@@Z 00424564     mfc140u:mfc140u.dll
 0002:00000568       __imp_?GetRuntimeClass@CDialog@@UBEPAUCRuntimeClass@@XZ 00424568     mfc140u:mfc140u.dll
 0002:0000056c       __imp_?CreateControlSite@CWnd@@MAEHPAVCOleControlContainer@@PAPAVCOleControlSite@@IABU_GUID@@@Z 0042456c     mfc140u:mfc140u.dll
 0002:00000570       __imp_?CreateControlContainer@CWnd@@MAEHPAPAVCOleControlContainer@@@Z 00424570     mfc140u:mfc140u.dll
 0002:00000574       __imp_?OnFinalRelease@CWnd@@UAEXXZ 00424574     mfc140u:mfc140u.dll
 0002:00000578       __imp_?IsFrameWnd@CWnd@@UBEHXZ 00424578     mfc140u:mfc140u.dll
 0002:0000057c       __imp_?IsInvokeAllowed@CCmdTarget@@UAEHJ@Z 0042457c     mfc140u:mfc140u.dll
 0002:00000580       __imp_?OnFinalRelease@CCmdTarget@@UAEXXZ 00424580     mfc140u:mfc140u.dll
 0002:00000584       __imp_?WinHelpInternal@CWnd@@UAEXKI@Z 00424584     mfc140u:mfc140u.dll
 0002:00000588       __imp_?ResizeDynamicLayout@CWnd@@MAEXXZ 00424588     mfc140u:mfc140u.dll
 0002:0000058c       __imp_?OnCmdMsg@CCmdTarget@@UAEHIHPAXPAUAFX_CMDHANDLERINFO@@@Z 0042458c     mfc140u:mfc140u.dll
 0002:00000590       __imp_?GetRuntimeClass@CWnd@@UBEPAUCRuntimeClass@@XZ 00424590     mfc140u:mfc140u.dll
 0002:00000594       __imp_??3@YAXPAX@Z         00424594     mfc140u:mfc140u.dll
 0002:00000598       __imp_?AfxWinMain@@YGHPAUHINSTANCE__@@0PA_WH@Z 00424598     mfc140u:mfc140u.dll
 0002:0000059c       \177mfc140u_NULL_THUNK_DATA 0042459c     mfc140u:mfc140u.dll
 0002:000005a0       ___guard_check_icall_fptr  004245a0     msvcrt:guard_support.obj
 0002:000005a4       ___xc_a                    004245a4     msvcrt:initializers.obj
 0002:000005b8       ___xc_z                    004245b8     msvcrt:initializers.obj
 0002:000005bc       ___xi_a                    004245bc     msvcrt:initializers.obj
 0002:000005cc       ___xi_z                    004245cc     msvcrt:initializers.obj
 0002:000005d0       ___xl_a                    004245d0     msvcrt:tlssup.obj
 0002:000005d4       ___xl_z                    004245d4     msvcrt:tlssup.obj
 0002:000005d8       ___xp_a                    004245d8     msvcrt:initializers.obj
 0002:000005dc       ___xp_z                    004245dc     msvcrt:initializers.obj
 0002:000005e0       ___xt_a                    004245e0     msvcrt:initializers.obj
 0002:000005e4       ___xt_z                    004245e4     msvcrt:initializers.obj
 0002:00000608       ??_7CAccessServerApp@@6B@  00424608     AccessServer.obj
 0002:00000744       ??_7IServiceUnitsSink@@6B@ 00424744     AccessServerDlg.obj
 0002:0000074c       ??_7CAccessServerDlg@@6BCDialog@@@ 0042474c     AccessServerDlg.obj
 0002:000008e4       ??_7CAccessServerDlg@@6BIServiceUnitsSink@@@ 004248e4     AccessServerDlg.obj
 0002:00000968       ??_C@_1CA@HPLOOLEE@c?$KFQeg?$ANR?$KBVh?$AA?5?$AA?9?$AA?9?$AA?5?$AA?$FL?$AA?5P?2kb?$AA?5?$AA?$FN?$AA?$AA@ 00424968     AccessServerDlg.obj
 0002:00000988       ??_C@_1CO@FBAHMPKK@c?$KFQeg?$ANR?$KBVhkcW?$CI?$IP?P?$IILN?9?$PP?$AM?$GA?$KIxn?$FL?$JO?$IJ?$IBQs?$JF?mg?$ANR?$KBVhT?$BH?$PP?$BP?$AA?$AA@ 00424988     AccessServerDlg.obj
 0002:000009b8       ??_C@_15NIMPECFC@P?2kb?$AA?$AA@ 004249b8     AccessServerDlg.obj
 0002:000009c0       ??_C@_1O@IJIFADAE@g?$ANR?$KBP?2kbb?$BAR?$JP?$AA?$AA@ 004249c0     AccessServerDlg.obj
 0002:000009d0       ??_C@_17JMINCHJF@R?$BNY?KS?$BG?$AA?$AA@ 004249d0     AccessServerDlg.obj
 0002:000009d8       ??_C@_1BG@FOAKAJPP@kcW?$CIR?$BNY?KS?$BG?$HO?DN?v?$AA?4?$AA?4?$AA?4?$AA?$AA@ 004249d8     AccessServerDlg.obj
 0002:000009f0       ??_C@_15FBFBMIIN@?$IP?P?$IIL?$AA?$AA@ 004249f0     AccessServerDlg.obj
 0002:000009f8       ??_C@_1O@BPIKNHON@g?$ANR?$KBT?1R?$KIb?$BAR?$JP?$AA?$AA@ 004249f8     AccessServerDlg.obj
 0002:00000a08       ??_C@_1BK@KPCMJHJE@?$HO?Q?$FL?$JKg?$ANR?$KB?$HO?DN?vr?$LG?$GA?$ABc?$KFS?cY1?$IN?$CF?$AA?$AA@ 00424a08     AccessServerDlg.obj
 0002:00000a24       ??_C@_1BI@GJNLGFIP@c?$KFQeg?$ANR?$KBVh?$AA?$FL?$AA?5?$AA?$CF?$AAs?$AA?5?$AA?$FN?$AA?$AA@ 00424a24     AccessServerDlg.obj
 0002:00000a3c       ??_C@_1CK@IAOAFHOF@g?$ANR?$KBkcW?$CI?$IP?P?$IILN?9?$PP?$AM?$HM?$PL?$HO?$NP?$IJ?$IBlBl?h?$JF?$AAV?$NO?$IL?$NN?$IL?wlBY1?$IN?$CF?$AA?$AA@ 00424a3c     AccessServerDlg.obj
 0002:00000a88       ??_C@_11LOCGONAA@?$AA?$AA@ 00424a88     AttemperEngineSink.obj
 0002:00000a90       ??_7?$CWHArray@UtagIMGroupOption@@ABU1@@@6B@ 00424a90     AttemperEngineSink.obj
 0002:00000a98       ??_7CAttemperEngineSink@@6B@ 00424a98     AttemperEngineSink.obj
 0002:00000ad4       ??_C@_1CE@GLOKAGHI@?$AA?$CF?$AAs?$AA?2?$AAC?$AAl?$AAu?$AAb?$AAS?$AAe?$AAr?$AAv?$AAe?$AAr?$AA?4?$AAd?$AAm?$AAp?$AA?$AA@ 00424ad4     AttemperEngineSink.obj
 0002:00000af8       ??_C@_1BO@EAFEKMDK@kcW?$CI?2?$BN?$IL?Uc?$KFQeSO?$IM?$ADg?$ANR?$KBVh?$AA?4?$AA?4?$AA?4?$AA?$AA@ 00424af8     AttemperEngineSink.obj
 0002:00000b18       ??_C@_1CC@JIHHADA@kcW?$CI?$IP?$NOc?$KF?$HO?$KGb?$BIg?$ANR?$KBVh?$AA?$FL?$AA?$CF?$AAs?$AA?3?$AA?$CF?$AAd?$AA?$FN?$AA?$AA@ 00424b18     AttemperEngineSink.obj
 0002:00000b3c       ??_C@_1BM@MEBEEKCJ@kcW?$CI?2?$BN?$IL?UR?$KA?$IP?$HN?$HP?$KE?$HO?DO?a?$GAo?$AA?4?$AA?4?$AA?4?$AA?$AA@ 00424b3c     AttemperEngineSink.obj
 0002:00000b58       ??_C@_1CI@PEFKCJNN@kcW?$CI?$IP?$NOc?$KFe?e_?Wg?$ANR?$KBVh?$AA?5?$AA?$FL?$AA?5?$AA?$CF?$AAs?$AA?3?$AA?$CF?$AAd?$AA?5?$AA?$FN?$AA?$AA@ 00424b58     AttemperEngineSink.obj
 0002:00000b80       ??_C@_1BO@BOCLCEBK@kcW?$CI?2?$BN?$IL?U?$JE?$POc?$KF?$AAA?$AAIg?$ANR?$KBVh?$AA?4?$AA?4?$AA?4?$AA?$AA@ 00424b80     AttemperEngineSink.obj
 0002:00000ba0       ??_C@_1BK@HHNFAGPF@?$AA?$CF?$AA0?$AA4?$AAd?$AA?$CF?$AA0?$AA2?$AAd?$AA?$CF?$AA0?$AA2?$AAd?$AA?$AA@ 00424ba0     AttemperEngineSink.obj
 0002:00000bc0       ??_C@_1GO@KJABNLPF@?$AAp?$AAt?$AAd?$AAt?$AA?5?$AAO?$AAn?$AAE?$AAv?$AAe?$AAn?$AAt?$AAT?$AAC?$AAP?$AAN?$AAe?$AAt?$AAw?$AAo?$AAr?$AAk?$AAB?$AAi?$AAn?$AAd?$AA?5?$AAd?$AAw?$AAS?$AAo?$AAc@ 00424bc0     AttemperEngineSink.obj
 0002:00000c30       ??_C@_1BC@PCABJAHF@?$HO?$KGb?$BIW0W?$EA_?$AC?$FO8e9S?X?$AA?$AA@ 00424c30     AttemperEngineSink.obj
 0002:00000c48       ??_C@_1EC@BKNNJHEL@Y?8?$IATv?$NPe6R0S?$AF?$PP?$AM?$AAm?$AAa?$AAi?$AAn?$AA?$DN?$AA?$CF?$AAd?$AA?0?$AAs?$AAu?$AAb?$AA?$DN?$AA?$CF?$AAd?$AA?0?$AAs?$AAo?$AAc?$AAk?$AAe?$AAt?$AA?$DN?$AA?$CF?$AAd?$AA?0@ 00424c48     AttemperEngineSink.obj
 0002:00000c90       ??_C@_1MK@MICMPPKI@?$AAp?$AAt?$AAd?$AAt?$AAa?$AAi?$AA?5?$AAO?$AAn?$AAE?$AAv?$AAe?$AAn?$AAt?$AAT?$AAC?$AAP?$AAN?$AAe?$AAt?$AAw?$AAo?$AAr?$AAk?$AAS?$AAh?$AAu?$AAt?$AA?5?$AAd?$AAw?$AAS@ 00424c90     AttemperEngineSink.obj
 0002:00000d60       ??_C@_1HC@ODMEPFNP@?$AAp?$AAt?$AAd?$AAt?$AAa?$AAi?$AA?5?$AAO?$AAn?$AAE?$AAv?$AAe?$AAn?$AAt?$AAT?$AAC?$AAP?$AAN?$AAe?$AAt?$AAw?$AAo?$AAr?$AAk?$AAS?$AAh?$AAu?$AAt?$AA?5?$AAd?$AAw?$AAS@ 00424d60     AttemperEngineSink.obj
 0002:00000dd8       ??_C@_1FK@LFDCMGEI@?$AAO?$AAn?$AAE?$AAv?$AAe?$AAn?$AAt?$AAD?$AAa?$AAt?$AAa?$AAB?$AAa?$AAs?$AAe?$AA?5?$AAw?$AAR?$AAe?$AAq?$AAu?$AAe?$AAs?$AAt?$AAI?$AAD?$AA?$DN?$AA?$CF?$AAd?$AA?0?$AAd?$AAw@ 00424dd8     AttemperEngineSink.obj
 0002:00000e34       ??_C@_1DK@DEDLEALK@?$AAO?$AAn?$AAE?$AAv?$AAe?$AAn?$AAt?$AAD?$AAa?$AAt?$AAa?$AAB?$AAa?$AAs?$AAe?$AA?$CI?$AAS?$AAu?$AAb?$AAC?$AAm?$AAd?$AAI?$AAD?$AA?$DN?$AA?$CF?$AAd?$AA?$CJ?$AA?$AA@ 00424e34     AttemperEngineSink.obj
 0002:00000e70       ??_C@_1DC@PEGMNDNJ@N?$AOSO?$IM?$ADg?$ANR?$KBVhv?$IE?$IP?$NOc?$KFQs?$JF?mN?$IG?$PP?$AM?$AA?$CF?$AAl?$AAd?$AA?5y?RT?$AO?2?$AG?$JB?Me?$LA?$IP?$NOc?$KF?$AA?$AA@ 00424e70     AttemperEngineSink.obj
 0002:00000ea4       ??_C@_1DC@ICLHFKEI@N?$AO?$HO?$KGb?$BIg?$ANR?$KBVhv?$IE?$IP?$NOc?$KFQs?$JF?mN?$IG?$PP?$AM?$AA?$CF?$AAl?$AAd?$AA?5y?RT?$AO?2?$AG?$JB?Me?$LA?$IP?$NOc?$KF?$AA?$AA@ 00424ea4     AttemperEngineSink.obj
 0002:00000ed8       ??_C@_1DC@CEOPECBE@N?$AO?$AAA?$AAIg?$ANR?$KBVhv?$IE?$IP?$NOc?$KFQs?$JF?mN?$IG?$PP?$AM?$AA?$CF?$AAl?$AAd?$AA?5y?RT?$AO?2?$AG?$JB?Me?$LA?$IP?$NOc?$KF?$AA?$AA@ 00424ed8     AttemperEngineSink.obj
 0002:00000f0c       ??_C@_1DM@EBEAFOFG@SO?$IM?$ADg?$ANR?$KBVh?$IP?$NOc?$KFY1?$IN?$CF?$AA?5?$AA?$FL?$AA?5?$AA?$CF?$AAl?$AAd?$AA?5?$AA?$FN?$PP?$AM?$AA?$CF?$AAl?$AAd?$AA?5y?RT?$AO?2?$AG?$JB?Me?$LA?$IP?$NOc?$KF?$AA?$AA@ 00424f0c     AttemperEngineSink.obj
 0002:00000f48       ??_C@_1BI@DPBIEEBK@kcW?$CI?$ID?$LHS?Vg?$ANR?$KBO?a?$GAo?$AA?4?$AA?4?$AA?4?$AA?$AA@ 00424f48     AttemperEngineSink.obj
 0002:00000f60       ??_C@_1DO@BDBMMKPI@N?$AO?$HO?$KGb?$BIg?$ANR?$KBVh?$IP?$NOc?$KFY1?$IN?$CF?$AA?5?$AA?$FL?$AA?5?$AA?$CF?$AAl?$AAd?$AA?5?$AA?$FN?$PP?$AM?$AA?$CF?$AAl?$AAd?$AA?5y?RT?$AO?2?$AG?$JB?Me?$LA?$IP?$NOc?$KF?$AA?$AA@ 00424f60     AttemperEngineSink.obj
 0002:00000fa0       ??_C@_1DM@IOOHFKAH@?$AAA?$AAIg?$ANR?$KBVh?$IP?$NOc?$KFY1?$IN?$CF?$AA?5?$AA?$FL?$AA?5?$AA?$CF?$AAl?$AAd?$AA?5?$AA?$FN?$PP?$AM?$AA?$CF?$AAl?$AAd?$AA?5y?RT?$AO?2?$AG?$JB?Me?$LA?$IP?$NOc?$KF?$AA?$AA@ 00424fa0     AttemperEngineSink.obj
 0002:00000fe0       ??_C@_1GM@JOMNOAKE@?$AAO?$AAn?$AAE?$AAv?$AAe?$AAn?$AAt?$AAT?$AAC?$AAP?$AAS?$AAo?$AAc?$AAk?$AAe?$AAt?$AAR?$AAe?$AAa?$AAd?$AA?5?$AAw?$AAS?$AAe?$AAr?$AAv?$AAi?$AAc?$AAe?$AAI?$AAD?$AA?$DN@ 00424fe0     AttemperEngineSink.obj
 0002:00001050       ??_C@_1FC@MHGIBAHD@?$AAw?$AAS?$AAe?$AAr?$AAv?$AAi?$AAc?$AAe?$AAI?$AAD?$AA?$DN?$AA?$CF?$AAd?$AA?0?$AAw?$AAM?$AAa?$AAi?$AAn?$AAC?$AAm?$AAd?$AAI?$AAD?$AA?$DN?$AA?$CF?$AAd?$AA?0?$AAw?$AAS?$AAu?$AAb@ 00425050     AttemperEngineSink.obj
 0002:000010a8       ??_C@_1FA@LPMCMOJC@?$AAp?$AAt?$AAd?$AAt?$AA?5?$AAS?$AAU?$AAB?$AA_?$AAG?$AAA?$AA_?$AAL?$AAO?$AAG?$AAO?$AAN?$AA_?$AAS?$AAE?$AAR?$AAV?$AAE?$AAR?$AA1?$AA?5?$AAd?$AAw?$AAS?$AAo?$AAc?$AAk@ 004250a8     AttemperEngineSink.obj
 0002:000010f8       ??_C@_1FA@HGNNMGCN@?$AAp?$AAt?$AAd?$AAt?$AA?5?$AAS?$AAU?$AAB?$AA_?$AAG?$AAA?$AA_?$AAL?$AAO?$AAG?$AAO?$AAN?$AA_?$AAS?$AAE?$AAR?$AAV?$AAE?$AAR?$AA2?$AA?5?$AAd?$AAw?$AAS?$AAo?$AAc?$AAk@ 004250f8     AttemperEngineSink.obj
 0002:00001148       ??_C@_1EA@EBIEKKKK@s?$KJ?$FL?$LG?$IL?wlBv?$HL?$JGFY?8?$IATv?$NP?$PP?$AM?$AAu?$AAs?$AAe?$AAr?$AAi?$AAd?$AA?$DN?$AA?$CF?$AAd?$AA?0?$AAs?$AAc?$AAo?$AAk?$AAe?$AAt?$AAi?$AAd?$AA?$DN?$AA?$CF?$AAd?$AA?$AA@ 00425148     AttemperEngineSink.obj
 0002:00001188       ??_C@_1FA@IHAHMDIH@?$AAp?$AAt?$AAd?$AAt?$AA?5?$AAS?$AAU?$AAB?$AA_?$AAG?$AAA?$AA_?$AAL?$AAO?$AAG?$AAO?$AAN?$AA_?$AAS?$AAE?$AAR?$AAV?$AAE?$AAR?$AA3?$AA?5?$AAd?$AAw?$AAS?$AAo?$AAc?$AAk@ 00425188     AttemperEngineSink.obj
 0002:000011d8       ??_C@_1CG@DECGGMCB@?$GA?$KIv?$IE?$IN?$CGS?wW?$CIQvN?VW0e?$LJv?$HL_U?$PP?$AM?$GA?$KI?$II?$KL?$IP?kN?$AL?$HO?$LP?$PP?$AB?$AA?$AA@ 004251d8     AttemperEngineSink.obj
 0002:00001200       ??_C@_1CK@PFMNNLNC@s?$KJ?$FL?$LG?$IL?wlBv?$HL?$JGFY?8?$IATv?$NP?$AA1?$PP?$AM?$AAu?$AAs?$AAe?$AAr?$AAi?$AAd?$AA?$DN?$AA?$CF?$AAd?$AA?$AA@ 00425200     AttemperEngineSink.obj
 0002:0000122c       ??_C@_1CM@GPKDGLDE@b?$LBkI?$AA?0Y?8?$IATv?$NPT?$ANy?pN?$AN?$IA?$PNN?3zz?$AA?0Y?8?$IATv?$NPR?$BL?$FO?zY1?$IN?$CF?$PP?$AB?$AA?$AA@ 0042522c     AttemperEngineSink.obj
 0002:00001258       ??_C@_1DK@IFHBPLFA@b?$LBkI?$AA?0Y?8?$IATv?$NPT?$ANy?p?$JF?$HP?$FO?$KG?$ID?$ADV?tN?3?$AA2?$AA?9?$AA6N?$CK?$FLW?$HL?$CG?$AA?0Y?8?$IATv?$NPR?$BL?$FO?zY1?$IN?$CF?$PP?$AB?$AA?$AA@ 00425258     AttemperEngineSink.obj
 0002:00001294       ??_C@_1DE@DEHEKLJF@b?$LBkI?$AA?0Y?8?$IATv?$NPT?$ANy?pN?$ANS?oS?$AFT?$CLryk?$IK?$HL?$CGS?w?$AA?0Y?8?$IATv?$NPR?$BL?$FO?zY1?$IN?$CF?$PP?$AB?$AA?$AA@ 00425294     AttemperEngineSink.obj
 0002:000012c8       ??_C@_1DA@GPOEPCMO@b?$LBkI?$AA?0Y?8?$IATv?$NPT?$ANN?9S?$AFT?$CLeOa?$BP?$IL?MlG?$AA?0Y?8?$IATv?$NPR?$BL?$FO?zY1?$IN?$CF?$PP?$AB?$AA?$AA@ 004252c8     AttemperEngineSink.obj
 0002:000012f8       ??_C@_1DC@NELFHKOI@b?$LBkI?$AA?0Y?8?$IATv?$NPN?K?$HO?MN?9S?$AFT?$CLeOa?$BP?$IL?MlG?$AA?0Y?8?$IATv?$NPR?$BL?$FO?zY1?$IN?$CF?$PP?$AB?$AA?$AA@ 004252f8     AttemperEngineSink.obj
 0002:0000132c       ??_C@_1DG@GMIKHNBI@b?$LBkI?$AA?0Y?8?$IATv?$NPN?K?$HO?MN?9S?$AFT?$CLeOa?$BP?$IL?MlG?$AA?0Y?8?$IATv?$NPO?a?$GAoO?ne9Y1?$IN?$CF?$PP?$AB?$AA?$AA@ 0042532c     AttemperEngineSink.obj
 0002:00001364       ??_C@_1CI@BJHDLHHC@b?$LBkI?$AA?0Y?8?$IATv?$NPO?a?$GAog?e?$IL?bY1?$IN?$CF?$PP?$AM?$IL?wz?$ANT?$AO?$JB?M?$IL?U?$PP?$AB?$AA?$AA@ 00425364     AttemperEngineSink.obj
 0002:0000138c       ??_C@_1BM@BKJGDBNB@d?MO?2Y1?$IN?$CF?$PP?$AM?$IL?eY?8?$IATv?$NP?$FN?rQ?$LL?$HO?S?$PP?$AB?$AA?$AA@ 0042538c     AttemperEngineSink.obj
 0002:000013a8       ??_C@_1BM@HEDHEBBC@d?MO?2Y1?$IN?$CF?$PP?$AM?$IL?eY?8?$IATv?$NPN?$AN?$FLXW?$CI?$PP?$AB?$AA?$AA@ 004253a8     AttemperEngineSink.obj
 0002:000013c4       ??_C@_1CK@ECAMKKLO@d?MO?2Y1?$IN?$CF?$PP?$AMY?8?$IATv?$NPv?$HON?$LKn8b?$APS?jQA?$IL?$LIv?$NPN?$DLR?$BL?$FO?z?$PP?$AB?$AA?$AA@ 004253c4     AttemperEngineSink.obj
 0002:000013f0       ??_C@_1BK@EBGJHDJL@d?MO?2Y1?$IN?$CF?$PP?$AM?$IL?es?$KJl?UN?$AN?$FLXW?$CI?$PP?$AB?$AA?$AA@ 004253f0     AttemperEngineSink.obj
 0002:0000140c       ??_C@_1BC@BJBGIOCD@m?$II?$IA?$BH?$HM?$HLW?$ILN?$ANkcxn?$PP?$AB?$AA?$AA@ 0042540c     AttemperEngineSink.obj
 0002:00001420       ??_C@_1CE@KHJEPEFL@g?7d?MO?2?$FL?y?$IMakcW?$CIn8b?$APN?9?$AA?0?$IL?wz?$ANT?$AO?$JB?M?$IL?U?$PP?$AB?$AA?$AA@ 00425420     AttemperEngineSink.obj
 0002:00001444       ??_C@_1CC@NOHCODKM@g?7d?MO?2?$FL?y?$IMaR?Kz?$OAN?$ANY?$BPbc?$JGd?$PP?$AM?$IL?wh?$MAg?e?$PP?$AB?$AA?$AA@ 00425444     AttemperEngineSink.obj
 0002:00001468       ??_C@_1CC@FDPAHMOD@b?$LBkI?$AA?0Y?8?$IATv?$NP?$AAI?$AADN?$AN?$FLXW?$CI?$PP?$AM?$IL?wh?$MAg?e?$PP?$AB?$AA?$AA@ 00425468     AttemperEngineSink.obj
 0002:0000148c       ??_C@_1BG@BNLPMFDH@b?$LBkI?$AA?0Y?8?$IATv?$NP?$FN?rQ?$LL?$HO?S?$PP?$AB?$AA?$AA@ 0042548c     AttemperEngineSink.obj
 0002:000014a4       ??_C@_1BM@GBKBIKIE@b?$LBkI?$AA?0s?$KJl?UN?$AN?$FLXW?$CI?$PP?$AM?$IL?wh?$MAg?e?$PP?$AB?$AA?$AA@ 004254a4     AttemperEngineSink.obj
 0002:000014c0       ??_C@_1CC@CHMMJKKB@b?$LBkI?$AA?0e?$OAl?UO?$HPu?$CIR?Kz?$OAs?$KJl?U?$PP?$AM?$IL?wh?$MAg?e?$PP?$AB?$AA?$AA@ 004254c0     AttemperEngineSink.obj
 0002:000014e4       ??_C@_1CC@GMHBFCGE@QlTJ?$IL?$LO?$HPnY1?$IN?$CF?$PP?$AMY?8?$IATv?$NPO?a?$GAoN?$AN?$FLXW?$CI?$PP?$AB?$AA?$AA@ 004254e4     AttemperEngineSink.obj
 0002:00001508       ??_C@_1BK@NCINFPDO@QlTJ?$IL?$LO?$HPnY1?$IN?$CF?$PP?$AMgC?$JGPN?$AN?$IN?$LD?$PP?$AB?$AA?$AA@ 00425508     AttemperEngineSink.obj
 0002:00001524       ??_C@_1BK@NMMLNJJK@?$IJ?cecY1?$IN?$CF?$PP?$AM?$IL?ehL?$FLPN?$AN?$FLXW?$CI?$PP?$AB?$AA?$AA@ 00425524     AttemperEngineSink.obj
 0002:00001540       ??_C@_1BG@DBFPLDIK@?$IJ?cecY1?$IN?$CF?$PP?$AMgC?$JGPN?$ANY?$BP?$PP?$AB?$AA?$AA@ 00425540     AttemperEngineSink.obj
 0002:00001558       ??_C@_1BI@KCEAFELD@?$IJ?cecY1?$IN?$CF?$PP?$AM?$IL?wh?$MAg?eO?a?$GAo?$PP?$AB?$AA?$AA@ 00425558     AttemperEngineSink.obj
 0002:00001570       ??_C@_1CI@PENOBNGM@?$HM?$PL?$HO?$NPg?$CKg?e?$IL?bR0?$IL?eY?8?$IATv?$NPv?$IEO?a?$GAo?$PP?$AM?$IP?$NLQeY1?$IN?$CF?$PP?$AB?$AA?$AA@ 00425570     AttemperEngineSink.obj
 0002:00001598       ??_C@_1CI@OKPMNLOK@b?$LBkI?$PP?$AMO?$GAN?$ANf?1?$IL?eY?8?$IATv?$NPv?$IEb?$BATX?$PP?$AM?$IP?$NLQeY1?$IN?$CF?$PP?$AB?$AA?$AA@ 00425598     AttemperEngineSink.obj
 0002:000015c0       ??_C@_1GI@CDEGOAHL@?$AAp?$AAt?$AAd?$AAt?$AAa?$AAi?$AA?5?$AA?$CK?$AA?$CK?$AA?$CK?$AA?$CK?$AA?5Q?$INY?8?$IATv?$NP?$AA?5?$AAd?$AAw?$AAG?$AAr?$AAo?$AAu?$AAp?$AAI?$AAD?$AA?5?$AA?$DN?$AA?5?$AA?$CF?$AAd?$AA?5@ 004255c0     AttemperEngineSink.obj
 0002:00001628       ??_C@_1CI@DBLKEHGF@b?$LBkI?$PP?$AM?$HO?$KGb?$BIg?$ANR?$KBf?$ICe?vQs?$JF?m?$AA?0e?$OAl?U?$ID?$LHS?VO?a?$GAo?$PP?$AB?$AA?$AA@ 00425628     AttemperEngineSink.obj
 0002:00001650       ??_C@_1CG@BCCFLMGA@?$HM?$PL?$HO?$NPg?$CKg?e?$IL?bR0?$IL?eb?$DP?$JF?tv?$IEO?a?$GAo?$PP?$AM?$ID?$LHS?VY1?$IN?$CF?$PP?$AB?$AA?$AA@ 00425650     AttemperEngineSink.obj
 0002:00001678       ??_C@_1CI@HAINHGEM@?$HM?$PL?$HO?$NPg?$CKg?e?$IL?bR0?$IL?eY?8?$IATv?$NPv?$IEO?a?$GAo?$PP?$AM?$IJ?cecY1?$IN?$CF?$PP?$AB?$AA?$AA@ 00425678     AttemperEngineSink.obj
 0002:000016a0       ??_C@_1CE@JFGGKNHC@O?$GAN?$ANf?1?$IL?eY?8?$IATv?$NP?$HP?$KEN?$DL?$PP?$AMe?$OAgC?$IJ?cecb?$DP?$JF?t?$PP?$AB?$AA?$AA@ 004256a0     AttemperEngineSink.obj
 0002:000016c8       ??_C@_1HO@CGCEHPKM@?$AAp?$AAt?$AAd?$AAt?$AAa?$AAi?$AA?5?$AA?$CK?$AA?$CK?$AA?$CK?$AA?5?$AAO?$AAn?$AAT?$AAC?$AAP?$AAS?$AAo?$AAc?$AAk?$AAe?$AAt?$AAA?$AAI?$AAM?$AAa?$AAi?$AAn?$AAR?$AAe?$AAg?$AAi@ 004256c8     AttemperEngineSink.obj
 0002:00001748       ??_C@_17FEALDILJ@?$AA1?$AA1?$AA1?$AA?$AA@ 00425748     AttemperEngineSink.obj
 0002:00001750       ??_C@_1EK@KKLMPLOM@?$AAp?$AAt?$AAd?$AAt?$AAa?$AAi?$AA?5?$AA?$CK?$AA?$CK?$AA?$CK?$AA?5O?qNP?$JA?h?$AA?5?$AAd?$AAw?$AAG?$AAr?$AAo?$AAu?$AAp?$AAI?$AAD?$AA?5?$AA?$DN?$AA?5?$AA?$CF?$AAd?$AA?5?$JB?Me?$LA@ 00425750     AttemperEngineSink.obj
 0002:000017a0       ??_C@_1GE@EIAEDABN@?$AAp?$AAt?$AAd?$AAt?$AAa?$AAi?$AA?5?$AA?$CK?$AA?$CK?$AA?$CK?$AA?$CK?$AA?5?$AAS?$AAU?$AAB?$AA_?$AAC?$AAS?$AA_?$AAC?$AA_?$AAC?$AAL?$AAU?$AAB?$AA_?$AAU?$AAS?$AAE?$AAR?$AA_?$AAS@ 004257a0     AttemperEngineSink.obj
 0002:00001808       ??_C@_1GE@LIGGFMBD@?$AAp?$AAt?$AAd?$AAt?$AAa?$AAi?$AA?5?$AA?$CK?$AA?$CK?$AA?$CK?$AA?$CK?$AA?$CK?$AA?$CK?$AA?5Y?8?$IATv?$NPg?$ANR?$KBVh?$AA?5?$AAS?$AAU?$AAB?$AA_?$AAC?$AAS?$AA_?$AAC?$AA_?$AAC?$AAL@ 00425808     AttemperEngineSink.obj
 0002:00001870       ??_C@_1IM@IAPLALIK@?$AAp?$AAt?$AAd?$AAt?$AAa?$AAi?$AA?5?$AA?$CK?$AA?$CK?$AA?$CK?$AA?$CK?$AA?$CK?$AA?$CK?$AA?5Y?8?$IATv?$NPg?$ANR?$KBVh?$AA?5?$AAS?$AAU?$AAB?$AA_?$AAC?$AAS?$AA_?$AAC?$AA_?$AAC?$AAL@ 00425870     AttemperEngineSink.obj
 0002:00001900       ??_C@_1IK@FCACKMAO@?$AAp?$AAt?$AAd?$AAt?$AAa?$AAi?$AA?5?$AA?$CK?$AA?$CK?$AA?$CK?$AA?$CK?$AA?$CK?$AA?$CK?$AA?5Y?8?$IATv?$NPg?$ANR?$KBVh?$AA?5?$AAS?$AAU?$AAB?$AA_?$AAC?$AAS?$AA_?$AAC?$AA_?$AAC?$AAL@ 00425900     AttemperEngineSink.obj
 0002:00001990       ??_C@_1IM@IBLAIKBP@?$AAp?$AAt?$AAd?$AAt?$AAa?$AAi?$AA?5?$AA?$CK?$AA?$CK?$AA?$CK?$AA?$CK?$AA?$CK?$AA?$CK?$AA?5Y?8?$IATv?$NPg?$ANR?$KBVh?$AA?5?$AAS?$AAU?$AAB?$AA_?$AAC?$AAS?$AA_?$AAC?$AA_?$AAC?$AAL@ 00425990     AttemperEngineSink.obj
 0002:00001a1c       ??_C@_1DI@MDKIHKHD@?$AAS?$AAe?$AAr?$AAv?$AAe?$AAr?$AAI?$AAD?$AA?$DN?$AA?$CF?$AAdN?3Y?8?$IATv?$NPv?$HON?$LKn8b?$AP?$AA?0S?j?$IA?$PNv?$NPN?$DLR?$BL?$FO?z?$AA?$CB?$AA?$AA@ 00425a1c     AttemperEngineSink.obj
 0002:00001a58       ??_C@_1JE@CKGKNBOH@?$AAp?$AAt?$AAd?$AAt?$AAa?$AAi?$AA?5?$AA?$CK?$AA?$CK?$AA?$CK?$AA?$CK?$AA?$CK?$AA?$CK?$AA?5Y?8?$IATv?$NPg?$ANR?$KBVh?$AA?5?$AAS?$AAU?$AAB?$AA_?$AAC?$AAS?$AA_?$AAC?$AA_?$AAC?$AAL@ 00425a58     AttemperEngineSink.obj
 0002:00001aec       ??_C@_1DM@ECODLOGH@Y?8?$IATv?$NP?$AA?$CF?$AAde6R0n8b?$APg?$ANf?te?$LAm?$II?$GAo?$PP?$AMf?te?$LAs?$KJ?$FL?$LG?$AA?$CF?$AAdR?$AGep?$AA?$CF?$AAI?$AA6?$AA4?$AAd?$AA?0?$AA?$AA@ 00425aec     AttemperEngineSink.obj
 0002:00001b28       ??_C@_1BO@NFCPFEEO@f?te?$LAb?$BAR?$JPT?$AO?$AA?$CF?$AAdR?$AGep?$AA?$CF?$AAI?$AA6?$AA4?$AAd?$AA?$AA@ 00425b28     AttemperEngineSink.obj
 0002:00001b48       ??_C@_1NI@DMMFLBJK@?$AAp?$AAt?$AAd?$AAt?$AAa?$AAi?$AA?5?$AA?$CK?$AA?$CK?$AA?$CK?$AA?$CK?$AA?5?$AA?$CL?$AA?$CL?$AA?$CL?$AA?$CL?$AA?$CL?$AA?$CL?$AA?$CL?$AA?$CL?$AA?$CL?$AA?$CL?$AA?$CL?$AA?$CL?$AA?$CL?$AA?$CL?$AA?5?$AAS?$AAe?$AAn?$AAd?$AAD@ 00425b48     AttemperEngineSink.obj
 0002:00001c20       ??_C@_1EE@GKFNKMKO@?$AAp?$AAt?$AAd?$AAt?$AA?5?$AAI?$AAn?$AAs?$AAe?$AAr?$AAt?$AAG?$AAr?$AAo?$AAu?$AAp?$AAI?$AAD?$AA?5?$AAw?$AAG?$AAr?$AAo?$AAu?$AAp?$AAC?$AAo?$AAu?$AAn?$AAt?$AA?$DN?$AA?$CF@ 00425c20     AttemperEngineSink.obj
 0002:00001c64       ??_C@_1BM@LKGMIMHD@?$AAC?$AAa?$AAp?$AAt?$AAa?$AAt?$AAi?$AAn?$AA?5?$AAn?$AAu?$AAl?$AAl?$AA?$AA@ 00425c64     AttemperEngineSink.obj
 0002:00001c80       ??_C@_1CE@KLOFHMFB@?$JA?$BK?$IP?G?$FL?$KBh8?$PP?$AMb?$BAR?$JPR?$KAQeY?8?$IATv?$NP?$AA?8?$AA?$CF?$AAs?$AA?8?$PP?$AB?$AA?$AA@ 00425c80     AttemperEngineSink.obj
 0002:00001ca4       ??_C@_1CK@OINEAGMO@Y?8?$IATv?$NP?$AA?$CF?$AAd?$AA?0R?$KA?$IP?$HNb?$BATX?$AA?$CF?$AAd?$PP?$AMR?$AGep?$AA?$CF?$AAI?$AA6?$AA4?$AAd?$AA?$AA@ 00425ca4     AttemperEngineSink.obj
 0002:00001cd0       ??_C@_1FK@FFIEDEFM@?$AAp?$AAt?$AAd?$AAt?$AAa?$AAi?$AA?5?$AA?$CK?$AA?$CK?$AA?$CK?$AA?5?$JB?Me?$LAR?$KA?$IP?$HNb?$BATX?$AA?5?$AAd?$AAw?$AAG?$AAr?$AAo?$AAu?$AAp?$AAI?$AAD?$AA?5?$AA?$DN?$AA?5?$AA?$CF?$AAd@ 00425cd0     AttemperEngineSink.obj
 0002:00001d2c       ??_C@_1CO@CLACJMLC@Y?8?$IATv?$NP?$AA?$CF?$AAd?$AA?0s?$KJ?$FL?$LG?$AA?$CF?$AAdc?$KFS?W?$IN?$GA?$JA?$ABT?$AOR?$AGep?$AA?$CF?$AAI?$AA6?$AA4?$AAd?$AA?$AA@ 00425d2c     AttemperEngineSink.obj
 0002:00001d60       ??_C@_1IG@JMBJFPFA@?$AAp?$AAt?$AAd?$AAt?$AAa?$AAi?$AA?5?$AA?$CK?$AA?$CK?$AA?$CK?$AA?$CK?$AA?5?$AAO?$AAn?$AAD?$AAB?$AAA?$AAp?$AAp?$AAe?$AAn?$AAd?$AAC?$AAo?$AAn?$AAf?$AAi?$AAg?$AA?5?$ID?$LHS?Vs?$KJ@ 00425d60     AttemperEngineSink.obj
 0002:00001de8       ??_C@_1JK@LEOICJFP@?$AAp?$AAt?$AAd?$AAt?$AAa?$AAi?$AA?5?$AA?$CK?$AA?$CK?$AA?$CK?$AA?$CK?$AA?5?$AAO?$AAn?$AAD?$AAB?$AAA?$AAp?$AAp?$AAe?$AAn?$AAd?$AAC?$AAo?$AAn?$AAf?$AAi?$AAg?$AA?5?$ID?$LHS?Vs?$KJ@ 00425de8     AttemperEngineSink.obj
 0002:00001e84       ??_C@_1BA@KNJKJOHH@?$INDe?$JJO?ne9b?$BAR?$JP?$PP?$AB?$AA?$AA@ 00425e84     AttemperEngineSink.obj
 0002:00001e94       ??_C@_1CO@BCPBOKIP@s?$KJ?$FL?$LG?$AAu?$AAs?$AAe?$AAr?$AAi?$AAd?$AA?$DN?$AA?$CF?$AAdv?$HL?$JGF?$PP?$AMO?qNP?$JA?hep?$JB?O?$AA?$DN?$AA?$CF?$AAd?$AA?$AA@ 00425e94     AttemperEngineSink.obj
 0002:00001ec4       ??_C@_1DE@POIGBHBG@s?$KJ?$FL?$LG?$AA?$CF?$AAdW?$CIO?qNP?$JA?h?$AA?$CF?$AAd?$AA?$DN?$AA?$CF?$AAdv?$IE?$IO?$KLN?$PN?$AA?$DN?$AA?$CF?$AAd?$AA?0?$JG?$BP?$JF?$HP?$AA?$DN?$AA?$CF?$AAd?$AA?$AA@ 00425ec4     AttemperEngineSink.obj
 0002:00001ef8       ??_C@_1GC@MPDPMCMK@?$AAp?$AAt?$AAd?$AAt?$AAa?$AAi?$AA?5?$AA?$CK?$AA?$CK?$AA?$CK?$AA?$CK?$AA?5c?$KFQeg?$ANR?$KBVh?$AA?5v?$HL_Ub?$BAR?$JP?$AA?5?$AAu?$AAs?$AAe?$AAr?$AAi?$AAd?$AA?5?$AA?$DN?$AA?5@ 00425ef8     AttemperEngineSink.obj
 0002:00001f5c       ??_C@_1CI@JIKLLGJO@?$HM?$PL?$HO?$NPg?$CKg?e?$IL?bR0?$IL?eY?8?$IATv?$NPv?$IEO?a?$GAo?$PP?$AM?$ID?$LHS?VY1?$IN?$CF?$PP?$AB?$AA?$AA@ 00425f5c     AttemperEngineSink.obj
 0002:00001f84       ??_C@_1CI@CEHBGEKG@b?$LBkI?$PP?$AMO?$GAN?$ANf?1?$IL?eY?8?$IATv?$NPv?$IEb?$BATX?$PP?$AMe?$OAl?U?$ID?$LHS?V?$PP?$AB?$AA?$AA@ 00425f84     AttemperEngineSink.obj
 0002:00001fac       ??_C@_03LFPOMIKD@chs?$AA@  00425fac     AttemperEngineSink.obj
 0002:00001fb0       ??_C@_1BG@BHLGFGHA@?$AA?$CF?$AAs?$AA?2Y?8?$IATv?$NPe?e_?Wv?n_U?$AA?$AA@ 00425fb0     AttemperEngineSink.obj
 0002:00001fc8       ??_C@_17NHJBKAOD@Y?8?$IATv?$NP?$AA?$AA@ 00425fc8     AttemperEngineSink.obj
 0002:00001fd0       ??_C@_1EI@NDEEBJHH@?$AA?$CF?$AAs?$AA?1?$AA?1?$AA?$FL?$AA?$CF?$AAs?$AA?$FNe?e_?W?$AA?$CF?$AAd?$AA?9?$AA?$CF?$AAd?$AA?9?$AA?$CF?$AAd?$AA?9?$AA?$CF?$AA0?$AA2?$AAd?$AA?$CF?$AA0?$AA2?$AAd?$AA?$CF?$AA0?$AA2?$AAd?$AA?4@ 00425fd0     AttemperEngineSink.obj
 0002:00002018       ??_C@_1CO@EHHOEIPO@?$AA?$CF?$AAd?$AA?1?$AA?$CF?$AAd?$AA?1?$AA?$CF?$AAd?$AA_?$AA?$CF?$AAd?$AA?3?$AA?$CF?$AAd?$AA?3?$AA?$CF?$AAd?$AA?9?$AA?9?$AA?$CF?$AAs?$AA?6?$AA?$AA@ 00426018     AttemperEngineSink.obj
 0002:00002048       __real@40f5180000000000    00426048     AttemperEngineSink.obj
 0002:00002084       ??_7?$CTempldateHelper@UIDataBase@@@@6B@ 00426084     DataBaseEngineSink.obj
 0002:0000208c       ??_7CDataBaseHelper@@6B@   0042608c     DataBaseEngineSink.obj
 0002:00002090       ??_C@_0P@IKJBDFNG@CreateDataBase?$AA@ 00426090     DataBaseEngineSink.obj
 0002:000020a0       ??_C@_1CC@JLPEDCPB@?$AAK?$AAe?$AAr?$AAn?$AAe?$AAl?$AAE?$AAn?$AAg?$AAi?$AAn?$AAe?$AA?4?$AAd?$AAl?$AAl?$AA?$AA@ 004260a0     DataBaseEngineSink.obj
 0002:000020c8       ??_7CDataBaseEngineSink@@6B@ 004260c8     DataBaseEngineSink.obj
 0002:000020e8       ??_C@_0CL@EMJCKBGA@CDataBaseEngineSink?3?3OnDataBaseE@ 004260e8     DataBaseEngineSink.obj
 0002:00002114       ??_C@_0BH@LEDEGDBB@DataBaseEngineSink?4cpp?$AA@ 00426114     DataBaseEngineSink.obj
 0002:0000212c       ??_C@_1BE@BOMIKLLN@?$AA?$EA?$AAd?$AAw?$AAU?$AAs?$AAe?$AAr?$AAI?$AAD?$AA?$AA@ 0042612c     DataBaseEngineSink.obj
 0002:00002140       ??_C@_1BK@PABAKEFJ@?$AA?$EA?$AAs?$AAt?$AAr?$AAP?$AAa?$AAs?$AAs?$AAw?$AAo?$AAr?$AAd?$AA?$AA@ 00426140     DataBaseEngineSink.obj
 0002:0000215c       ??_C@_1CE@NFCODDGE@?$AA?$EA?$AAs?$AAt?$AAr?$AAE?$AAr?$AAr?$AAo?$AAr?$AAD?$AAe?$AAs?$AAc?$AAr?$AAi?$AAb?$AAe?$AA?$AA@ 0042615c     DataBaseEngineSink.obj
 0002:00002180       ??_C@_1CM@BMFGPEKH@?$AAG?$AAS?$AAP?$AA_?$AAI?$AAM?$AA_?$AAE?$AAf?$AAf?$AAi?$AAc?$AAa?$AAc?$AAy?$AAU?$AAs?$AAe?$AAr?$AAI?$AAD?$AA?$AA@ 00426180     DataBaseEngineSink.obj
 0002:000021ac       ??_C@_1O@DLKCLNNL@?$AAU?$AAs?$AAe?$AAr?$AAI?$AAD?$AA?$AA@ 004261ac     DataBaseEngineSink.obj
 0002:000021bc       ??_C@_1O@DJPEEOLP@?$AAG?$AAa?$AAm?$AAe?$AAI?$AAD?$AA?$AA@ 004261bc     DataBaseEngineSink.obj
 0002:000021cc       ??_C@_1O@LIEBKMGN@?$AAG?$AAe?$AAn?$AAd?$AAe?$AAr?$AA?$AA@ 004261cc     DataBaseEngineSink.obj
 0002:000021dc       ??_C@_1BC@ILLBKBPD@?$AAC?$AAu?$AAs?$AAt?$AAo?$AAm?$AAI?$AAD?$AA?$AA@ 004261dc     DataBaseEngineSink.obj
 0002:000021f0       ??_C@_1BC@FCKCDPHF@?$AAN?$AAi?$AAc?$AAk?$AAN?$AAa?$AAm?$AAe?$AA?$AA@ 004261f0     DataBaseEngineSink.obj
 0002:00002204       ??_C@_1BK@EILLNHOO@?$AAG?$AAr?$AAo?$AAu?$AAp?$AAI?$AAD?$AAA?$AAr?$AAr?$AAa?$AAy?$AA?$AA@ 00426204     DataBaseEngineSink.obj
 0002:00002220       ??_C@_1CO@NNAKBBIO@?$AAG?$AAS?$AAP?$AA_?$AAI?$AAM?$AA_?$AAQ?$AAu?$AAe?$AAr?$AAy?$AAC?$AAo?$AAm?$AAm?$AAo?$AAn?$AAI?$AAn?$AAf?$AAo?$AA?$AA@ 00426220     DataBaseEngineSink.obj
 0002:00002250       ??_C@_1BG@JHLAOGPN@?$AAO?$AAp?$AAt?$AAi?$AAo?$AAn?$AAN?$AAa?$AAm?$AAe?$AA?$AA@ 00426250     DataBaseEngineSink.obj
 0002:00002268       ??_C@_1BI@CBOLNBDL@?$AAO?$AAp?$AAt?$AAi?$AAo?$AAn?$AAV?$AAa?$AAl?$AAu?$AAe?$AA?$AA@ 00426268     DataBaseEngineSink.obj
 0002:00002280       ??_C@_1BG@BGOAHCBP@?$AA?$EA?$AAc?$AAb?$AAM?$AAs?$AAg?$AAT?$AAy?$AAp?$AAe?$AA?$AA@ 00426280     DataBaseEngineSink.obj
 0002:00002298       ??_C@_1DA@PINPOFP@?$AAG?$AAS?$AAP?$AA_?$AAI?$AAM?$AA_?$AAL?$AAo?$AAa?$AAd?$AAA?$AAp?$AAp?$AAl?$AAy?$AAM?$AAe?$AAs?$AAs?$AAa?$AAg?$AAe?$AA?$AA@ 00426298     DataBaseEngineSink.obj
 0002:000022c8       ??_C@_1BC@HKEABBHJ@?$AAR?$AAe?$AAc?$AAo?$AAr?$AAd?$AAI?$AAD?$AA?$AA@ 004262c8     DataBaseEngineSink.obj
 0002:000022dc       ??_C@_1BI@GOHADBEE@?$AAA?$AAp?$AAp?$AAl?$AAy?$AAS?$AAt?$AAa?$AAt?$AAu?$AAs?$AA?$AA@ 004262dc     DataBaseEngineSink.obj
 0002:000022f4       ??_C@_1BE@KNEKNLGL@?$AAA?$AAp?$AAp?$AAl?$AAy?$AAT?$AAy?$AAp?$AAe?$AA?$AA@ 004262f4     DataBaseEngineSink.obj
 0002:00002308       ??_C@_1BE@EMOKLAAF@?$AAA?$AAp?$AAp?$AAl?$AAy?$AAe?$AAr?$AAI?$AAD?$AA?$AA@ 00426308     DataBaseEngineSink.obj
 0002:0000231c       ??_C@_1BM@IJHDIANB@?$AAA?$AAp?$AAp?$AAl?$AAy?$AAe?$AAr?$AAG?$AAa?$AAm?$AAe?$AAI?$AAD?$AA?$AA@ 0042631c     DataBaseEngineSink.obj
 0002:00002338       ??_C@_1CA@HENKCHIJ@?$AAA?$AAp?$AAp?$AAl?$AAy?$AAe?$AAr?$AAC?$AAu?$AAs?$AAt?$AAo?$AAm?$AAI?$AAD?$AA?$AA@ 00426338     DataBaseEngineSink.obj
 0002:00002358       ??_C@_1CA@CCJAPNAC@?$AAC?$AAo?$AAl?$AAl?$AAe?$AAc?$AAt?$AAD?$AAa?$AAt?$AAe?$AAT?$AAi?$AAm?$AAe?$AA?$AA@ 00426358     DataBaseEngineSink.obj
 0002:00002378       ??_C@_1CA@KNMJLJAP@?$AAA?$AAp?$AAp?$AAl?$AAy?$AAe?$AAr?$AAN?$AAi?$AAc?$AAk?$AAN?$AAa?$AAm?$AAe?$AA?$AA@ 00426378     DataBaseEngineSink.obj
 0002:00002398       ??_C@_1BA@BBBFHFDG@?$AAG?$AAr?$AAo?$AAu?$AAp?$AAI?$AAD?$AA?$AA@ 00426398     DataBaseEngineSink.obj
 0002:000023a8       ??_C@_1BE@DGNLDPDH@?$AAC?$AAr?$AAe?$AAa?$AAt?$AAe?$AAr?$AAI?$AAD?$AA?$AA@ 004263a8     DataBaseEngineSink.obj
 0002:000023bc       ??_C@_1BE@DBKHKHNO@?$AAG?$AAr?$AAo?$AAu?$AAp?$AAN?$AAa?$AAm?$AAe?$AA?$AA@ 004263bc     DataBaseEngineSink.obj
 0002:000023d0       ??_C@_0CK@DCIKCJBD@CDataBaseEngineSink?3?3OnRequestLo@ 004263d0     DataBaseEngineSink.obj
 0002:000023fc       ??_C@_1CC@JDKBLBGO@u1N?$IOepcn?$FO?$JDd?MO?2_?$AC?$FO8?$PP?$AM?$IL?wz?$ANT?$AO?$JB?M?$IL?U?$PP?$AB?$AA?$AA@ 004263fc     DataBaseEngineSink.obj
 0002:00002420       ??_C@_1BI@KCNIPFGN@?$AA?$EA?$AAd?$AAw?$AAC?$AAr?$AAe?$AAa?$AAt?$AAe?$AAI?$AAD?$AA?$AA@ 00426420     DataBaseEngineSink.obj
 0002:00002438       ??_C@_1BM@MLGGLKIA@?$AA?$EA?$AAs?$AAt?$AAr?$AAG?$AAr?$AAo?$AAu?$AAp?$AAN?$AAa?$AAm?$AAe?$AA?$AA@ 00426438     DataBaseEngineSink.obj
 0002:00002454       ??_C@_1CG@CICLDHBK@?$AA?$EA?$AAs?$AAt?$AAr?$AAG?$AAr?$AAo?$AAu?$AAp?$AAI?$AAn?$AAt?$AAr?$AAo?$AAd?$AAu?$AAc?$AAe?$AA?$AA@ 00426454     DataBaseEngineSink.obj
 0002:0000247c       ??_C@_1BG@JLHIMIPL@?$AA?$EA?$AAc?$AAb?$AAP?$AAa?$AAy?$AAT?$AAy?$AAp?$AAe?$AA?$AA@ 0042647c     DataBaseEngineSink.obj
 0002:00002494       ??_C@_1CA@LDNPDLOM@?$AA?$EA?$AAc?$AAb?$AAC?$AAu?$AAr?$AAr?$AAe?$AAn?$AAc?$AAy?$AAK?$AAi?$AAn?$AAd?$AA?$AA@ 00426494     DataBaseEngineSink.obj
 0002:000024b4       ??_C@_1CG@FPECCNLG@?$AAG?$AAS?$AAP?$AA_?$AAI?$AAM?$AA_?$AAC?$AAr?$AAe?$AAa?$AAt?$AAe?$AAG?$AAr?$AAo?$AAu?$AAp?$AA?$AA@ 004264b4     DataBaseEngineSink.obj
 0002:000024dc       ??_C@_1M@CBBPKDNE@?$AAI?$AAn?$AAg?$AAo?$AAt?$AA?$AA@ 004264dc     DataBaseEngineSink.obj
 0002:000024e8       ??_C@_1BE@MAFMELEJ@?$AAU?$AAs?$AAe?$AAr?$AAI?$AAn?$AAg?$AAo?$AAt?$AA?$AA@ 004264e8     DataBaseEngineSink.obj
 0002:000024fc       ??_C@_1BA@HHBGAPIN@?$AAP?$AAa?$AAy?$AAT?$AAy?$AAp?$AAe?$AA?$AA@ 004264fc     DataBaseEngineSink.obj
 0002:0000250c       ??_C@_1BK@JFEPNOFI@?$AAC?$AAu?$AAr?$AAr?$AAe?$AAn?$AAc?$AAy?$AAK?$AAi?$AAn?$AAd?$AA?$AA@ 0042650c     DataBaseEngineSink.obj
 0002:00002528       ??_C@_1BE@FMFKJBNC@?$AAM?$AAe?$AAd?$AAa?$AAl?$AAM?$AAo?$AAd?$AAe?$AA?$AA@ 00426528     DataBaseEngineSink.obj
 0002:0000253c       ??_C@_1BE@PPCPEGEH@?$AAM?$AAe?$AAd?$AAa?$AAl?$AAS?$AAh?$AAo?$AAw?$AA?$AA@ 0042653c     DataBaseEngineSink.obj
 0002:00002550       ??_C@_1BK@ODKPFLGM@?$AAC?$AAu?$AAr?$AAM?$AAe?$AAd?$AAa?$AAl?$AAS?$AAh?$AAo?$AAw?$AA?$AA@ 00426550     DataBaseEngineSink.obj
 0002:0000256c       ??_C@_1CC@JAPJBPDK@?$AAM?$AAe?$AAd?$AAa?$AAl?$AAR?$AAe?$AAv?$AAe?$AAn?$AAu?$AAe?$AAS?$AAh?$AAo?$AAw?$AA?$AA@ 0042656c     DataBaseEngineSink.obj
 0002:00002590       ??_C@_1BG@KAANBKJH@?$AAM?$AAe?$AAd?$AAa?$AAl?$AAC?$AAl?$AAe?$AAa?$AAr?$AA?$AA@ 00426590     DataBaseEngineSink.obj
 0002:000025a8       ??_C@_1BM@KJCHOMHH@?$AAB?$AAi?$AAg?$AAW?$AAi?$AAn?$AAn?$AAe?$AAr?$AAS?$AAh?$AAo?$AAw?$AA?$AA@ 004265a8     DataBaseEngineSink.obj
 0002:000025c4       ??_C@_1BO@CIJIOKI@?$AAF?$AAr?$AAe?$AAe?$AAT?$AAa?$AAb?$AAl?$AAe?$AAL?$AAi?$AAm?$AAi?$AAt?$AA?$AA@ 004265c4     DataBaseEngineSink.obj
 0002:000025e4       ??_C@_1BA@HECDGLD@?$AAO?$AAu?$AAt?$AAM?$AAo?$AAd?$AAe?$AA?$AA@ 004265e4     DataBaseEngineSink.obj
 0002:000025f4       ??_C@_1O@PNNKEFOF@?$AAI?$AAn?$AAM?$AAo?$AAd?$AAe?$AA?$AA@ 004265f4     DataBaseEngineSink.obj
 0002:00002604       ??_C@_1BK@PPNMEBBG@?$AAM?$AAa?$AAn?$AAa?$AAg?$AAe?$AAr?$AAR?$AAi?$AAg?$AAh?$AAt?$AA?$AA@ 00426604     DataBaseEngineSink.obj
 0002:00002620       ??_C@_1BK@NJDLDOOM@?$AAC?$AAa?$AAp?$AAt?$AAa?$AAi?$AAn?$AAR?$AAi?$AAg?$AAh?$AAt?$AA?$AA@ 00426620     DataBaseEngineSink.obj
 0002:0000263c       ??_C@_1BI@KNAOCLID@?$AAG?$AAr?$AAo?$AAu?$AAp?$AAI?$AAD?$AAS?$AAh?$AAo?$AAw?$AA?$AA@ 0042663c     DataBaseEngineSink.obj
 0002:00002654       ??_C@_1BM@EMIBGCKM@?$AAC?$AAr?$AAe?$AAa?$AAt?$AAe?$AAr?$AAG?$AAa?$AAm?$AAe?$AAI?$AAD?$AA?$AA@ 00426654     DataBaseEngineSink.obj
 0002:00002670       ??_C@_1BG@OCPILEFO@?$AAG?$AAr?$AAo?$AAu?$AAp?$AAL?$AAe?$AAv?$AAe?$AAl?$AA?$AA@ 00426670     DataBaseEngineSink.obj
 0002:00002688       ??_C@_1BI@CPMFMAJK@?$AAM?$AAe?$AAm?$AAb?$AAe?$AAr?$AAC?$AAo?$AAu?$AAn?$AAt?$AA?$AA@ 00426688     DataBaseEngineSink.obj
 0002:000026a0       ??_C@_1BO@IPFFALME@?$AAM?$AAa?$AAx?$AAM?$AAe?$AAm?$AAb?$AAe?$AAr?$AAC?$AAo?$AAu?$AAn?$AAt?$AA?$AA@ 004266a0     DataBaseEngineSink.obj
 0002:000026c0       ??_C@_1BI@GHJPDLLL@?$AAG?$AAr?$AAo?$AAu?$AAp?$AAS?$AAt?$AAa?$AAt?$AAu?$AAs?$AA?$AA@ 004266c0     DataBaseEngineSink.obj
 0002:000026d8       ??_C@_1BO@CODIAJEE@?$AAC?$AAr?$AAe?$AAa?$AAt?$AAe?$AAD?$AAa?$AAt?$AAe?$AAT?$AAi?$AAm?$AAe?$AA?$AA@ 004266d8     DataBaseEngineSink.obj
 0002:000026f8       ??_C@_1BO@KEHLAGPJ@?$AAG?$AAr?$AAo?$AAu?$AAp?$AAI?$AAn?$AAt?$AAr?$AAo?$AAd?$AAu?$AAc?$AAe?$AA?$AA@ 004266f8     DataBaseEngineSink.obj
 0002:00002718       ??_C@_1CA@FDHOHAIA@?$AAC?$AAr?$AAe?$AAa?$AAt?$AAe?$AAr?$AAN?$AAi?$AAc?$AAk?$AAN?$AAa?$AAm?$AAe?$AA?$AA@ 00426718     DataBaseEngineSink.obj
 0002:00002738       ??_C@_1BG@NGGGCJCM@?$AA?$EA?$AAd?$AAw?$AAG?$AAr?$AAo?$AAu?$AAp?$AAI?$AAD?$AA?$AA@ 00426738     DataBaseEngineSink.obj
 0002:00002750       ??_C@_1BI@FKPODPCN@?$AA?$EA?$AAd?$AAw?$AAM?$AAe?$AAm?$AAb?$AAe?$AAr?$AAI?$AAD?$AA?$AA@ 00426750     DataBaseEngineSink.obj
 0002:00002768       ??_C@_1CC@MMFFBLFD@?$AA?$EA?$AAl?$AAI?$AAn?$AAv?$AAi?$AAt?$AAa?$AAt?$AAi?$AAo?$AAn?$AAC?$AAo?$AAd?$AAe?$AA?$AA@ 00426768     DataBaseEngineSink.obj
 0002:0000278c       ??_C@_1CM@EBBNKLEK@?$AAG?$AAS?$AAP?$AA_?$AAI?$AAM?$AA_?$AAA?$AAd?$AAd?$AAG?$AAr?$AAo?$AAu?$AAp?$AAM?$AAe?$AAm?$AAb?$AAe?$AAr?$AA?$AA@ 0042678c     DataBaseEngineSink.obj
 0002:000027b8       ??_C@_1BC@IIAOBPFK@?$AAM?$AAe?$AAm?$AAb?$AAe?$AAr?$AAI?$AAD?$AA?$AA@ 004267b8     DataBaseEngineSink.obj
 0002:000027cc       ??_C@_1BI@HGNAGGGN@?$AAB?$AAa?$AAt?$AAt?$AAl?$AAe?$AAC?$AAo?$AAu?$AAn?$AAt?$AA?$AA@ 004267cc     DataBaseEngineSink.obj
 0002:000027e4       ??_C@_1BI@FNKBMEAF@?$AAM?$AAe?$AAm?$AAb?$AAe?$AAr?$AAR?$AAi?$AAg?$AAh?$AAt?$AA?$AA@ 004267e4     DataBaseEngineSink.obj
 0002:000027fc       ??_C@_1BO@MGLBGHEI@?$AAI?$AAn?$AAv?$AAi?$AAt?$AAa?$AAt?$AAi?$AAo?$AAn?$AAC?$AAo?$AAd?$AAe?$AA?$AA@ 004267fc     DataBaseEngineSink.obj
 0002:0000281c       ??_C@_1BG@GEIIPLMK@?$AAA?$AAw?$AAa?$AAr?$AAd?$AAP?$AAo?$AAi?$AAn?$AAt?$AA?$AA@ 0042681c     DataBaseEngineSink.obj
 0002:00002834       ??_C@_1BK@JHAEBNKE@?$AAJ?$AAo?$AAi?$AAn?$AAD?$AAa?$AAt?$AAe?$AAT?$AAi?$AAm?$AAe?$AA?$AA@ 00426834     DataBaseEngineSink.obj
 0002:00002850       ??_C@_1BK@GNMLCCDO@?$AA?$EA?$AAd?$AAw?$AAC?$AAr?$AAe?$AAa?$AAt?$AAe?$AAr?$AAI?$AAD?$AA?$AA@ 00426850     DataBaseEngineSink.obj
 0002:0000286c       ??_C@_1CG@FBGAFEDC@?$AAG?$AAS?$AAP?$AA_?$AAI?$AAM?$AA_?$AAD?$AAe?$AAl?$AAe?$AAt?$AAe?$AAG?$AAr?$AAo?$AAu?$AAp?$AA?$AA@ 0042686c     DataBaseEngineSink.obj
 0002:00002894       ??_C@_1CO@BFGMFLN@Y?8?$IATv?$NPR?$BL?$FO?zY1?$IN?$CF?$PP?$AM?$IL?w?$IAT?$HM?$PL?$FL?$KCg?$ANN?9_?CN?$IG?$IJ?c?$IL?f?$HO?FO?a?$GAo?$PP?$AB?$AA?$AA@ 00426894     DataBaseEngineSink.obj
 0002:000028c4       ??_C@_1BK@PELHMMBN@?$GAmU?$JM?$GA?$KI?$PP?$AMY?8?$IATv?$NPR?$BL?$FO?zb?$BAR?$JP?$PP?$AB?$AA?$AA@ 004268c4     DataBaseEngineSink.obj
 0002:000028e0       ??_C@_0CK@IGOGPEFA@CDataBaseEngineSink?3?3OnRequestCr@ 004268e0     DataBaseEngineSink.obj
 0002:0000290c       ??_C@_1BA@DOCHMGBA@?$AA?$EA?$AAl?$AAI?$AAn?$AAg?$AAo?$AAt?$AA?$AA@ 0042690c     DataBaseEngineSink.obj
 0002:0000291c       ??_C@_1DC@FEFHGFEM@?$AAG?$AAS?$AAP?$AA_?$AAI?$AAM?$AA_?$AAU?$AAp?$AAd?$AAa?$AAt?$AAe?$AAG?$AAr?$AAo?$AAu?$AAp?$AAW?$AAe?$AAa?$AAl?$AAt?$AAh?$AA?$AA@ 0042691c     DataBaseEngineSink.obj
 0002:00002950       ??_C@_1DG@JNMIOOLG@?$AAG?$AAS?$AAP?$AA_?$AAI?$AAM?$AA_?$AAU?$AAp?$AAd?$AAa?$AAt?$AAe?$AAG?$AAr?$AAo?$AAu?$AAp?$AAP?$AAr?$AAo?$AAp?$AAe?$AAr?$AAt?$AAy?$AA?$AA@ 00426950     DataBaseEngineSink.obj
 0002:00002988       ??_C@_1DK@GJIBANHH@?$AAG?$AAS?$AAP?$AA_?$AAI?$AAM?$AA_?$AAU?$AAp?$AAd?$AAa?$AAt?$AAe?$AAG?$AAr?$AAo?$AAu?$AAp?$AAB?$AAa?$AAt?$AAt?$AAl?$AAe?$AAR?$AAu?$AAl?$AAe?$AA?$AA@ 00426988     DataBaseEngineSink.obj
 0002:000029c4       ??_C@_0CK@NCGNGOLD@CDataBaseEngineSink?3?3OnRequestUp@ 004269c4     DataBaseEngineSink.obj
 0002:000029f0       ??_C@_0CK@NEEKLGFB@CDataBaseEngineSink?3?3OnRequestDe@ 004269f0     DataBaseEngineSink.obj
 0002:00002a1c       ??_C@_1BE@CJACFBMC@?$AAC?$AAa?$AAp?$AAt?$AAa?$AAi?$AAn?$AAI?$AAD?$AA?$AA@ 00426a1c     DataBaseEngineSink.obj
 0002:00002a30       ??_C@_1CI@MLGHFNCE@?$AAG?$AAS?$AAP?$AA_?$AAI?$AAM?$AA_?$AAD?$AAe?$AAl?$AAe?$AAt?$AAe?$AAM?$AAe?$AAm?$AAb?$AAe?$AAr?$AA?$AA@ 00426a30     DataBaseEngineSink.obj
 0002:00002a58       ??_C@_1DC@ONNBBFDC@?$AAG?$AAS?$AAP?$AA_?$AAI?$AAM?$AA_?$AAD?$AAe?$AAl?$AAe?$AAt?$AAe?$AAG?$AAr?$AAo?$AAu?$AAp?$AAM?$AAe?$AAm?$AAb?$AAe?$AAr?$AA?$AA@ 00426a58     DataBaseEngineSink.obj
 0002:00002a8c       ??_C@_0CL@BGPBAABA@CDataBaseEngineSink?3?3OnRequestDe@ 00426a8c     DataBaseEngineSink.obj
 0002:00002ab8       ??_C@_1BK@BHPKKNAM@?$AA?$EA?$AAd?$AAw?$AAA?$AAp?$AAp?$AAl?$AAy?$AAe?$AAr?$AAI?$AAD?$AA?$AA@ 00426ab8     DataBaseEngineSink.obj
 0002:00002ad4       ??_C@_1BK@CFDMEMJE@?$AA?$EA?$AAc?$AAb?$AAA?$AAp?$AAp?$AAl?$AAy?$AAT?$AAy?$AAp?$AAe?$AA?$AA@ 00426ad4     DataBaseEngineSink.obj
 0002:00002af0       ??_C@_1CI@OFDOEPNC@?$AAG?$AAS?$AAP?$AA_?$AAI?$AAM?$AA_?$AAA?$AAp?$AAp?$AAl?$AAy?$AAR?$AAe?$AAq?$AAu?$AAe?$AAs?$AAt?$AA?$AA@ 00426af0     DataBaseEngineSink.obj
 0002:00002b18       ??_C@_19JOBPJFOO@R?$KAQeb?$BAR?$JP?$AA?$AA@ 00426b18     DataBaseEngineSink.obj
 0002:00002b24       ??_C@_1BM@KDNFBEOH@?$AA?$EA?$AAd?$AAw?$AAO?$AAp?$AAe?$AAr?$AAa?$AAt?$AAo?$AAr?$AAI?$AAD?$AA?$AA@ 00426b24     DataBaseEngineSink.obj
 0002:00002b40       ??_C@_0CL@FOHIECNC@CDataBaseEngineSink?3?3OnRequestAp@ 00426b40     DataBaseEngineSink.obj
 0002:00002b6c       ??_C@_1BI@KILADBAO@?$AA?$EA?$AAd?$AAw?$AAR?$AAe?$AAc?$AAo?$AAr?$AAd?$AAI?$AAD?$AA?$AA@ 00426b6c     DataBaseEngineSink.obj
 0002:00002b84       ??_C@_1BO@NCCPEMKC@?$AA?$EA?$AAc?$AAb?$AAA?$AAp?$AAp?$AAl?$AAy?$AAS?$AAt?$AAa?$AAt?$AAu?$AAs?$AA?$AA@ 00426b84     DataBaseEngineSink.obj
 0002:00002ba4       ??_C@_1CI@JBLNEABL@?$AAG?$AAS?$AAP?$AA_?$AAI?$AAM?$AA_?$AAA?$AAp?$AAp?$AAl?$AAy?$AAR?$AAe?$AAs?$AAp?$AAo?$AAn?$AAd?$AA?$AA@ 00426ba4     DataBaseEngineSink.obj
 0002:00002bcc       ??_C@_0CL@OKNBKOLP@CDataBaseEngineSink?3?3OnRequestAp@ 00426bcc     DataBaseEngineSink.obj
 0002:00002bf8       ??_C@_1BK@GPOEOCHN@?$AA?$EA?$AAd?$AAw?$AAM?$AAe?$AAs?$AAs?$AAa?$AAg?$AAe?$AAI?$AAD?$AA?$AA@ 00426bf8     DataBaseEngineSink.obj
 0002:00002c14       ??_C@_1BO@HMLMOIMI@?$AA?$EA?$AAc?$AAb?$AAM?$AAe?$AAs?$AAs?$AAa?$AAg?$AAe?$AAT?$AAy?$AAp?$AAe?$AA?$AA@ 00426c14     DataBaseEngineSink.obj
 0002:00002c34       ??_C@_1CG@DJNJNLOD@?$AAG?$AAS?$AAP?$AA_?$AAI?$AAM?$AA_?$AAA?$AAp?$AAp?$AAl?$AAy?$AAD?$AAe?$AAl?$AAe?$AAt?$AAe?$AA?$AA@ 00426c34     DataBaseEngineSink.obj
 0002:00002c5c       ??_C@_0CK@DMMILIJF@CDataBaseEngineSink?3?3OnRequestAp@ 00426c5c     DataBaseEngineSink.obj
 0002:00002c88       ??_C@_1BM@KDGPOCDC@?$AA?$EA?$AAw?$AAS?$AAe?$AAt?$AAt?$AAl?$AAe?$AAC?$AAo?$AAu?$AAn?$AAt?$AA?$AA@ 00426c88     DataBaseEngineSink.obj
 0002:00002ca4       ??_C@_1CI@MLCNFAKF@?$AAG?$AAS?$AAP?$AA_?$AAI?$AAM?$AA_?$AAS?$AAe?$AAt?$AAt?$AAl?$AAe?$AAB?$AAa?$AAt?$AAt?$AAl?$AAe?$AA?$AA@ 00426ca4     DataBaseEngineSink.obj
 0002:00002ccc       ??_C@_1BK@IGOPDNDG@?$AAB?$AAa?$AAl?$AAa?$AAn?$AAc?$AAe?$AAC?$AAo?$AAu?$AAn?$AAt?$AA?$AA@ 00426ccc     DataBaseEngineSink.obj
 0002:00002ce8       ??_C@_0CL@GLMNPPPF@CDataBaseEngineSink?3?3OnRequestSe@ 00426ce8     DataBaseEngineSink.obj
 0002:00002d14       ??_C@_1CO@GCBDAJND@?$AAG?$AAS?$AAP?$AA_?$AAG?$AAR?$AA_?$AAL?$AAo?$AAa?$AAd?$AAF?$AAo?$AAr?$AAb?$AAi?$AAd?$AAW?$AAo?$AAr?$AAd?$AAs?$AA?$AA@ 00426d14     DataBaseEngineSink.obj
 0002:00002d44       ??_C@_1BI@KOFJABNP@?$AAF?$AAo?$AAr?$AAb?$AAi?$AAd?$AAW?$AAo?$AAr?$AAd?$AAs?$AA?$AA@ 00426d44     DataBaseEngineSink.obj
 0002:00002d5c       ??_C@_0CO@PDGKIBID@CDataBaseEngineSink?3?3OnRequestLo@ 00426d5c     DataBaseEngineSink.obj
 0002:00002d8c       ??_C@_1DA@MFJEKFCN@?$AAG?$AAS?$AAP?$AA_?$AAI?$AAM?$AA_?$AAQ?$AAu?$AAe?$AAr?$AAy?$AAG?$AAr?$AAo?$AAu?$AAp?$AAM?$AAe?$AAm?$AAb?$AAe?$AAr?$AA?$AA@ 00426d8c     DataBaseEngineSink.obj
 0002:00002dbc       ??_C@_1M@LGMGBHPD@?$AAS?$AAc?$AAo?$AAr?$AAe?$AA?$AA@ 00426dbc     DataBaseEngineSink.obj
 0002:00002dc8       ??_C@_1BO@HFDJCLOE@?$AAF?$AAa?$AAv?$AAo?$AAr?$AAi?$AAt?$AAe?$AAC?$AAo?$AAn?$AAf?$AAi?$AAg?$AA?$AA@ 00426dc8     DataBaseEngineSink.obj
 0002:00002de8       ??_C@_1CC@IGIJIMOP@?$AAM?$AAa?$AAn?$AAa?$AAg?$AAe?$AAr?$AAR?$AAi?$AAg?$AAh?$AAt?$AAF?$AAl?$AAa?$AAg?$AA?$AA@ 00426de8     DataBaseEngineSink.obj
 0002:00002e0c       ??_C@_1CG@BLMBIAP@?$AAM?$AAe?$AAm?$AAb?$AAe?$AAr?$AAM?$AAa?$AAn?$AAa?$AAg?$AAe?$AAr?$AAR?$AAi?$AAg?$AAh?$AAt?$AA?$AA@ 00426e0c     DataBaseEngineSink.obj
 0002:00002e34       ??_C@_1BG@MAGMOIP@?$AAU?$AAs?$AAe?$AAr?$AAS?$AAt?$AAa?$AAt?$AAu?$AAs?$AA?$AA@ 00426e34     DataBaseEngineSink.obj
 0002:00002e4c       ??_C@_15PKFOONMJ@?$AAQ?$AAQ?$AA?$AA@ 00426e4c     DataBaseEngineSink.obj
 0002:00002e54       ??_C@_15FBAPEBFO@?$AAW?$AAX?$AA?$AA@ 00426e54     DataBaseEngineSink.obj
 0002:00002e5c       ??_C@_1M@ENKMPMBE@?$AAP?$AAh?$AAo?$AAn?$AAe?$AA?$AA@ 00426e5c     DataBaseEngineSink.obj
 0002:00002e68       ??_C@_1HO@DGDJOAOG@?$AAp?$AAt?$AAd?$AAt?$AAa?$AAi?$AA?5?$AA?$CK?$AA?$CK?$AA?$CK?$AA?5?$JB?Me?$LAR?$KA?$IP?$HNb?$BATX?$AA?5?$AAd?$AAw?$AAG?$AAr?$AAo?$AAu?$AAp?$AAI?$AAD?$AA?5?$AA?$DN?$AA?5?$AA?$CF?$AAd@ 00426e68     DataBaseEngineSink.obj
 0002:00002ee8       ??_C@_0CO@FFDPMOKA@CDataBaseEngineSink?3?3OnRequestLo@ 00426ee8     DataBaseEngineSink.obj
 0002:00002f18       ??_C@_1DA@JLEAMKOD@?$AAG?$AAS?$AAP?$AA_?$AAI?$AAM?$AA_?$AAQ?$AAu?$AAe?$AAr?$AAy?$AAG?$AAr?$AAo?$AAu?$AAp?$AAC?$AAo?$AAn?$AAf?$AAi?$AAg?$AA?$AA@ 00426f18     DataBaseEngineSink.obj
 0002:00002f48       ??_C@_1BC@DEJAHGJK@?$AAC?$AAo?$AAn?$AAf?$AAi?$AAg?$AAI?$AAD?$AA?$AA@ 00426f48     DataBaseEngineSink.obj
 0002:00002f5c       ??_C@_1BG@DJKMAHHD@?$AAC?$AAo?$AAn?$AAf?$AAi?$AAg?$AAN?$AAa?$AAm?$AAe?$AA?$AA@ 00426f5c     DataBaseEngineSink.obj
 0002:00002f74       ??_C@_1O@DCJABCPB@?$AAK?$AAi?$AAn?$AAd?$AAI?$AAD?$AA?$AA@ 00426f74     DataBaseEngineSink.obj
 0002:00002f84       ??_C@_1BE@GDONEODB@?$AAC?$AAe?$AAl?$AAl?$AAS?$AAc?$AAo?$AAr?$AAe?$AA?$AA@ 00426f84     DataBaseEngineSink.obj
 0002:00002f98       ??_C@_1BO@JAMKPMDH@?$AAD?$AAr?$AAa?$AAw?$AAC?$AAo?$AAu?$AAn?$AAt?$AAL?$AAi?$AAm?$AAi?$AAt?$AA?$AA@ 00426f98     DataBaseEngineSink.obj
 0002:00002fb8       ??_C@_1BM@BDFNEPPP@?$AAD?$AAr?$AAa?$AAw?$AAT?$AAi?$AAm?$AAe?$AAL?$AAi?$AAm?$AAi?$AAt?$AA?$AA@ 00426fb8     DataBaseEngineSink.obj
 0002:00002fd4       ??_C@_1BE@HFANKNHK@?$AAJ?$AAo?$AAi?$AAn?$AAC?$AAo?$AAu?$AAn?$AAt?$AA?$AA@ 00426fd4     DataBaseEngineSink.obj
 0002:00002fe8       ??_C@_1BA@EEGELHHL@?$AAR?$AAo?$AAo?$AAm?$AAT?$AAa?$AAx?$AA?$AA@ 00426fe8     DataBaseEngineSink.obj
 0002:00002ff8       ??_C@_1BK@JHCLHMPN@?$AAP?$AAa?$AAs?$AAs?$AAw?$AAo?$AAr?$AAd?$AAM?$AAo?$AAd?$AAe?$AA?$AA@ 00426ff8     DataBaseEngineSink.obj
 0002:00003014       ??_C@_1BA@IODONNIO@?$AAP?$AAa?$AAy?$AAM?$AAo?$AAd?$AAe?$AA?$AA@ 00427014     DataBaseEngineSink.obj
 0002:00003024       ??_C@_1BC@MHIKODMF@?$AAP?$AAl?$AAa?$AAy?$AAM?$AAo?$AAd?$AAe?$AA?$AA@ 00427024     DataBaseEngineSink.obj
 0002:00003038       ??_C@_1BC@CCKKMGLA@?$AAG?$AAa?$AAm?$AAe?$AAM?$AAo?$AAd?$AAe?$AA?$AA@ 00427038     DataBaseEngineSink.obj
 0002:0000304c       ??_C@_1BC@JJLNNEOF@?$AAJ?$AAo?$AAi?$AAn?$AAM?$AAo?$AAd?$AAe?$AA?$AA@ 0042704c     DataBaseEngineSink.obj
 0002:00003060       ??_C@_1BG@FINIGLDG@?$AAE?$AAn?$AAt?$AAe?$AAr?$AAS?$AAc?$AAo?$AAr?$AAe?$AA?$AA@ 00427060     DataBaseEngineSink.obj
 0002:00003078       ??_C@_1BG@MCAIJDLB@?$AAL?$AAe?$AAa?$AAv?$AAe?$AAS?$AAc?$AAo?$AAr?$AAe?$AA?$AA@ 00427078     DataBaseEngineSink.obj
 0002:00003090       ??_C@_1BA@MBKKNNGG@?$AAT?$AAa?$AAx?$AAM?$AAo?$AAd?$AAe?$AA?$AA@ 00427090     DataBaseEngineSink.obj
 0002:000030a0       ??_C@_1BC@BMHPIGEB@?$AAT?$AAa?$AAx?$AAC?$AAo?$AAu?$AAn?$AAt?$AA?$AA@ 004270a0     DataBaseEngineSink.obj
 0002:000030b4       ??_C@_1CC@BFICGOJI@?$AAL?$AAe?$AAs?$AAs?$AAS?$AAc?$AAo?$AAr?$AAe?$AAD?$AAi?$AAs?$AAm?$AAi?$AAs?$AAs?$AA?$AA@ 004270b4     DataBaseEngineSink.obj
 0002:000030d8       ??_C@_1BG@LGDEAIBO@?$AAT?$AAi?$AAm?$AAe?$AAS?$AAe?$AAc?$AAo?$AAn?$AAd?$AA?$AA@ 004270d8     DataBaseEngineSink.obj
 0002:000030f0       ??_C@_1CM@NOMOJFAE@?$AAG?$AAr?$AAo?$AAu?$AAp?$AAP?$AAe?$AAr?$AAs?$AAo?$AAn?$AAa?$AAl?$AAM?$AAa?$AAx?$AAC?$AAh?$AAa?$AAi?$AAr?$AA?$AA@ 004270f0     DataBaseEngineSink.obj
 0002:0000311c       ??_C@_1BC@PFCHLDFL@?$AAG?$AAa?$AAm?$AAe?$AAR?$AAu?$AAl?$AAe?$AA?$AA@ 0042711c     DataBaseEngineSink.obj
 0002:00003130       ??_C@_0CO@FCPGGEGM@CDataBaseEngineSink?3?3OnRequestLo@ 00427130     DataBaseEngineSink.obj
 0002:00003160       ??_C@_1CC@BOPPIPIN@?$AA?$EA?$AAw?$AAI?$AAn?$AAc?$AAB?$AAa?$AAt?$AAt?$AAl?$AAe?$AAC?$AAo?$AAu?$AAn?$AAt?$AA?$AA@ 00427160     DataBaseEngineSink.obj
 0002:00003184       ??_C@_1DO@KDGBNIPL@?$AAG?$AAS?$AAP?$AA_?$AAI?$AAM?$AA_?$AAU?$AAp?$AAd?$AAa?$AAt?$AAe?$AAM?$AAe?$AAm?$AAb?$AAe?$AAr?$AAB?$AAa?$AAt?$AAt?$AAl?$AAe?$AAC?$AAo?$AAu?$AAn?$AAt?$AA?$AA@ 00427184     DataBaseEngineSink.obj
 0002:000031c4       ??_C@_0CL@FIPDKEJM@CDataBaseEngineSink?3?3OnRequestUp@ 004271c4     DataBaseEngineSink.obj
 0002:000031f0       ??_C@_1CA@EJJGPGIF@?$AA?$EA?$AAd?$AAw?$AAG?$AAr?$AAo?$AAu?$AAp?$AAS?$AAt?$AAa?$AAr?$AAt?$AAI?$AAD?$AA?$AA@ 004271f0     DataBaseEngineSink.obj
 0002:00003210       ??_C@_1BM@BOADINHC@?$AA?$EA?$AAd?$AAw?$AAG?$AAr?$AAo?$AAu?$AAp?$AAE?$AAn?$AAd?$AAI?$AAD?$AA?$AA@ 00427210     DataBaseEngineSink.obj
 0002:0000322c       ??_C@_1CM@CKECDDJI@?$AAG?$AAS?$AAP?$AA_?$AAI?$AAM?$AA_?$AAQ?$AAu?$AAe?$AAr?$AAy?$AAG?$AAr?$AAo?$AAu?$AAp?$AAL?$AAi?$AAs?$AAt?$AA?$AA@ 0042722c     DataBaseEngineSink.obj
 0002:00003258       ??_C@_0CM@BNJAEBGB@CDataBaseEngineSink?3?3OnRequestLo@ 00427258     DataBaseEngineSink.obj
 0002:00003284       ??_C@_0CM@PEKIDHIJ@CDataBaseEngineSink?3?3OnRequestLo@ 00427284     DataBaseEngineSink.obj
 0002:000032b0       ??_C@_1CG@GBNAGGCD@?$AAG?$AAS?$AAP?$AA_?$AAI?$AAM?$AA_?$AAQ?$AAu?$AAe?$AAr?$AAy?$AAB?$AAa?$AAt?$AAt?$AAl?$AAe?$AA?$AA@ 004272b0     DataBaseEngineSink.obj
 0002:000032d8       ??_C@_1BK@BEEDNPDA@?$AAB?$AAa?$AAt?$AAt?$AAl?$AAe?$AAC?$AAr?$AAe?$AAa?$AAt?$AAe?$AA?$AA@ 004272d8     DataBaseEngineSink.obj
 0002:000032f4       ??_C@_1BK@EFLFOBH@?$AAC?$AAo?$AAn?$AAs?$AAu?$AAm?$AAe?$AAI?$AAn?$AAg?$AAo?$AAt?$AA?$AA@ 004272f4     DataBaseEngineSink.obj
 0002:00003310       ??_C@_1CO@DDNFMLEJ@?$AAG?$AAS?$AAP?$AA_?$AAI?$AAM?$AA_?$AAQ?$AAu?$AAe?$AAr?$AAy?$AAB?$AAa?$AAt?$AAt?$AAl?$AAe?$AAI?$AAn?$AAf?$AAo?$AA?$AA@ 00427310     DataBaseEngineSink.obj
 0002:00003340       ??_C@_0CK@LGEDEDDJ@CDataBaseEngineSink?3?3OnRequestQu@ 00427340     DataBaseEngineSink.obj
 0002:0000336c       ??_C@_0CP@MKCNHECI@CDataBaseEngineSink?3?3OnRequestQu@ 0042736c     DataBaseEngineSink.obj
 0002:0000339c       ??_C@_1BK@HKOJLCPH@?$AA?$EA?$AAd?$AAw?$AAC?$AAr?$AAe?$AAa?$AAt?$AAo?$AAr?$AAI?$AAD?$AA?$AA@ 0042739c     DataBaseEngineSink.obj
 0002:000033b8       ??_C@_1BO@HOJCOBLB@?$AA?$EA?$AAs?$AAt?$AAr?$AAC?$AAo?$AAn?$AAf?$AAi?$AAg?$AAN?$AAa?$AAm?$AAe?$AA?$AA@ 004273b8     DataBaseEngineSink.obj
 0002:000033d8       ??_C@_1BC@BMCCJPHH@?$AA?$EA?$AAw?$AAK?$AAi?$AAn?$AAd?$AAI?$AAD?$AA?$AA@ 004273d8     DataBaseEngineSink.obj
 0002:000033ec       ??_C@_1BI@LLOPIGMI@?$AA?$EA?$AAc?$AAb?$AAP?$AAl?$AAa?$AAy?$AAM?$AAo?$AAd?$AAe?$AA?$AA@ 004273ec     DataBaseEngineSink.obj
 0002:00003404       ??_C@_1BI@EOBGOBCN@?$AA?$EA?$AAl?$AAC?$AAe?$AAl?$AAl?$AAS?$AAc?$AAo?$AAr?$AAe?$AA?$AA@ 00427404     DataBaseEngineSink.obj
 0002:0000341c       ??_C@_1CE@GMDJPOLN@?$AA?$EA?$AAd?$AAw?$AAD?$AAr?$AAa?$AAw?$AAC?$AAo?$AAu?$AAn?$AAt?$AAL?$AAi?$AAm?$AAi?$AAt?$AA?$AA@ 0042741c     DataBaseEngineSink.obj
 0002:00003440       ??_C@_1CC@EGAOFFJL@?$AA?$EA?$AAd?$AAw?$AAD?$AAr?$AAa?$AAw?$AAT?$AAi?$AAm?$AAe?$AAL?$AAi?$AAm?$AAi?$AAt?$AA?$AA@ 00427440     DataBaseEngineSink.obj
 0002:00003464       ??_C@_1CM@IOCJAGNJ@?$AA?$EA?$AAw?$AAJ?$AAo?$AAi?$AAn?$AAG?$AAa?$AAm?$AAe?$AAP?$AAe?$AAo?$AAp?$AAl?$AAe?$AAC?$AAo?$AAu?$AAn?$AAt?$AA?$AA@ 00427464     DataBaseEngineSink.obj
 0002:00003490       ??_C@_1BG@IDBHOLGB@?$AA?$EA?$AAd?$AAw?$AAR?$AAo?$AAo?$AAm?$AAT?$AAa?$AAx?$AA?$AA@ 00427490     DataBaseEngineSink.obj
 0002:000034a8       ??_C@_1BI@MNKMEACD@?$AA?$EA?$AAc?$AAb?$AAP?$AAa?$AAs?$AAs?$AAw?$AAo?$AAr?$AAd?$AA?$AA@ 004274a8     DataBaseEngineSink.obj
 0002:000034c0       ??_C@_1BG@GCFABKPI@?$AA?$EA?$AAc?$AAb?$AAP?$AAa?$AAy?$AAM?$AAo?$AAd?$AAe?$AA?$AA@ 004274c0     DataBaseEngineSink.obj
 0002:000034d8       ??_C@_1BI@FOMPKDLN@?$AA?$EA?$AAc?$AAb?$AAG?$AAa?$AAm?$AAe?$AAM?$AAo?$AAd?$AAe?$AA?$AA@ 004274d8     DataBaseEngineSink.obj
 0002:000034f0       ??_C@_1BK@PIMGKFOJ@?$AA?$EA?$AAl?$AAE?$AAn?$AAt?$AAe?$AAr?$AAS?$AAc?$AAo?$AAr?$AAe?$AA?$AA@ 004274f0     DataBaseEngineSink.obj
 0002:0000350c       ??_C@_1BK@GCBGFNGO@?$AA?$EA?$AAl?$AAL?$AAe?$AAa?$AAv?$AAe?$AAS?$AAc?$AAo?$AAr?$AAe?$AA?$AA@ 0042750c     DataBaseEngineSink.obj
 0002:00003528       ??_C@_1BI@OFNILBOI@?$AA?$EA?$AAc?$AAb?$AAJ?$AAo?$AAi?$AAn?$AAM?$AAo?$AAd?$AAe?$AA?$AA@ 00427528     DataBaseEngineSink.obj
 0002:00003540       ??_C@_1BG@CNMEBKBA@?$AA?$EA?$AAc?$AAb?$AAT?$AAa?$AAx?$AAM?$AAo?$AAd?$AAe?$AA?$AA@ 00427540     DataBaseEngineSink.obj
 0002:00003558       ??_C@_1BI@MOIPKGDG@?$AA?$EA?$AAd?$AAw?$AAT?$AAa?$AAx?$AAC?$AAo?$AAu?$AAn?$AAt?$AA?$AA@ 00427558     DataBaseEngineSink.obj
 0002:00003570       ??_C@_1CI@EFEBPDJC@?$AA?$EA?$AAc?$AAb?$AAL?$AAe?$AAs?$AAs?$AAS?$AAc?$AAo?$AAr?$AAe?$AAD?$AAi?$AAs?$AAm?$AAi?$AAs?$AAs?$AA?$AA@ 00427570     DataBaseEngineSink.obj
 0002:00003598       ??_C@_1BK@BGCKMGMB@?$AA?$EA?$AAl?$AAT?$AAi?$AAm?$AAe?$AAS?$AAe?$AAc?$AAo?$AAn?$AAd?$AA?$AA@ 00427598     DataBaseEngineSink.obj
 0002:000035b4       ??_C@_1DC@CFMKAJMH@?$AA?$EA?$AAc?$AAb?$AAG?$AAr?$AAo?$AAu?$AAp?$AAP?$AAe?$AAr?$AAs?$AAo?$AAn?$AAa?$AAl?$AAM?$AAa?$AAx?$AAC?$AAh?$AAa?$AAi?$AAr?$AA?$AA@ 004275b4     DataBaseEngineSink.obj
 0002:000035e8       ??_C@_19HHMHINIL@?$AA?$CF?$AA0?$AA2?$AAX?$AA?$AA@ 004275e8     DataBaseEngineSink.obj
 0002:000035f4       ??_C@_1BK@LEPODCCM@?$AA?$EA?$AAs?$AAt?$AAr?$AAG?$AAa?$AAm?$AAe?$AAR?$AAu?$AAl?$AAe?$AA?$AA@ 004275f4     DataBaseEngineSink.obj
 0002:00003610       ??_C@_1CI@BBCJHBKB@?$AAG?$AAS?$AAP?$AA_?$AAI?$AAM?$AA_?$AAA?$AAp?$AAp?$AAe?$AAn?$AAd?$AAC?$AAo?$AAn?$AAf?$AAi?$AAg?$AA?$AA@ 00427610     DataBaseEngineSink.obj
 0002:00003638       ??_C@_1BA@NDBPGNHA@?$AAD?$AAi?$AAa?$AAm?$AAo?$AAn?$AAd?$AA?$AA@ 00427638     DataBaseEngineSink.obj
 0002:00003648       ??_C@_1FI@LEDNAGB@?$AAp?$AAt?$AAd?$AAt?$AAa?$AAi?$AA?5?$AA?$CK?$AA?$CK?$AA?$CK?$AA?$CK?$AA?5?$ID?$LHS?Vs?$KJl?U?$AA?5?$AAc?$AAo?$AAn?$AAf?$AAi?$AAg?$AAI?$AAD?$AA?5?$AA?$DN?$AA?5?$AA?$CF?$AAd?$AA?5?$AAg@ 00427648     DataBaseEngineSink.obj
 0002:000036a0       ??_C@_1BA@OLNBJGO@s?$KJl?UR?$BL?$FO?zb?$BAR?$JP?$PP?$AB?$AA?$AA@ 004276a0     DataBaseEngineSink.obj
 0002:000036b0       ??_C@_0CL@MJAEBNFO@CDataBaseEngineSink?3?3OnRequestAp@ 004276b0     DataBaseEngineSink.obj
 0002:000036dc       ??_C@_1BI@OGGAFGON@?$AA?$EA?$AAd?$AAw?$AAC?$AAo?$AAn?$AAf?$AAi?$AAg?$AAI?$AAD?$AA?$AA@ 004276dc     DataBaseEngineSink.obj
 0002:000036f4       ??_C@_1BG@OFDBBGNN@?$AA?$EA?$AAl?$AAT?$AAa?$AAx?$AAC?$AAo?$AAu?$AAn?$AAt?$AA?$AA@ 004276f4     DataBaseEngineSink.obj
 0002:0000370c       ??_C@_1CI@CMLGIIFG@?$AAG?$AAS?$AAP?$AA_?$AAI?$AAM?$AA_?$AAM?$AAo?$AAd?$AAi?$AAf?$AAy?$AAC?$AAo?$AAn?$AAf?$AAi?$AAg?$AA?$AA@ 0042770c     DataBaseEngineSink.obj
 0002:00003734       ??_C@_1BA@IIBNOCAL@s?$KJl?UO?ne9b?$BAR?$JP?$PP?$AB?$AA?$AA@ 00427734     DataBaseEngineSink.obj
 0002:00003744       ??_C@_0CL@HFEHAHAN@CDataBaseEngineSink?3?3OnRequestMo@ 00427744     DataBaseEngineSink.obj
 0002:00003770       ??_C@_1CI@JFLDDCOK@?$AAG?$AAS?$AAP?$AA_?$AAI?$AAM?$AA_?$AAD?$AAe?$AAl?$AAe?$AAt?$AAe?$AAC?$AAo?$AAn?$AAf?$AAi?$AAg?$AA?$AA@ 00427770     DataBaseEngineSink.obj
 0002:00003798       ??_C@_1BA@LHHLJCGO@s?$KJl?UR?5?$JGdb?$BAR?$JP?$PP?$AB?$AA?$AA@ 00427798     DataBaseEngineSink.obj
 0002:000037a8       ??_C@_0CL@BBDIKKNM@CDataBaseEngineSink?3?3OnRequestDe@ 004277a8     DataBaseEngineSink.obj
 0002:000037d4       ??_C@_1BA@FNBKGAIO@?$AA?$EA?$AAn?$AAR?$AAi?$AAg?$AAh?$AAt?$AA?$AA@ 004277d4     DataBaseEngineSink.obj
 0002:000037e4       ??_C@_1BA@PEPNGOEP@?$AA?$EA?$AAc?$AAb?$AAM?$AAo?$AAd?$AAe?$AA?$AA@ 004277e4     DataBaseEngineSink.obj
 0002:000037f4       ??_C@_1CG@JBIDIGHL@?$AAG?$AAS?$AAP?$AA_?$AAI?$AAM?$AA_?$AAM?$AAo?$AAd?$AAi?$AAf?$AAy?$AAR?$AAi?$AAg?$AAh?$AAt?$AA?$AA@ 004277f4     DataBaseEngineSink.obj
 0002:0000381c       ??_C@_0CK@DBECEPDL@CDataBaseEngineSink?3?3OnRequestMo@ 0042781c     DataBaseEngineSink.obj
 0002:00003848       ??_C@_1CC@KOEFFEHD@?$AA?$EA?$AAd?$AAw?$AAP?$AAr?$AAe?$AAs?$AAe?$AAn?$AAt?$AAU?$AAs?$AAe?$AAr?$AAI?$AAD?$AA?$AA@ 00427848     DataBaseEngineSink.obj
 0002:0000386c       ??_C@_1BA@KJPOHCDH@?$AA?$EA?$AAl?$AAS?$AAc?$AAo?$AAr?$AAe?$AA?$AA@ 0042786c     DataBaseEngineSink.obj
 0002:0000387c       ??_C@_1BA@NNFLMEM@?$AA?$EA?$AAc?$AAb?$AAT?$AAy?$AAp?$AAe?$AA?$AA@ 0042787c     DataBaseEngineSink.obj
 0002:0000388c       ??_C@_1BA@CPHOGEBB@?$AA?$EA?$AAn?$AAC?$AAo?$AAu?$AAn?$AAt?$AA?$AA@ 0042788c     DataBaseEngineSink.obj
 0002:0000389c       ??_C@_1DC@KKEOBLNF@?$AAG?$AAS?$AAP?$AA_?$AAI?$AAM?$AA_?$AAP?$AAr?$AAe?$AAs?$AAe?$AAn?$AAt?$AAG?$AAr?$AAo?$AAu?$AAp?$AAS?$AAc?$AAo?$AAr?$AAe?$AA?$AA@ 0042789c     DataBaseEngineSink.obj
 0002:000038d0       ??_C@_1BE@ECAPCJHK@?$AAU?$AAs?$AAe?$AAr?$AAR?$AAi?$AAg?$AAh?$AAt?$AA?$AA@ 004278d0     DataBaseEngineSink.obj
 0002:000038e4       ??_C@_1BI@HCEGBNAM@?$AAB?$AAe?$AAf?$AAo?$AAr?$AAe?$AAS?$AAc?$AAo?$AAr?$AAe?$AA?$AA@ 004278e4     DataBaseEngineSink.obj
 0002:000038fc       ??_C@_1CC@BGAPKMHG@?$AA?$EA?$AAd?$AAw?$AAR?$AAe?$AAc?$AAe?$AAi?$AAv?$AAe?$AAU?$AAs?$AAe?$AAr?$AAI?$AAD?$AA?$AA@ 004278fc     DataBaseEngineSink.obj
 0002:00003920       ??_C@_1DG@KIBODOOL@?$AAG?$AAS?$AAP?$AA_?$AAI?$AAM?$AA_?$AAP?$AAr?$AAe?$AAs?$AAe?$AAn?$AAt?$AAG?$AAr?$AAo?$AAu?$AAp?$AAS?$AAc?$AAo?$AAr?$AAe?$AAE?$AAx?$AA?$AA@ 00427920     DataBaseEngineSink.obj
 0002:00003958       ??_C@_1BC@FEDNKKDE@?$AAC?$AAu?$AAr?$AAS?$AAc?$AAo?$AAr?$AAe?$AA?$AA@ 00427958     DataBaseEngineSink.obj
 0002:0000396c       ??_C@_0CL@BDILBOIP@CDataBaseEngineSink?3?3OnRequestPr@ 0042796c     DataBaseEngineSink.obj
 0002:00003998       ??_C@_1BO@CEEHGFJM@?$AA?$EA?$AAd?$AAw?$AAQ?$AAu?$AAe?$AAr?$AAy?$AAU?$AAs?$AAe?$AAr?$AAI?$AAD?$AA?$AA@ 00427998     DataBaseEngineSink.obj
 0002:000039b8       ??_C@_1CI@IFJILGFP@?$AAG?$AAS?$AAP?$AA_?$AAI?$AAM?$AA_?$AAQ?$AAu?$AAe?$AAr?$AAy?$AAP?$AAr?$AAe?$AAs?$AAe?$AAn?$AAt?$AA?$AA@ 004279b8     DataBaseEngineSink.obj
 0002:000039e0       ??_C@_1BM@PLBGEOBH@?$AAP?$AAr?$AAe?$AAs?$AAe?$AAn?$AAt?$AAU?$AAs?$AAe?$AAr?$AAI?$AAD?$AA?$AA@ 004279e0     DataBaseEngineSink.obj
 0002:000039fc       ??_C@_1BM@PJEALNHD@?$AAP?$AAr?$AAe?$AAs?$AAe?$AAn?$AAt?$AAG?$AAa?$AAm?$AAe?$AAI?$AAD?$AA?$AA@ 004279fc     DataBaseEngineSink.obj
 0002:00003a18       ??_C@_1CA@MCHGAKEO@?$AAP?$AAr?$AAe?$AAs?$AAe?$AAn?$AAt?$AAN?$AAi?$AAc?$AAk?$AAN?$AAa?$AAm?$AAe?$AA?$AA@ 00427a18     DataBaseEngineSink.obj
 0002:00003a38       ??_C@_1CC@CIAOJCLF@?$AAP?$AAr?$AAe?$AAs?$AAe?$AAn?$AAt?$AAU?$AAs?$AAe?$AAr?$AAR?$AAi?$AAg?$AAh?$AAt?$AA?$AA@ 00427a38     DataBaseEngineSink.obj
 0002:00003a5c       ??_C@_1BM@EDFMLGBC@?$AAR?$AAe?$AAc?$AAe?$AAi?$AAv?$AAe?$AAU?$AAs?$AAe?$AAr?$AAI?$AAD?$AA?$AA@ 00427a5c     DataBaseEngineSink.obj
 0002:00003a78       ??_C@_1BM@EBAKEFHG@?$AAR?$AAe?$AAc?$AAe?$AAi?$AAv?$AAe?$AAG?$AAa?$AAm?$AAe?$AAI?$AAD?$AA?$AA@ 00427a78     DataBaseEngineSink.obj
 0002:00003a94       ??_C@_1CA@IBFDEECF@?$AAR?$AAe?$AAc?$AAe?$AAi?$AAv?$AAe?$AAN?$AAi?$AAc?$AAk?$AAN?$AAa?$AAm?$AAe?$AA?$AA@ 00427a94     DataBaseEngineSink.obj
 0002:00003ab4       ??_C@_1BG@FKLOHLCC@?$AAC?$AAh?$AAa?$AAn?$AAg?$AAe?$AAT?$AAy?$AAp?$AAe?$AA?$AA@ 00427ab4     DataBaseEngineSink.obj
 0002:00003acc       ??_C@_1BI@JDMBFKBB@?$AAC?$AAh?$AAa?$AAn?$AAg?$AAe?$AAS?$AAc?$AAo?$AAr?$AAe?$AA?$AA@ 00427acc     DataBaseEngineSink.obj
 0002:00003ae4       ??_C@_1BI@DIAELMFL@?$AAC?$AAo?$AAl?$AAl?$AAe?$AAc?$AAt?$AAD?$AAa?$AAt?$AAe?$AA?$AA@ 00427ae4     DataBaseEngineSink.obj
 0002:00003afc       ??_C@_0CL@HHLPGKPJ@CDataBaseEngineSink?3?3OnRequestQu@ 00427afc     DataBaseEngineSink.obj
 0002:00003b28       ??_C@_1CI@IMKPBFMH@?$AAG?$AAS?$AAP?$AA_?$AAI?$AAM?$AA_?$AAQ?$AAu?$AAe?$AAr?$AAy?$AAR?$AAe?$AAv?$AAe?$AAn?$AAu?$AAe?$AA?$AA@ 00427b28     DataBaseEngineSink.obj
 0002:00003b50       ??_C@_1BC@HDDGLBLI@?$AAK?$AAi?$AAn?$AAd?$AAN?$AAa?$AAm?$AAe?$AA?$AA@ 00427b50     DataBaseEngineSink.obj
 0002:00003b64       ??_C@_1BA@DKAMHKAD@?$AAR?$AAe?$AAv?$AAe?$AAn?$AAu?$AAe?$AA?$AA@ 00427b64     DataBaseEngineSink.obj
 0002:00003b74       ??_C@_0CL@GJKKDFFD@CDataBaseEngineSink?3?3OnRequestQu@ 00427b74     DataBaseEngineSink.obj
 0002:00003ba0       ??_C@_1BE@LLEENHCA@?$AA?$EA?$AAd?$AAw?$AAD?$AAa?$AAt?$AAe?$AAI?$AAD?$AA?$AA@ 00427ba0     DataBaseEngineSink.obj
 0002:00003bb4       ??_C@_1CM@CLBGDFEG@?$AAG?$AAS?$AAP?$AA_?$AAI?$AAM?$AA_?$AAQ?$AAu?$AAe?$AAr?$AAy?$AAD?$AAa?$AAy?$AAR?$AAe?$AAc?$AAo?$AAr?$AAd?$AA?$AA@ 00427bb4     DataBaseEngineSink.obj
 0002:00003be0       ??_C@_1BE@KAKCJIN@?$AAD?$AAr?$AAa?$AAw?$AAC?$AAo?$AAu?$AAn?$AAt?$AA?$AA@ 00427be0     DataBaseEngineSink.obj
 0002:00003bf4       ??_C@_1BO@KPJFHLL@?$AAB?$AAi?$AAg?$AAW?$AAi?$AAn?$AAn?$AAe?$AAr?$AAC?$AAo?$AAu?$AAn?$AAt?$AA?$AA@ 00427bf4     DataBaseEngineSink.obj
 0002:00003c14       ??_C@_1BK@IAAEOBPD@?$AAR?$AAe?$AAv?$AAe?$AAn?$AAu?$AAe?$AAC?$AAo?$AAu?$AAn?$AAt?$AA?$AA@ 00427c14     DataBaseEngineSink.obj
 0002:00003c30       ??_C@_1BG@JJLENAOA@?$AAS?$AAc?$AAo?$AAr?$AAe?$AAC?$AAo?$AAu?$AAn?$AAt?$AA?$AA@ 00427c30     DataBaseEngineSink.obj
 0002:00003c48       ??_C@_19GNMMEGNP@?$AAF?$AAl?$AAa?$AAg?$AA?$AA@ 00427c48     DataBaseEngineSink.obj
 0002:00003c54       ??_C@_0CN@LIKDOKNF@CDataBaseEngineSink?3?3OnRequestQu@ 00427c54     DataBaseEngineSink.obj
 0002:00003c84       ??_C@_1DE@MHLHGPDA@?$AAG?$AAS?$AAP?$AA_?$AAI?$AAM?$AA_?$AAQ?$AAu?$AAe?$AAr?$AAy?$AAU?$AAs?$AAe?$AAr?$AAD?$AAa?$AAy?$AAR?$AAe?$AAc?$AAo?$AAr?$AAd?$AA?$AA@ 00427c84     DataBaseEngineSink.obj
 0002:00003cb8       ??_C@_1CA@NEBJBHBE@?$AA?$EA?$AAd?$AAw?$AAT?$AAa?$AAr?$AAg?$AAe?$AAt?$AAU?$AAs?$AAe?$AAr?$AAI?$AAD?$AA?$AA@ 00427cb8     DataBaseEngineSink.obj
 0002:00003cd8       ??_C@_1DE@CFJKEKPO@?$AAG?$AAS?$AAP?$AA_?$AAI?$AAM?$AA_?$AAQ?$AAu?$AAe?$AAr?$AAy?$AAU?$AAs?$AAe?$AAr?$AAD?$AAa?$AAy?$AAD?$AAe?$AAt?$AAa?$AAi?$AAl?$AA?$AA@ 00427cd8     DataBaseEngineSink.obj
 0002:00003d0c       ??_C@_1O@OFMEAECI@?$AAR?$AAo?$AAo?$AAm?$AAI?$AAD?$AA?$AA@ 00427d0c     DataBaseEngineSink.obj
 0002:00003d1c       ??_C@_1BI@HDKGKLMC@?$AAB?$AAi?$AAg?$AAW?$AAi?$AAn?$AAn?$AAe?$AAr?$AAI?$AAD?$AA?$AA@ 00427d1c     DataBaseEngineSink.obj
 0002:00003d34       ??_C@_1BM@NDOAMDBL@?$AAB?$AAi?$AAg?$AAW?$AAi?$AAn?$AAn?$AAe?$AAr?$AAN?$AAa?$AAm?$AAe?$AA?$AA@ 00427d34     DataBaseEngineSink.obj
 0002:00003d50       ??_C@_1BA@OMLIJEIP@?$AAE?$AAn?$AAd?$AAT?$AAi?$AAm?$AAe?$AA?$AA@ 00427d50     DataBaseEngineSink.obj
 0002:00003d60       ??_C@_0CN@FGBILJBJ@CDataBaseEngineSink?3?3OnRequestQu@ 00427d60     DataBaseEngineSink.obj
 0002:00003d90       ??_C@_1DG@BNEDJJJI@?$AAG?$AAS?$AAP?$AA_?$AAI?$AAM?$AA_?$AAQ?$AAu?$AAe?$AAr?$AAy?$AAG?$AAr?$AAo?$AAu?$AAp?$AAD?$AAa?$AAy?$AAD?$AAe?$AAt?$AAa?$AAi?$AAl?$AA?$AA@ 00427d90     DataBaseEngineSink.obj
 0002:00003dc8       ??_C@_1BI@CMEKJMDC@?$AAR?$AAo?$AAo?$AAm?$AAR?$AAe?$AAv?$AAe?$AAn?$AAu?$AAe?$AA?$AA@ 00427dc8     DataBaseEngineSink.obj
 0002:00003de0       ??_C@_0CN@GAMHOJEI@CDataBaseEngineSink?3?3OnRequestGr@ 00427de0     DataBaseEngineSink.obj
 0002:00003e10       ??_C@_1CG@JEOLONDG@?$AAG?$AAS?$AAP?$AA_?$AAI?$AAM?$AA_?$AAQ?$AAu?$AAe?$AAr?$AAy?$AAC?$AAr?$AAe?$AAa?$AAt?$AAe?$AA?$AA@ 00427e10     DataBaseEngineSink.obj
 0002:00003e38       ??_C@_1CE@NOECEINB@?$AAM?$AAa?$AAx?$AAN?$AAu?$AAl?$AAl?$AAT?$AAa?$AAb?$AAl?$AAe?$AAC?$AAo?$AAu?$AAn?$AAt?$AA?$AA@ 00427e38     DataBaseEngineSink.obj
 0002:00003e5c       ??_C@_0CK@LNAENDOP@CDataBaseEngineSink?3?3OnRequestQu@ 00427e5c     DataBaseEngineSink.obj
 0002:00003e88       ??_C@_1CM@EBNGJNAN@?$AAG?$AAS?$AAP?$AA_?$AAI?$AAM?$AA_?$AAQ?$AAu?$AAe?$AAr?$AAy?$AAM?$AAe?$AAd?$AAa?$AAl?$AAM?$AAo?$AAd?$AAe?$AA?$AA@ 00427e88     DataBaseEngineSink.obj
 0002:00003eb4       ??_C@_0CN@DPCBCFAI@CDataBaseEngineSink?3?3OnRequestQu@ 00427eb4     DataBaseEngineSink.obj
 0002:00003ee4       ??_C@_1BE@DOACEOFL@?$AA?$EA?$AAc?$AAb?$AAS?$AAt?$AAa?$AAt?$AAu?$AAs?$AA?$AA@ 00427ee4     DataBaseEngineSink.obj
 0002:00003ef8       ??_C@_1CM@MDMBICJO@?$AAG?$AAS?$AAP?$AA_?$AAI?$AAM?$AA_?$AAS?$AAe?$AAt?$AAG?$AAr?$AAo?$AAu?$AAp?$AAS?$AAt?$AAa?$AAt?$AAu?$AAs?$AA?$AA@ 00427ef8     DataBaseEngineSink.obj
 0002:00003f24       ??_C@_0CN@HKJKOFDB@CDataBaseEngineSink?3?3OnRequestSe@ 00427f24     DataBaseEngineSink.obj
 0002:00003f54       ??_C@_1BE@KFOALKGP@?$AA?$EA?$AAc?$AAb?$AAI?$AAn?$AAM?$AAo?$AAd?$AAe?$AA?$AA@ 00427f54     DataBaseEngineSink.obj
 0002:00003f68       ??_C@_1BE@FMMIGIGM@?$AA?$EA?$AAc?$AAb?$AAI?$AAn?$AAT?$AAy?$AAp?$AAe?$AA?$AA@ 00427f68     DataBaseEngineSink.obj
 0002:00003f7c       ??_C@_1BG@OLCMPBMF@?$AA?$EA?$AAc?$AAb?$AAO?$AAu?$AAt?$AAM?$AAo?$AAd?$AAe?$AA?$AA@ 00427f7c     DataBaseEngineSink.obj
 0002:00003f94       ??_C@_1CA@JFICGFNH@?$AAG?$AAS?$AAP?$AA_?$AAI?$AAM?$AA_?$AAS?$AAe?$AAt?$AAI?$AAn?$AAO?$AAu?$AAt?$AA?$AA@ 00427f94     DataBaseEngineSink.obj
 0002:00003fb4       ??_C@_1BA@EJHNOGNN@?$IP?$NLQ?z?$IL?$LO?$HPnb?$BAR?$JP?$PP?$AB?$AA?$AA@ 00427fb4     DataBaseEngineSink.obj
 0002:00003fc4       ??_C@_0CH@JMFKIFFC@CDataBaseEngineSink?3?3OnRequestSe@ 00427fc4     DataBaseEngineSink.obj
 0002:00003fec       ??_C@_1CE@FIGNLKBF@?$AAG?$AAS?$AAP?$AA_?$AAI?$AAM?$AA_?$AAS?$AAe?$AAt?$AAR?$AAo?$AAl?$AAl?$AAM?$AAs?$AAg?$AA?$AA@ 00427fec     DataBaseEngineSink.obj
 0002:00004010       ??_C@_1BC@PCAMCEGO@?$AAR?$AAo?$AAl?$AAl?$AAT?$AAi?$AAm?$AAe?$AA?$AA@ 00428010     DataBaseEngineSink.obj
 0002:00004024       ??_C@_1BA@PKIOLFGJ@?$AAM?$AAs?$AAg?$AAT?$AAy?$AAp?$AAe?$AA?$AA@ 00428024     DataBaseEngineSink.obj
 0002:00004034       ??_C@_0CJ@LHFEKKCD@CDataBaseEngineSink?3?3OnRequestSe@ 00428034     DataBaseEngineSink.obj
 0002:00004060       ??_C@_1BI@DGIFMBFC@?$AA?$EA?$AAd?$AAw?$AAT?$AAa?$AAr?$AAg?$AAe?$AAt?$AAI?$AAD?$AA?$AA@ 00428060     DataBaseEngineSink.obj
 0002:00004078       ??_C@_1CA@HAFDNFCD@?$AA?$EA?$AAd?$AAw?$AAM?$AAa?$AAn?$AAa?$AAg?$AAe?$AAr?$AAR?$AAi?$AAg?$AAh?$AAt?$AA?$AA@ 00428078     DataBaseEngineSink.obj
 0002:00004098       ??_C@_1CA@FGLEKKNJ@?$AA?$EA?$AAd?$AAw?$AAC?$AAa?$AAp?$AAt?$AAa?$AAi?$AAn?$AAR?$AAi?$AAg?$AAh?$AAt?$AA?$AA@ 00428098     DataBaseEngineSink.obj
 0002:000040b8       ??_C@_1CO@NDMKNJDP@?$AAG?$AAS?$AAP?$AA_?$AAI?$AAM?$AA_?$AAR?$AAi?$AAg?$AAh?$AAt?$AAM?$AAa?$AAn?$AAa?$AAg?$AAe?$AAm?$AAe?$AAn?$AAt?$AA?$AA@ 004280b8     DataBaseEngineSink.obj
 0002:000040e8       ??_C@_1BA@LPDACMGC@gC?$JGP?$IL?$LO?$HPnb?$BAR?$JP?$PP?$AB?$AA?$AA@ 004280e8     DataBaseEngineSink.obj
 0002:000040f8       ??_C@_0CO@CHGFLAKC@CDataBaseEngineSink?3?3OnRequestRi@ 004280f8     DataBaseEngineSink.obj
 0002:00004128       ??_C@_1BK@NECMAGCN@?$AA?$EA?$AAc?$AAb?$AAM?$AAe?$AAd?$AAa?$AAl?$AAM?$AAo?$AAd?$AAe?$AA?$AA@ 00428128     DataBaseEngineSink.obj
 0002:00004144       ??_C@_1BK@HHFJNBLI@?$AA?$EA?$AAc?$AAb?$AAM?$AAe?$AAd?$AAa?$AAl?$AAS?$AAh?$AAo?$AAw?$AA?$AA@ 00428144     DataBaseEngineSink.obj
 0002:00004160       ??_C@_1CA@MFDPLONI@?$AA?$EA?$AAc?$AAb?$AAC?$AAu?$AAr?$AAM?$AAe?$AAd?$AAa?$AAl?$AAS?$AAh?$AAo?$AAw?$AA?$AA@ 00428160     DataBaseEngineSink.obj
 0002:00004180       ??_C@_1CI@MADKICDA@?$AA?$EA?$AAc?$AAb?$AAM?$AAe?$AAd?$AAa?$AAl?$AAR?$AAe?$AAv?$AAe?$AAn?$AAu?$AAe?$AAS?$AAh?$AAo?$AAw?$AA?$AA@ 00428180     DataBaseEngineSink.obj
 0002:000041a8       ??_C@_1BM@FNECGJHE@?$AA?$EA?$AAc?$AAb?$AAM?$AAe?$AAd?$AAa?$AAl?$AAC?$AAl?$AAe?$AAa?$AAr?$AA?$AA@ 004281a8     DataBaseEngineSink.obj
 0002:000041c4       ??_C@_1CA@MHJCOEKC@?$AAG?$AAS?$AAP?$AA_?$AAI?$AAM?$AA_?$AAS?$AAe?$AAt?$AAM?$AAe?$AAd?$AAa?$AAl?$AA?$AA@ 004281c4     DataBaseEngineSink.obj
 0002:000041e4       ??_C@_1M@GFFEDOCE@?$IL?$LO?$HPnb?$BAR?$JP?$PP?$AB?$AA?$AA@ 004281e4     DataBaseEngineSink.obj
 0002:000041f0       ??_C@_0CH@JOBMENJP@CDataBaseEngineSink?3?3OnRequestSe@ 004281f0     DataBaseEngineSink.obj
 0002:00004218       ??_C@_1BC@KFBMOML@?$AA?$EA?$AAc?$AAb?$AAC?$AAo?$AAu?$AAn?$AAt?$AA?$AA@ 00428218     DataBaseEngineSink.obj
 0002:0000422c       ??_C@_1DC@LNJMPNGF@?$AAG?$AAS?$AAP?$AA_?$AAI?$AAM?$AA_?$AAS?$AAe?$AAt?$AAF?$AAr?$AAe?$AAe?$AAT?$AAa?$AAb?$AAl?$AAe?$AAL?$AAi?$AAm?$AAi?$AAt?$AA?$AA@ 0042822c     DataBaseEngineSink.obj
 0002:00004260       ??_C@_0DA@IKMPAPNJ@CDataBaseEngineSink?3?3OnRequestSe@ 00428260     DataBaseEngineSink.obj
 0002:00004290       ??_C@_1BA@FHIILJNK@?$AA?$EA?$AAc?$AAb?$AAS?$AAh?$AAo?$AAw?$AA?$AA@ 00428290     DataBaseEngineSink.obj
 0002:000042a0       ??_C@_1CI@FEFFEAJ@?$AAG?$AAS?$AAP?$AA_?$AAI?$AAM?$AA_?$AAS?$AAe?$AAt?$AAB?$AAi?$AAg?$AAW?$AAi?$AAn?$AAn?$AAe?$AAr?$AA?$AA@ 004282a0     DataBaseEngineSink.obj
 0002:000042c8       ??_C@_0CL@MAIBPJHN@CDataBaseEngineSink?3?3OnRequestSe@ 004282c8     DataBaseEngineSink.obj
 0002:000042f4       ??_C@_1CC@IEFKGMHG@?$AA?$EA?$AAd?$AAw?$AAO?$AAp?$AAe?$AAr?$AAa?$AAt?$AAe?$AAU?$AAs?$AAe?$AAr?$AAI?$AAD?$AA?$AA@ 004282f4     DataBaseEngineSink.obj
 0002:00004318       ??_C@_1BA@HIFGMLGD@?$AA?$EA?$AAc?$AAb?$AAF?$AAl?$AAa?$AAg?$AA?$AA@ 00428318     DataBaseEngineSink.obj
 0002:00004328       ??_C@_1BO@MIALAEDF@?$AAG?$AAS?$AAP?$AA_?$AAI?$AAM?$AA_?$AAS?$AAe?$AAt?$AAF?$AAl?$AAa?$AAg?$AA?$AA@ 00428328     DataBaseEngineSink.obj
 0002:00004348       ??_C@_0CG@GGJFAKIC@CDataBaseEngineSink?3?3OnRequestSe@ 00428348     DataBaseEngineSink.obj
 0002:00004370       ??_C@_1CE@MBOIKLMO@?$AAG?$AAS?$AAP?$AA_?$AAI?$AAM?$AA_?$AAC?$AAl?$AAe?$AAa?$AAr?$AAM?$AAe?$AAd?$AAa?$AAl?$AA?$AA@ 00428370     DataBaseEngineSink.obj
 0002:00004394       ??_C@_0CJ@ILIGAGOD@CDataBaseEngineSink?3?3OnRequestCl@ 00428394     DataBaseEngineSink.obj
 0002:000043c0       ??_C@_1DC@MKCMFICJ@?$AAG?$AAS?$AAP?$AA_?$AAI?$AAM?$AA_?$AAS?$AAe?$AAt?$AAF?$AAa?$AAv?$AAo?$AAr?$AAi?$AAt?$AAe?$AAC?$AAo?$AAn?$AAf?$AAi?$AAg?$AA?$AA@ 004283c0     DataBaseEngineSink.obj
 0002:000043f4       ??_C@_0DA@OHBGHABG@CDataBaseEngineSink?3?3OnRequestSe@ 004283f4     DataBaseEngineSink.obj
 0002:00004424       ??_C@_1BK@NGAOCDFN@?$AA?$EA?$AAs?$AAz?$AAG?$AAr?$AAo?$AAu?$AAp?$AAN?$AAa?$AAm?$AAe?$AA?$AA@ 00428424     DataBaseEngineSink.obj
 0002:00004440       ??_C@_1CO@PDHLAKBA@?$AAG?$AAS?$AAP?$AA_?$AAI?$AAM?$AA_?$AAM?$AAo?$AAd?$AAi?$AAf?$AAy?$AAG?$AAr?$AAo?$AAu?$AAp?$AAN?$AAa?$AAm?$AAe?$AA?$AA@ 00428440     DataBaseEngineSink.obj
 0002:00004470       ??_C@_0CO@FCMOBLJC@CDataBaseEngineSink?3?3OnRequestMo@ 00428470     DataBaseEngineSink.obj
 0002:000044a0       ??_C@_1BE@MAKOBCEO@?$AA?$EA?$AAd?$AAw?$AAR?$AAo?$AAo?$AAm?$AAI?$AAD?$AA?$AA@ 004284a0     DataBaseEngineSink.obj
 0002:000044b4       ??_C@_1BC@NNJFGAPH@?$AA?$EA?$AAE?$AAn?$AAd?$AAT?$AAi?$AAm?$AAe?$AA?$AA@ 004284b4     DataBaseEngineSink.obj
 0002:000044c8       ??_C@_1CO@DCABLFKI@?$AAG?$AAS?$AAP?$AA_?$AAI?$AAM?$AA_?$AAQ?$AAu?$AAe?$AAr?$AAy?$AAR?$AAo?$AAo?$AAm?$AAD?$AAe?$AAt?$AAa?$AAi?$AAl?$AA?$AA@ 004284c8     DataBaseEngineSink.obj
 0002:000044f8       ??_C@_1BM@GIKJBLCJ@?$AAM?$AAi?$AAn?$AAT?$AAa?$AAb?$AAl?$AAe?$AAS?$AAc?$AAo?$AAr?$AAe?$AA?$AA@ 004284f8     DataBaseEngineSink.obj
 0002:00004514       ??_C@_1BE@DENADGKH@?$AAS?$AAt?$AAa?$AAr?$AAt?$AAT?$AAi?$AAm?$AAe?$AA?$AA@ 00428514     DataBaseEngineSink.obj
 0002:00004528       ??_C@_1BG@FJGCDPAN@?$AA?$EA?$AAS?$AAt?$AAa?$AAr?$AAt?$AAT?$AAi?$AAm?$AAe?$AA?$AA@ 00428528     DataBaseEngineSink.obj
 0002:00004540       ??_C@_1DC@GLJIHOHM@?$AAG?$AAS?$AAP?$AA_?$AAI?$AAM?$AA_?$AAQ?$AAu?$AAe?$AAr?$AAy?$AAR?$AAo?$AAo?$AAm?$AAD?$AAe?$AAt?$AAa?$AAi?$AAl?$AAE?$AAx?$AA?$AA@ 00428540     DataBaseEngineSink.obj
 0002:00004574       ??_C@_1BE@JJBMDMBN@?$AAT?$AAu?$AAr?$AAn?$AAI?$AAn?$AAd?$AAe?$AAx?$AA?$AA@ 00428574     DataBaseEngineSink.obj
 0002:00004588       ??_C@_1BA@OHCHGKED@?$AAC?$AAh?$AAa?$AAi?$AAr?$AAI?$AAD?$AA?$AA@ 00428588     DataBaseEngineSink.obj
 0002:00004598       ??_C@_1BC@PKDBAIGK@?$AAU?$AAs?$AAe?$AAr?$AAN?$AAa?$AAm?$AAe?$AA?$AA@ 00428598     DataBaseEngineSink.obj
 0002:000045ac       ??_C@_0CJ@IJEJDBLB@CDataBaseEngineSink?3?3OnRequestRo@ 004285ac     DataBaseEngineSink.obj
 0002:000045d8       ??_C@_1BK@HCBCEMML@?$AA?$EA?$AAd?$AAw?$AAC?$AAa?$AAp?$AAt?$AAa?$AAi?$AAn?$AAI?$AAD?$AA?$AA@ 004285d8     DataBaseEngineSink.obj
 0002:000045f4       ??_C@_1DA@KPBCIHLG@?$AAG?$AAS?$AAP?$AA_?$AAI?$AAM?$AA_?$AAQ?$AAu?$AAe?$AAr?$AAy?$AAC?$AAa?$AAp?$AAt?$AAa?$AAi?$AAn?$AAL?$AAi?$AAs?$AAt?$AA?$AA@ 004285f4     DataBaseEngineSink.obj
 0002:00004624       ??_C@_1CE@MKIHBMMG@?$AAC?$AAo?$AAn?$AAt?$AAr?$AAi?$AAb?$AAu?$AAt?$AAi?$AAo?$AAn?$AAV?$AAa?$AAl?$AAu?$AAe?$AA?$AA@ 00428624     DataBaseEngineSink.obj
 0002:00004648       ??_C@_0CK@BOOBPKEA@CDataBaseEngineSink?3?3OnRequestCa@ 00428648     DataBaseEngineSink.obj
 0002:00004674       ??_C@_1CE@FKMDPGNG@?$AAG?$AAS?$AAP?$AA_?$AAI?$AAM?$AA_?$AAA?$AAd?$AAd?$AA_?$AAT?$AAe?$AAa?$AAm?$AAe?$AAr?$AA?$AA@ 00428674     DataBaseEngineSink.obj
 0002:00004698       ??_C@_1CI@CIABMGOM@?$AAG?$AAS?$AAP?$AA_?$AAI?$AAM?$AA_?$AAA?$AAd?$AAd?$AA_?$AAT?$AAe?$AAa?$AAm?$AAe?$AAr?$AAE?$AAx?$AA?$AA@ 00428698     DataBaseEngineSink.obj
 0002:000046c0       ??_C@_0CI@EKBNCPAL@CDataBaseEngineSink?3?3OnRequestAd@ 004286c0     DataBaseEngineSink.obj
 0002:000046e8       ??_C@_1DC@JBLFKHMP@?$AAG?$AAS?$AAP?$AA_?$AAI?$AAM?$AA_?$AAQ?$AAu?$AAe?$AAr?$AAy?$AAT?$AAe?$AAa?$AAm?$AAe?$AAr?$AAR?$AAe?$AAc?$AAo?$AAr?$AAd?$AA?$AA@ 004286e8     DataBaseEngineSink.obj
 0002:0000471c       ??_C@_0CO@FEHICHCA@CDataBaseEngineSink?3?3OnRequestTe@ 0042871c     DataBaseEngineSink.obj
 0002:0000474c       ??_C@_1BO@GDNGCMBB@?$AA?$EA?$AAc?$AAb?$AAS?$AAh?$AAo?$AAw?$AAG?$AAr?$AAo?$AAu?$AAp?$AAI?$AAD?$AA?$AA@ 0042874c     DataBaseEngineSink.obj
 0002:0000476c       ??_C@_1CE@LLGDOAFO@?$AAG?$AAS?$AAP?$AA_?$AAI?$AAM?$AA_?$AAS?$AAe?$AAt?$AAP?$AAr?$AAi?$AAv?$AAa?$AAc?$AAy?$AA?$AA@ 0042876c     DataBaseEngineSink.obj
 0002:00004790       ??_C@_0CJ@JDCLIEAJ@CDataBaseEngineSink?3?3OnRequestSe@ 00428790     DataBaseEngineSink.obj
 0002:000047bc       ??_C@_1BA@LHAILMFF@?$AA?$EA?$AAw?$AAP?$AAo?$AAi?$AAn?$AAt?$AA?$AA@ 004287bc     DataBaseEngineSink.obj
 0002:000047cc       ??_C@_1CO@KBIDFOIK@?$AAG?$AAS?$AAP?$AA_?$AAI?$AAM?$AA_?$AAS?$AAe?$AAt?$AAC?$AAa?$AAp?$AAt?$AAa?$AAi?$AAn?$AAP?$AAo?$AAi?$AAn?$AAt?$AA?$AA@ 004287cc     DataBaseEngineSink.obj
 0002:000047fc       ??_C@_0CO@MJDLFIBM@CDataBaseEngineSink?3?3OnRequestSe@ 004287fc     DataBaseEngineSink.obj
 0002:0000482c       ??_C@_1O@CKAHJJHH@?$AA?$EA?$AAs?$AAz?$AAP?$AAw?$AAd?$AA?$AA@ 0042882c     DataBaseEngineSink.obj
 0002:0000483c       ??_C@_1BO@HOKEAPAI@?$AAG?$AAS?$AAP?$AA_?$AAI?$AAM?$AA_?$AAO?$AAp?$AAe?$AAn?$AAB?$AAo?$AAx?$AA?$AA@ 0042883c     DataBaseEngineSink.obj
 0002:0000485c       ??_C@_1BG@FDPEDCCJ@?$AAA?$AAw?$AAa?$AAr?$AAd?$AAS?$AAc?$AAo?$AAr?$AAe?$AA?$AA@ 0042885c     DataBaseEngineSink.obj
 0002:00004874       ??_C@_1CK@GBHEJOBM@?$AAG?$AAS?$AAP?$AA_?$AAI?$AAM?$AA_?$AAL?$AAo?$AAa?$AAd?$AAB?$AAo?$AAx?$AAR?$AAe?$AAc?$AAo?$AAr?$AAd?$AA?$AA@ 00428874     DataBaseEngineSink.obj
 0002:000048a0       ??_C@_1BG@JJKCCOIE@?$AAA?$AAf?$AAt?$AAe?$AAr?$AAS?$AAc?$AAo?$AAr?$AAe?$AA?$AA@ 004288a0     DataBaseEngineSink.obj
 0002:000048b8       ??_C@_1BI@OIJGHFFF@?$AAC?$AAo?$AAl?$AAl?$AAe?$AAc?$AAt?$AAT?$AAi?$AAm?$AAe?$AA?$AA@ 004288b8     DataBaseEngineSink.obj
 0002:000048d0       ??_C@_0CG@MGHFNDON@CDataBaseEngineSink?3?3OnRequestOp@ 004288d0     DataBaseEngineSink.obj
 0002:000048f8       ??_C@_1CK@FGKKIOFB@?$AAG?$AAS?$AAP?$AA_?$AAI?$AAM?$AA_?$AAG?$AAe?$AAt?$AAA?$AAw?$AAa?$AAr?$AAd?$AAS?$AAc?$AAo?$AAr?$AAe?$AA?$AA@ 004288f8     DataBaseEngineSink.obj
 0002:00004924       ??_C@_0CM@GFPHDDGJ@CDataBaseEngineSink?3?3OnRequestGe@ 00428924     DataBaseEngineSink.obj
 0002:00004950       ??_C@_1CM@HKMNDCBG@?$AAG?$AAS?$AAP?$AA_?$AAI?$AAM?$AA_?$AAI?$AAn?$AAv?$AAi?$AAt?$AAa?$AAt?$AAi?$AAo?$AAn?$AAC?$AAo?$AAd?$AAe?$AA?$AA@ 00428950     DataBaseEngineSink.obj
 0002:0000497c       ??_C@_0CN@PFILHLCK@CDataBaseEngineSink?3?3OnRequestIn@ 0042897c     DataBaseEngineSink.obj
 0002:000049ac       ??_C@_1O@KBHOBEIJ@?$AA?$EA?$AAl?$AAC?$AAo?$AAd?$AAe?$AA?$AA@ 004289ac     DataBaseEngineSink.obj
 0002:000049bc       ??_C@_1DG@KDDDBEGC@?$AAG?$AAS?$AAP?$AA_?$AAI?$AAM?$AA_?$AAB?$AAl?$AAi?$AAn?$AAd?$AAI?$AAn?$AAv?$AAi?$AAt?$AAa?$AAt?$AAi?$AAo?$AAn?$AAC?$AAo?$AAd?$AAe?$AA?$AA@ 004289bc     DataBaseEngineSink.obj
 0002:000049f4       ??_C@_0CI@FDPBFADG@CDataBaseEngineSink?3?3OnRequestBl@ 004289f4     DataBaseEngineSink.obj
 0002:00004a1c       ??_C@_1BI@GIBHAFPK@?$AA?$EA?$AAs?$AAz?$AAC?$AAl?$AAi?$AAe?$AAn?$AAt?$AAI?$AAP?$AA?$AA@ 00428a1c     DataBaseEngineSink.obj
 0002:00004a34       ??_C@_1CI@EDNBHAJF@?$AAG?$AAS?$AAP?$AA_?$AAI?$AAM?$AA_?$AAC?$AAh?$AAe?$AAc?$AAk?$AAN?$AAe?$AAw?$AAU?$AAs?$AAe?$AAr?$AA?$AA@ 00428a34     DataBaseEngineSink.obj
 0002:00004a5c       ??_C@_0CL@JPKDKNBC@CDataBaseEngineSink?3?3OnRequestCh@ 00428a5c     DataBaseEngineSink.obj
 0002:00004a88       ??_C@_1CE@JDPFLCBD@?$AAG?$AAS?$AAP?$AA_?$AAI?$AAM?$AA_?$AAQ?$AAu?$AAe?$AAr?$AAy?$AAS?$AAc?$AAo?$AAr?$AAe?$AA?$AA@ 00428a88     DataBaseEngineSink.obj
 0002:00004aac       ??_C@_0CJ@PIKLAEND@CDataBaseEngineSink?3?3OnRequestQu@ 00428aac     DataBaseEngineSink.obj
 0002:00004ad8       ??_C@_1CA@IAFLKN@?$AA?$EA?$AAc?$AAb?$AAO?$AAn?$AAl?$AAi?$AAn?$AAe?$AAS?$AAt?$AAa?$AAt?$AAu?$AAs?$AA?$AA@ 00428ad8     DataBaseEngineSink.obj
 0002:00004af8       ??_C@_1JC@MLEIMJKC@?$AAp?$AAt?$AAd?$AAt?$AAa?$AAi?$AA?5?$AAO?$AAn?$AAE?$AAv?$AAe?$AAn?$AAt?$AAT?$AAC?$AAP?$AAN?$AAe?$AAt?$AAw?$AAo?$AAr?$AAk?$AAS?$AAh?$AAu?$AAt?$AA?5?$AAd?$AAw?$AAG@ 00428af8     DataBaseEngineSink.obj
 0002:00004b8c       ??_C@_1DE@EPHACEBP@?$AAG?$AAS?$AAP?$AA_?$AAI?$AAM?$AA_?$AAU?$AAp?$AAd?$AAa?$AAt?$AAe?$AAO?$AAn?$AAl?$AAi?$AAn?$AAe?$AAS?$AAt?$AAa?$AAt?$AAu?$AAs?$AA?$AA@ 00428b8c     DataBaseEngineSink.obj
 0002:00004bc0       ??_C@_0DB@FBFNOPPH@CDataBaseEngineSink?3?3OnRequestUp@ 00428bc0     DataBaseEngineSink.obj
 0002:00004bf4       ??_C@_1DA@BLGIECOI@?$AAG?$AAS?$AAP?$AA_?$AAI?$AAM?$AA_?$AAQ?$AAu?$AAe?$AAr?$AAy?$AAS?$AAi?$AAn?$AAg?$AAl?$AAe?$AAG?$AAr?$AAo?$AAu?$AAp?$AA?$AA@ 00428bf4     DataBaseEngineSink.obj
 0002:00004c28       ??_C@_1FI@IOACKDMH@?$AAp?$AAt?$AAd?$AAt?$AAa?$AAi?$AA?5?$AA?$CK?$AA?$CK?$AA?$CK?$AA?5?$JB?Me?$LAR?$KA?$IP?$HNb?$BATX?$AA?5?$AAd?$AAw?$AAG?$AAr?$AAo?$AAu?$AAp?$AAI?$AAD?$AA?5?$AA?$DN?$AA?5?$AA?$CF?$AAd@ 00428c28     DataBaseEngineSink.obj
 0002:00004c80       ??_C@_0CO@BJOKLELL@CDataBaseEngineSink?3?3OnRequestLo@ 00428c80     DataBaseEngineSink.obj
 0002:00004cb0       ??_C@_1BC@KPBMEMO@?$AA?$EA?$AAc?$AAb?$AAF?$AAl?$AAa?$AAg?$AA1?$AA?$AA@ 00428cb0     DataBaseEngineSink.obj
 0002:00004cc4       ??_C@_1BC@BIEEGLCA@?$AA?$EA?$AAc?$AAb?$AAF?$AAl?$AAa?$AAg?$AA2?$AA?$AA@ 00428cc4     DataBaseEngineSink.obj
 0002:00004cd8       ??_C@_1BC@KAPIAMEF@?$AA?$EA?$AAc?$AAb?$AAF?$AAl?$AAa?$AAg?$AA3?$AA?$AA@ 00428cd8     DataBaseEngineSink.obj
 0002:00004cec       ??_C@_1M@CAMEIODG@?$AA?$EA?$AAs?$AAz?$AAQ?$AAQ?$AA?$AA@ 00428cec     DataBaseEngineSink.obj
 0002:00004cf8       ??_C@_1M@ILJFCCKB@?$AA?$EA?$AAs?$AAz?$AAW?$AAX?$AA?$AA@ 00428cf8     DataBaseEngineSink.obj
 0002:00004d04       ??_C@_1BC@CFBJOLGD@?$AA?$EA?$AAs?$AAz?$AAP?$AAh?$AAo?$AAn?$AAe?$AA?$AA@ 00428d04     DataBaseEngineSink.obj
 0002:00004d18       ??_C@_1CE@JKJCGNOG@?$AAG?$AAS?$AAP?$AA_?$AAI?$AAM?$AA_?$AAM?$AAo?$AAd?$AAi?$AAf?$AAy?$AAI?$AAn?$AAf?$AAo?$AA?$AA@ 00428d18     DataBaseEngineSink.obj
 0002:00004d3c       ??_C@_0CJ@LPMNADFB@CDataBaseEngineSink?3?3OnRequestMo@ 00428d3c     DataBaseEngineSink.obj
 0002:00004d68       ??_C@_09DBIPHJBH@?$CFs?$CI?$CFd?$CJ?3?$CFs?$AA@ 00428d68     DataBaseEngineSink.obj
 0002:00004d74       ??_C@_1BA@KLKCOKPH@?$AA?$CF?$AAs?$AA?3?$AA?$CI?$AA?$CF?$AAs?$AA?$CJ?$AA?$AA@ 00428d74     DataBaseEngineSink.obj
 0002:00004d84       ??_C@_1BE@PFNOFHJN@?$AA?$CF?$AAs?$AA?3?$AA?$CIg?$CKw?e?$JF?$BJ?$IL?o?$AA?$CJ?$AA?$AA@ 00428d84     DataBaseEngineSink.obj
 0002:00004d98       ??_C@_1BG@LMEJJCAF@?5?$BM?$AA?$CF?$AAs?5?$BNj?$CBWWR?$KA?$IP?$HNY1?$IN?$CF?$AA?$AA@ 00428d98     DataBaseEngineSink.obj
 0002:00004db0       ??_C@_1CC@DBKAILEF@b?$HON?$ANR0?$HO?DN?vR?$BL?$FO?zQ?$PNep?5?$BM?$AA?$CF?$AAs?5?$BN?$AA?3?$AA?$CF?$AAd?$AA?$AA@ 00428db0     DataBaseEngineSink.obj
 0002:00004dd4       ??_C@_1BO@HLLMCBHF@?$IM?$ADu?$CIQ?$PNep?5?$BM?$AA?$CF?$AAs?5?$BNu?$BPb?$BA?$FL?y?$IMaY1?$IN?$CF?$AA?$AA@ 00428dd4     DataBaseEngineSink.obj
 0002:00004df4       ??_C@_1BM@FLLBPNEC@u1N?$IO?5?$BM?$AA?$CF?$AAs?5?$BN?$PP?$AM?$HO?DN?vR?$BL?$FO?zY1?$IN?$CF?$AA?$AA@ 00428df4     DataBaseEngineSink.obj
 0002:00004e10       ??_C@_1DE@BMGKBGBP@?$HO?DN?vR?$BL?$FO?zQ?$PNep?5?$BM?$AA?$CF?$AAs?5?$BNN?$KHu?$BPg?$CKw?e_?$AC?$FO8?$JF?$BJ?$IL?o?$PP?$AM?$HO?DN?vR?$BL?$FO?zY1?$IN?$CF?$AA?$AA@ 00428e10     DataBaseEngineSink.obj
 0002:00004e48       ??_7?$CWHArray@UtagIMGroupMember@@ABU1@@@6B@ 00428e48     GroupInfoManager.obj
 0002:00004e50       ??_7?$CWHArray@UtagGroupConfigInfo@@ABU1@@@6B@ 00428e50     GroupInfoManager.obj
 0002:00004e58       ??_7?$CWHArray@UtagClubRollMsg@@ABU1@@@6B@ 00428e58     GroupInfoManager.obj
 0002:00004e60       ??_7?$CMap@KKUtagClubTableInfo@@AAU1@@@6B@ 00428e60     GroupInfoManager.obj
 0002:00004e78       ??_7CGroupItem@@6B@        00428e78     GroupInfoManager.obj
 0002:00004f00       ??_7?$CMap@KKPAVCGroupItem@@PAV1@@@6B@ 00428f00     GroupInfoManager.obj
 0002:00004f18       ??_7?$CWHArray@PAVCGroupItem@@ABQAV1@@@6B@ 00428f18     GroupInfoManager.obj
 0002:00004f20       ??_7CGroupInfoManager@@6B@ 00428f20     GroupInfoManager.obj
 0002:00004f44       ??_C@_1BK@HOPBIFHD@Q?$IF?$FLXN?$AN?$IN?$LD?$AA?0R?$BL?$FO?z?$FL?y?$IMaY1?$IN?$CF?$PP?$AB?$AA?$AA@ 00428f44     GroupInfoManager.obj
 0002:00004f7c       ??_7CInitParameter@@6B@    00428f7c     InitParameter.obj
 0002:00004f80       ??_C@_1CO@JECIHIDO@?$AA?$CF?$AAs?$AA?2?$AAS?$AAe?$AAr?$AAv?$AAe?$AAr?$AAP?$AAa?$AAr?$AAa?$AAm?$AAe?$AAt?$AAe?$AAr?$AA?4?$AAi?$AAn?$AAi?$AA?$AA@ 00428f80     InitParameter.obj
 0002:00004fb0       ??_C@_1BG@GHPFBILP@?$AAC?$AAo?$AAn?$AAn?$AAe?$AAc?$AAt?$AAM?$AAa?$AAx?$AA?$AA@ 00428fb0     InitParameter.obj
 0002:00004fc8       ??_C@_1BI@MFPEMCEA@?$AAG?$AAr?$AAo?$AAu?$AAp?$AAS?$AAe?$AAr?$AAv?$AAe?$AAr?$AA?$AA@ 00428fc8     InitParameter.obj
 0002:00004fe0       ??_C@_1BI@CAMIMHCP@?$AAS?$AAe?$AAr?$AAv?$AAi?$AAc?$AAe?$AAP?$AAo?$AAr?$AAt?$AA?$AA@ 00428fe0     InitParameter.obj
 0002:00004ff8       ??_C@_1BI@BGAAOEPC@?$AAS?$AAe?$AAr?$AAv?$AAi?$AAc?$AAe?$AAN?$AAa?$AAm?$AAe?$AA?$AA@ 00428ff8     InitParameter.obj
 0002:00005010       ??_C@_1BG@JDPLOEDD@?$AAS?$AAe?$AAr?$AAv?$AAe?$AAr?$AAI?$AAn?$AAf?$AAo?$AA?$AA@ 00429010     InitParameter.obj
 0002:00005028       ??_C@_1BI@EFCKIPPF@?$AAS?$AAe?$AAr?$AAv?$AAi?$AAc?$AAe?$AAA?$AAd?$AAd?$AAr?$AA?$AA@ 00429028     InitParameter.obj
 0002:00005040       ??_C@_1BG@EBJDKCKE@?$AAC?$AAo?$AAr?$AAr?$AAe?$AAs?$AAp?$AAo?$AAn?$AAd?$AA?$AA@ 00429040     InitParameter.obj
 0002:00005058       ??_C@_1BO@HHNINJKB@?$AAC?$AAo?$AAr?$AAr?$AAe?$AAs?$AAp?$AAo?$AAn?$AAd?$AAA?$AAd?$AAd?$AAr?$AA?$AA@ 00429058     InitParameter.obj
 0002:00005078       ??_C@_1CE@PKEODOCH@?$AAP?$AAr?$AAs?$AAn?$AAl?$AAR?$AAm?$AAC?$AAo?$AAr?$AAr?$AAe?$AAs?$AAp?$AAo?$AAn?$AAd?$AA?$AA@ 00429078     InitParameter.obj
 0002:0000509c       ??_C@_1CM@ELLDHBCE@?$AAP?$AAr?$AAs?$AAn?$AAl?$AAR?$AAm?$AAC?$AAo?$AAr?$AAr?$AAe?$AAs?$AAp?$AAo?$AAn?$AAd?$AAA?$AAd?$AAd?$AAr?$AA?$AA@ 0042909c     InitParameter.obj
 0002:000050c8       ??_C@_1CE@GFMBCIAH@?$AAA?$AAn?$AAd?$AAr?$AAo?$AAi?$AAd?$AAD?$AAi?$AAs?$AAt?$AAr?$AAi?$AAb?$AAu?$AAt?$AAe?$AA?$AA@ 004290c8     InitParameter.obj
 0002:000050ec       ??_C@_1BK@KPKBPLAM@?$AAA?$AAI?$AAS?$AAe?$AAr?$AAv?$AAe?$AAr?$AAA?$AAd?$AAd?$AAr?$AA?$AA@ 004290ec     InitParameter.obj
 0002:00005108       ??_C@_1BE@CJPPCOFH@?$AAL?$AAo?$AAg?$AAS?$AAe?$AAr?$AAv?$AAe?$AAr?$AA?$AA@ 00429108     InitParameter.obj
 0002:0000511c       ??_C@_1BM@JPPOLJCD@?$AAL?$AAo?$AAg?$AAS?$AAe?$AAr?$AAv?$AAe?$AAr?$AAA?$AAd?$AAd?$AAr?$AA?$AA@ 0042911c     InitParameter.obj
 0002:00005138       ??_C@_1O@LIGBHIOD@?$AAD?$AAB?$AAP?$AAo?$AAr?$AAt?$AA?$AA@ 00429138     InitParameter.obj
 0002:00005148       ??_C@_1BA@IIOADJDE@?$AAG?$AAr?$AAo?$AAu?$AAp?$AAD?$AAB?$AA?$AA@ 00429148     InitParameter.obj
 0002:00005158       ??_C@_1O@NNIDDADJ@?$AAD?$AAB?$AAA?$AAd?$AAd?$AAr?$AA?$AA@ 00429158     InitParameter.obj
 0002:00005168       ??_C@_1O@EOOEPKDM@?$AAD?$AAB?$AAU?$AAs?$AAe?$AAr?$AA?$AA@ 00429168     InitParameter.obj
 0002:00005178       ??_C@_1O@PLGAIBMN@?$AAD?$AAB?$AAP?$AAa?$AAs?$AAs?$AA?$AA@ 00429178     InitParameter.obj
 0002:00005188       ??_C@_1O@IOKJFLDO@?$AAD?$AAB?$AAN?$AAa?$AAm?$AAe?$AA?$AA@ 00429188     InitParameter.obj
 0002:0000519c       ??_7?$CMap@GGPAVCGameServerItem@NServerListManager@@AAPAV12@@@6B@ 0042919c     ServerListManager.obj
 0002:000051b4       ??_7?$CWHArray@PAVCGameServerItem@NServerListManager@@ABQAV12@@@6B@ 004291b4     ServerListManager.obj
 0002:000051bc       ??_7CServerListManager@NServerListManager@@6B@ 004291bc     ServerListManager.obj
 0002:000051c4       ??_7CServerUserItem@@6B@   004291c4     ServerUserManager.obj
 0002:000051fc       ??_7CLocalUserItem@@6B@    004291fc     ServerUserManager.obj
 0002:00005258       ??_7CRemoteUserItem@@6B@   00429258     ServerUserManager.obj
 0002:00005290       ??_7?$CMap@KKPAVCServerUserItem@@PAV1@@@6B@ 00429290     ServerUserManager.obj
 0002:000052a8       ??_7?$CWHArray@PAVCServerUserItem@@ABQAV1@@@6B@ 004292a8     ServerUserManager.obj
 0002:000052b0       ??_7CServerUserManager@@6B@ 004292b0     ServerUserManager.obj
 0002:00005390       ??_7CCriticalSection@@6B@  00429390     ServiceUnits.obj
 0002:000053b4       ??_7?$CTempldateHelper@UITimerEngine@@@@6B@ 004293b4     ServiceUnits.obj
 0002:000053bc       ??_7CTimerEngineHelper@@6B@ 004293bc     ServiceUnits.obj
 0002:000053c0       ??_C@_0BC@PLOLBCGN@CreateTimerEngine?$AA@ 004293c0     ServiceUnits.obj
 0002:000053d8       ??_7?$CTempldateHelper@UIDataBaseEngine@@@@6B@ 004293d8     ServiceUnits.obj
 0002:000053e0       ??_7CDataBaseEngineHelper@@6B@ 004293e0     ServiceUnits.obj
 0002:000053e4       ??_C@_0BF@FHMKIOLL@CreateDataBaseEngine?$AA@ 004293e4     ServiceUnits.obj
 0002:00005400       ??_7?$CTempldateHelper@UIAttemperEngine@@@@6B@ 00429400     ServiceUnits.obj
 0002:00005408       ??_7CAttemperEngineHelper@@6B@ 00429408     ServiceUnits.obj
 0002:0000540c       ??_C@_0BF@PBPGMLEA@CreateAttemperEngine?$AA@ 0042940c     ServiceUnits.obj
 0002:00005428       ??_7?$CTempldateHelper@UITCPSocketService@@@@6B@ 00429428     ServiceUnits.obj
 0002:00005430       ??_7CTCPSocketServiceHelper@@6B@ 00429430     ServiceUnits.obj
 0002:00005434       ??_C@_0BH@FPPDPKKP@CreateTCPSocketService?$AA@ 00429434     ServiceUnits.obj
 0002:00005450       ??_7?$CTempldateHelper@UITCPNetworkEngine@@@@6B@ 00429450     ServiceUnits.obj
 0002:00005458       ??_7CTCPNetworkEngineHelper@@6B@ 00429458     ServiceUnits.obj
 0002:0000545c       ??_C@_0BH@LEGJPFFH@CreateTCPNetworkEngine?$AA@ 0042945c     ServiceUnits.obj
 0002:00005478       ??_7?$CMap@KKPAV?$CWHArray@KABK@@PAV1@@@6B@ 00429478     ServiceUnits.obj
 0002:00005490       ??_7CServiceUnits@@6B@     00429490     ServiceUnits.obj
 0002:00005648       ??_C@_1O@PBJBFEBK@g?$ANR?$KBT?1R?$KIY1?$IN?$CF?$AA?$AA@ 00429648     ServiceUnits.obj
 0002:000056fc       ??_7?$CMap@DDPAVCWordNode@@PAV1@@@6B@ 004296fc     WordFilter.obj
 0002:00005714       ??_7CWordNode@@6B@         00429714     WordFilter.obj
 0002:0000571c       ??_7CWordTree@@6B@         0042971c     WordFilter.obj
 0002:00005724       ??_7CWordFilter@@6B@       00429724     WordFilter.obj
 0002:00005728       ??_C@_1BK@FFIDCBBB@Q?$IF?$FLXN?$AN?$IN?$LD?$AA?0?$FL?y?$IMaR?$BL?$FO?zY1?$IN?$CF?$PP?$AB?$AA?$AA@ 00429728     WordFilter.obj
 0002:00005744       ??_C@_03JMGKJPBM@?$CFs?$HM?$AA@ 00429744     WordFilter.obj
 0002:0000574c       ??_7type_info@@6B@         0042974c     msvcrt:std_type_info_static.obj
 0002:00005750       ??_C@_1BK@MGMFAEKH@?$AAk?$AAe?$AAr?$AAn?$AAe?$AAl?$AA3?$AA2?$AA?4?$AAd?$AAl?$AAl?$AA?$AA@ 00429750     msvcrt:thread_safe_statics.obj
 0002:0000576c       ??_C@_0BM@HLJJNPAH@InitializeConditionVariable?$AA@ 0042976c     msvcrt:thread_safe_statics.obj
 0002:00005788       ??_C@_0BJ@JEBJOJFJ@SleepConditionVariableCS?$AA@ 00429788     msvcrt:thread_safe_statics.obj
 0002:000057a4       ??_C@_0BJ@PGPPEPCC@WakeAllConditionVariable?$AA@ 004297a4     msvcrt:thread_safe_statics.obj
 0002:0000584c       _GUID_ATLVer110            0042984c     atls:atlbase.obj
 0002:00005860       ??_C@_1IC@ONKHOIDK@?$AAE?$AAR?$AAR?$AAO?$AAR?$AA?5?$AA?3?$AA?5?$AAU?$AAn?$AAa?$AAb?$AAl?$AAe?$AA?5?$AAt?$AAo?$AA?5?$AAi?$AAn?$AAi?$AAt?$AAi?$AAa?$AAl?$AAi?$AAz?$AAe?$AA?5?$AAc?$AAr?$AAi@ 00429860     atls:atlbase.obj
 0002:00005948       __load_config_used         00429948     msvcrt:loadcfg.obj
 0002:000059a4       __tls_used                 004299a4     msvcrt:tlssup.obj
 0002:000059bc       ??_R3CObject@@8            004299bc     AccessServer.obj
 0002:000059cc       ??_R2CObject@@8            004299cc     AccessServer.obj
 0002:000059d4       ??_R1A@?0A@EA@CObject@@8   004299d4     AccessServer.obj
 0002:000059f0       ??_R1A@?0A@EA@CCmdTarget@@8 004299f0     AccessServer.obj
 0002:00005a0c       ??_R3CCmdTarget@@8         00429a0c     AccessServer.obj
 0002:00005a1c       ??_R2CCmdTarget@@8         00429a1c     AccessServer.obj
 0002:00005a28       ??_R4CAccessServerApp@@6B@ 00429a28     AccessServer.obj
 0002:00005a3c       ??_R3CAccessServerApp@@8   00429a3c     AccessServer.obj
 0002:00005a4c       ??_R2CAccessServerApp@@8   00429a4c     AccessServer.obj
 0002:00005a64       ??_R1A@?0A@EA@CAccessServerApp@@8 00429a64     AccessServer.obj
 0002:00005a80       ??_R1A@?0A@EA@CWinApp@@8   00429a80     AccessServer.obj
 0002:00005a9c       ??_R3CWinApp@@8            00429a9c     AccessServer.obj
 0002:00005aac       ??_R2CWinApp@@8            00429aac     AccessServer.obj
 0002:00005ac0       ??_R1A@?0A@EA@CWinThread@@8 00429ac0     AccessServer.obj
 0002:00005adc       ??_R3CWinThread@@8         00429adc     AccessServer.obj
 0002:00005aec       ??_R2CWinThread@@8         00429aec     AccessServer.obj
 0002:00005afc       ??_R1A@?0A@EA@CWnd@@8      00429afc     AccessServerDlg.obj
 0002:00005b18       ??_R3CWnd@@8               00429b18     AccessServerDlg.obj
 0002:00005b28       ??_R2CWnd@@8               00429b28     AccessServerDlg.obj
 0002:00005b38       ??_R1A@?0A@EA@CDialog@@8   00429b38     AccessServerDlg.obj
 0002:00005b54       ??_R3CDialog@@8            00429b54     AccessServerDlg.obj
 0002:00005b64       ??_R2CDialog@@8            00429b64     AccessServerDlg.obj
 0002:00005b78       ??_R4IServiceUnitsSink@@6B@ 00429b78     AccessServerDlg.obj
 0002:00005b8c       ??_R3IServiceUnitsSink@@8  00429b8c     AccessServerDlg.obj
 0002:00005b9c       ??_R2IServiceUnitsSink@@8  00429b9c     AccessServerDlg.obj
 0002:00005ba4       ??_R1A@?0A@EA@IServiceUnitsSink@@8 00429ba4     AccessServerDlg.obj
 0002:00005bc0       ??_R4CAccessServerDlg@@6BCDialog@@@ 00429bc0     AccessServerDlg.obj
 0002:00005bd4       ??_R3CAccessServerDlg@@8   00429bd4     AccessServerDlg.obj
 0002:00005be4       ??_R2CAccessServerDlg@@8   00429be4     AccessServerDlg.obj
 0002:00005c00       ??_R1A@?0A@EA@CAccessServerDlg@@8 00429c00     AccessServerDlg.obj
 0002:00005c1c       ??_R1KI@?0A@EA@IServiceUnitsSink@@8 00429c1c     AccessServerDlg.obj
 0002:00005c38       ??_R4CAccessServerDlg@@6BIServiceUnitsSink@@@ 00429c38     AccessServerDlg.obj
 0002:00005c4c       ??_R3IUnknownEx@@8         00429c4c     AttemperEngineSink.obj
 0002:00005c5c       ??_R2IUnknownEx@@8         00429c5c     AttemperEngineSink.obj
 0002:00005c64       ??_R1A@?0A@EA@IUnknownEx@@8 00429c64     AttemperEngineSink.obj
 0002:00005c80       ??_R3IAttemperEngineSink@@8 00429c80     AttemperEngineSink.obj
 0002:00005c90       ??_R2IAttemperEngineSink@@8 00429c90     AttemperEngineSink.obj
 0002:00005c9c       ??_R1A@?0A@EA@IAttemperEngineSink@@8 00429c9c     AttemperEngineSink.obj
 0002:00005cb8       ??_R4?$CWHArray@UtagIMGroupOption@@ABU1@@@6B@ 00429cb8     AttemperEngineSink.obj
 0002:00005ccc       ??_R3?$CWHArray@UtagIMGroupOption@@ABU1@@@8 00429ccc     AttemperEngineSink.obj
 0002:00005cdc       ??_R2?$CWHArray@UtagIMGroupOption@@ABU1@@@8 00429cdc     AttemperEngineSink.obj
 0002:00005ce4       ??_R1A@?0A@EA@?$CWHArray@UtagIMGroupOption@@ABU1@@@8 00429ce4     AttemperEngineSink.obj
 0002:00005d00       ??_R4CAttemperEngineSink@@6B@ 00429d00     AttemperEngineSink.obj
 0002:00005d14       ??_R3CAttemperEngineSink@@8 00429d14     AttemperEngineSink.obj
 0002:00005d24       ??_R2CAttemperEngineSink@@8 00429d24     AttemperEngineSink.obj
 0002:00005d34       ??_R1A@?0A@EA@CAttemperEngineSink@@8 00429d34     AttemperEngineSink.obj
 0002:00005d50       ??_R4CDataBaseHelper@@6B@  00429d50     DataBaseEngineSink.obj
 0002:00005d64       ??_R3CDataBaseHelper@@8    00429d64     DataBaseEngineSink.obj
 0002:00005d74       ??_R2CDataBaseHelper@@8    00429d74     DataBaseEngineSink.obj
 0002:00005d80       ??_R1A@?0A@EA@CDataBaseHelper@@8 00429d80     DataBaseEngineSink.obj
 0002:00005d9c       ??_R1A@?0A@EA@?$CTempldateHelper@UIDataBase@@@@8 00429d9c     DataBaseEngineSink.obj
 0002:00005db8       ??_R3?$CTempldateHelper@UIDataBase@@@@8 00429db8     DataBaseEngineSink.obj
 0002:00005dc8       ??_R2?$CTempldateHelper@UIDataBase@@@@8 00429dc8     DataBaseEngineSink.obj
 0002:00005dd0       ??_R4?$CTempldateHelper@UIDataBase@@@@6B@ 00429dd0     DataBaseEngineSink.obj
 0002:00005de4       ??_R3IDataBaseEngineSink@@8 00429de4     DataBaseEngineSink.obj
 0002:00005df4       ??_R2IDataBaseEngineSink@@8 00429df4     DataBaseEngineSink.obj
 0002:00005e00       ??_R1A@?0A@EA@IDataBaseEngineSink@@8 00429e00     DataBaseEngineSink.obj
 0002:00005e1c       ??_R4CDataBaseEngineSink@@6B@ 00429e1c     DataBaseEngineSink.obj
 0002:00005e30       ??_R3CDataBaseEngineSink@@8 00429e30     DataBaseEngineSink.obj
 0002:00005e40       ??_R2CDataBaseEngineSink@@8 00429e40     DataBaseEngineSink.obj
 0002:00005e50       ??_R1A@?0A@EA@CDataBaseEngineSink@@8 00429e50     DataBaseEngineSink.obj
 0002:00005e6c       ??_R4CGroupItem@@6B@       00429e6c     GroupInfoManager.obj
 0002:00005e80       ??_R3CGroupItem@@8         00429e80     GroupInfoManager.obj
 0002:00005e90       ??_R2CGroupItem@@8         00429e90     GroupInfoManager.obj
 0002:00005e98       ??_R1A@?0A@EA@CGroupItem@@8 00429e98     GroupInfoManager.obj
 0002:00005eb4       ??_R4CGroupInfoManager@@6B@ 00429eb4     GroupInfoManager.obj
 0002:00005ec8       ??_R3CGroupInfoManager@@8  00429ec8     GroupInfoManager.obj
 0002:00005ed8       ??_R2CGroupInfoManager@@8  00429ed8     GroupInfoManager.obj
 0002:00005ee0       ??_R1A@?0A@EA@CGroupInfoManager@@8 00429ee0     GroupInfoManager.obj
 0002:00005efc       ??_R4?$CWHArray@PAVCGroupItem@@ABQAV1@@@6B@ 00429efc     GroupInfoManager.obj
 0002:00005f10       ??_R3?$CWHArray@PAVCGroupItem@@ABQAV1@@@8 00429f10     GroupInfoManager.obj
 0002:00005f20       ??_R2?$CWHArray@PAVCGroupItem@@ABQAV1@@@8 00429f20     GroupInfoManager.obj
 0002:00005f28       ??_R1A@?0A@EA@?$CWHArray@PAVCGroupItem@@ABQAV1@@@8 00429f28     GroupInfoManager.obj
 0002:00005f44       ??_R4?$CWHArray@UtagIMGroupMember@@ABU1@@@6B@ 00429f44     GroupInfoManager.obj
 0002:00005f58       ??_R3?$CWHArray@UtagIMGroupMember@@ABU1@@@8 00429f58     GroupInfoManager.obj
 0002:00005f68       ??_R2?$CWHArray@UtagIMGroupMember@@ABU1@@@8 00429f68     GroupInfoManager.obj
 0002:00005f70       ??_R1A@?0A@EA@?$CWHArray@UtagIMGroupMember@@ABU1@@@8 00429f70     GroupInfoManager.obj
 0002:00005f8c       ??_R4?$CWHArray@UtagGroupConfigInfo@@ABU1@@@6B@ 00429f8c     GroupInfoManager.obj
 0002:00005fa0       ??_R3?$CWHArray@UtagGroupConfigInfo@@ABU1@@@8 00429fa0     GroupInfoManager.obj
 0002:00005fb0       ??_R2?$CWHArray@UtagGroupConfigInfo@@ABU1@@@8 00429fb0     GroupInfoManager.obj
 0002:00005fb8       ??_R1A@?0A@EA@?$CWHArray@UtagGroupConfigInfo@@ABU1@@@8 00429fb8     GroupInfoManager.obj
 0002:00005fd4       ??_R4?$CWHArray@UtagClubRollMsg@@ABU1@@@6B@ 00429fd4     GroupInfoManager.obj
 0002:00005fe8       ??_R3?$CWHArray@UtagClubRollMsg@@ABU1@@@8 00429fe8     GroupInfoManager.obj
 0002:00005ff8       ??_R2?$CWHArray@UtagClubRollMsg@@ABU1@@@8 00429ff8     GroupInfoManager.obj
 0002:00006000       ??_R1A@?0A@EA@?$CWHArray@UtagClubRollMsg@@ABU1@@@8 0042a000     GroupInfoManager.obj
 0002:0000601c       ??_R4?$CMap@KKPAVCGroupItem@@PAV1@@@6B@ 0042a01c     GroupInfoManager.obj
 0002:00006030       ??_R3?$CMap@KKPAVCGroupItem@@PAV1@@@8 0042a030     GroupInfoManager.obj
 0002:00006040       ??_R2?$CMap@KKPAVCGroupItem@@PAV1@@@8 0042a040     GroupInfoManager.obj
 0002:0000604c       ??_R1A@?0A@EA@?$CMap@KKPAVCGroupItem@@PAV1@@@8 0042a04c     GroupInfoManager.obj
 0002:00006068       ??_R4?$CMap@KKUtagClubTableInfo@@AAU1@@@6B@ 0042a068     GroupInfoManager.obj
 0002:0000607c       ??_R3?$CMap@KKUtagClubTableInfo@@AAU1@@@8 0042a07c     GroupInfoManager.obj
 0002:0000608c       ??_R2?$CMap@KKUtagClubTableInfo@@AAU1@@@8 0042a08c     GroupInfoManager.obj
 0002:00006098       ??_R1A@?0A@EA@?$CMap@KKUtagClubTableInfo@@AAU1@@@8 0042a098     GroupInfoManager.obj
 0002:000060b4       ??_R4CInitParameter@@6B@   0042a0b4     InitParameter.obj
 0002:000060c8       ??_R3CInitParameter@@8     0042a0c8     InitParameter.obj
 0002:000060d8       ??_R2CInitParameter@@8     0042a0d8     InitParameter.obj
 0002:000060e0       ??_R1A@?0A@EA@CInitParameter@@8 0042a0e0     InitParameter.obj
 0002:000060fc       ??_R4?$CWHArray@PAVCGameServerItem@NServerListManager@@ABQAV12@@@6B@ 0042a0fc     ServerListManager.obj
 0002:00006110       ??_R3?$CWHArray@PAVCGameServerItem@NServerListManager@@ABQAV12@@@8 0042a110     ServerListManager.obj
 0002:00006120       ??_R2?$CWHArray@PAVCGameServerItem@NServerListManager@@ABQAV12@@@8 0042a120     ServerListManager.obj
 0002:00006128       ??_R1A@?0A@EA@?$CWHArray@PAVCGameServerItem@NServerListManager@@ABQAV12@@@8 0042a128     ServerListManager.obj
 0002:00006144       ??_R4?$CMap@GGPAVCGameServerItem@NServerListManager@@AAPAV12@@@6B@ 0042a144     ServerListManager.obj
 0002:00006158       ??_R3?$CMap@GGPAVCGameServerItem@NServerListManager@@AAPAV12@@@8 0042a158     ServerListManager.obj
 0002:00006168       ??_R2?$CMap@GGPAVCGameServerItem@NServerListManager@@AAPAV12@@@8 0042a168     ServerListManager.obj
 0002:00006174       ??_R1A@?0A@EA@?$CMap@GGPAVCGameServerItem@NServerListManager@@AAPAV12@@@8 0042a174     ServerListManager.obj
 0002:00006190       ??_R4CServerListManager@NServerListManager@@6B@ 0042a190     ServerListManager.obj
 0002:000061a4       ??_R3CServerListManager@NServerListManager@@8 0042a1a4     ServerListManager.obj
 0002:000061b4       ??_R2CServerListManager@NServerListManager@@8 0042a1b4     ServerListManager.obj
 0002:000061bc       ??_R1A@?0A@EA@CServerListManager@NServerListManager@@8 0042a1bc     ServerListManager.obj
 0002:000061d8       ??_R4CServerUserItem@@6B@  0042a1d8     ServerUserManager.obj
 0002:000061ec       ??_R3CServerUserItem@@8    0042a1ec     ServerUserManager.obj
 0002:000061fc       ??_R2CServerUserItem@@8    0042a1fc     ServerUserManager.obj
 0002:00006204       ??_R1A@?0A@EA@CServerUserItem@@8 0042a204     ServerUserManager.obj
 0002:00006220       ??_R4CServerUserManager@@6B@ 0042a220     ServerUserManager.obj
 0002:00006234       ??_R3CServerUserManager@@8 0042a234     ServerUserManager.obj
 0002:00006244       ??_R2CServerUserManager@@8 0042a244     ServerUserManager.obj
 0002:0000624c       ??_R1A@?0A@EA@CServerUserManager@@8 0042a24c     ServerUserManager.obj
 0002:00006268       ??_R4CLocalUserItem@@6B@   0042a268     ServerUserManager.obj
 0002:0000627c       ??_R3CLocalUserItem@@8     0042a27c     ServerUserManager.obj
 0002:0000628c       ??_R2CLocalUserItem@@8     0042a28c     ServerUserManager.obj
 0002:00006298       ??_R1A@?0A@EA@CLocalUserItem@@8 0042a298     ServerUserManager.obj
 0002:000062b4       ??_R4CRemoteUserItem@@6B@  0042a2b4     ServerUserManager.obj
 0002:000062c8       ??_R3CRemoteUserItem@@8    0042a2c8     ServerUserManager.obj
 0002:000062d8       ??_R2CRemoteUserItem@@8    0042a2d8     ServerUserManager.obj
 0002:000062e4       ??_R1A@?0A@EA@CRemoteUserItem@@8 0042a2e4     ServerUserManager.obj
 0002:00006300       ??_R4?$CWHArray@PAVCServerUserItem@@ABQAV1@@@6B@ 0042a300     ServerUserManager.obj
 0002:00006314       ??_R3?$CWHArray@PAVCServerUserItem@@ABQAV1@@@8 0042a314     ServerUserManager.obj
 0002:00006324       ??_R2?$CWHArray@PAVCServerUserItem@@ABQAV1@@@8 0042a324     ServerUserManager.obj
 0002:0000632c       ??_R1A@?0A@EA@?$CWHArray@PAVCServerUserItem@@ABQAV1@@@8 0042a32c     ServerUserManager.obj
 0002:00006348       ??_R4?$CMap@KKPAVCServerUserItem@@PAV1@@@6B@ 0042a348     ServerUserManager.obj
 0002:0000635c       ??_R3?$CMap@KKPAVCServerUserItem@@PAV1@@@8 0042a35c     ServerUserManager.obj
 0002:0000636c       ??_R2?$CMap@KKPAVCServerUserItem@@PAV1@@@8 0042a36c     ServerUserManager.obj
 0002:00006378       ??_R1A@?0A@EA@?$CMap@KKPAVCServerUserItem@@PAV1@@@8 0042a378     ServerUserManager.obj
 0002:00006394       ??_R4CCriticalSection@@6B@ 0042a394     ServiceUnits.obj
 0002:000063a8       ??_R3CCriticalSection@@8   0042a3a8     ServiceUnits.obj
 0002:000063b8       ??_R2CCriticalSection@@8   0042a3b8     ServiceUnits.obj
 0002:000063c8       ??_R1A@?0A@EA@CCriticalSection@@8 0042a3c8     ServiceUnits.obj
 0002:000063e4       ??_R1A@?0A@EA@CSyncObject@@8 0042a3e4     ServiceUnits.obj
 0002:00006400       ??_R3CSyncObject@@8        0042a400     ServiceUnits.obj
 0002:00006410       ??_R2CSyncObject@@8        0042a410     ServiceUnits.obj
 0002:0000641c       ??_R4CTimerEngineHelper@@6B@ 0042a41c     ServiceUnits.obj
 0002:00006430       ??_R3CTimerEngineHelper@@8 0042a430     ServiceUnits.obj
 0002:00006440       ??_R2CTimerEngineHelper@@8 0042a440     ServiceUnits.obj
 0002:0000644c       ??_R1A@?0A@EA@CTimerEngineHelper@@8 0042a44c     ServiceUnits.obj
 0002:00006468       ??_R1A@?0A@EA@?$CTempldateHelper@UITimerEngine@@@@8 0042a468     ServiceUnits.obj
 0002:00006484       ??_R3?$CTempldateHelper@UITimerEngine@@@@8 0042a484     ServiceUnits.obj
 0002:00006494       ??_R2?$CTempldateHelper@UITimerEngine@@@@8 0042a494     ServiceUnits.obj
 0002:0000649c       ??_R4?$CTempldateHelper@UITimerEngine@@@@6B@ 0042a49c     ServiceUnits.obj
 0002:000064b0       ??_R4CDataBaseEngineHelper@@6B@ 0042a4b0     ServiceUnits.obj
 0002:000064c4       ??_R3CDataBaseEngineHelper@@8 0042a4c4     ServiceUnits.obj
 0002:000064d4       ??_R2CDataBaseEngineHelper@@8 0042a4d4     ServiceUnits.obj
 0002:000064e0       ??_R1A@?0A@EA@CDataBaseEngineHelper@@8 0042a4e0     ServiceUnits.obj
 0002:000064fc       ??_R1A@?0A@EA@?$CTempldateHelper@UIDataBaseEngine@@@@8 0042a4fc     ServiceUnits.obj
 0002:00006518       ??_R3?$CTempldateHelper@UIDataBaseEngine@@@@8 0042a518     ServiceUnits.obj
 0002:00006528       ??_R2?$CTempldateHelper@UIDataBaseEngine@@@@8 0042a528     ServiceUnits.obj
 0002:00006530       ??_R4?$CTempldateHelper@UIDataBaseEngine@@@@6B@ 0042a530     ServiceUnits.obj
 0002:00006544       ??_R4CAttemperEngineHelper@@6B@ 0042a544     ServiceUnits.obj
 0002:00006558       ??_R3CAttemperEngineHelper@@8 0042a558     ServiceUnits.obj
 0002:00006568       ??_R2CAttemperEngineHelper@@8 0042a568     ServiceUnits.obj
 0002:00006574       ??_R1A@?0A@EA@CAttemperEngineHelper@@8 0042a574     ServiceUnits.obj
 0002:00006590       ??_R1A@?0A@EA@?$CTempldateHelper@UIAttemperEngine@@@@8 0042a590     ServiceUnits.obj
 0002:000065ac       ??_R3?$CTempldateHelper@UIAttemperEngine@@@@8 0042a5ac     ServiceUnits.obj
 0002:000065bc       ??_R2?$CTempldateHelper@UIAttemperEngine@@@@8 0042a5bc     ServiceUnits.obj
 0002:000065c4       ??_R4?$CTempldateHelper@UIAttemperEngine@@@@6B@ 0042a5c4     ServiceUnits.obj
 0002:000065d8       ??_R4CTCPSocketServiceHelper@@6B@ 0042a5d8     ServiceUnits.obj
 0002:000065ec       ??_R3CTCPSocketServiceHelper@@8 0042a5ec     ServiceUnits.obj
 0002:000065fc       ??_R2CTCPSocketServiceHelper@@8 0042a5fc     ServiceUnits.obj
 0002:00006608       ??_R1A@?0A@EA@CTCPSocketServiceHelper@@8 0042a608     ServiceUnits.obj
 0002:00006624       ??_R1A@?0A@EA@?$CTempldateHelper@UITCPSocketService@@@@8 0042a624     ServiceUnits.obj
 0002:00006640       ??_R3?$CTempldateHelper@UITCPSocketService@@@@8 0042a640     ServiceUnits.obj
 0002:00006650       ??_R2?$CTempldateHelper@UITCPSocketService@@@@8 0042a650     ServiceUnits.obj
 0002:00006658       ??_R4?$CTempldateHelper@UITCPSocketService@@@@6B@ 0042a658     ServiceUnits.obj
 0002:0000666c       ??_R4CTCPNetworkEngineHelper@@6B@ 0042a66c     ServiceUnits.obj
 0002:00006680       ??_R3CTCPNetworkEngineHelper@@8 0042a680     ServiceUnits.obj
 0002:00006690       ??_R2CTCPNetworkEngineHelper@@8 0042a690     ServiceUnits.obj
 0002:0000669c       ??_R1A@?0A@EA@CTCPNetworkEngineHelper@@8 0042a69c     ServiceUnits.obj
 0002:000066b8       ??_R1A@?0A@EA@?$CTempldateHelper@UITCPNetworkEngine@@@@8 0042a6b8     ServiceUnits.obj
 0002:000066d4       ??_R3?$CTempldateHelper@UITCPNetworkEngine@@@@8 0042a6d4     ServiceUnits.obj
 0002:000066e4       ??_R2?$CTempldateHelper@UITCPNetworkEngine@@@@8 0042a6e4     ServiceUnits.obj
 0002:000066ec       ??_R4?$CTempldateHelper@UITCPNetworkEngine@@@@6B@ 0042a6ec     ServiceUnits.obj
 0002:00006700       ??_R4CServiceUnits@@6B@    0042a700     ServiceUnits.obj
 0002:00006714       ??_R3CServiceUnits@@8      0042a714     ServiceUnits.obj
 0002:00006724       ??_R2CServiceUnits@@8      0042a724     ServiceUnits.obj
 0002:00006738       ??_R1A@?0A@EA@CServiceUnits@@8 0042a738     ServiceUnits.obj
 0002:00006754       ??_R4?$CMap@KKPAV?$CWHArray@KABK@@PAV1@@@6B@ 0042a754     ServiceUnits.obj
 0002:00006768       ??_R3?$CMap@KKPAV?$CWHArray@KABK@@PAV1@@@8 0042a768     ServiceUnits.obj
 0002:00006778       ??_R2?$CMap@KKPAV?$CWHArray@KABK@@PAV1@@@8 0042a778     ServiceUnits.obj
 0002:00006784       ??_R1A@?0A@EA@?$CMap@KKPAV?$CWHArray@KABK@@PAV1@@@8 0042a784     ServiceUnits.obj
 0002:000067a0       ??_R4CWordNode@@6B@        0042a7a0     WordFilter.obj
 0002:000067b4       ??_R3CWordNode@@8          0042a7b4     WordFilter.obj
 0002:000067c4       ??_R2CWordNode@@8          0042a7c4     WordFilter.obj
 0002:000067cc       ??_R1A@?0A@EA@CWordNode@@8 0042a7cc     WordFilter.obj
 0002:000067e8       ??_R4CWordTree@@6B@        0042a7e8     WordFilter.obj
 0002:000067fc       ??_R3CWordTree@@8          0042a7fc     WordFilter.obj
 0002:0000680c       ??_R2CWordTree@@8          0042a80c     WordFilter.obj
 0002:00006814       ??_R1A@?0A@EA@CWordTree@@8 0042a814     WordFilter.obj
 0002:00006830       ??_R4CWordFilter@@6B@      0042a830     WordFilter.obj
 0002:00006844       ??_R3CWordFilter@@8        0042a844     WordFilter.obj
 0002:00006854       ??_R2CWordFilter@@8        0042a854     WordFilter.obj
 0002:0000685c       ??_R1A@?0A@EA@CWordFilter@@8 0042a85c     WordFilter.obj
 0002:00006878       ??_R4?$CMap@DDPAVCWordNode@@PAV1@@@6B@ 0042a878     WordFilter.obj
 0002:0000688c       ??_R3?$CMap@DDPAVCWordNode@@PAV1@@@8 0042a88c     WordFilter.obj
 0002:0000689c       ??_R2?$CMap@DDPAVCWordNode@@PAV1@@@8 0042a89c     WordFilter.obj
 0002:000068a8       ??_R1A@?0A@EA@?$CMap@DDPAVCWordNode@@PAV1@@@8 0042a8a8     WordFilter.obj
 0002:000068c4       ??_R4type_info@@6B@        0042a8c4     msvcrt:std_type_info_static.obj
 0002:000068d8       ??_R3type_info@@8          0042a8d8     msvcrt:std_type_info_static.obj
 0002:000068e8       ??_R2type_info@@8          0042a8e8     msvcrt:std_type_info_static.obj
 0002:000068f0       ??_R1A@?0A@EA@type_info@@8 0042a8f0     msvcrt:std_type_info_static.obj
 0002:00006910       ___safe_se_handler_table   0042a910     <linker-defined>
 0002:00006e88       ___rtc_iaa                 0042ae88     msvcrt:_initsect_.obj
 0002:00006e8c       ___rtc_izz                 0042ae8c     msvcrt:_initsect_.obj
 0002:00006e90       ___rtc_taa                 0042ae90     msvcrt:_initsect_.obj
 0002:00006e94       ___rtc_tzz                 0042ae94     msvcrt:_initsect_.obj
 0002:00008878       __TI2PA_W                  0042c878     GroupInfoManager.obj
 0002:00008888       __CTA2PA_W                 0042c888     GroupInfoManager.obj
 0002:00008894       __CT??_R0PA_W@84           0042c894     GroupInfoManager.obj
 0002:000088b0       __CT??_R0PAX@84            0042c8b0     GroupInfoManager.obj
 0002:00008f3c       __IMPORT_DESCRIPTOR_mfc140u 0042cf3c     mfc140u:mfc140u.dll
 0002:00008f50       __IMPORT_DESCRIPTOR_KERNEL32 0042cf50     kernel32:KERNEL32.dll
 0002:00008f64       __IMPORT_DESCRIPTOR_USER32 0042cf64     user32:USER32.dll
 0002:00008f78       __IMPORT_DESCRIPTOR_COMCTL32 0042cf78     comctl32:COMCTL32.dll
 0002:00008f8c       __IMPORT_DESCRIPTOR_OLEAUT32 0042cf8c     oleaut32:OLEAUT32.dll
 0002:00008fa0       __IMPORT_DESCRIPTOR_ServiceCore 0042cfa0     ServiceCore:ServiceCore.dll
 0002:00008fb4       __IMPORT_DESCRIPTOR_KernelEngine 0042cfb4     KernelEngine:KernelEngine.dll
 0002:00008fc8       __IMPORT_DESCRIPTOR_dbghelp 0042cfc8     DbgHelp:dbghelp.dll
 0002:00008fdc       __IMPORT_DESCRIPTOR_VCRUNTIME140 0042cfdc     vcruntime:VCRUNTIME140.dll
 0002:00008ff0       __IMPORT_DESCRIPTOR_api-ms-win-crt-stdio-l1-1-0 0042cff0     ucrt:api-ms-win-crt-stdio-l1-1-0.dll
 0002:00009004       __IMPORT_DESCRIPTOR_api-ms-win-crt-runtime-l1-1-0 0042d004     ucrt:api-ms-win-crt-runtime-l1-1-0.dll
 0002:00009018       __IMPORT_DESCRIPTOR_api-ms-win-crt-string-l1-1-0 0042d018     ucrt:api-ms-win-crt-string-l1-1-0.dll
 0002:0000902c       __IMPORT_DESCRIPTOR_api-ms-win-crt-convert-l1-1-0 0042d02c     ucrt:api-ms-win-crt-convert-l1-1-0.dll
 0002:00009040       __IMPORT_DESCRIPTOR_api-ms-win-crt-heap-l1-1-0 0042d040     ucrt:api-ms-win-crt-heap-l1-1-0.dll
 0002:00009054       __IMPORT_DESCRIPTOR_api-ms-win-crt-utility-l1-1-0 0042d054     ucrt:api-ms-win-crt-utility-l1-1-0.dll
 0002:00009068       __IMPORT_DESCRIPTOR_api-ms-win-crt-time-l1-1-0 0042d068     ucrt:api-ms-win-crt-time-l1-1-0.dll
 0002:0000907c       __IMPORT_DESCRIPTOR_api-ms-win-crt-locale-l1-1-0 0042d07c     ucrt:api-ms-win-crt-locale-l1-1-0.dll
 0002:00009090       __IMPORT_DESCRIPTOR_api-ms-win-crt-math-l1-1-0 0042d090     ucrt:api-ms-win-crt-math-l1-1-0.dll
 0002:000090a4       __NULL_IMPORT_DESCRIPTOR   0042d0a4     mfc140u:mfc140u.dll
 0003:00000000       ?g_lManagerRight@@3PA_JA   0042f000     AttemperEngineSink.obj
 0003:000000f0       ?g_lCaptainRight@@3PA_JA   0042f0f0     AttemperEngineSink.obj
 0003:000001e0       ___scrt_native_dllmain_reason 0042f1e0     msvcrt:utility.obj
 0003:000001f0       ___security_cookie_complement 0042f1f0     msvcrt:gs_cookie.obj
 0003:000001f4       ___security_cookie         0042f1f4     msvcrt:gs_cookie.obj
 0003:000001f8       __Init_global_epoch        0042f1f8     msvcrt:thread_safe_statics.obj
 0003:00000200       __fltused                  0042f200     msvcrt:fltused.obj
 0003:00000210       ___scrt_default_matherr    0042f210     msvcrt:matherr.obj
 0003:00000214       ___isa_enabled             0042f214     msvcrt:_cpu_disp_.obj
 0003:00000218       ___scrt_ucrt_dll_is_in_use 0042f218     msvcrt:ucrt_stubs.obj
 0003:00000220       ??_R0?AVCObject@@@8        0042f220     AccessServer.obj
 0003:00000238       ??_R0?AVCCmdTarget@@@8     0042f238     AccessServer.obj
 0003:00000254       ??_R0?AVCAccessServerApp@@@8 0042f254     AccessServer.obj
 0003:00000274       ??_R0?AVCWinApp@@@8        0042f274     AccessServer.obj
 0003:0000028c       ??_R0?AVCWinThread@@@8     0042f28c     AccessServer.obj
 0003:000002a8       ??_R0?AVCWnd@@@8           0042f2a8     AccessServerDlg.obj
 0003:000002bc       ??_R0?AVCDialog@@@8        0042f2bc     AccessServerDlg.obj
 0003:000002d4       ??_R0?AUIServiceUnitsSink@@@8 0042f2d4     AccessServerDlg.obj
 0003:000002f4       ??_R0?AVCAccessServerDlg@@@8 0042f2f4     AccessServerDlg.obj
 0003:00000314       ??_R0?AUIUnknownEx@@@8     0042f314     AttemperEngineSink.obj
 0003:00000330       ??_R0?AUIAttemperEngineSink@@@8 0042f330     AttemperEngineSink.obj
 0003:00000354       ??_R0?AV?$CWHArray@UtagIMGroupOption@@ABU1@@@@8 0042f354     AttemperEngineSink.obj
 0003:00000388       ??_R0?AVCAttemperEngineSink@@@8 0042f388     AttemperEngineSink.obj
 0003:000003ac       ??_R0?AVCDataBaseHelper@@@8 0042f3ac     DataBaseEngineSink.obj
 0003:000003cc       ??_R0?AV?$CTempldateHelper@UIDataBase@@@@@8 0042f3cc     DataBaseEngineSink.obj
 0003:000003fc       ??_R0PAUIDataBaseException@@@8 0042f3fc     DataBaseEngineSink.obj
 0003:00000420       ??_R0PA_W@8                0042f420     DataBaseEngineSink.obj
 0003:00000430       ??_R0?AUIDataBaseEngineSink@@@8 0042f430     DataBaseEngineSink.obj
 0003:00000454       ??_R0?AVCDataBaseEngineSink@@@8 0042f454     DataBaseEngineSink.obj
 0003:00000478       ??_R0PAX@8                 0042f478     GroupInfoManager.obj
 0003:00000488       ??_R0?AVCGroupItem@@@8     0042f488     GroupInfoManager.obj
 0003:000004a4       ??_R0?AVCGroupInfoManager@@@8 0042f4a4     GroupInfoManager.obj
 0003:000004c4       ??_R0?AV?$CWHArray@PAVCGroupItem@@ABQAV1@@@@8 0042f4c4     GroupInfoManager.obj
 0003:000004f4       ??_R0?AV?$CWHArray@UtagIMGroupMember@@ABU1@@@@8 0042f4f4     GroupInfoManager.obj
 0003:00000528       ??_R0?AV?$CWHArray@UtagGroupConfigInfo@@ABU1@@@@8 0042f528     GroupInfoManager.obj
 0003:0000055c       ??_R0?AV?$CWHArray@UtagClubRollMsg@@ABU1@@@@8 0042f55c     GroupInfoManager.obj
 0003:0000058c       ??_R0?AV?$CMap@KKPAVCGroupItem@@PAV1@@@@8 0042f58c     GroupInfoManager.obj
 0003:000005b8       ??_R0?AV?$CMap@KKUtagClubTableInfo@@AAU1@@@@8 0042f5b8     GroupInfoManager.obj
 0003:000005e8       ??_R0?AVCInitParameter@@@8 0042f5e8     InitParameter.obj
 0003:00000608       ??_R0?AV?$CWHArray@PAVCGameServerItem@NServerListManager@@ABQAV12@@@@8 0042f608     ServerListManager.obj
 0003:00000658       ??_R0?AV?$CMap@GGPAVCGameServerItem@NServerListManager@@AAPAV12@@@@8 0042f658     ServerListManager.obj
 0003:000006a0       ??_R0?AVCServerListManager@NServerListManager@@@8 0042f6a0     ServerListManager.obj
 0003:000006d4       ??_R0?AVCServerUserItem@@@8 0042f6d4     ServerUserManager.obj
 0003:000006f4       ??_R0?AVCServerUserManager@@@8 0042f6f4     ServerUserManager.obj
 0003:00000718       ??_R0?AVCLocalUserItem@@@8 0042f718     ServerUserManager.obj
 0003:00000738       ??_R0?AVCRemoteUserItem@@@8 0042f738     ServerUserManager.obj
 0003:00000758       ??_R0?AV?$CWHArray@PAVCServerUserItem@@ABQAV1@@@@8 0042f758     ServerUserManager.obj
 0003:00000790       ??_R0?AV?$CMap@KKPAVCServerUserItem@@PAV1@@@@8 0042f790     ServerUserManager.obj
 0003:000007c4       ??_R0?AVCCriticalSection@@@8 0042f7c4     ServiceUnits.obj
 0003:000007e4       ??_R0?AVCSyncObject@@@8    0042f7e4     ServiceUnits.obj
 0003:00000800       ??_R0?AVCTimerEngineHelper@@@8 0042f800     ServiceUnits.obj
 0003:00000824       ??_R0?AV?$CTempldateHelper@UITimerEngine@@@@@8 0042f824     ServiceUnits.obj
 0003:00000858       ??_R0?AVCDataBaseEngineHelper@@@8 0042f858     ServiceUnits.obj
 0003:0000087c       ??_R0?AV?$CTempldateHelper@UIDataBaseEngine@@@@@8 0042f87c     ServiceUnits.obj
 0003:000008b0       ??_R0?AVCAttemperEngineHelper@@@8 0042f8b0     ServiceUnits.obj
 0003:000008d4       ??_R0?AV?$CTempldateHelper@UIAttemperEngine@@@@@8 0042f8d4     ServiceUnits.obj
 0003:00000908       ??_R0?AVCTCPSocketServiceHelper@@@8 0042f908     ServiceUnits.obj
 0003:00000930       ??_R0?AV?$CTempldateHelper@UITCPSocketService@@@@@8 0042f930     ServiceUnits.obj
 0003:00000968       ??_R0?AVCTCPNetworkEngineHelper@@@8 0042f968     ServiceUnits.obj
 0003:00000990       ??_R0?AV?$CTempldateHelper@UITCPNetworkEngine@@@@@8 0042f990     ServiceUnits.obj
 0003:000009c8       ??_R0?AVCServiceUnits@@@8  0042f9c8     ServiceUnits.obj
 0003:000009e4       ??_R0?AV?$CMap@KKPAV?$CWHArray@KABK@@PAV1@@@@8 0042f9e4     ServiceUnits.obj
 0003:00000a18       ??_R0?AVCWordNode@@@8      0042fa18     WordFilter.obj
 0003:00000a30       ??_R0?AVCWordTree@@@8      0042fa30     WordFilter.obj
 0003:00000a48       ??_R0?AVCWordFilter@@@8    0042fa48     WordFilter.obj
 0003:00000a64       ??_R0?AV?$CMap@DDPAVCWordNode@@PAV1@@@@8 0042fa64     WordFilter.obj
 0003:00000a90       ??_R0?AVtype_info@@@8      0042fa90     msvcrt:std_type_info_static.obj
 0003:00000aa8       ?theApp@@3VCAccessServerApp@@A 0042faa8     AccessServer.obj
 0003:00000b78       ?_OptionsStorage@?1??__local_stdio_printf_options@@9@4_KA 0042fb78     AccessServerDlg.obj
 0003:00000b88       ?g_pServiceUnits@CServiceUnits@@2PAV1@A 0042fb88     ServiceUnits.obj
 0003:00000b8c       ___@@_PchSym_@00@UhkzxvUtrgsfyUdswonUdswonUKlsKowKooKlsKooKqkKltKprKpyKluKqmKqsUKlvKorKpmKlqKqsKovKlsKqoKplKluKomKquUKltKrlKpuKluKruKpuKltKqnKrmKluKrpKpyKluKqqKprUivovzhvPfmrxlwvUhgwzucOlyq@C6893EAAB45CBCF2 0042fb8c     Stdafx.obj
 0003:00000b90       ?m_bInitFailed@CAtlBaseModule@ATL@@2_NA 0042fb90     Stdafx.obj
 0003:00001ba4       __afxForceEXCLUDE          00430ba4     mfcs140u:nolib.obj
 0003:00001ba8       __afxForceSTDAFX           00430ba8     mfcs140u:stdafx.obj
 0003:00001bac       ___scrt_current_native_startup_state 00430bac     msvcrt:utility.obj
 0003:00001bb0       ___scrt_native_startup_lock 00430bb0     msvcrt:utility.obj
 0003:00001bf8       __tls_index                00430bf8     msvcrt:tlssup.obj
 0003:00001c00       ?__type_info_root_node@@3U__type_info_node@@A 00430c00     msvcrt:tncleanup.obj
 0003:00001c08       ?_OptionsStorage@?1??__local_stdio_scanf_options@@9@4_KA 00430c08     msvcrt:default_local_stdio_options.obj
 0003:00001c10       ___scrt_debugger_hook_flag 00430c10     msvcrt:utility_desktop.obj
 0003:00001c14       ___isa_available           00430c14     msvcrt:_cpu_disp_.obj
 0003:00001c18       ___favor                   00430c18     msvcrt:_cpu_disp_.obj
 0003:00001f3c       ?_AtlBaseModule@ATL@@3VCAtlBaseModule@1@A 00430f3c     atls:atlbase.obj
 0003:00001f74       ___@@_PchSym_@00@UyrmzirvhUrmgvinvwrzgvUexgllohUzgohOmzgrevkilqPBACIAJCBDBUlyqiUcIGUhgwzucOlyq@400B0995F36844BC 00430f74     atls:stdafx.obj
 0003:00001f78       ?_afxInitAppState@@3DA     00430f78     mfcs140u:appmodul.obj
 0003:00001f7c       ___dyn_tls_dtor_callback   00430f7c     <common>
 0003:00001f80       ___dyn_tls_init_callback   00430f80     <common>
 0005:00000000       __tls_start                00432000     msvcrt:tlssup.obj
 0005:00000004       __Init_thread_epoch        00432004     msvcrt:thread_safe_statics.obj
 0005:00000008       __tls_end                  00432008     msvcrt:tlssup.obj

 entry point at        0001:0001f7c8

 Static symbols

 0000:fff70000       .debug$S                   00400000     ucrt:api-ms-win-crt-string-l1-1-0.dll
 0000:fff70000       .debug$S                   00400000     ucrt:api-ms-win-crt-convert-l1-1-0.dll
 0000:fff70000       .debug$S                   00400000     ucrt:api-ms-win-crt-convert-l1-1-0.dll
 0000:fff70000       .debug$S                   00400000     ucrt:api-ms-win-crt-heap-l1-1-0.dll
 0000:fff70000       .debug$S                   00400000     ucrt:api-ms-win-crt-heap-l1-1-0.dll
 0000:fff70000       .debug$S                   00400000     ucrt:api-ms-win-crt-heap-l1-1-0.dll
 0000:fff70000       .debug$S                   00400000     ucrt:api-ms-win-crt-heap-l1-1-0.dll
 0000:fff70000       .debug$S                   00400000     ucrt:api-ms-win-crt-locale-l1-1-0.dll
 0000:fff70000       .debug$S                   00400000     ucrt:api-ms-win-crt-locale-l1-1-0.dll
 0000:fff70000       .debug$S                   00400000     ucrt:api-ms-win-crt-math-l1-1-0.dll
 0000:fff70000       .debug$S                   00400000     ucrt:api-ms-win-crt-math-l1-1-0.dll
 0000:fff70000       .debug$S                   00400000     ucrt:api-ms-win-crt-time-l1-1-0.dll
 0000:fff70000       .debug$S                   00400000     ucrt:api-ms-win-crt-runtime-l1-1-0.dll
 0000:fff70000       .debug$S                   00400000     ucrt:api-ms-win-crt-runtime-l1-1-0.dll
 0000:fff70000       .debug$S                   00400000     ucrt:api-ms-win-crt-runtime-l1-1-0.dll
 0000:fff70000       .debug$S                   00400000     ucrt:api-ms-win-crt-runtime-l1-1-0.dll
 0000:fff70000       .debug$S                   00400000     mfc140u:mfc140u.dll
 0000:fff70000       .debug$S                   00400000     mfc140u:mfc140u.dll
 0000:fff70000       .debug$S                   00400000     mfc140u:mfc140u.dll
 0000:fff70000       .debug$S                   00400000     mfc140u:mfc140u.dll
 0000:fff70000       .debug$S                   00400000     mfc140u:mfc140u.dll
 0000:fff70000       .debug$S                   00400000     mfc140u:mfc140u.dll
 0000:fff70000       .debug$S                   00400000     mfc140u:mfc140u.dll
 0000:fff70000       .debug$S                   00400000     mfc140u:mfc140u.dll
 0000:fff70000       .debug$S                   00400000     mfc140u:mfc140u.dll
 0000:fff70000       .debug$S                   00400000     mfc140u:mfc140u.dll
 0000:fff70000       .debug$S                   00400000     mfc140u:mfc140u.dll
 0000:fff70000       .debug$S                   00400000     mfc140u:mfc140u.dll
 0000:fff70000       .debug$S                   00400000     mfc140u:mfc140u.dll
 0000:fff70000       .debug$S                   00400000     mfc140u:mfc140u.dll
 0000:fff70000       .debug$S                   00400000     mfc140u:mfc140u.dll
 0000:fff70000       .debug$S                   00400000     mfc140u:mfc140u.dll
 0000:fff70000       .debug$S                   00400000     mfc140u:mfc140u.dll
 0000:fff70000       .debug$S                   00400000     ucrt:api-ms-win-crt-time-l1-1-0.dll
 0000:fff70000       .debug$S                   00400000     mfc140u:mfc140u.dll
 0000:fff70000       .debug$S                   00400000     mfc140u:mfc140u.dll
 0000:fff70000       .debug$S                   00400000     ucrt:api-ms-win-crt-time-l1-1-0.dll
 0000:fff70000       .debug$S                   00400000     ucrt:api-ms-win-crt-time-l1-1-0.dll
 0000:fff70000       .debug$S                   00400000     ucrt:api-ms-win-crt-time-l1-1-0.dll
 0000:fff70000       .debug$S                   00400000     ucrt:api-ms-win-crt-utility-l1-1-0.dll
 0000:fff70000       .debug$S                   00400000     vcruntime:VCRUNTIME140.dll
 0000:fff70000       .debug$S                   00400000     vcruntime:VCRUNTIME140.dll
 0000:fff70000       .debug$S                   00400000     vcruntime:VCRUNTIME140.dll
 0000:fff70000       .debug$S                   00400000     vcruntime:VCRUNTIME140.dll
 0000:fff70000       .debug$S                   00400000     vcruntime:VCRUNTIME140.dll
 0000:fff70000       .debug$S                   00400000     vcruntime:VCRUNTIME140.dll
 0000:fff70000       .debug$S                   00400000     vcruntime:VCRUNTIME140.dll
 0000:fff70000       .debug$S                   00400000     vcruntime:VCRUNTIME140.dll
 0000:fff70000       .debug$S                   00400000     vcruntime:VCRUNTIME140.dll
 0000:fff70000       .debug$S                   00400000     vcruntime:VCRUNTIME140.dll
 0000:fff70000       .debug$S                   00400000     vcruntime:VCRUNTIME140.dll
 0000:fff70000       .debug$S                   00400000     DbgHelp:dbghelp.dll
 0000:fff70000       .debug$S                   00400000     mfc140u:mfc140u.dll
 0000:fff70000       .debug$S                   00400000     mfc140u:mfc140u.dll
 0000:fff70000       .debug$S                   00400000     mfc140u:mfc140u.dll
 0000:fff70000       .debug$S                   00400000     mfc140u:mfc140u.dll
 0000:fff70000       .debug$S                   00400000     mfc140u:mfc140u.dll
 0000:fff70000       .debug$S                   00400000     mfc140u:mfc140u.dll
 0000:fff70000       .debug$S                   00400000     mfc140u:mfc140u.dll
 0000:fff70000       .debug$S                   00400000     mfc140u:mfc140u.dll
 0000:fff70000       .debug$S                   00400000     ucrt:api-ms-win-crt-runtime-l1-1-0.dll
 0000:fff70000       .debug$S                   00400000     ucrt:api-ms-win-crt-runtime-l1-1-0.dll
 0000:fff70000       .debug$S                   00400000     mfc140u:mfc140u.dll
 0000:fff70000       .debug$S                   00400000     mfc140u:mfc140u.dll
 0000:fff70000       .debug$S                   00400000     mfc140u:mfc140u.dll
 0000:fff70000       .debug$S                   00400000     mfc140u:mfc140u.dll
 0000:fff70000       .debug$S                   00400000     mfc140u:mfc140u.dll
 0000:fff70000       .debug$S                   00400000     mfc140u:mfc140u.dll
 0000:fff70000       .debug$S                   00400000     mfc140u:mfc140u.dll
 0000:fff70000       .debug$S                   00400000     mfc140u:mfc140u.dll
 0000:fff70000       .debug$S                   00400000     mfc140u:mfc140u.dll
 0000:fff70000       .debug$S                   00400000     mfc140u:mfc140u.dll
 0000:fff70000       .debug$S                   00400000     mfc140u:mfc140u.dll
 0000:fff70000       .debug$S                   00400000     mfc140u:mfc140u.dll
 0000:fff70000       .debug$S                   00400000     mfc140u:mfc140u.dll
 0000:fff70000       .debug$S                   00400000     mfc140u:mfc140u.dll
 0000:fff70000       .debug$S                   00400000     mfc140u:mfc140u.dll
 0000:fff70000       .debug$S                   00400000     mfc140u:mfc140u.dll
 0000:fff70000       .debug$S                   00400000     mfc140u:mfc140u.dll
 0000:fff70000       .debug$S                   00400000     mfc140u:mfc140u.dll
 0000:fff70000       .debug$S                   00400000     mfc140u:mfc140u.dll
 0000:fff70000       .debug$S                   00400000     mfc140u:mfc140u.dll
 0000:fff70000       .debug$S                   00400000     mfc140u:mfc140u.dll
 0000:fff70000       .debug$S                   00400000     mfc140u:mfc140u.dll
 0000:fff70000       .debug$S                   00400000     mfc140u:mfc140u.dll
 0000:fff70000       .debug$S                   00400000     mfc140u:mfc140u.dll
 0000:fff70000       .debug$S                   00400000     mfc140u:mfc140u.dll
 0000:fff70000       .debug$S                   00400000     mfc140u:mfc140u.dll
 0000:fff70000       .debug$S                   00400000     mfc140u:mfc140u.dll
 0000:fff70000       .debug$S                   00400000     mfc140u:mfc140u.dll
 0000:fff70000       .debug$S                   00400000     mfc140u:mfc140u.dll
 0000:fff70000       .debug$S                   00400000     mfc140u:mfc140u.dll
 0000:fff70000       .debug$S                   00400000     mfc140u:mfc140u.dll
 0000:fff70000       .debug$S                   00400000     mfc140u:mfc140u.dll
 0000:fff70000       .debug$S                   00400000     mfc140u:mfc140u.dll
 0000:fff70000       .debug$S                   00400000     mfc140u:mfc140u.dll
 0000:fff70000       .debug$S                   00400000     mfc140u:mfc140u.dll
 0000:fff70000       .debug$S                   00400000     mfc140u:mfc140u.dll
 0000:fff70000       .debug$S                   00400000     mfc140u:mfc140u.dll
 0000:fff70000       .debug$S                   00400000     mfc140u:mfc140u.dll
 0000:fff70000       .debug$S                   00400000     mfc140u:mfc140u.dll
 0000:fff70000       .debug$S                   00400000     mfc140u:mfc140u.dll
 0000:fff70000       .debug$S                   00400000     mfc140u:mfc140u.dll
 0000:fff70000       .debug$S                   00400000     mfc140u:mfc140u.dll
 0000:fff70000       .debug$S                   00400000     mfc140u:mfc140u.dll
 0000:fff70000       .debug$S                   00400000     mfc140u:mfc140u.dll
 0000:fff70000       .debug$S                   00400000     mfc140u:mfc140u.dll
 0000:fff70000       .debug$S                   00400000     mfc140u:mfc140u.dll
 0000:fff70000       .debug$S                   00400000     mfc140u:mfc140u.dll
 0000:fff70000       .debug$S                   00400000     mfc140u:mfc140u.dll
 0000:fff70000       .debug$S                   00400000     mfc140u:mfc140u.dll
 0000:fff70000       .debug$S                   00400000     mfc140u:mfc140u.dll
 0000:fff70000       .debug$S                   00400000     mfc140u:mfc140u.dll
 0000:fff70000       .debug$S                   00400000     mfc140u:mfc140u.dll
 0000:fff70000       .debug$S                   00400000     mfc140u:mfc140u.dll
 0000:fff70000       .debug$S                   00400000     mfc140u:mfc140u.dll
 0000:fff70000       .debug$S                   00400000     mfc140u:mfc140u.dll
 0000:fff70000       .debug$S                   00400000     mfc140u:mfc140u.dll
 0000:fff70000       .debug$S                   00400000     mfc140u:mfc140u.dll
 0000:fff70000       .debug$S                   00400000     mfc140u:mfc140u.dll
 0000:fff70000       .debug$S                   00400000     mfc140u:mfc140u.dll
 0000:fff70000       .debug$S                   00400000     mfc140u:mfc140u.dll
 0000:fff70000       .debug$S                   00400000     mfc140u:mfc140u.dll
 0000:fff70000       .debug$S                   00400000     mfc140u:mfc140u.dll
 0000:fff70000       .debug$S                   00400000     mfc140u:mfc140u.dll
 0000:fff70000       .debug$S                   00400000     mfc140u:mfc140u.dll
 0000:fff70000       .debug$S                   00400000     mfc140u:mfc140u.dll
 0000:fff70000       .debug$S                   00400000     mfc140u:mfc140u.dll
 0000:fff70000       .debug$S                   00400000     mfc140u:mfc140u.dll
 0000:fff70000       .debug$S                   00400000     mfc140u:mfc140u.dll
 0000:fff70000       .debug$S                   00400000     KernelEngine:KernelEngine.dll
 0000:fff70000       .debug$S                   00400000     KernelEngine:KernelEngine.dll
 0000:fff70000       .debug$S                   00400000     KernelEngine:KernelEngine.dll
 0000:fff70000       .debug$S                   00400000     KernelEngine:KernelEngine.dll
 0000:fff70000       .debug$S                   00400000     mfc140u:mfc140u.dll
 0000:fff70000       .debug$S                   00400000     mfc140u:mfc140u.dll
 0000:fff70000       .debug$S                   00400000     mfc140u:mfc140u.dll
 0000:fff70000       .debug$S                   00400000     mfc140u:mfc140u.dll
 0000:fff70000       .debug$S                   00400000     KernelEngine:KernelEngine.dll
 0000:fff70000       .debug$S                   00400000     KernelEngine:KernelEngine.dll
 0000:fff70000       .debug$S                   00400000     KernelEngine:KernelEngine.dll
 0000:fff70000       .debug$S                   00400000     KernelEngine:KernelEngine.dll
 0000:fff70000       .debug$S                   00400000     mfc140u:mfc140u.dll
 0000:fff70000       .debug$S                   00400000     mfc140u:mfc140u.dll
 0000:fff70000       .debug$S                   00400000     mfc140u:mfc140u.dll
 0000:fff70000       .debug$S                   00400000     mfc140u:mfc140u.dll
 0000:fff70000       .debug$S                   00400000     KernelEngine:KernelEngine.dll
 0000:fff70000       .debug$S                   00400000     KernelEngine:KernelEngine.dll
 0000:fff70000       .debug$S                   00400000     KernelEngine:KernelEngine.dll
 0000:fff70000       .debug$S                   00400000     KernelEngine:KernelEngine.dll
 0000:fff70000       .debug$S                   00400000     mfc140u:mfc140u.dll
 0000:fff70000       .debug$S                   00400000     mfc140u:mfc140u.dll
 0000:fff70000       .debug$S                   00400000     mfc140u:mfc140u.dll
 0000:fff70000       .debug$S                   00400000     mfc140u:mfc140u.dll
 0000:fff70000       .debug$S                   00400000     KernelEngine:KernelEngine.dll
 0000:fff70000       .debug$S                   00400000     KernelEngine:KernelEngine.dll
 0000:fff70000       .debug$S                   00400000     KernelEngine:KernelEngine.dll
 0000:fff70000       .debug$S                   00400000     KernelEngine:KernelEngine.dll
 0000:fff70000       .debug$S                   00400000     mfc140u:mfc140u.dll
 0000:fff70000       .debug$S                   00400000     mfc140u:mfc140u.dll
 0000:fff70000       .debug$S                   00400000     mfc140u:mfc140u.dll
 0000:fff70000       .debug$S                   00400000     mfc140u:mfc140u.dll
 0000:fff70000       .debug$S                   00400000     KernelEngine:KernelEngine.dll
 0000:fff70000       .debug$S                   00400000     KernelEngine:KernelEngine.dll
 0000:fff70000       .debug$S                   00400000     KernelEngine:KernelEngine.dll
 0000:fff70000       .debug$S                   00400000     KernelEngine:KernelEngine.dll
 0000:fff70000       .debug$S                   00400000     mfc140u:mfc140u.dll
 0000:fff70000       .debug$S                   00400000     mfc140u:mfc140u.dll
 0000:fff70000       .debug$S                   00400000     mfc140u:mfc140u.dll
 0000:fff70000       .debug$S                   00400000     mfc140u:mfc140u.dll
 0000:fff70000       .debug$S                   00400000     mfc140u:mfc140u.dll
 0000:fff70000       .debug$S                   00400000     mfc140u:mfc140u.dll
 0000:fff70000       .debug$S                   00400000     KernelEngine:KernelEngine.dll
 0000:fff70000       .debug$S                   00400000     KernelEngine:KernelEngine.dll
 0000:fff70000       .debug$S                   00400000     KernelEngine:KernelEngine.dll
 0000:fff70000       .debug$S                   00400000     ServiceCore:ServiceCore.dll
 0000:fff70000       .debug$S                   00400000     ServiceCore:ServiceCore.dll
 0000:fff70000       .debug$S                   00400000     ServiceCore:ServiceCore.dll
 0000:fff70000       .debug$S                   00400000     ServiceCore:ServiceCore.dll
 0000:fff70000       .debug$S                   00400000     ServiceCore:ServiceCore.dll
 0000:fff70000       .debug$S                   00400000     mfc140u:mfc140u.dll
 0000:fff70000       .debug$S                   00400000     mfc140u:mfc140u.dll
 0000:fff70000       .debug$S                   00400000     mfc140u:mfc140u.dll
 0000:fff70000       .debug$S                   00400000     mfc140u:mfc140u.dll
 0000:fff70000       .debug$S                   00400000     mfc140u:mfc140u.dll
 0000:fff70000       .debug$S                   00400000     mfc140u:mfc140u.dll
 0000:fff70000       .debug$S                   00400000     mfc140u:mfc140u.dll
 0000:fff70000       .debug$S                   00400000     mfc140u:mfc140u.dll
 0000:fff70000       .debug$S                   00400000     mfc140u:mfc140u.dll
 0000:fff70000       .debug$S                   00400000     mfc140u:mfc140u.dll
 0000:fff70000       .debug$S                   00400000     mfc140u:mfc140u.dll
 0000:fff70000       .debug$S                   00400000     mfc140u:mfc140u.dll
 0000:fff70000       .debug$S                   00400000     mfc140u:mfc140u.dll
 0000:fff70000       .debug$S                   00400000     mfc140u:mfc140u.dll
 0000:fff70000       .debug$S                   00400000     mfc140u:mfc140u.dll
 0000:fff70000       .debug$S                   00400000     mfc140u:mfc140u.dll
 0000:fff70000       .debug$S                   00400000     mfc140u:mfc140u.dll
 0000:fff70000       .debug$S                   00400000     mfc140u:mfc140u.dll
 0000:fff70000       .debug$S                   00400000     mfc140u:mfc140u.dll
 0000:fff70000       .debug$S                   00400000     mfc140u:mfc140u.dll
 0000:fff70000       .debug$S                   00400000     mfc140u:mfc140u.dll
 0000:fff70000       .debug$S                   00400000     mfc140u:mfc140u.dll
 0000:fff70000       .debug$S                   00400000     ServiceCore:ServiceCore.dll
 0000:fff70000       .debug$S                   00400000     ServiceCore:ServiceCore.dll
 0000:fff70000       .debug$S                   00400000     ServiceCore:ServiceCore.dll
 0000:fff70000       .debug$S                   00400000     mfc140u:mfc140u.dll
 0000:fff70000       .debug$S                   00400000     mfc140u:mfc140u.dll
 0000:fff70000       .debug$S                   00400000     ServiceCore:ServiceCore.dll
 0000:fff70000       .debug$S                   00400000     ServiceCore:ServiceCore.dll
 0000:fff70000       .debug$S                   00400000     ServiceCore:ServiceCore.dll
 0000:fff70000       .debug$S                   00400000     ServiceCore:ServiceCore.dll
 0000:fff70000       .debug$S                   00400000     oleaut32:OLEAUT32.dll
 0000:fff70000       .debug$S                   00400000     oleaut32:OLEAUT32.dll
 0000:fff70000       .debug$S                   00400000     oleaut32:OLEAUT32.dll
 0000:fff70000       .debug$S                   00400000     ucrt:api-ms-win-crt-stdio-l1-1-0.dll
 0000:fff70000       .debug$S                   00400000     mfc140u:mfc140u.dll
 0000:fff70000       .debug$S                   00400000     ucrt:api-ms-win-crt-stdio-l1-1-0.dll
 0000:fff70000       .debug$S                   00400000     mfc140u:mfc140u.dll
 0000:fff70000       .debug$S                   00400000     mfc140u:mfc140u.dll
 0000:fff70000       .debug$S                   00400000     mfc140u:mfc140u.dll
 0000:fff70000       .debug$S                   00400000     mfc140u:mfc140u.dll
 0000:fff70000       .debug$S                   00400000     mfc140u:mfc140u.dll
 0000:fff70000       .debug$S                   00400000     mfc140u:mfc140u.dll
 0000:fff70000       .debug$S                   00400000     mfc140u:mfc140u.dll
 0000:fff70000       .debug$S                   00400000     mfc140u:mfc140u.dll
 0000:fff70000       .debug$S                   00400000     mfc140u:mfc140u.dll
 0000:fff70000       .debug$S                   00400000     mfc140u:mfc140u.dll
 0000:fff70000       .debug$S                   00400000     mfc140u:mfc140u.dll
 0000:fff70000       .debug$S                   00400000     mfc140u:mfc140u.dll
 0000:fff70000       .debug$S                   00400000     mfc140u:mfc140u.dll
 0000:fff70000       .debug$S                   00400000     mfc140u:mfc140u.dll
 0000:fff70000       .debug$S                   00400000     comctl32:COMCTL32.dll
 0000:fff70000       .debug$S                   00400000     mfc140u:mfc140u.dll
 0000:fff70000       .debug$S                   00400000     mfc140u:mfc140u.dll
 0000:fff70000       .debug$S                   00400000     user32:USER32.dll
 0000:fff70000       .debug$S                   00400000     user32:USER32.dll
 0000:fff70000       .debug$S                   00400000     user32:USER32.dll
 0000:fff70000       .debug$S                   00400000     user32:USER32.dll
 0000:fff70000       .debug$S                   00400000     user32:USER32.dll
 0000:fff70000       .debug$S                   00400000     user32:USER32.dll
 0000:fff70000       .debug$S                   00400000     user32:USER32.dll
 0000:fff70000       .debug$S                   00400000     kernel32:KERNEL32.dll
 0000:fff70000       .debug$S                   00400000     mfc140u:mfc140u.dll
 0000:fff70000       .debug$S                   00400000     mfc140u:mfc140u.dll
 0000:fff70000       .debug$S                   00400000     mfc140u:mfc140u.dll
 0000:fff70000       .debug$S                   00400000     kernel32:KERNEL32.dll
 0000:fff70000       .debug$S                   00400000     kernel32:KERNEL32.dll
 0000:fff70000       .debug$S                   00400000     mfc140u:mfc140u.dll
 0000:fff70000       .debug$S                   00400000     mfc140u:mfc140u.dll
 0000:fff70000       .debug$S                   00400000     mfc140u:mfc140u.dll
 0000:fff70000       .debug$S                   00400000     mfc140u:mfc140u.dll
 0000:fff70000       .debug$S                   00400000     mfc140u:mfc140u.dll
 0000:fff70000       .debug$S                   00400000     mfc140u:mfc140u.dll
 0000:fff70000       .debug$S                   00400000     mfc140u:mfc140u.dll
 0000:fff70000       .debug$S                   00400000     mfc140u:mfc140u.dll
 0000:fff70000       .debug$S                   00400000     mfc140u:mfc140u.dll
 0000:fff70000       .debug$S                   00400000     mfc140u:mfc140u.dll
 0000:fff70000       .debug$S                   00400000     mfc140u:mfc140u.dll
 0000:fff70000       .debug$S                   00400000     mfc140u:mfc140u.dll
 0000:fff70000       .debug$S                   00400000     mfc140u:mfc140u.dll
 0000:fff70000       .debug$S                   00400000     mfc140u:mfc140u.dll
 0000:fff70000       .debug$S                   00400000     mfc140u:mfc140u.dll
 0000:fff70000       .debug$S                   00400000     mfc140u:mfc140u.dll
 0000:fff70000       .debug$S                   00400000     mfc140u:mfc140u.dll
 0000:fff70000       .debug$S                   00400000     mfc140u:mfc140u.dll
 0000:fff70000       .debug$S                   00400000     mfc140u:mfc140u.dll
 0000:fff70000       .debug$S                   00400000     mfc140u:mfc140u.dll
 0000:fff70000       .debug$S                   00400000     kernel32:KERNEL32.dll
 0000:fff70000       .debug$S                   00400000     mfc140u:mfc140u.dll
 0000:fff70000       .debug$S                   00400000     mfc140u:mfc140u.dll
 0000:fff70000       .debug$S                   00400000     kernel32:KERNEL32.dll
 0000:fff70000       .debug$S                   00400000     kernel32:KERNEL32.dll
 0000:fff70000       .debug$S                   00400000     kernel32:KERNEL32.dll
 0000:fff70000       .debug$S                   00400000     kernel32:KERNEL32.dll
 0000:fff70000       .debug$S                   00400000     kernel32:KERNEL32.dll
 0000:fff70000       .debug$S                   00400000     kernel32:KERNEL32.dll
 0000:fff70000       .debug$S                   00400000     kernel32:KERNEL32.dll
 0000:fff70000       .debug$S                   00400000     kernel32:KERNEL32.dll
 0000:fff70000       .debug$S                   00400000     mfc140u:mfc140u.dll
 0000:fff70000       .debug$S                   00400000     mfc140u:mfc140u.dll
 0000:fff70000       .debug$S                   00400000     mfc140u:mfc140u.dll
 0000:fff70000       .debug$S                   00400000     mfc140u:mfc140u.dll
 0000:fff70000       .debug$S                   00400000     mfc140u:mfc140u.dll
 0000:fff70000       .debug$S                   00400000     mfc140u:mfc140u.dll
 0000:fff70000       .debug$S                   00400000     mfc140u:mfc140u.dll
 0000:fff70000       .debug$S                   00400000     mfc140u:mfc140u.dll
 0000:fff70000       .debug$S                   00400000     mfc140u:mfc140u.dll
 0000:fff70000       .debug$S                   00400000     mfc140u:mfc140u.dll
 0000:fff70000       .debug$S                   00400000     mfc140u:mfc140u.dll
 0000:fff70000       .debug$S                   00400000     mfc140u:mfc140u.dll
 0000:fff70000       .debug$S                   00400000     mfc140u:mfc140u.dll
 0000:fff70000       .debug$S                   00400000     mfc140u:mfc140u.dll
 0000:fff70000       .debug$S                   00400000     mfc140u:mfc140u.dll
 0000:fff70000       .debug$S                   00400000     mfc140u:mfc140u.dll
 0000:fff70000       .debug$S                   00400000     mfc140u:mfc140u.dll
 0000:fff70000       .debug$S                   00400000     ucrt:api-ms-win-crt-runtime-l1-1-0.dll
 0000:fff70000       .debug$S                   00400000     ucrt:api-ms-win-crt-runtime-l1-1-0.dll
 0000:fff70000       .debug$S                   00400000     mfc140u:mfc140u.dll
 0000:fff70000       .debug$S                   00400000     mfc140u:mfc140u.dll
 0000:fff70000       .debug$S                   00400000     mfc140u:mfc140u.dll
 0000:fff70000       .debug$S                   00400000     mfc140u:mfc140u.dll
 0000:fff70000       .debug$S                   00400000     mfc140u:mfc140u.dll
 0000:fff70000       .debug$S                   00400000     mfc140u:mfc140u.dll
 0000:fff70000       .debug$S                   00400000     ucrt:api-ms-win-crt-runtime-l1-1-0.dll
 0000:fff70000       .debug$S                   00400000     ucrt:api-ms-win-crt-runtime-l1-1-0.dll
 0000:fff70000       .debug$S                   00400000     ucrt:api-ms-win-crt-runtime-l1-1-0.dll
 0000:fff70000       .debug$S                   00400000     ucrt:api-ms-win-crt-runtime-l1-1-0.dll
 0000:fff70000       .debug$S                   00400000     ucrt:api-ms-win-crt-runtime-l1-1-0.dll
 0000:fff70000       .debug$S                   00400000     ucrt:api-ms-win-crt-runtime-l1-1-0.dll
 0000:fff70000       .debug$S                   00400000     ucrt:api-ms-win-crt-runtime-l1-1-0.dll
 0000:fff70000       .debug$S                   00400000     ucrt:api-ms-win-crt-runtime-l1-1-0.dll
 0000:fff70000       .debug$S                   00400000     ucrt:api-ms-win-crt-runtime-l1-1-0.dll
 0000:fff70000       .debug$S                   00400000     ucrt:api-ms-win-crt-runtime-l1-1-0.dll
 0000:fff70000       .debug$S                   00400000     ucrt:api-ms-win-crt-runtime-l1-1-0.dll
 0000:fff70000       .debug$S                   00400000     ucrt:api-ms-win-crt-runtime-l1-1-0.dll
 0000:fff70000       .debug$S                   00400000     ucrt:api-ms-win-crt-runtime-l1-1-0.dll
 0000:fff70000       .debug$S                   00400000     ucrt:api-ms-win-crt-runtime-l1-1-0.dll
 0000:fff70000       .debug$S                   00400000     ucrt:api-ms-win-crt-runtime-l1-1-0.dll
 0000:fff70000       .debug$S                   00400000     ucrt:api-ms-win-crt-runtime-l1-1-0.dll
 0000:fff70000       .debug$S                   00400000     ucrt:api-ms-win-crt-stdio-l1-1-0.dll
 0000:fff70000       .debug$S                   00400000     ucrt:api-ms-win-crt-stdio-l1-1-0.dll
 0000:fff70000       .debug$S                   00400000     ucrt:api-ms-win-crt-stdio-l1-1-0.dll
 0000:fff70000       .debug$S                   00400000     ucrt:api-ms-win-crt-stdio-l1-1-0.dll
 0000:fff70000       .debug$S                   00400000     kernel32:KERNEL32.dll
 0000:fff70000       .debug$S                   00400000     kernel32:KERNEL32.dll
 0000:fff70000       .debug$S                   00400000     kernel32:KERNEL32.dll
 0000:fff70000       .debug$S                   00400000     kernel32:KERNEL32.dll
 0000:fff70000       .debug$S                   00400000     kernel32:KERNEL32.dll
 0000:fff70000       .debug$S                   00400000     kernel32:KERNEL32.dll
 0000:fff70000       .debug$S                   00400000     kernel32:KERNEL32.dll
 0000:fff70000       .debug$S                   00400000     kernel32:KERNEL32.dll
 0000:fff70000       .debug$S                   00400000     kernel32:KERNEL32.dll
 0000:fff70000       .debug$S                   00400000     kernel32:KERNEL32.dll
 0000:fff70000       .debug$S                   00400000     kernel32:KERNEL32.dll
 0000:fff70000       .debug$S                   00400000     kernel32:KERNEL32.dll
 0000:fff70000       .debug$S                   00400000     kernel32:KERNEL32.dll
 0000:fff70000       .debug$S                   00400000     kernel32:KERNEL32.dll
 0000:fff70000       .debug$S                   00400000     kernel32:KERNEL32.dll
 0000:fff70000       .debug$S                   00400000     kernel32:KERNEL32.dll
 0000:fff70000       .debug$S                   00400000     kernel32:KERNEL32.dll
 0000:fff70000       .debug$S                   00400000     kernel32:KERNEL32.dll
 0000:fff70000       .debug$S                   00400000     kernel32:KERNEL32.dll
 0000:fff70000       .debug$S                   00400000     kernel32:KERNEL32.dll
 0000:fff70000       .debug$S                   00400000     kernel32:KERNEL32.dll
 0000:fff70000       .debug$S                   00400000     kernel32:KERNEL32.dll
 0000:fff70000       .debug$S                   00400000     kernel32:KERNEL32.dll
 0000:fff70000       .debug$S                   00400000     kernel32:KERNEL32.dll
 0000:fff70000       .debug$S                   00400000     kernel32:KERNEL32.dll
 0000:fff70000       .debug$S                   00400000     kernel32:KERNEL32.dll
 0000:fff70000       .debug$S                   00400000     kernel32:KERNEL32.dll
 0000:fff70000       .debug$S                   00400000     kernel32:KERNEL32.dll
 0000:fff70000       .debug$S                   00400000     kernel32:KERNEL32.dll
 0000:fff70000       .debug$S                   00400000     kernel32:KERNEL32.dll
 0000:fff70000       .debug$S                   00400000     kernel32:KERNEL32.dll
 0000:fff70000       .debug$S                   00400000     kernel32:KERNEL32.dll
 0000:fff70000       .debug$S                   00400000     kernel32:KERNEL32.dll
 0000:fff70000       .debug$S                   00400000     kernel32:KERNEL32.dll
 0000:fff70000       .debug$S                   00400000     mfc140u:mfc140u.dll
 0000:fff70000       .debug$S                   00400000     kernel32:KERNEL32.dll
 0000:fff70000       .debug$S                   00400000     kernel32:KERNEL32.dll
 0000:fff70000       .debug$S                   00400000     kernel32:KERNEL32.dll
 0000:fff70000       .debug$S                   00400000     kernel32:KERNEL32.dll
 0001:00000000       ??__EtheApp@@YAXXZ         00401000 f   AccessServer.obj
 0001:00000022       ??__E_AtlBaseModule@ATL@@YAXXZ 00401022 f   atls:atlbase.obj
 0001:00000038       ??__E_afxInitAppState@@YAXXZ 00401038 f   mfcs140u:appmodul.obj
 0001:00000437       __catch$?OnBnClickedStartService@CAccessServerDlg@@IAEXXZ$0 00401437 f   AccessServerDlg.obj
 0001:00000494       __catch$?OnBnClickedStopService@CAccessServerDlg@@IAEXXZ$0 00401494 f   AccessServerDlg.obj
 0001:00005094       $LN12                      00406094     AttemperEngineSink.obj
 0001:00005a70       __catch$?OnEventDataBase@CAttemperEngineSink@@UAE_NGKPAXG@Z$0 00406a70 f   AttemperEngineSink.obj
 0001:00005ae4       $LN154                     00406ae4     AttemperEngineSink.obj
 0001:00005bc0       $LN149                     00406bc0     AttemperEngineSink.obj
 0001:00005c28       $LN155                     00406c28     AttemperEngineSink.obj
 0001:00005c48       $LN150                     00406c48     AttemperEngineSink.obj
 0001:000066ca       __catch$?OnEventTCPSocketRead@CAttemperEngineSink@@UAE_NGUTCP_Command@@PAXG@Z$0 004076ca f   AttemperEngineSink.obj
 0001:0000673c       $LN44                      0040773c     AttemperEngineSink.obj
 0001:00007678       $LN43                      00408678     AttemperEngineSink.obj
 0001:00009e18       $LN275                     0040ae18     AttemperEngineSink.obj
 0001:0000ae14       $LN102                     0040be14     AttemperEngineSink.obj
 0001:0000b138       $LN24                      0040c138     AttemperEngineSink.obj
 0001:0000c0d0       _memcpy_s                  0040d0d0 f   AttemperEngineSink.obj
 0001:0000c9a4       $LN69                      0040d9a4     DataBaseEngineSink.obj
 0001:0000ca98       $LN70                      0040da98     DataBaseEngineSink.obj
 0001:0000cb7b       __catch$?OnDataBaseEngineStart@CDataBaseEngineSink@@UAE_NPAUIUnknownEx@@@Z$0 0040db7b f   DataBaseEngineSink.obj
 0001:0000ce85       __catch$?OnRequestAddTeamer@CDataBaseEngineSink@@IAE_NKPAXG@Z$0 0040de85 f   DataBaseEngineSink.obj
 0001:0000d391       __catch$?OnRequestAppendConfig@CDataBaseEngineSink@@IAE_NKPAXG@Z$0 0040e391 f   DataBaseEngineSink.obj
 0001:0000d601       __catch$?OnRequestApplyDelete@CDataBaseEngineSink@@IAE_NKPAXG@Z$0 0040e601 f   DataBaseEngineSink.obj
 0001:0000dd27       __catch$?OnRequestApplyRequest@CDataBaseEngineSink@@IAE_NKPAXG@Z$0 0040ed27 f   DataBaseEngineSink.obj
 0001:0000e412       __catch$?OnRequestApplyRespond@CDataBaseEngineSink@@IAE_NKPAXG@Z$0 0040f412 f   DataBaseEngineSink.obj
 0001:0000e681       __catch$?OnRequestBlindCode@CDataBaseEngineSink@@IAE_NKPAXG@Z$0 0040f681 f   DataBaseEngineSink.obj
 0001:0000ea46       __catch$?OnRequestCaptainList@CDataBaseEngineSink@@IAE_NKPAXG@Z$0 0040fa46 f   DataBaseEngineSink.obj
 0001:0000efef       __catch$?OnRequestCheckNewUser@CDataBaseEngineSink@@IAE_NKPAXG@Z$0 0040ffef f   DataBaseEngineSink.obj
 0001:0000f0ff       __catch$?OnRequestClearMedal@CDataBaseEngineSink@@IAE_NKPAXG@Z$0 004100ff f   DataBaseEngineSink.obj
 0001:0000f7c4       __catch$?OnRequestCreateGroup@CDataBaseEngineSink@@IAE_NKPAXG@Z$0 004107c4 f   DataBaseEngineSink.obj
 0001:0000fa75       __catch$?OnRequestDeleteConfig@CDataBaseEngineSink@@IAE_NKPAXG@Z$0 00410a75 f   DataBaseEngineSink.obj
 0001:0000fd0f       __catch$?OnRequestDeleteGroup@CDataBaseEngineSink@@IAE_NKPAXG@Z$0 00410d0f f   DataBaseEngineSink.obj
 0001:00010183       __catch$?OnRequestDeleteMember@CDataBaseEngineSink@@IAE_NKPAXG@Z$0 00411183 f   DataBaseEngineSink.obj
 0001:0001043e       __catch$?OnRequestGetAwardScore@CDataBaseEngineSink@@IAE_NKPAXG@Z$0 0041143e f   DataBaseEngineSink.obj
 0001:000107d1       __catch$?OnRequestGroupDayDetail@CDataBaseEngineSink@@IAE_NKPAXG@Z$0 004117d1 f   DataBaseEngineSink.obj
 0001:000109f9       __catch$?OnRequestInvitationCode@CDataBaseEngineSink@@IAE_NKPAXG@Z$0 004119f9 f   DataBaseEngineSink.obj
 0001:00010bc5       __catch$?OnRequestLoadForbidWords@CDataBaseEngineSink@@IAE_NKPAXG@Z$0 00411bc5 f   DataBaseEngineSink.obj
 0001:00010f9d       __catch$?OnRequestLoadGroupConfig@CDataBaseEngineSink@@IAE_NKPAXG@Z$0 00411f9d f   DataBaseEngineSink.obj
 0001:000111f4       __catch$?OnRequestLoadGroupItem@CDataBaseEngineSink@@IAE_NKPAXG@Z$0 004121f4 f   DataBaseEngineSink.obj
 0001:000115ef       __catch$?OnRequestLoadGroupList@CDataBaseEngineSink@@IAE_NKPAXG@Z$0 004125ef f   DataBaseEngineSink.obj
 0001:00011989       __catch$?OnRequestLoadGroupMember@CDataBaseEngineSink@@IAE_NKPAXG@Z$0 00412989 f   DataBaseEngineSink.obj
 0001:00011da7       __catch$?OnRequestLoadSingleGroup@CDataBaseEngineSink@@IAE_NKPAXG@Z$0 00412da7 f   DataBaseEngineSink.obj
 0001:0001235e       __catch$?OnRequestLogonServer@CDataBaseEngineSink@@IAE_NKPAXG@Z$0 0041335e f   DataBaseEngineSink.obj
 0001:00012811       __catch$?OnRequestModifyConfig@CDataBaseEngineSink@@IAE_NKPAXG@Z$0 00413811 f   DataBaseEngineSink.obj
 0001:00012a24       __catch$?OnRequestModifyGroupName@CDataBaseEngineSink@@IAE_NKPAXG@Z$0 00413a24 f   DataBaseEngineSink.obj
 0001:00012d3e       __catch$?OnRequestModifyInfo@CDataBaseEngineSink@@IAE_NKPAXG@Z$0 00413d3e f   DataBaseEngineSink.obj
 0001:00012ff0       __catch$?OnRequestModifyRight@CDataBaseEngineSink@@IAE_NKPAXG@Z$0 00413ff0 f   DataBaseEngineSink.obj
 0001:00013419       __catch$?OnRequestOpenBox@CDataBaseEngineSink@@IAE_NKPAXG@Z$0 00414419 f   DataBaseEngineSink.obj
 0001:0001383f       __catch$?OnRequestPresentScore@CDataBaseEngineSink@@IAE_NKPAXG@Z$0 0041483f f   DataBaseEngineSink.obj
 0001:00013b5b       __catch$?OnRequestQueryBattle@CDataBaseEngineSink@@IAE_NKPAXG@Z$0 00414b5b f   DataBaseEngineSink.obj
 0001:00013d76       __catch$?OnRequestQueryCreate@CDataBaseEngineSink@@IAE_NKPAXG@Z$0 00414d76 f   DataBaseEngineSink.obj
 0001:00014240       __catch$?OnRequestQueryDayDetail@CDataBaseEngineSink@@IAE_NKPAXG@Z$0 00415240 f   DataBaseEngineSink.obj
 0001:0001458b       __catch$?OnRequestQueryDayRecord@CDataBaseEngineSink@@IAE_NKPAXG@Z$0 0041558b f   DataBaseEngineSink.obj
 0001:00014782       __catch$?OnRequestQueryMedalMode@CDataBaseEngineSink@@IAE_NKPAXG@Z$0 00415782 f   DataBaseEngineSink.obj
 0001:00014b3e       __catch$?OnRequestQueryPresent@CDataBaseEngineSink@@IAE_NKPAXG@Z$0 00415b3e f   DataBaseEngineSink.obj
 0001:00014e2f       __catch$?OnRequestQueryRevenue@CDataBaseEngineSink@@IAE_NKPAXG@Z$0 00415e2f f   DataBaseEngineSink.obj
 0001:00015059       __catch$?OnRequestQueryScore@CDataBaseEngineSink@@IAE_NKPAXG@Z$0 00416059 f   DataBaseEngineSink.obj
 0001:0001529a       __catch$?OnRequestQueryTotalBattle@CDataBaseEngineSink@@IAE_NKPAXG@Z$0 0041629a f   DataBaseEngineSink.obj
 0001:00015549       __catch$?OnRequestRightManagement@CDataBaseEngineSink@@IAE_NKPAXG@Z$0 00416549 f   DataBaseEngineSink.obj
 0001:00015a9c       __catch$?OnRequestRoomDetail@CDataBaseEngineSink@@IAE_NKPAXG@Z$0 00416a9c f   DataBaseEngineSink.obj
 0001:00015cfd       __catch$?OnRequestSetBigWinner@CDataBaseEngineSink@@IAE_NKPAXG@Z$0 00416cfd f   DataBaseEngineSink.obj
 0001:00015f7f       __catch$?OnRequestSetCaptainPoint@CDataBaseEngineSink@@IAE_NKPAXG@Z$0 00416f7f f   DataBaseEngineSink.obj
 0001:00016159       __catch$?OnRequestSetFavoriteConfig@CDataBaseEngineSink@@IAE_NKPAXG@Z$0 00417159 f   DataBaseEngineSink.obj
 0001:00016368       __catch$?OnRequestSetFlag@CDataBaseEngineSink@@IAE_NKPAXG@Z$0 00417368 f   DataBaseEngineSink.obj
 0001:0001662d       __catch$?OnRequestSetFreeTableLimit@CDataBaseEngineSink@@IAE_NKPAXG@Z$0 0041762d f   DataBaseEngineSink.obj
 0001:000168d4       __catch$?OnRequestSetGroupStatus@CDataBaseEngineSink@@IAE_NKPAXG@Z$0 004178d4 f   DataBaseEngineSink.obj
 0001:00016bc1       __catch$?OnRequestSetInOut@CDataBaseEngineSink@@IAE_NKPAXG@Z$0 00417bc1 f   DataBaseEngineSink.obj
 0001:00016f06       __catch$?OnRequestSetMedal@CDataBaseEngineSink@@IAE_NKPAXG@Z$0 00417f06 f   DataBaseEngineSink.obj
 0001:00017162       __catch$?OnRequestSetPrivacy@CDataBaseEngineSink@@IAE_NKPAXG@Z$0 00418162 f   DataBaseEngineSink.obj
 0001:000173cd       __catch$?OnRequestSetRollMSg@CDataBaseEngineSink@@IAE_NKPAXG@Z$0 004183cd f   DataBaseEngineSink.obj
 0001:000176b4       __catch$?OnRequestSettleBattle@CDataBaseEngineSink@@IAE_NKPAXG@Z$0 004186b4 f   DataBaseEngineSink.obj
 0001:00017a6e       __catch$?OnRequestTeamerDayRecord@CDataBaseEngineSink@@IAE_NKPAXG@Z$0 00418a6e f   DataBaseEngineSink.obj
 0001:000180c8       __catch$?OnRequestUpdateGroup@CDataBaseEngineSink@@IAE_NKPAXG@Z$0 004190c8 f   DataBaseEngineSink.obj
 0001:000182b6       __catch$?OnRequestUpdateMember@CDataBaseEngineSink@@IAE_NKPAXG@Z$0 004192b6 f   DataBaseEngineSink.obj
 0001:000183f9       __catch$?OnRequestUpdateOnlineStatus@CDataBaseEngineSink@@IAE_NKPAXG@Z$0 004193f9 f   DataBaseEngineSink.obj
 0001:0001908f       __catch$?ActiveGroupItem@CGroupInfoManager@@UAE_NAAUtagIMGroupItem@@@Z$0 0041a08f f   GroupInfoManager.obj
 0001:0001b74a       __catch$?InsertGameServer@CServerListManager@NServerListManager@@QAE_NPAUtagGameServer@@@Z$0 0041c74a f   ServerListManager.obj
 0001:0001c685       __catch$?InsertLocalUserItem@CServerUserManager@@UAEPAVCLocalUserItem@@AAUtagIMUserInfo@@PB_W@Z$0 0041d685 f   ServerUserManager.obj
 0001:0001c831       __catch$?InsertRemoteUserItem@CServerUserManager@@UAEPAVCRemoteUserItem@@AAUtagIMUserInfo@@@Z$0 0041d831 f   ServerUserManager.obj
 0001:0001d76e       __catch$?CreateInstance@?$CTempldateHelper@UITCPSocketService@@@@QAE_NXZ$0 0041e76e f i ServiceUnits.obj
 0001:0001d76e       __catch$?CreateInstance@?$CTempldateHelper@UIDataBase@@@@QAE_NXZ$0 0041e76e f i DataBaseEngineSink.obj
 0001:0001d76e       __catch$?CreateInstance@?$CTempldateHelper@UIDataBaseEngine@@@@QAE_NXZ$0 0041e76e f i ServiceUnits.obj
 0001:0001d76e       __catch$?CreateInstance@?$CTempldateHelper@UITimerEngine@@@@QAE_NXZ$0 0041e76e f i ServiceUnits.obj
 0001:0001d76e       __catch$?CreateInstance@?$CTempldateHelper@UIAttemperEngine@@@@QAE_NXZ$0 0041e76e f i ServiceUnits.obj
 0001:0001d76e       __catch$?CreateInstance@?$CTempldateHelper@UITCPNetworkEngine@@@@QAE_NXZ$0 0041e76e f i ServiceUnits.obj
 0001:0001d7a6       __catch$?CreateInstance@?$CTempldateHelper@UIDataBase@@@@QAE_NXZ$1 0041e7a6 f i DataBaseEngineSink.obj
 0001:0001d7a6       __catch$?CreateInstance@?$CTempldateHelper@UITCPSocketService@@@@QAE_NXZ$1 0041e7a6 f i ServiceUnits.obj
 0001:0001d7a6       __catch$?CreateInstance@?$CTempldateHelper@UIAttemperEngine@@@@QAE_NXZ$1 0041e7a6 f i ServiceUnits.obj
 0001:0001d7a6       __catch$?CreateInstance@?$CTempldateHelper@UITimerEngine@@@@QAE_NXZ$1 0041e7a6 f i ServiceUnits.obj
 0001:0001d7a6       __catch$?CreateInstance@?$CTempldateHelper@UITCPNetworkEngine@@@@QAE_NXZ$1 0041e7a6 f i ServiceUnits.obj
 0001:0001d7a6       __catch$?CreateInstance@?$CTempldateHelper@UIDataBaseEngine@@@@QAE_NXZ$1 0041e7a6 f i ServiceUnits.obj
 0001:0001ec23       __catch$?InsertChild@CWordNode@@QAEPAV1@D@Z$0 0041fc23 f   WordFilter.obj
 0001:0001ee38       __catch$?RebuildTree@CWordTree@@IAEXXZ$2 0041fe38 f   WordFilter.obj
 0001:0001f5a2       ?pre_c_initialization@@YAHXZ 004205a2 f   msvcrt:exe_wwinmain.obj
 0001:0001f646       ?post_pgo_initialization@@YAHXZ 00420646 f   msvcrt:exe_wwinmain.obj
 0001:0001f64e       ?pre_cpp_initialization@@YAXXZ 0042064e f   msvcrt:exe_wwinmain.obj
 0001:0001f660       ?__scrt_common_main_seh@@YAHXZ 00420660 f   msvcrt:exe_wwinmain.obj
 0001:0001f7d2       ?find_pe_section@@YAPAU_IMAGE_SECTION_HEADER@@QAEI@Z 004207d2 f   msvcrt:utility.obj
 0001:0001fa50       $$000000                   00420a50     msvcrt:chkstk.obj
 0001:0001faae       ?__scrt_initialize_thread_safe_statics@@YAHXZ 00420aae f   msvcrt:thread_safe_statics.obj
 0001:0001fb8b       ?__scrt_uninitialize_thread_safe_statics@@YAXXZ 00420b8b f   msvcrt:thread_safe_statics.obj
 0001:0001fcf0       $$000000                   00420cf0     msvcrt:_ftol3_.obj
 0001:00020070       $$000000                   00421070     msvcrt:_ftol2_.obj
 0001:00020130       $$000000                   00421130     msvcrt:llmul.obj
 0001:000202c0       $$000000                   004212c0     msvcrt:_sehprolg4_.obj
 0001:00020320       $$000000                   00421320     msvcrt:_sehprolg4gs_.obj
 0001:00020b70       __unwindfunclet$?InitInstance@CAccessServerApp@@UAEHXZ$0 00421b70 f   AccessServer.obj
 0001:00020b7b       __ehhandler$?InitInstance@CAccessServerApp@@UAEHXZ 00421b7b f   AccessServer.obj
 0001:00020bb0       __unwindfunclet$??0CAccessServerDlg@@QAE@XZ$0 00421bb0 f   AccessServerDlg.obj
 0001:00020bb8       __unwindfunclet$??0CAccessServerDlg@@QAE@XZ$1 00421bb8 f   AccessServerDlg.obj
 0001:00020bc7       __ehhandler$??0CAccessServerDlg@@QAE@XZ 00421bc7 f   AccessServerDlg.obj
 0001:00020bf0       __ehhandler$?OnBnClickedStartService@CAccessServerDlg@@IAEXXZ 00421bf0 f   AccessServerDlg.obj
 0001:00020c10       __ehhandler$?OnBnClickedStopService@CAccessServerDlg@@IAEXXZ 00421c10 f   AccessServerDlg.obj
 0001:00020c30       __unwindfunclet$??0CAttemperEngineSink@@QAE@XZ$0 00421c30 f   AttemperEngineSink.obj
 0001:00020c3e       __unwindfunclet$??0CAttemperEngineSink@@QAE@XZ$1 00421c3e f   AttemperEngineSink.obj
 0001:00020c4c       __unwindfunclet$??0CAttemperEngineSink@@QAE@XZ$2 00421c4c f   AttemperEngineSink.obj
 0001:00020c5a       __unwindfunclet$??0CAttemperEngineSink@@QAE@XZ$3 00421c5a f   AttemperEngineSink.obj
 0001:00020c68       __unwindfunclet$??0CAttemperEngineSink@@QAE@XZ$4 00421c68 f   AttemperEngineSink.obj
 0001:00020c76       __ehhandler$??0CAttemperEngineSink@@QAE@XZ 00421c76 f   AttemperEngineSink.obj
 0001:00020ca0       __unwindfunclet$?OnDBGroupMember@CAttemperEngineSink@@IAE_NKPAXG@Z$0 00421ca0 f   AttemperEngineSink.obj
 0001:00020cac       __ehhandler$?OnDBGroupMember@CAttemperEngineSink@@IAE_NKPAXG@Z 00421cac f   AttemperEngineSink.obj
 0001:00020ce0       __unwindfunclet$?OnDBPresentSuccess@CAttemperEngineSink@@IAE_NKPAXG@Z$0 00421ce0 f   AttemperEngineSink.obj
 0001:00020cec       __ehhandler$?OnDBPresentSuccess@CAttemperEngineSink@@IAE_NKPAXG@Z 00421cec f   AttemperEngineSink.obj
 0001:00020d20       __unwindfunclet$?OnEventDataBase@CAttemperEngineSink@@UAE_NGKPAXG@Z$2 00421d20 f   AttemperEngineSink.obj
 0001:00020d2c       __ehhandler$?OnEventDataBase@CAttemperEngineSink@@UAE_NGKPAXG@Z 00421d2c f   AttemperEngineSink.obj
 0001:00020d60       __unwindfunclet$?OnEventTCPNetworkRead@CAttemperEngineSink@@UAE_NUTCP_Command@@PAXGK@Z$0 00421d60 f   AttemperEngineSink.obj
 0001:00020d69       __ehhandler$?OnEventTCPNetworkRead@CAttemperEngineSink@@UAE_NUTCP_Command@@PAXGK@Z 00421d69 f   AttemperEngineSink.obj
 0001:00020d90       __unwindfunclet$?OnEventTCPSocketRead@CAttemperEngineSink@@UAE_NGUTCP_Command@@PAXG@Z$2 00421d90 f   AttemperEngineSink.obj
 0001:00020d99       __unwindfunclet$?OnEventTCPSocketRead@CAttemperEngineSink@@UAE_NGUTCP_Command@@PAXG@Z$3 00421d99 f   AttemperEngineSink.obj
 0001:00020da2       __ehhandler$?OnEventTCPSocketRead@CAttemperEngineSink@@UAE_NGUTCP_Command@@PAXG@Z 00421da2 f   AttemperEngineSink.obj
 0001:00020dc0       __unwindfunclet$?OnEventTimer@CAttemperEngineSink@@UAE_NKI@Z$0 00421dc0 f   AttemperEngineSink.obj
 0001:00020dcc       __ehhandler$?OnEventTimer@CAttemperEngineSink@@UAE_NKI@Z 00421dcc f   AttemperEngineSink.obj
 0001:00020e00       __unwindfunclet$?OnEventUserLogon@CAttemperEngineSink@@IAE_NPAVCLocalUserItem@@@Z$0 00421e00 f   AttemperEngineSink.obj
 0001:00020e0c       __ehhandler$?OnEventUserLogon@CAttemperEngineSink@@IAE_NPAVCLocalUserItem@@@Z 00421e0c f   AttemperEngineSink.obj
 0001:00020e40       __unwindfunclet$?OnTCPNetworkMainLogicService@CAttemperEngineSink@@IAE_NGPAXGK@Z$0 00421e40 f   AttemperEngineSink.obj
 0001:00020e4c       __ehhandler$?OnTCPNetworkMainLogicService@CAttemperEngineSink@@IAE_NGPAXGK@Z 00421e4c f   AttemperEngineSink.obj
 0001:00020e80       __unwindfunclet$?OnTCPSocketBattleMainBattleService@CAttemperEngineSink@@IAE_NGPAXG@Z$0 00421e80 f   AttemperEngineSink.obj
 0001:00020e8c       __unwindfunclet$?OnTCPSocketBattleMainBattleService@CAttemperEngineSink@@IAE_NGPAXG@Z$1 00421e8c f   AttemperEngineSink.obj
 0001:00020e98       __ehhandler$?OnTCPSocketBattleMainBattleService@CAttemperEngineSink@@IAE_NGPAXG@Z 00421e98 f   AttemperEngineSink.obj
 0001:00020ec0       __unwindfunclet$?SendLogData@CAttemperEngineSink@@IAAXPB_WZZ$0 00421ec0 f   AttemperEngineSink.obj
 0001:00020ecb       __unwindfunclet$?SendLogData@CAttemperEngineSink@@IAAXPB_WZZ$1 00421ecb f   AttemperEngineSink.obj
 0001:00020ed7       __ehhandler$?SendLogData@CAttemperEngineSink@@IAAXPB_WZZ 00421ed7 f   AttemperEngineSink.obj
 0001:00020f00       __unwindfunclet$??_G?$CTempldateHelper@UITimerEngine@@@@UAEPAXI@Z$0 00421f00 f   ServiceUnits.obj
 0001:00020f00       __unwindfunclet$??_GCDataBaseHelper@@UAEPAXI@Z$1 00421f00 f   DataBaseEngineSink.obj
 0001:00020f00       __unwindfunclet$??1CDataBaseEngineSink@@UAE@XZ$1 00421f00 f   DataBaseEngineSink.obj
 0001:00020f00       __unwindfunclet$??_G?$CMap@DDPAVCWordNode@@PAV1@@@UAEPAXI@Z$1 00421f00 f   WordFilter.obj
 0001:00020f00       __unwindfunclet$??_G?$CMap@KKPAV?$CWHArray@KABK@@PAV1@@@UAEPAXI@Z$1 00421f00 f   ServiceUnits.obj
 0001:00020f00       __unwindfunclet$??_GCTCPNetworkEngineHelper@@UAEPAXI@Z$1 00421f00 f   ServiceUnits.obj
 0001:00020f00       __unwindfunclet$??_G?$CTempldateHelper@UIDataBaseEngine@@@@UAEPAXI@Z$0 00421f00 f   ServiceUnits.obj
 0001:00020f00       __unwindfunclet$??_G?$CTempldateHelper@UITCPNetworkEngine@@@@UAEPAXI@Z$0 00421f00 f   ServiceUnits.obj
 0001:00020f00       __unwindfunclet$??_GCDataBaseEngineHelper@@UAEPAXI@Z$1 00421f00 f   ServiceUnits.obj
 0001:00020f00       __unwindfunclet$??_G?$CMap@KKPAVCGroupItem@@PAV1@@@UAEPAXI@Z$1 00421f00 f   GroupInfoManager.obj
 0001:00020f00       __unwindfunclet$??_G?$CMap@KKPAVCServerUserItem@@PAV1@@@UAEPAXI@Z$1 00421f00 f   ServerUserManager.obj
 0001:00020f00       __unwindfunclet$??1CGroupItem@@MAE@XZ$0 00421f00 f   GroupInfoManager.obj
 0001:00020f00       __unwindfunclet$??_G?$CMap@KKUtagClubTableInfo@@AAU1@@@UAEPAXI@Z$1 00421f00 f   GroupInfoManager.obj
 0001:00020f00       __unwindfunclet$??_G?$CTempldateHelper@UIAttemperEngine@@@@UAEPAXI@Z$0 00421f00 f   ServiceUnits.obj
 0001:00020f00       __unwindfunclet$??_G?$CTempldateHelper@UIDataBase@@@@UAEPAXI@Z$0 00421f00 f   DataBaseEngineSink.obj
 0001:00020f00       __unwindfunclet$??_GCAttemperEngineHelper@@UAEPAXI@Z$1 00421f00 f   ServiceUnits.obj
 0001:00020f00       __unwindfunclet$??_GCTimerEngineHelper@@UAEPAXI@Z$1 00421f00 f   ServiceUnits.obj
 0001:00020f00       __unwindfunclet$??_G?$CMap@GGPAVCGameServerItem@NServerListManager@@AAPAV12@@@UAEPAXI@Z$1 00421f00 f   ServerListManager.obj
 0001:00020f00       __unwindfunclet$??_GCTCPSocketServiceHelper@@UAEPAXI@Z$1 00421f00 f   ServiceUnits.obj
 0001:00020f00       __unwindfunclet$??_G?$CTempldateHelper@UITCPSocketService@@@@UAEPAXI@Z$0 00421f00 f   ServiceUnits.obj
 0001:00020f06       __ehhandler$??_G?$CTempldateHelper@UITCPSocketService@@@@UAEPAXI@Z 00421f06 f   ServiceUnits.obj
 0001:00020f06       __ehhandler$??_GCTCPSocketServiceHelper@@UAEPAXI@Z 00421f06 f   ServiceUnits.obj
 0001:00020f06       __ehhandler$??_G?$CMap@KKUtagClubTableInfo@@AAU1@@@UAEPAXI@Z 00421f06 f   GroupInfoManager.obj
 0001:00020f06       __ehhandler$??_GCAttemperEngineHelper@@UAEPAXI@Z 00421f06 f   ServiceUnits.obj
 0001:00020f06       __ehhandler$??_G?$CTempldateHelper@UIAttemperEngine@@@@UAEPAXI@Z 00421f06 f   ServiceUnits.obj
 0001:00020f06       __ehhandler$??_G?$CMap@KKPAVCServerUserItem@@PAV1@@@UAEPAXI@Z 00421f06 f   ServerUserManager.obj
 0001:00020f06       __ehhandler$??_G?$CTempldateHelper@UITCPNetworkEngine@@@@UAEPAXI@Z 00421f06 f   ServiceUnits.obj
 0001:00020f06       __ehhandler$??_GCDataBaseEngineHelper@@UAEPAXI@Z 00421f06 f   ServiceUnits.obj
 0001:00020f06       __ehhandler$??_GCTCPNetworkEngineHelper@@UAEPAXI@Z 00421f06 f   ServiceUnits.obj
 0001:00020f06       __ehhandler$??_G?$CTempldateHelper@UIDataBaseEngine@@@@UAEPAXI@Z 00421f06 f   ServiceUnits.obj
 0001:00020f06       __ehhandler$??_G?$CMap@KKPAV?$CWHArray@KABK@@PAV1@@@UAEPAXI@Z 00421f06 f   ServiceUnits.obj
 0001:00020f06       __ehhandler$??_G?$CMap@DDPAVCWordNode@@PAV1@@@UAEPAXI@Z 00421f06 f   WordFilter.obj
 0001:00020f06       __ehhandler$??_GCTimerEngineHelper@@UAEPAXI@Z 00421f06 f   ServiceUnits.obj
 0001:00020f06       __ehhandler$??_G?$CTempldateHelper@UITimerEngine@@@@UAEPAXI@Z 00421f06 f   ServiceUnits.obj
 0001:00020f06       __ehhandler$??1CDataBaseEngineSink@@UAE@XZ 00421f06 f   DataBaseEngineSink.obj
 0001:00020f06       __ehhandler$??_GCDataBaseHelper@@UAEPAXI@Z 00421f06 f   DataBaseEngineSink.obj
 0001:00020f06       __ehhandler$??_G?$CMap@GGPAVCGameServerItem@NServerListManager@@AAPAV12@@@UAEPAXI@Z 00421f06 f   ServerListManager.obj
 0001:00020f06       __ehhandler$??_G?$CMap@KKPAVCGroupItem@@PAV1@@@UAEPAXI@Z 00421f06 f   GroupInfoManager.obj
 0001:00020f06       __ehhandler$??1CGroupItem@@MAE@XZ 00421f06 f   GroupInfoManager.obj
 0001:00020f06       __ehhandler$??_G?$CTempldateHelper@UIDataBase@@@@UAEPAXI@Z 00421f06 f   DataBaseEngineSink.obj
 0001:00020f30       __unwindfunclet$?ExtractGroupID@CDataBaseEngineSink@@IAEGPB_WAAVCDWordArray@@@Z$0 00421f30 f   DataBaseEngineSink.obj
 0001:00020f39       __unwindfunclet$?ExtractGroupID@CDataBaseEngineSink@@IAEGPB_WAAVCDWordArray@@@Z$1 00421f39 f   DataBaseEngineSink.obj
 0001:00020f42       __unwindfunclet$?ExtractGroupID@CDataBaseEngineSink@@IAEGPB_WAAVCDWordArray@@@Z$2 00421f42 f   DataBaseEngineSink.obj
 0001:00020f4b       __ehhandler$?ExtractGroupID@CDataBaseEngineSink@@IAEGPB_WAAVCDWordArray@@@Z 00421f4b f   DataBaseEngineSink.obj
 0001:00020f70       __ehhandler$?OnDataBaseEngineStart@CDataBaseEngineSink@@UAE_NPAUIUnknownEx@@@Z 00421f70 f   DataBaseEngineSink.obj
 0001:00020f90       __unwindfunclet$?OnRequestAddTeamer@CDataBaseEngineSink@@IAE_NKPAXG@Z$2 00421f90 f   DataBaseEngineSink.obj
 0001:00020f9b       __ehhandler$?OnRequestAddTeamer@CDataBaseEngineSink@@IAE_NKPAXG@Z 00421f9b f   DataBaseEngineSink.obj
 0001:00020fd0       __unwindfunclet$?OnRequestAppendConfig@CDataBaseEngineSink@@IAE_NKPAXG@Z$2 00421fd0 f   DataBaseEngineSink.obj
 0001:00020fdb       __ehhandler$?OnRequestAppendConfig@CDataBaseEngineSink@@IAE_NKPAXG@Z 00421fdb f   DataBaseEngineSink.obj
 0001:00021010       __unwindfunclet$?OnRequestApplyDelete@CDataBaseEngineSink@@IAE_NKPAXG@Z$2 00422010 f   DataBaseEngineSink.obj
 0001:0002101b       __ehhandler$?OnRequestApplyDelete@CDataBaseEngineSink@@IAE_NKPAXG@Z 0042201b f   DataBaseEngineSink.obj
 0001:00021050       __unwindfunclet$?OnRequestApplyRequest@CDataBaseEngineSink@@IAE_NKPAXG@Z$2 00422050 f   DataBaseEngineSink.obj
 0001:0002105b       __unwindfunclet$?OnRequestApplyRequest@CDataBaseEngineSink@@IAE_NKPAXG@Z$3 0042205b f   DataBaseEngineSink.obj
 0001:00021066       __ehhandler$?OnRequestApplyRequest@CDataBaseEngineSink@@IAE_NKPAXG@Z 00422066 f   DataBaseEngineSink.obj
 0001:00021090       __unwindfunclet$?OnRequestApplyRespond@CDataBaseEngineSink@@IAE_NKPAXG@Z$2 00422090 f   DataBaseEngineSink.obj
 0001:0002109b       __unwindfunclet$?OnRequestApplyRespond@CDataBaseEngineSink@@IAE_NKPAXG@Z$3 0042209b f   DataBaseEngineSink.obj
 0001:000210a6       __ehhandler$?OnRequestApplyRespond@CDataBaseEngineSink@@IAE_NKPAXG@Z 004220a6 f   DataBaseEngineSink.obj
 0001:000210d0       __unwindfunclet$?OnRequestBlindCode@CDataBaseEngineSink@@IAE_NKPAXG@Z$2 004220d0 f   DataBaseEngineSink.obj
 0001:000210db       __ehhandler$?OnRequestBlindCode@CDataBaseEngineSink@@IAE_NKPAXG@Z 004220db f   DataBaseEngineSink.obj
 0001:00021110       __unwindfunclet$?OnRequestCaptainList@CDataBaseEngineSink@@IAE_NKPAXG@Z$2 00422110 f   DataBaseEngineSink.obj
 0001:0002111b       __ehhandler$?OnRequestCaptainList@CDataBaseEngineSink@@IAE_NKPAXG@Z 0042211b f   DataBaseEngineSink.obj
 0001:00021150       __ehhandler$?OnRequestCheckNewUser@CDataBaseEngineSink@@IAE_NKPAXG@Z 00422150 f   DataBaseEngineSink.obj
 0001:00021180       __ehhandler$?OnRequestClearMedal@CDataBaseEngineSink@@IAE_NKPAXG@Z 00422180 f   DataBaseEngineSink.obj
 0001:000211a0       __unwindfunclet$?OnRequestCreateGroup@CDataBaseEngineSink@@IAE_NKPAXG@Z$2 004221a0 f   DataBaseEngineSink.obj
 0001:000211ab       __ehhandler$?OnRequestCreateGroup@CDataBaseEngineSink@@IAE_NKPAXG@Z 004221ab f   DataBaseEngineSink.obj
 0001:000211e0       __unwindfunclet$?OnRequestDeleteConfig@CDataBaseEngineSink@@IAE_NKPAXG@Z$2 004221e0 f   DataBaseEngineSink.obj
 0001:000211eb       __ehhandler$?OnRequestDeleteConfig@CDataBaseEngineSink@@IAE_NKPAXG@Z 004221eb f   DataBaseEngineSink.obj
 0001:00021220       __unwindfunclet$?OnRequestDeleteGroup@CDataBaseEngineSink@@IAE_NKPAXG@Z$2 00422220 f   DataBaseEngineSink.obj
 0001:0002122b       __ehhandler$?OnRequestDeleteGroup@CDataBaseEngineSink@@IAE_NKPAXG@Z 0042222b f   DataBaseEngineSink.obj
 0001:00021260       __unwindfunclet$?OnRequestDeleteMember@CDataBaseEngineSink@@IAE_NKPAXG@Z$2 00422260 f   DataBaseEngineSink.obj
 0001:0002126b       __ehhandler$?OnRequestDeleteMember@CDataBaseEngineSink@@IAE_NKPAXG@Z 0042226b f   DataBaseEngineSink.obj
 0001:000212a0       __unwindfunclet$?OnRequestGetAwardScore@CDataBaseEngineSink@@IAE_NKPAXG@Z$2 004222a0 f   DataBaseEngineSink.obj
 0001:000212ab       __ehhandler$?OnRequestGetAwardScore@CDataBaseEngineSink@@IAE_NKPAXG@Z 004222ab f   DataBaseEngineSink.obj
 0001:000212e0       __unwindfunclet$?OnRequestGroupDayDetail@CDataBaseEngineSink@@IAE_NKPAXG@Z$2 004222e0 f   DataBaseEngineSink.obj
 0001:000212eb       __ehhandler$?OnRequestGroupDayDetail@CDataBaseEngineSink@@IAE_NKPAXG@Z 004222eb f   DataBaseEngineSink.obj
 0001:00021320       __unwindfunclet$?OnRequestInvitationCode@CDataBaseEngineSink@@IAE_NKPAXG@Z$2 00422320 f   DataBaseEngineSink.obj
 0001:0002132b       __ehhandler$?OnRequestInvitationCode@CDataBaseEngineSink@@IAE_NKPAXG@Z 0042232b f   DataBaseEngineSink.obj
 0001:00021360       __ehhandler$?OnRequestLoadForbidWords@CDataBaseEngineSink@@IAE_NKPAXG@Z 00422360 f   DataBaseEngineSink.obj
 0001:00021390       __ehhandler$?OnRequestLoadGroupConfig@CDataBaseEngineSink@@IAE_NKPAXG@Z 00422390 f   DataBaseEngineSink.obj
 0001:000213c0       __ehhandler$?OnRequestLoadGroupItem@CDataBaseEngineSink@@IAE_NKPAXG@Z 004223c0 f   DataBaseEngineSink.obj
 0001:000213f0       __ehhandler$?OnRequestLoadGroupList@CDataBaseEngineSink@@IAE_NKPAXG@Z 004223f0 f   DataBaseEngineSink.obj
 0001:00021420       __ehhandler$?OnRequestLoadGroupMember@CDataBaseEngineSink@@IAE_NKPAXG@Z 00422420 f   DataBaseEngineSink.obj
 0001:00021450       __ehhandler$?OnRequestLoadSingleGroup@CDataBaseEngineSink@@IAE_NKPAXG@Z 00422450 f   DataBaseEngineSink.obj
 0001:00021480       __unwindfunclet$?OnRequestLogonServer@CDataBaseEngineSink@@IAE_NKPAXG@Z$2 00422480 f   DataBaseEngineSink.obj
 0001:0002148b       __unwindfunclet$?OnRequestLogonServer@CDataBaseEngineSink@@IAE_NKPAXG@Z$3 0042248b f   DataBaseEngineSink.obj
 0001:00021496       __ehhandler$?OnRequestLogonServer@CDataBaseEngineSink@@IAE_NKPAXG@Z 00422496 f   DataBaseEngineSink.obj
 0001:000214c0       __unwindfunclet$?OnRequestModifyConfig@CDataBaseEngineSink@@IAE_NKPAXG@Z$2 004224c0 f   DataBaseEngineSink.obj
 0001:000214cb       __ehhandler$?OnRequestModifyConfig@CDataBaseEngineSink@@IAE_NKPAXG@Z 004224cb f   DataBaseEngineSink.obj
 0001:00021500       __unwindfunclet$?OnRequestModifyGroupName@CDataBaseEngineSink@@IAE_NKPAXG@Z$2 00422500 f   DataBaseEngineSink.obj
 0001:0002150b       __ehhandler$?OnRequestModifyGroupName@CDataBaseEngineSink@@IAE_NKPAXG@Z 0042250b f   DataBaseEngineSink.obj
 0001:00021540       __unwindfunclet$?OnRequestModifyInfo@CDataBaseEngineSink@@IAE_NKPAXG@Z$2 00422540 f   DataBaseEngineSink.obj
 0001:0002154b       __ehhandler$?OnRequestModifyInfo@CDataBaseEngineSink@@IAE_NKPAXG@Z 0042254b f   DataBaseEngineSink.obj
 0001:00021580       __unwindfunclet$?OnRequestModifyRight@CDataBaseEngineSink@@IAE_NKPAXG@Z$2 00422580 f   DataBaseEngineSink.obj
 0001:0002158b       __ehhandler$?OnRequestModifyRight@CDataBaseEngineSink@@IAE_NKPAXG@Z 0042258b f   DataBaseEngineSink.obj
 0001:000215c0       __unwindfunclet$?OnRequestOpenBox@CDataBaseEngineSink@@IAE_NKPAXG@Z$2 004225c0 f   DataBaseEngineSink.obj
 0001:000215cb       __ehhandler$?OnRequestOpenBox@CDataBaseEngineSink@@IAE_NKPAXG@Z 004225cb f   DataBaseEngineSink.obj
 0001:00021600       __unwindfunclet$?OnRequestPresentScore@CDataBaseEngineSink@@IAE_NKPAXG@Z$2 00422600 f   DataBaseEngineSink.obj
 0001:0002160b       __ehhandler$?OnRequestPresentScore@CDataBaseEngineSink@@IAE_NKPAXG@Z 0042260b f   DataBaseEngineSink.obj
 0001:00021640       __unwindfunclet$?OnRequestQueryBattle@CDataBaseEngineSink@@IAE_NKPAXG@Z$2 00422640 f   DataBaseEngineSink.obj
 0001:0002164b       __ehhandler$?OnRequestQueryBattle@CDataBaseEngineSink@@IAE_NKPAXG@Z 0042264b f   DataBaseEngineSink.obj
 0001:00021680       __unwindfunclet$?OnRequestQueryCreate@CDataBaseEngineSink@@IAE_NKPAXG@Z$2 00422680 f   DataBaseEngineSink.obj
 0001:0002168b       __ehhandler$?OnRequestQueryCreate@CDataBaseEngineSink@@IAE_NKPAXG@Z 0042268b f   DataBaseEngineSink.obj
 0001:000216c0       __unwindfunclet$?OnRequestQueryDayDetail@CDataBaseEngineSink@@IAE_NKPAXG@Z$2 004226c0 f   DataBaseEngineSink.obj
 0001:000216cb       __ehhandler$?OnRequestQueryDayDetail@CDataBaseEngineSink@@IAE_NKPAXG@Z 004226cb f   DataBaseEngineSink.obj
 0001:00021700       __unwindfunclet$?OnRequestQueryDayRecord@CDataBaseEngineSink@@IAE_NKPAXG@Z$2 00422700 f   DataBaseEngineSink.obj
 0001:0002170b       __ehhandler$?OnRequestQueryDayRecord@CDataBaseEngineSink@@IAE_NKPAXG@Z 0042270b f   DataBaseEngineSink.obj
 0001:00021740       __unwindfunclet$?OnRequestQueryMedalMode@CDataBaseEngineSink@@IAE_NKPAXG@Z$2 00422740 f   DataBaseEngineSink.obj
 0001:0002174b       __ehhandler$?OnRequestQueryMedalMode@CDataBaseEngineSink@@IAE_NKPAXG@Z 0042274b f   DataBaseEngineSink.obj
 0001:00021780       __unwindfunclet$?OnRequestQueryPresent@CDataBaseEngineSink@@IAE_NKPAXG@Z$2 00422780 f   DataBaseEngineSink.obj
 0001:0002178b       __ehhandler$?OnRequestQueryPresent@CDataBaseEngineSink@@IAE_NKPAXG@Z 0042278b f   DataBaseEngineSink.obj
 0001:000217c0       __unwindfunclet$?OnRequestQueryRevenue@CDataBaseEngineSink@@IAE_NKPAXG@Z$2 004227c0 f   DataBaseEngineSink.obj
 0001:000217cb       __ehhandler$?OnRequestQueryRevenue@CDataBaseEngineSink@@IAE_NKPAXG@Z 004227cb f   DataBaseEngineSink.obj
 0001:00021800       __unwindfunclet$?OnRequestQueryScore@CDataBaseEngineSink@@IAE_NKPAXG@Z$2 00422800 f   DataBaseEngineSink.obj
 0001:0002180b       __ehhandler$?OnRequestQueryScore@CDataBaseEngineSink@@IAE_NKPAXG@Z 0042280b f   DataBaseEngineSink.obj
 0001:00021840       __unwindfunclet$?OnRequestQueryTotalBattle@CDataBaseEngineSink@@IAE_NKPAXG@Z$2 00422840 f   DataBaseEngineSink.obj
 0001:0002184b       __ehhandler$?OnRequestQueryTotalBattle@CDataBaseEngineSink@@IAE_NKPAXG@Z 0042284b f   DataBaseEngineSink.obj
 0001:00021880       __unwindfunclet$?OnRequestRightManagement@CDataBaseEngineSink@@IAE_NKPAXG@Z$2 00422880 f   DataBaseEngineSink.obj
 0001:0002188b       __ehhandler$?OnRequestRightManagement@CDataBaseEngineSink@@IAE_NKPAXG@Z 0042288b f   DataBaseEngineSink.obj
 0001:000218c0       __unwindfunclet$?OnRequestRoomDetail@CDataBaseEngineSink@@IAE_NKPAXG@Z$2 004228c0 f   DataBaseEngineSink.obj
 0001:000218cb       __ehhandler$?OnRequestRoomDetail@CDataBaseEngineSink@@IAE_NKPAXG@Z 004228cb f   DataBaseEngineSink.obj
 0001:00021900       __unwindfunclet$?OnRequestSetBigWinner@CDataBaseEngineSink@@IAE_NKPAXG@Z$2 00422900 f   DataBaseEngineSink.obj
 0001:0002190b       __ehhandler$?OnRequestSetBigWinner@CDataBaseEngineSink@@IAE_NKPAXG@Z 0042290b f   DataBaseEngineSink.obj
 0001:00021940       __unwindfunclet$?OnRequestSetCaptainPoint@CDataBaseEngineSink@@IAE_NKPAXG@Z$2 00422940 f   DataBaseEngineSink.obj
 0001:0002194b       __ehhandler$?OnRequestSetCaptainPoint@CDataBaseEngineSink@@IAE_NKPAXG@Z 0042294b f   DataBaseEngineSink.obj
 0001:00021980       __unwindfunclet$?OnRequestSetFavoriteConfig@CDataBaseEngineSink@@IAE_NKPAXG@Z$2 00422980 f   DataBaseEngineSink.obj
 0001:0002198b       __ehhandler$?OnRequestSetFavoriteConfig@CDataBaseEngineSink@@IAE_NKPAXG@Z 0042298b f   DataBaseEngineSink.obj
 0001:000219c0       __unwindfunclet$?OnRequestSetFlag@CDataBaseEngineSink@@IAE_NKPAXG@Z$2 004229c0 f   DataBaseEngineSink.obj
 0001:000219cb       __ehhandler$?OnRequestSetFlag@CDataBaseEngineSink@@IAE_NKPAXG@Z 004229cb f   DataBaseEngineSink.obj
 0001:00021a00       __unwindfunclet$?OnRequestSetFreeTableLimit@CDataBaseEngineSink@@IAE_NKPAXG@Z$2 00422a00 f   DataBaseEngineSink.obj
 0001:00021a0b       __ehhandler$?OnRequestSetFreeTableLimit@CDataBaseEngineSink@@IAE_NKPAXG@Z 00422a0b f   DataBaseEngineSink.obj
 0001:00021a40       __unwindfunclet$?OnRequestSetGroupStatus@CDataBaseEngineSink@@IAE_NKPAXG@Z$2 00422a40 f   DataBaseEngineSink.obj
 0001:00021a4b       __ehhandler$?OnRequestSetGroupStatus@CDataBaseEngineSink@@IAE_NKPAXG@Z 00422a4b f   DataBaseEngineSink.obj
 0001:00021a80       __unwindfunclet$?OnRequestSetInOut@CDataBaseEngineSink@@IAE_NKPAXG@Z$2 00422a80 f   DataBaseEngineSink.obj
 0001:00021a8b       __ehhandler$?OnRequestSetInOut@CDataBaseEngineSink@@IAE_NKPAXG@Z 00422a8b f   DataBaseEngineSink.obj
 0001:00021ac0       __unwindfunclet$?OnRequestSetMedal@CDataBaseEngineSink@@IAE_NKPAXG@Z$2 00422ac0 f   DataBaseEngineSink.obj
 0001:00021acb       __ehhandler$?OnRequestSetMedal@CDataBaseEngineSink@@IAE_NKPAXG@Z 00422acb f   DataBaseEngineSink.obj
 0001:00021b00       __unwindfunclet$?OnRequestSetPrivacy@CDataBaseEngineSink@@IAE_NKPAXG@Z$2 00422b00 f   DataBaseEngineSink.obj
 0001:00021b0b       __ehhandler$?OnRequestSetPrivacy@CDataBaseEngineSink@@IAE_NKPAXG@Z 00422b0b f   DataBaseEngineSink.obj
 0001:00021b40       __unwindfunclet$?OnRequestSetRollMSg@CDataBaseEngineSink@@IAE_NKPAXG@Z$2 00422b40 f   DataBaseEngineSink.obj
 0001:00021b4b       __ehhandler$?OnRequestSetRollMSg@CDataBaseEngineSink@@IAE_NKPAXG@Z 00422b4b f   DataBaseEngineSink.obj
 0001:00021b80       __unwindfunclet$?OnRequestSettleBattle@CDataBaseEngineSink@@IAE_NKPAXG@Z$2 00422b80 f   DataBaseEngineSink.obj
 0001:00021b8b       __ehhandler$?OnRequestSettleBattle@CDataBaseEngineSink@@IAE_NKPAXG@Z 00422b8b f   DataBaseEngineSink.obj
 0001:00021bc0       __unwindfunclet$?OnRequestTeamerDayRecord@CDataBaseEngineSink@@IAE_NKPAXG@Z$2 00422bc0 f   DataBaseEngineSink.obj
 0001:00021bcb       __ehhandler$?OnRequestTeamerDayRecord@CDataBaseEngineSink@@IAE_NKPAXG@Z 00422bcb f   DataBaseEngineSink.obj
 0001:00021c00       __unwindfunclet$?OnRequestUpdateGroup@CDataBaseEngineSink@@IAE_NKPAXG@Z$2 00422c00 f   DataBaseEngineSink.obj
 0001:00021c0b       __unwindfunclet$?OnRequestUpdateGroup@CDataBaseEngineSink@@IAE_NKPAXG@Z$3 00422c0b f   DataBaseEngineSink.obj
 0001:00021c16       __unwindfunclet$?OnRequestUpdateGroup@CDataBaseEngineSink@@IAE_NKPAXG@Z$4 00422c16 f   DataBaseEngineSink.obj
 0001:00021c21       __ehhandler$?OnRequestUpdateGroup@CDataBaseEngineSink@@IAE_NKPAXG@Z 00422c21 f   DataBaseEngineSink.obj
 0001:00021c50       __ehhandler$?OnRequestUpdateMember@CDataBaseEngineSink@@IAE_NKPAXG@Z 00422c50 f   DataBaseEngineSink.obj
 0001:00021c80       __ehhandler$?OnRequestUpdateOnlineStatus@CDataBaseEngineSink@@IAE_NKPAXG@Z 00422c80 f   DataBaseEngineSink.obj
 0001:00021cb0       __unwindfunclet$?TraceDatabaseException@CDataBaseEngineSink@@IAEXPAD0HPAUIDataBaseException@@@Z$0 00422cb0 f   DataBaseEngineSink.obj
 0001:00021cbc       __ehhandler$?TraceDatabaseException@CDataBaseEngineSink@@IAEXPAD0HPAUIDataBaseException@@@Z 00422cbc f   DataBaseEngineSink.obj
 0001:00021cf0       __unwindfunclet$??0CGroupInfoManager@@QAE@XZ$0 00422cf0 f   GroupInfoManager.obj
 0001:00021cfb       __unwindfunclet$??0CGroupInfoManager@@QAE@XZ$1 00422cfb f   GroupInfoManager.obj
 0001:00021d06       __ehhandler$??0CGroupInfoManager@@QAE@XZ 00422d06 f   GroupInfoManager.obj
 0001:00021d30       __unwindfunclet$??1CGroupInfoManager@@UAE@XZ$4 00422d30 f   GroupInfoManager.obj
 0001:00021d3b       __unwindfunclet$??1CGroupInfoManager@@UAE@XZ$5 00422d3b f   GroupInfoManager.obj
 0001:00021d46       __unwindfunclet$??1CGroupInfoManager@@UAE@XZ$7 00422d46 f   GroupInfoManager.obj
 0001:00021d4c       __ehhandler$??1CGroupInfoManager@@UAE@XZ 00422d4c f   GroupInfoManager.obj
 0001:00021d70       __ehhandler$?ActiveGroupItem@CGroupInfoManager@@UAE_NAAUtagIMGroupItem@@@Z 00422d70 f   GroupInfoManager.obj
 0001:00021d90       __unwindfunclet$?LoadInitParameter@CInitParameter@@QAEXXZ$0 00422d90 f   InitParameter.obj
 0001:00021d9c       __ehhandler$?LoadInitParameter@CInitParameter@@QAEXXZ 00422d9c f   InitParameter.obj
 0001:00021dd0       __unwindfunclet$??0CServerListManager@NServerListManager@@QAE@XZ$0 00422dd0 f   ServerListManager.obj
 0001:00021ddb       __unwindfunclet$??0CServerListManager@NServerListManager@@QAE@XZ$1 00422ddb f   ServerListManager.obj
 0001:00021de6       __ehhandler$??0CServerListManager@NServerListManager@@QAE@XZ 00422de6 f   ServerListManager.obj
 0001:00021e10       __unwindfunclet$??1CServerListManager@NServerListManager@@UAE@XZ$4 00422e10 f   ServerListManager.obj
 0001:00021e1b       __unwindfunclet$??1CServerListManager@NServerListManager@@UAE@XZ$5 00422e1b f   ServerListManager.obj
 0001:00021e26       __unwindfunclet$??1CServerListManager@NServerListManager@@UAE@XZ$7 00422e26 f   ServerListManager.obj
 0001:00021e2c       __ehhandler$??1CServerListManager@NServerListManager@@UAE@XZ 00422e2c f   ServerListManager.obj
 0001:00021e50       __ehhandler$?InsertGameServer@CServerListManager@NServerListManager@@QAE_NPAUtagGameServer@@@Z 00422e50 f   ServerListManager.obj
 0001:00021e70       __unwindfunclet$??0CLocalUserItem@@IAE@XZ$0 00422e70 f   ServerUserManager.obj
 0001:00021e78       __unwindfunclet$??0CLocalUserItem@@IAE@XZ$1 00422e78 f   ServerUserManager.obj
 0001:00021e83       __ehhandler$??0CLocalUserItem@@IAE@XZ 00422e83 f   ServerUserManager.obj
 0001:00021ea0       __unwindfunclet$??0CServerUserManager@@QAE@XZ$0 00422ea0 f   ServerUserManager.obj
 0001:00021eab       __unwindfunclet$??0CServerUserManager@@QAE@XZ$1 00422eab f   ServerUserManager.obj
 0001:00021eb6       __unwindfunclet$??0CServerUserManager@@QAE@XZ$2 00422eb6 f   ServerUserManager.obj
 0001:00021ec1       __ehhandler$??0CServerUserManager@@QAE@XZ 00422ec1 f   ServerUserManager.obj
 0001:00021ee0       __ehhandler$??1?$CMap@DDPAVCWordNode@@PAV1@@@UAE@XZ 00422ee0 f   WordFilter.obj
 0001:00021ee0       __ehhandler$??1?$CMap@KKPAVCServerUserItem@@PAV1@@@UAE@XZ 00422ee0 f   ServerUserManager.obj
 0001:00021ee0       __ehhandler$??1?$CMap@KKPAVCGroupItem@@PAV1@@@UAE@XZ 00422ee0 f   GroupInfoManager.obj
 0001:00021ee0       __ehhandler$??1?$CMap@GGPAVCGameServerItem@NServerListManager@@AAPAV12@@@UAE@XZ 00422ee0 f   ServerListManager.obj
 0001:00021f00       __unwindfunclet$??1CServerUserManager@@UAE@XZ$4 00422f00 f   ServerUserManager.obj
 0001:00021f0b       __unwindfunclet$??1CServerUserManager@@UAE@XZ$5 00422f0b f   ServerUserManager.obj
 0001:00021f16       __unwindfunclet$??1CServerUserManager@@UAE@XZ$6 00422f16 f   ServerUserManager.obj
 0001:00021f21       __unwindfunclet$??1CServerUserManager@@UAE@XZ$9 00422f21 f   ServerUserManager.obj
 0001:00021f27       __ehhandler$??1CServerUserManager@@UAE@XZ 00422f27 f   ServerUserManager.obj
 0001:00021f50       __unwindfunclet$?InsertLocalUserItem@CServerUserManager@@UAEPAVCLocalUserItem@@AAUtagIMUserInfo@@PB_W@Z$2 00422f50 f   ServerUserManager.obj
 0001:00021f62       __ehhandler$?InsertLocalUserItem@CServerUserManager@@UAEPAVCLocalUserItem@@AAUtagIMUserInfo@@PB_W@Z 00422f62 f   ServerUserManager.obj
 0001:00021f80       __ehhandler$?InsertRemoteUserItem@CServerUserManager@@UAEPAVCRemoteUserItem@@AAUtagIMUserInfo@@@Z 00422f80 f   ServerUserManager.obj
 0001:00021fa0       __unwindfunclet$??0CServiceUnits@@QAE@XZ$0 00422fa0 f   ServiceUnits.obj
 0001:00021fa8       __unwindfunclet$??0CServiceUnits@@QAE@XZ$1 00422fa8 f   ServiceUnits.obj
 0001:00021fb6       __unwindfunclet$??0CServiceUnits@@QAE@XZ$2 00422fb6 f   ServiceUnits.obj
 0001:00021fc4       __unwindfunclet$??0CServiceUnits@@QAE@XZ$3 00422fc4 f   ServiceUnits.obj
 0001:00021fdf       __unwindfunclet$??0CServiceUnits@@QAE@XZ$4 00422fdf f   ServiceUnits.obj
 0001:00021fee       __unwindfunclet$??0CServiceUnits@@QAE@XZ$15 00422fee f   ServiceUnits.obj
 0001:00021ff6       __ehhandler$??0CServiceUnits@@QAE@XZ 00422ff6 f   ServiceUnits.obj
 0001:00022020       __unwindfunclet$??1CServiceUnits@@UAE@XZ$0 00423020 f   ServiceUnits.obj
 0001:00022026       __unwindfunclet$??1CServiceUnits@@UAE@XZ$3 00423026 f   ServiceUnits.obj
 0001:0002202c       __unwindfunclet$??1CServiceUnits@@UAE@XZ$5 0042302c f   ServiceUnits.obj
 0001:00022032       __unwindfunclet$??1CServiceUnits@@UAE@XZ$7 00423032 f   ServiceUnits.obj
 0001:00022038       __unwindfunclet$??1CServiceUnits@@UAE@XZ$9 00423038 f   ServiceUnits.obj
 0001:0002203e       __unwindfunclet$??1CServiceUnits@@UAE@XZ$11 0042303e f   ServiceUnits.obj
 0001:00022044       __unwindfunclet$??1CServiceUnits@@UAE@XZ$13 00423044 f   ServiceUnits.obj
 0001:0002204a       __unwindfunclet$??1CServiceUnits@@UAE@XZ$15 0042304a f   ServiceUnits.obj
 0001:00022050       __unwindfunclet$??1CServiceUnits@@UAE@XZ$17 00423050 f   ServiceUnits.obj
 0001:00022056       __ehhandler$??1CServiceUnits@@UAE@XZ 00423056 f   ServiceUnits.obj
 0001:00022080       __ehhandler$?CreateInstance@?$CTempldateHelper@UIAttemperEngine@@@@QAE_NXZ 00423080 f   ServiceUnits.obj
 0001:00022080       __ehhandler$?CreateInstance@?$CTempldateHelper@UITCPSocketService@@@@QAE_NXZ 00423080 f   ServiceUnits.obj
 0001:00022080       __ehhandler$?CreateInstance@?$CTempldateHelper@UIDataBaseEngine@@@@QAE_NXZ 00423080 f   ServiceUnits.obj
 0001:00022080       __ehhandler$?CreateInstance@?$CTempldateHelper@UITimerEngine@@@@QAE_NXZ 00423080 f   ServiceUnits.obj
 0001:00022080       __ehhandler$?CreateInstance@?$CTempldateHelper@UIDataBase@@@@QAE_NXZ 00423080 f   DataBaseEngineSink.obj
 0001:00022080       __ehhandler$?CreateInstance@?$CTempldateHelper@UITCPNetworkEngine@@@@QAE_NXZ 00423080 f   ServiceUnits.obj
 0001:000220a0       __unwindfunclet$?OnUIControlRequest@CServiceUnits@@IAEJIJ@Z$0 004230a0 f   ServiceUnits.obj
 0001:000220ac       __ehhandler$?OnUIControlRequest@CServiceUnits@@IAEJIJ@Z 004230ac f   ServiceUnits.obj
 0001:000220e0       __unwindfunclet$?PostControlRequest@CServiceUnits@@UAA_NGPAXG@Z$0 004230e0 f   ServiceUnits.obj
 0001:000220e9       __ehhandler$?PostControlRequest@CServiceUnits@@UAA_NGPAXG@Z 004230e9 f   ServiceUnits.obj
 0001:00022110       __unwindfunclet$??0CWordFilter@@QAE@XZ$0 00423110 f   WordFilter.obj
 0001:0002211b       __ehhandler$??0CWordFilter@@QAE@XZ 0042311b f   WordFilter.obj
 0001:00022140       __unwindfunclet$??1CWordNode@@UAE@XZ$2 00423140 f   WordFilter.obj
 0001:0002214b       __unwindfunclet$??1CWordNode@@UAE@XZ$3 0042314b f   WordFilter.obj
 0001:00022157       __unwindfunclet$??1CWordNode@@UAE@XZ$4 00423157 f   WordFilter.obj
 0001:0002215d       __ehhandler$??1CWordNode@@UAE@XZ 0042315d f   WordFilter.obj
 0001:00022180       __unwindfunclet$?FilterWords@CWordFilter@@QAE_NPB_W@Z$0 00423180 f   WordFilter.obj
 0001:0002218b       __ehhandler$?FilterWords@CWordFilter@@QAE_NPB_W@Z 0042318b f   WordFilter.obj
 0001:000221c0       __ehhandler$?InsertChild@CWordNode@@QAEPAV1@D@Z 004231c0 f   WordFilter.obj
 0001:000221e0       __unwindfunclet$?InsertKeyword@CWordFilter@@QAE_NPB_W@Z$0 004231e0 f   WordFilter.obj
 0001:000221eb       __ehhandler$?InsertKeyword@CWordFilter@@QAE_NPB_W@Z 004231eb f   WordFilter.obj
 0001:00022220       __ehhandler$?RebuildTree@CWordTree@@IAEXXZ 00423220 f   WordFilter.obj
 0001:00022240       ??__FtheApp@@YAXXZ         00423240 f   AccessServer.obj
 0001:00022250       ??__FstrFile@?1??SendLogData@CAttemperEngineSink@@IAAXPB_WZZ@YAXXZ 00423250 f   AttemperEngineSink.obj
 0001:0002225b       ??__F_AtlBaseModule@ATL@@YAXXZ 0042325b f   atls:atlbase.obj
 0002:000005a8       ?pre_cpp_initializer@@3P6AXXZA 004245a8     msvcrt:exe_wwinmain.obj
 0002:000005ac       ?_AtlBaseModule$initializer$@ATL@@3P6AXXZA 004245ac     atls:atlbase.obj
 0002:000005b0       ?_afxInitAppState$initializer$@@3P6AXXZA 004245b0     mfcs140u:appmodul.obj
 0002:000005b4       ?theApp$initializer$@@3P6AXXZA 004245b4     AccessServer.obj
 0002:000005c0       ?pre_c_initializer@@3P6AHXZA 004245c0     msvcrt:exe_wwinmain.obj
 0002:000005c4       ?post_pgo_initializer@@3P6AHXZA 004245c4     msvcrt:exe_wwinmain.obj
 0002:000005c8       ?__scrt_initialize_tss_var@@3P6AHXZA 004245c8     msvcrt:thread_safe_statics.obj
 0002:000005f0       ?szProduct@@3QB_WB         004245f0     AccessServer.obj
 0002:00000720       ?_messageEntries@?1??GetThisMessageMap@CAccessServerApp@@KGPBUAFX_MSGMAP@@XZ@4QBUAFX_MSGMAP_ENTRY@@B 00424720     AccessServer.obj
 0002:00000738       ?messageMap@?1??GetThisMessageMap@CAccessServerApp@@KGPBUAFX_MSGMAP@@XZ@4U3@B 00424738     AccessServer.obj
 0002:000008e8       ?_messageEntries@?1??GetThisMessageMap@CAccessServerDlg@@KGPBUAFX_MSGMAP@@XZ@4QBUAFX_MSGMAP_ENTRY@@B 004248e8     AccessServerDlg.obj
 0002:00000960       ?messageMap@?1??GetThisMessageMap@CAccessServerDlg@@KGPBUAFX_MSGMAP@@XZ@4U3@B 00424960     AccessServerDlg.obj
 0002:00000a68       ?IID_IAttemperEngineSink@@3U_GUID@@B 00424a68     AttemperEngineSink.obj
 0002:00000a78       ?IID_IUnknownEx@@3U_GUID@@B 00424a78     AttemperEngineSink.obj
 0002:00002050       ?IID_IUnknownEx@@3U_GUID@@B 00426050     DataBaseEngineSink.obj
 0002:00002060       ?IID_IDataBase@@3U_GUID@@B 00426060     DataBaseEngineSink.obj
 0002:00002070       ?IID_IDataBaseEngineSink@@3U_GUID@@B 00426070     DataBaseEngineSink.obj
 0002:00004f60       ?szGroupDB@@3QB_WB         00428f60     InitParameter.obj
 0002:000052d0       ?IID_ITCPNetworkEngine@@3U_GUID@@B 004292d0     ServiceUnits.obj
 0002:000052e0       ?IID_ITCPSocketService@@3U_GUID@@B 004292e0     ServiceUnits.obj
 0002:000052f0       ?IID_ITimerEngine@@3U_GUID@@B 004292f0     ServiceUnits.obj
 0002:00005300       ?szCompilation@@3QB_WB     00429300     ServiceUnits.obj
 0002:0000534c       ?IID_IDataBaseEngineEvent@@3U_GUID@@B 0042934c     ServiceUnits.obj
 0002:0000535c       ?IID_IAttemperEngine@@3U_GUID@@B 0042935c     ServiceUnits.obj
 0002:0000536c       ?IID_IUnknownEx@@3U_GUID@@B 0042936c     ServiceUnits.obj
 0002:0000537c       ?IID_IDataBaseEngine@@3U_GUID@@B 0042937c     ServiceUnits.obj
 0002:00005610       ?_messageEntries@?1??GetThisMessageMap@CServiceUnits@@KGPBUAFX_MSGMAP@@XZ@4QBUAFX_MSGMAP_ENTRY@@B 00429610     ServiceUnits.obj
 0002:00005640       ?messageMap@?1??GetThisMessageMap@CServiceUnits@@KGPBUAFX_MSGMAP@@XZ@4U3@B 00429640     ServiceUnits.obj
 0002:00005658       ?IID_ITCPNetworkEngine@@3U_GUID@@B 00429658     Stdafx.obj
 0002:00005668       ?IID_ITCPSocketService@@3U_GUID@@B 00429668     Stdafx.obj
 0002:00005678       ?IID_IWEBSocketService@@3U_GUID@@B 00429678     Stdafx.obj
 0002:00005688       ?IID_ITimerEngine@@3U_GUID@@B 00429688     Stdafx.obj
 0002:00005698       ?IID_IAttemperEngine@@3U_GUID@@B 00429698     Stdafx.obj
 0002:000056a8       ?IID_ITraceServiceManager@@3U_GUID@@B 004296a8     Stdafx.obj
 0002:000056b8       ?IID_IAsynchronismEngine@@3U_GUID@@B 004296b8     Stdafx.obj
 0002:000056c8       ?IID_IDataBase@@3U_GUID@@B 004296c8     Stdafx.obj
 0002:000056d8       ?IID_IDataBaseEngine@@3U_GUID@@B 004296d8     Stdafx.obj
 0002:000056e8       ?IID_IUDPNetworkEngine@@3U_GUID@@B 004296e8     Stdafx.obj
 0002:000057c0       _Int32ToUInt32             004297c0     msvcrt:_ftol3_.obj
 0002:000057c8       _DP2to32                   004297c8     msvcrt:_ftol3_.obj
 0002:000057d0       _MantissaMask              004297d0     msvcrt:_ftol3_.obj
 0002:000057d8       _IntegerBit                004297d8     msvcrt:_ftol3_.obj
 0002:000057e0       _SignBit64                 004297e0     msvcrt:_ftol3_.obj
 0002:000057e8       _MinFP64                   004297e8     msvcrt:_ftol3_.obj
 0002:000057f0       _MinInt64                  004297f0     msvcrt:_ftol3_.obj
 0002:000057f8       _MaxInt64                  004297f8     msvcrt:_ftol3_.obj
 0002:00005800       _MaxUInt64                 00429800     msvcrt:_ftol3_.obj
 0002:00005808       _MaxFP32                   00429808     msvcrt:_ftol3_.obj
 0002:00005810       _MinFP32                   00429810     msvcrt:_ftol3_.obj
 0002:00005818       _MinSubInexact             00429818     msvcrt:_ftol3_.obj
 0002:00005820       _FpExcptTable              00429820     msvcrt:_ftol3_.obj
 0002:00005830       _i1075                     00429830     msvcrt:_ftol3_.obj
 0002:00005834       _i1087                     00429834     msvcrt:_ftol3_.obj
 0002:00005838       _x0800                     00429838     msvcrt:_ftol3_.obj
 0002:0000583c       _x17FF                     0042983c     msvcrt:_ftol3_.obj
 0002:00005840       _CWMask                    00429840     msvcrt:_ftol3_.obj
 0002:00005844       _GS_ExceptionPointers      00429844     msvcrt:gs_report.obj
 0002:00006e98       __unwindtable$?InitInstance@CAccessServerApp@@UAEHXZ 0042ae98     AccessServer.obj
 0002:00006ea0       __ehfuncinfo$?InitInstance@CAccessServerApp@@UAEHXZ 0042aea0     AccessServer.obj
 0002:00006ec4       __unwindtable$??0CAccessServerDlg@@QAE@XZ 0042aec4     AccessServerDlg.obj
 0002:00006ed4       __ehfuncinfo$??0CAccessServerDlg@@QAE@XZ 0042aed4     AccessServerDlg.obj
 0002:00006ef8       __catchsym$?OnBnClickedStartService@CAccessServerDlg@@IAEXXZ$2 0042aef8     AccessServerDlg.obj
 0002:00006f08       __unwindtable$?OnBnClickedStartService@CAccessServerDlg@@IAEXXZ 0042af08     AccessServerDlg.obj
 0002:00006f18       __tryblocktable$?OnBnClickedStartService@CAccessServerDlg@@IAEXXZ 0042af18     AccessServerDlg.obj
 0002:00006f2c       __ehfuncinfo$?OnBnClickedStartService@CAccessServerDlg@@IAEXXZ 0042af2c     AccessServerDlg.obj
 0002:00006f50       __catchsym$?OnBnClickedStopService@CAccessServerDlg@@IAEXXZ$2 0042af50     AccessServerDlg.obj
 0002:00006f60       __unwindtable$?OnBnClickedStopService@CAccessServerDlg@@IAEXXZ 0042af60     AccessServerDlg.obj
 0002:00006f70       __tryblocktable$?OnBnClickedStopService@CAccessServerDlg@@IAEXXZ 0042af70     AccessServerDlg.obj
 0002:00006f84       __ehfuncinfo$?OnBnClickedStopService@CAccessServerDlg@@IAEXXZ 0042af84     AccessServerDlg.obj
 0002:00006fa8       __ehfuncinfo$??0CAttemperEngineSink@@QAE@XZ 0042afa8     AttemperEngineSink.obj
 0002:00006fcc       __unwindtable$??0CAttemperEngineSink@@QAE@XZ 0042afcc     AttemperEngineSink.obj
 0002:00006ff4       __unwindtable$?OnEventTimer@CAttemperEngineSink@@UAE_NKI@Z 0042aff4     AttemperEngineSink.obj
 0002:00006ffc       __ehfuncinfo$?OnEventTimer@CAttemperEngineSink@@UAE_NKI@Z 0042affc     AttemperEngineSink.obj
 0002:00007020       __catchsym$?OnEventDataBase@CAttemperEngineSink@@UAE_NGKPAXG@Z$3 0042b020     AttemperEngineSink.obj
 0002:00007030       __tryblocktable$?OnEventDataBase@CAttemperEngineSink@@UAE_NGKPAXG@Z 0042b030     AttemperEngineSink.obj
 0002:00007044       __unwindtable$?OnEventDataBase@CAttemperEngineSink@@UAE_NGKPAXG@Z 0042b044     AttemperEngineSink.obj
 0002:0000705c       __ehfuncinfo$?OnEventDataBase@CAttemperEngineSink@@UAE_NGKPAXG@Z 0042b05c     AttemperEngineSink.obj
 0002:00007080       __catchsym$?OnEventTCPSocketRead@CAttemperEngineSink@@UAE_NGUTCP_Command@@PAXG@Z$4 0042b080     AttemperEngineSink.obj
 0002:00007090       __tryblocktable$?OnEventTCPSocketRead@CAttemperEngineSink@@UAE_NGUTCP_Command@@PAXG@Z 0042b090     AttemperEngineSink.obj
 0002:000070a4       __unwindtable$?OnEventTCPSocketRead@CAttemperEngineSink@@UAE_NGUTCP_Command@@PAXG@Z 0042b0a4     AttemperEngineSink.obj
 0002:000070c4       __ehfuncinfo$?OnEventTCPSocketRead@CAttemperEngineSink@@UAE_NGUTCP_Command@@PAXG@Z 0042b0c4     AttemperEngineSink.obj
 0002:000070e8       __unwindtable$?OnEventTCPNetworkRead@CAttemperEngineSink@@UAE_NUTCP_Command@@PAXGK@Z 0042b0e8     AttemperEngineSink.obj
 0002:000070f0       __ehfuncinfo$?OnEventTCPNetworkRead@CAttemperEngineSink@@UAE_NUTCP_Command@@PAXGK@Z 0042b0f0     AttemperEngineSink.obj
 0002:00007114       __unwindtable$?OnTCPSocketBattleMainBattleService@CAttemperEngineSink@@IAE_NGPAXG@Z 0042b114     AttemperEngineSink.obj
 0002:00007124       __ehfuncinfo$?OnTCPSocketBattleMainBattleService@CAttemperEngineSink@@IAE_NGPAXG@Z 0042b124     AttemperEngineSink.obj
 0002:00007148       __unwindtable$?OnTCPNetworkMainLogicService@CAttemperEngineSink@@IAE_NGPAXGK@Z 0042b148     AttemperEngineSink.obj
 0002:00007150       __ehfuncinfo$?OnTCPNetworkMainLogicService@CAttemperEngineSink@@IAE_NGPAXGK@Z 0042b150     AttemperEngineSink.obj
 0002:00007174       __unwindtable$?OnDBGroupMember@CAttemperEngineSink@@IAE_NKPAXG@Z 0042b174     AttemperEngineSink.obj
 0002:0000717c       __ehfuncinfo$?OnDBGroupMember@CAttemperEngineSink@@IAE_NKPAXG@Z 0042b17c     AttemperEngineSink.obj
 0002:000071a0       __unwindtable$?OnDBPresentSuccess@CAttemperEngineSink@@IAE_NKPAXG@Z 0042b1a0     AttemperEngineSink.obj
 0002:000071a8       __ehfuncinfo$?OnDBPresentSuccess@CAttemperEngineSink@@IAE_NKPAXG@Z 0042b1a8     AttemperEngineSink.obj
 0002:000071cc       __unwindtable$?SendLogData@CAttemperEngineSink@@IAAXPB_WZZ 0042b1cc     AttemperEngineSink.obj
 0002:000071dc       __ehfuncinfo$?SendLogData@CAttemperEngineSink@@IAAXPB_WZZ 0042b1dc     AttemperEngineSink.obj
 0002:00007200       __unwindtable$?OnEventUserLogon@CAttemperEngineSink@@IAE_NPAVCLocalUserItem@@@Z 0042b200     AttemperEngineSink.obj
 0002:00007208       __ehfuncinfo$?OnEventUserLogon@CAttemperEngineSink@@IAE_NPAVCLocalUserItem@@@Z 0042b208     AttemperEngineSink.obj
 0002:0000722c       __unwindtable$??_GCTCPNetworkEngineHelper@@UAEPAXI@Z 0042b22c     ServiceUnits.obj
 0002:0000722c       __unwindtable$??1CGroupItem@@MAE@XZ 0042b22c     GroupInfoManager.obj
 0002:0000722c       __unwindtable$??_G?$CTempldateHelper@UITCPNetworkEngine@@@@UAEPAXI@Z 0042b22c     ServiceUnits.obj
 0002:0000722c       __unwindtable$??_G?$CMap@KKPAVCGroupItem@@PAV1@@@UAEPAXI@Z 0042b22c     GroupInfoManager.obj
 0002:0000722c       __unwindtable$??_G?$CMap@KKUtagClubTableInfo@@AAU1@@@UAEPAXI@Z 0042b22c     GroupInfoManager.obj
 0002:0000722c       __unwindtable$??_GCTimerEngineHelper@@UAEPAXI@Z 0042b22c     ServiceUnits.obj
 0002:0000722c       __unwindtable$??_GCTCPSocketServiceHelper@@UAEPAXI@Z 0042b22c     ServiceUnits.obj
 0002:0000722c       __unwindtable$??_G?$CTempldateHelper@UIDataBase@@@@UAEPAXI@Z 0042b22c     DataBaseEngineSink.obj
 0002:0000722c       __unwindtable$??_G?$CTempldateHelper@UITCPSocketService@@@@UAEPAXI@Z 0042b22c     ServiceUnits.obj
 0002:0000722c       __unwindtable$??_GCDataBaseHelper@@UAEPAXI@Z 0042b22c     DataBaseEngineSink.obj
 0002:0000722c       __unwindtable$??_G?$CMap@KKPAVCServerUserItem@@PAV1@@@UAEPAXI@Z 0042b22c     ServerUserManager.obj
 0002:0000722c       __unwindtable$??_G?$CMap@GGPAVCGameServerItem@NServerListManager@@AAPAV12@@@UAEPAXI@Z 0042b22c     ServerListManager.obj
 0002:0000722c       __unwindtable$??_GCAttemperEngineHelper@@UAEPAXI@Z 0042b22c     ServiceUnits.obj
 0002:0000722c       __unwindtable$??1CDataBaseEngineSink@@UAE@XZ 0042b22c     DataBaseEngineSink.obj
 0002:0000722c       __unwindtable$??_G?$CTempldateHelper@UIAttemperEngine@@@@UAEPAXI@Z 0042b22c     ServiceUnits.obj
 0002:0000722c       __unwindtable$??_G?$CMap@DDPAVCWordNode@@PAV1@@@UAEPAXI@Z 0042b22c     WordFilter.obj
 0002:0000722c       __unwindtable$??_GCDataBaseEngineHelper@@UAEPAXI@Z 0042b22c     ServiceUnits.obj
 0002:0000722c       __unwindtable$??_G?$CTempldateHelper@UITimerEngine@@@@UAEPAXI@Z 0042b22c     ServiceUnits.obj
 0002:0000722c       __unwindtable$??_G?$CTempldateHelper@UIDataBaseEngine@@@@UAEPAXI@Z 0042b22c     ServiceUnits.obj
 0002:0000722c       __unwindtable$??_G?$CMap@KKPAV?$CWHArray@KABK@@PAV1@@@UAEPAXI@Z 0042b22c     ServiceUnits.obj
 0002:00007234       __ehfuncinfo$??_G?$CTempldateHelper@UIDataBaseEngine@@@@UAEPAXI@Z 0042b234     ServiceUnits.obj
 0002:00007234       __ehfuncinfo$??_GCTimerEngineHelper@@UAEPAXI@Z 0042b234     ServiceUnits.obj
 0002:00007234       __ehfuncinfo$??_GCDataBaseEngineHelper@@UAEPAXI@Z 0042b234     ServiceUnits.obj
 0002:00007234       __ehfuncinfo$??_G?$CTempldateHelper@UITimerEngine@@@@UAEPAXI@Z 0042b234     ServiceUnits.obj
 0002:00007234       __ehfuncinfo$??_G?$CTempldateHelper@UIAttemperEngine@@@@UAEPAXI@Z 0042b234     ServiceUnits.obj
 0002:00007234       __ehfuncinfo$??_G?$CMap@DDPAVCWordNode@@PAV1@@@UAEPAXI@Z 0042b234     WordFilter.obj
 0002:00007234       __ehfuncinfo$??_GCAttemperEngineHelper@@UAEPAXI@Z 0042b234     ServiceUnits.obj
 0002:00007234       __ehfuncinfo$??_G?$CMap@GGPAVCGameServerItem@NServerListManager@@AAPAV12@@@UAEPAXI@Z 0042b234     ServerListManager.obj
 0002:00007234       __ehfuncinfo$??1CDataBaseEngineSink@@UAE@XZ 0042b234     DataBaseEngineSink.obj
 0002:00007234       __ehfuncinfo$??_G?$CMap@KKPAVCServerUserItem@@PAV1@@@UAEPAXI@Z 0042b234     ServerUserManager.obj
 0002:00007234       __ehfuncinfo$??_G?$CTempldateHelper@UITCPSocketService@@@@UAEPAXI@Z 0042b234     ServiceUnits.obj
 0002:00007234       __ehfuncinfo$??_GCDataBaseHelper@@UAEPAXI@Z 0042b234     DataBaseEngineSink.obj
 0002:00007234       __ehfuncinfo$??_GCTCPSocketServiceHelper@@UAEPAXI@Z 0042b234     ServiceUnits.obj
 0002:00007234       __ehfuncinfo$??_G?$CTempldateHelper@UIDataBase@@@@UAEPAXI@Z 0042b234     DataBaseEngineSink.obj
 0002:00007234       __ehfuncinfo$??_G?$CTempldateHelper@UITCPNetworkEngine@@@@UAEPAXI@Z 0042b234     ServiceUnits.obj
 0002:00007234       __ehfuncinfo$??_G?$CMap@KKPAVCGroupItem@@PAV1@@@UAEPAXI@Z 0042b234     GroupInfoManager.obj
 0002:00007234       __ehfuncinfo$??_GCTCPNetworkEngineHelper@@UAEPAXI@Z 0042b234     ServiceUnits.obj
 0002:00007234       __ehfuncinfo$??1CGroupItem@@MAE@XZ 0042b234     GroupInfoManager.obj
 0002:00007234       __ehfuncinfo$??_G?$CMap@KKPAV?$CWHArray@KABK@@PAV1@@@UAEPAXI@Z 0042b234     ServiceUnits.obj
 0002:00007234       __ehfuncinfo$??_G?$CMap@KKUtagClubTableInfo@@AAU1@@@UAEPAXI@Z 0042b234     GroupInfoManager.obj
 0002:00007258       __catchsym$?OnDataBaseEngineStart@CDataBaseEngineSink@@UAE_NPAUIUnknownEx@@@Z$2 0042b258     DataBaseEngineSink.obj
 0002:00007268       __unwindtable$?OnDataBaseEngineStart@CDataBaseEngineSink@@UAE_NPAUIUnknownEx@@@Z 0042b268     DataBaseEngineSink.obj
 0002:00007278       __tryblocktable$?OnDataBaseEngineStart@CDataBaseEngineSink@@UAE_NPAUIUnknownEx@@@Z 0042b278     DataBaseEngineSink.obj
 0002:0000728c       __ehfuncinfo$?OnDataBaseEngineStart@CDataBaseEngineSink@@UAE_NPAUIUnknownEx@@@Z 0042b28c     DataBaseEngineSink.obj
 0002:000072b0       __catchsym$?OnRequestLogonServer@CDataBaseEngineSink@@IAE_NKPAXG@Z$4 0042b2b0     DataBaseEngineSink.obj
 0002:000072c0       __tryblocktable$?OnRequestLogonServer@CDataBaseEngineSink@@IAE_NKPAXG@Z 0042b2c0     DataBaseEngineSink.obj
 0002:000072d4       __unwindtable$?OnRequestLogonServer@CDataBaseEngineSink@@IAE_NKPAXG@Z 0042b2d4     DataBaseEngineSink.obj
 0002:000072f4       __ehfuncinfo$?OnRequestLogonServer@CDataBaseEngineSink@@IAE_NKPAXG@Z 0042b2f4     DataBaseEngineSink.obj
 0002:00007318       __catchsym$?OnRequestCreateGroup@CDataBaseEngineSink@@IAE_NKPAXG@Z$3 0042b318     DataBaseEngineSink.obj
 0002:00007328       __tryblocktable$?OnRequestCreateGroup@CDataBaseEngineSink@@IAE_NKPAXG@Z 0042b328     DataBaseEngineSink.obj
 0002:0000733c       __unwindtable$?OnRequestCreateGroup@CDataBaseEngineSink@@IAE_NKPAXG@Z 0042b33c     DataBaseEngineSink.obj
 0002:00007354       __ehfuncinfo$?OnRequestCreateGroup@CDataBaseEngineSink@@IAE_NKPAXG@Z 0042b354     DataBaseEngineSink.obj
 0002:00007378       __catchsym$?OnRequestUpdateGroup@CDataBaseEngineSink@@IAE_NKPAXG@Z$5 0042b378     DataBaseEngineSink.obj
 0002:00007388       __tryblocktable$?OnRequestUpdateGroup@CDataBaseEngineSink@@IAE_NKPAXG@Z 0042b388     DataBaseEngineSink.obj
 0002:0000739c       __ehfuncinfo$?OnRequestUpdateGroup@CDataBaseEngineSink@@IAE_NKPAXG@Z 0042b39c     DataBaseEngineSink.obj
 0002:000073c0       __unwindtable$?OnRequestUpdateGroup@CDataBaseEngineSink@@IAE_NKPAXG@Z 0042b3c0     DataBaseEngineSink.obj
 0002:000073e8       __catchsym$?OnRequestDeleteGroup@CDataBaseEngineSink@@IAE_NKPAXG@Z$3 0042b3e8     DataBaseEngineSink.obj
 0002:000073f8       __tryblocktable$?OnRequestDeleteGroup@CDataBaseEngineSink@@IAE_NKPAXG@Z 0042b3f8     DataBaseEngineSink.obj
 0002:0000740c       __unwindtable$?OnRequestDeleteGroup@CDataBaseEngineSink@@IAE_NKPAXG@Z 0042b40c     DataBaseEngineSink.obj
 0002:00007424       __ehfuncinfo$?OnRequestDeleteGroup@CDataBaseEngineSink@@IAE_NKPAXG@Z 0042b424     DataBaseEngineSink.obj
 0002:00007448       __catchsym$?OnRequestDeleteMember@CDataBaseEngineSink@@IAE_NKPAXG@Z$3 0042b448     DataBaseEngineSink.obj
 0002:00007458       __tryblocktable$?OnRequestDeleteMember@CDataBaseEngineSink@@IAE_NKPAXG@Z 0042b458     DataBaseEngineSink.obj
 0002:0000746c       __unwindtable$?OnRequestDeleteMember@CDataBaseEngineSink@@IAE_NKPAXG@Z 0042b46c     DataBaseEngineSink.obj
 0002:00007484       __ehfuncinfo$?OnRequestDeleteMember@CDataBaseEngineSink@@IAE_NKPAXG@Z 0042b484     DataBaseEngineSink.obj
 0002:000074a8       __catchsym$?OnRequestApplyRequest@CDataBaseEngineSink@@IAE_NKPAXG@Z$4 0042b4a8     DataBaseEngineSink.obj
 0002:000074b8       __tryblocktable$?OnRequestApplyRequest@CDataBaseEngineSink@@IAE_NKPAXG@Z 0042b4b8     DataBaseEngineSink.obj
 0002:000074cc       __unwindtable$?OnRequestApplyRequest@CDataBaseEngineSink@@IAE_NKPAXG@Z 0042b4cc     DataBaseEngineSink.obj
 0002:000074ec       __ehfuncinfo$?OnRequestApplyRequest@CDataBaseEngineSink@@IAE_NKPAXG@Z 0042b4ec     DataBaseEngineSink.obj
 0002:00007510       __catchsym$?OnRequestApplyRespond@CDataBaseEngineSink@@IAE_NKPAXG@Z$4 0042b510     DataBaseEngineSink.obj
 0002:00007520       __tryblocktable$?OnRequestApplyRespond@CDataBaseEngineSink@@IAE_NKPAXG@Z 0042b520     DataBaseEngineSink.obj
 0002:00007534       __unwindtable$?OnRequestApplyRespond@CDataBaseEngineSink@@IAE_NKPAXG@Z 0042b534     DataBaseEngineSink.obj
 0002:00007554       __ehfuncinfo$?OnRequestApplyRespond@CDataBaseEngineSink@@IAE_NKPAXG@Z 0042b554     DataBaseEngineSink.obj
 0002:00007578       __catchsym$?OnRequestApplyDelete@CDataBaseEngineSink@@IAE_NKPAXG@Z$3 0042b578     DataBaseEngineSink.obj
 0002:00007588       __tryblocktable$?OnRequestApplyDelete@CDataBaseEngineSink@@IAE_NKPAXG@Z 0042b588     DataBaseEngineSink.obj
 0002:0000759c       __unwindtable$?OnRequestApplyDelete@CDataBaseEngineSink@@IAE_NKPAXG@Z 0042b59c     DataBaseEngineSink.obj
 0002:000075b4       __ehfuncinfo$?OnRequestApplyDelete@CDataBaseEngineSink@@IAE_NKPAXG@Z 0042b5b4     DataBaseEngineSink.obj
 0002:000075d8       __catchsym$?OnRequestSettleBattle@CDataBaseEngineSink@@IAE_NKPAXG@Z$3 0042b5d8     DataBaseEngineSink.obj
 0002:000075e8       __tryblocktable$?OnRequestSettleBattle@CDataBaseEngineSink@@IAE_NKPAXG@Z 0042b5e8     DataBaseEngineSink.obj
 0002:000075fc       __unwindtable$?OnRequestSettleBattle@CDataBaseEngineSink@@IAE_NKPAXG@Z 0042b5fc     DataBaseEngineSink.obj
 0002:00007614       __ehfuncinfo$?OnRequestSettleBattle@CDataBaseEngineSink@@IAE_NKPAXG@Z 0042b614     DataBaseEngineSink.obj
 0002:00007638       __catchsym$?OnRequestLoadForbidWords@CDataBaseEngineSink@@IAE_NKPAXG@Z$2 0042b638     DataBaseEngineSink.obj
 0002:00007648       __unwindtable$?OnRequestLoadForbidWords@CDataBaseEngineSink@@IAE_NKPAXG@Z 0042b648     DataBaseEngineSink.obj
 0002:00007658       __tryblocktable$?OnRequestLoadForbidWords@CDataBaseEngineSink@@IAE_NKPAXG@Z 0042b658     DataBaseEngineSink.obj
 0002:0000766c       __ehfuncinfo$?OnRequestLoadForbidWords@CDataBaseEngineSink@@IAE_NKPAXG@Z 0042b66c     DataBaseEngineSink.obj
 0002:00007690       __catchsym$?OnRequestQueryBattle@CDataBaseEngineSink@@IAE_NKPAXG@Z$3 0042b690     DataBaseEngineSink.obj
 0002:000076a0       __tryblocktable$?OnRequestQueryBattle@CDataBaseEngineSink@@IAE_NKPAXG@Z 0042b6a0     DataBaseEngineSink.obj
 0002:000076b4       __unwindtable$?OnRequestQueryBattle@CDataBaseEngineSink@@IAE_NKPAXG@Z 0042b6b4     DataBaseEngineSink.obj
 0002:000076cc       __ehfuncinfo$?OnRequestQueryBattle@CDataBaseEngineSink@@IAE_NKPAXG@Z 0042b6cc     DataBaseEngineSink.obj
 0002:000076f0       __catchsym$?OnRequestQueryTotalBattle@CDataBaseEngineSink@@IAE_NKPAXG@Z$3 0042b6f0     DataBaseEngineSink.obj
 0002:00007700       __tryblocktable$?OnRequestQueryTotalBattle@CDataBaseEngineSink@@IAE_NKPAXG@Z 0042b700     DataBaseEngineSink.obj
 0002:00007714       __unwindtable$?OnRequestQueryTotalBattle@CDataBaseEngineSink@@IAE_NKPAXG@Z 0042b714     DataBaseEngineSink.obj
 0002:0000772c       __ehfuncinfo$?OnRequestQueryTotalBattle@CDataBaseEngineSink@@IAE_NKPAXG@Z 0042b72c     DataBaseEngineSink.obj
 0002:00007750       __catchsym$?OnRequestAppendConfig@CDataBaseEngineSink@@IAE_NKPAXG@Z$3 0042b750     DataBaseEngineSink.obj
 0002:00007760       __tryblocktable$?OnRequestAppendConfig@CDataBaseEngineSink@@IAE_NKPAXG@Z 0042b760     DataBaseEngineSink.obj
 0002:00007774       __unwindtable$?OnRequestAppendConfig@CDataBaseEngineSink@@IAE_NKPAXG@Z 0042b774     DataBaseEngineSink.obj
 0002:0000778c       __ehfuncinfo$?OnRequestAppendConfig@CDataBaseEngineSink@@IAE_NKPAXG@Z 0042b78c     DataBaseEngineSink.obj
 0002:000077b0       __catchsym$?OnRequestModifyConfig@CDataBaseEngineSink@@IAE_NKPAXG@Z$3 0042b7b0     DataBaseEngineSink.obj
 0002:000077c0       __tryblocktable$?OnRequestModifyConfig@CDataBaseEngineSink@@IAE_NKPAXG@Z 0042b7c0     DataBaseEngineSink.obj
 0002:000077d4       __unwindtable$?OnRequestModifyConfig@CDataBaseEngineSink@@IAE_NKPAXG@Z 0042b7d4     DataBaseEngineSink.obj
 0002:000077ec       __ehfuncinfo$?OnRequestModifyConfig@CDataBaseEngineSink@@IAE_NKPAXG@Z 0042b7ec     DataBaseEngineSink.obj
 0002:00007810       __catchsym$?OnRequestDeleteConfig@CDataBaseEngineSink@@IAE_NKPAXG@Z$3 0042b810     DataBaseEngineSink.obj
 0002:00007820       __tryblocktable$?OnRequestDeleteConfig@CDataBaseEngineSink@@IAE_NKPAXG@Z 0042b820     DataBaseEngineSink.obj
 0002:00007834       __unwindtable$?OnRequestDeleteConfig@CDataBaseEngineSink@@IAE_NKPAXG@Z 0042b834     DataBaseEngineSink.obj
 0002:0000784c       __ehfuncinfo$?OnRequestDeleteConfig@CDataBaseEngineSink@@IAE_NKPAXG@Z 0042b84c     DataBaseEngineSink.obj
 0002:00007870       __catchsym$?OnRequestModifyRight@CDataBaseEngineSink@@IAE_NKPAXG@Z$3 0042b870     DataBaseEngineSink.obj
 0002:00007880       __tryblocktable$?OnRequestModifyRight@CDataBaseEngineSink@@IAE_NKPAXG@Z 0042b880     DataBaseEngineSink.obj
 0002:00007894       __unwindtable$?OnRequestModifyRight@CDataBaseEngineSink@@IAE_NKPAXG@Z 0042b894     DataBaseEngineSink.obj
 0002:000078ac       __ehfuncinfo$?OnRequestModifyRight@CDataBaseEngineSink@@IAE_NKPAXG@Z 0042b8ac     DataBaseEngineSink.obj
 0002:000078d0       __catchsym$?OnRequestPresentScore@CDataBaseEngineSink@@IAE_NKPAXG@Z$3 0042b8d0     DataBaseEngineSink.obj
 0002:000078e0       __tryblocktable$?OnRequestPresentScore@CDataBaseEngineSink@@IAE_NKPAXG@Z 0042b8e0     DataBaseEngineSink.obj
 0002:000078f4       __unwindtable$?OnRequestPresentScore@CDataBaseEngineSink@@IAE_NKPAXG@Z 0042b8f4     DataBaseEngineSink.obj
 0002:0000790c       __ehfuncinfo$?OnRequestPresentScore@CDataBaseEngineSink@@IAE_NKPAXG@Z 0042b90c     DataBaseEngineSink.obj
 0002:00007930       __catchsym$?OnRequestQueryPresent@CDataBaseEngineSink@@IAE_NKPAXG@Z$3 0042b930     DataBaseEngineSink.obj
 0002:00007940       __tryblocktable$?OnRequestQueryPresent@CDataBaseEngineSink@@IAE_NKPAXG@Z 0042b940     DataBaseEngineSink.obj
 0002:00007954       __unwindtable$?OnRequestQueryPresent@CDataBaseEngineSink@@IAE_NKPAXG@Z 0042b954     DataBaseEngineSink.obj
 0002:0000796c       __ehfuncinfo$?OnRequestQueryPresent@CDataBaseEngineSink@@IAE_NKPAXG@Z 0042b96c     DataBaseEngineSink.obj
 0002:00007990       __catchsym$?OnRequestQueryRevenue@CDataBaseEngineSink@@IAE_NKPAXG@Z$3 0042b990     DataBaseEngineSink.obj
 0002:000079a0       __tryblocktable$?OnRequestQueryRevenue@CDataBaseEngineSink@@IAE_NKPAXG@Z 0042b9a0     DataBaseEngineSink.obj
 0002:000079b4       __unwindtable$?OnRequestQueryRevenue@CDataBaseEngineSink@@IAE_NKPAXG@Z 0042b9b4     DataBaseEngineSink.obj
 0002:000079cc       __ehfuncinfo$?OnRequestQueryRevenue@CDataBaseEngineSink@@IAE_NKPAXG@Z 0042b9cc     DataBaseEngineSink.obj
 0002:000079f0       __catchsym$?OnRequestQueryDayRecord@CDataBaseEngineSink@@IAE_NKPAXG@Z$3 0042b9f0     DataBaseEngineSink.obj
 0002:00007a00       __tryblocktable$?OnRequestQueryDayRecord@CDataBaseEngineSink@@IAE_NKPAXG@Z 0042ba00     DataBaseEngineSink.obj
 0002:00007a14       __unwindtable$?OnRequestQueryDayRecord@CDataBaseEngineSink@@IAE_NKPAXG@Z 0042ba14     DataBaseEngineSink.obj
 0002:00007a2c       __ehfuncinfo$?OnRequestQueryDayRecord@CDataBaseEngineSink@@IAE_NKPAXG@Z 0042ba2c     DataBaseEngineSink.obj
 0002:00007a50       __catchsym$?OnRequestQueryDayDetail@CDataBaseEngineSink@@IAE_NKPAXG@Z$3 0042ba50     DataBaseEngineSink.obj
 0002:00007a60       __tryblocktable$?OnRequestQueryDayDetail@CDataBaseEngineSink@@IAE_NKPAXG@Z 0042ba60     DataBaseEngineSink.obj
 0002:00007a74       __unwindtable$?OnRequestQueryDayDetail@CDataBaseEngineSink@@IAE_NKPAXG@Z 0042ba74     DataBaseEngineSink.obj
 0002:00007a8c       __ehfuncinfo$?OnRequestQueryDayDetail@CDataBaseEngineSink@@IAE_NKPAXG@Z 0042ba8c     DataBaseEngineSink.obj
 0002:00007ab0       __catchsym$?OnRequestGroupDayDetail@CDataBaseEngineSink@@IAE_NKPAXG@Z$3 0042bab0     DataBaseEngineSink.obj
 0002:00007ac0       __tryblocktable$?OnRequestGroupDayDetail@CDataBaseEngineSink@@IAE_NKPAXG@Z 0042bac0     DataBaseEngineSink.obj
 0002:00007ad4       __unwindtable$?OnRequestGroupDayDetail@CDataBaseEngineSink@@IAE_NKPAXG@Z 0042bad4     DataBaseEngineSink.obj
 0002:00007aec       __ehfuncinfo$?OnRequestGroupDayDetail@CDataBaseEngineSink@@IAE_NKPAXG@Z 0042baec     DataBaseEngineSink.obj
 0002:00007b10       __catchsym$?OnRequestQueryCreate@CDataBaseEngineSink@@IAE_NKPAXG@Z$3 0042bb10     DataBaseEngineSink.obj
 0002:00007b20       __tryblocktable$?OnRequestQueryCreate@CDataBaseEngineSink@@IAE_NKPAXG@Z 0042bb20     DataBaseEngineSink.obj
 0002:00007b34       __unwindtable$?OnRequestQueryCreate@CDataBaseEngineSink@@IAE_NKPAXG@Z 0042bb34     DataBaseEngineSink.obj
 0002:00007b4c       __ehfuncinfo$?OnRequestQueryCreate@CDataBaseEngineSink@@IAE_NKPAXG@Z 0042bb4c     DataBaseEngineSink.obj
 0002:00007b70       __catchsym$?OnRequestQueryMedalMode@CDataBaseEngineSink@@IAE_NKPAXG@Z$3 0042bb70     DataBaseEngineSink.obj
 0002:00007b80       __tryblocktable$?OnRequestQueryMedalMode@CDataBaseEngineSink@@IAE_NKPAXG@Z 0042bb80     DataBaseEngineSink.obj
 0002:00007b94       __unwindtable$?OnRequestQueryMedalMode@CDataBaseEngineSink@@IAE_NKPAXG@Z 0042bb94     DataBaseEngineSink.obj
 0002:00007bac       __ehfuncinfo$?OnRequestQueryMedalMode@CDataBaseEngineSink@@IAE_NKPAXG@Z 0042bbac     DataBaseEngineSink.obj
 0002:00007bd0       __catchsym$?OnRequestSetGroupStatus@CDataBaseEngineSink@@IAE_NKPAXG@Z$3 0042bbd0     DataBaseEngineSink.obj
 0002:00007be0       __tryblocktable$?OnRequestSetGroupStatus@CDataBaseEngineSink@@IAE_NKPAXG@Z 0042bbe0     DataBaseEngineSink.obj
 0002:00007bf4       __unwindtable$?OnRequestSetGroupStatus@CDataBaseEngineSink@@IAE_NKPAXG@Z 0042bbf4     DataBaseEngineSink.obj
 0002:00007c0c       __ehfuncinfo$?OnRequestSetGroupStatus@CDataBaseEngineSink@@IAE_NKPAXG@Z 0042bc0c     DataBaseEngineSink.obj
 0002:00007c30       __catchsym$?OnRequestSetInOut@CDataBaseEngineSink@@IAE_NKPAXG@Z$3 0042bc30     DataBaseEngineSink.obj
 0002:00007c40       __tryblocktable$?OnRequestSetInOut@CDataBaseEngineSink@@IAE_NKPAXG@Z 0042bc40     DataBaseEngineSink.obj
 0002:00007c54       __unwindtable$?OnRequestSetInOut@CDataBaseEngineSink@@IAE_NKPAXG@Z 0042bc54     DataBaseEngineSink.obj
 0002:00007c6c       __ehfuncinfo$?OnRequestSetInOut@CDataBaseEngineSink@@IAE_NKPAXG@Z 0042bc6c     DataBaseEngineSink.obj
 0002:00007c90       __catchsym$?OnRequestSetRollMSg@CDataBaseEngineSink@@IAE_NKPAXG@Z$3 0042bc90     DataBaseEngineSink.obj
 0002:00007ca0       __tryblocktable$?OnRequestSetRollMSg@CDataBaseEngineSink@@IAE_NKPAXG@Z 0042bca0     DataBaseEngineSink.obj
 0002:00007cb4       __unwindtable$?OnRequestSetRollMSg@CDataBaseEngineSink@@IAE_NKPAXG@Z 0042bcb4     DataBaseEngineSink.obj
 0002:00007ccc       __ehfuncinfo$?OnRequestSetRollMSg@CDataBaseEngineSink@@IAE_NKPAXG@Z 0042bccc     DataBaseEngineSink.obj
 0002:00007cf0       __catchsym$?OnRequestRightManagement@CDataBaseEngineSink@@IAE_NKPAXG@Z$3 0042bcf0     DataBaseEngineSink.obj
 0002:00007d00       __tryblocktable$?OnRequestRightManagement@CDataBaseEngineSink@@IAE_NKPAXG@Z 0042bd00     DataBaseEngineSink.obj
 0002:00007d14       __unwindtable$?OnRequestRightManagement@CDataBaseEngineSink@@IAE_NKPAXG@Z 0042bd14     DataBaseEngineSink.obj
 0002:00007d2c       __ehfuncinfo$?OnRequestRightManagement@CDataBaseEngineSink@@IAE_NKPAXG@Z 0042bd2c     DataBaseEngineSink.obj
 0002:00007d50       __catchsym$?OnRequestSetMedal@CDataBaseEngineSink@@IAE_NKPAXG@Z$3 0042bd50     DataBaseEngineSink.obj
 0002:00007d60       __tryblocktable$?OnRequestSetMedal@CDataBaseEngineSink@@IAE_NKPAXG@Z 0042bd60     DataBaseEngineSink.obj
 0002:00007d74       __unwindtable$?OnRequestSetMedal@CDataBaseEngineSink@@IAE_NKPAXG@Z 0042bd74     DataBaseEngineSink.obj
 0002:00007d8c       __ehfuncinfo$?OnRequestSetMedal@CDataBaseEngineSink@@IAE_NKPAXG@Z 0042bd8c     DataBaseEngineSink.obj
 0002:00007db0       __catchsym$?OnRequestSetFreeTableLimit@CDataBaseEngineSink@@IAE_NKPAXG@Z$3 0042bdb0     DataBaseEngineSink.obj
 0002:00007dc0       __tryblocktable$?OnRequestSetFreeTableLimit@CDataBaseEngineSink@@IAE_NKPAXG@Z 0042bdc0     DataBaseEngineSink.obj
 0002:00007dd4       __unwindtable$?OnRequestSetFreeTableLimit@CDataBaseEngineSink@@IAE_NKPAXG@Z 0042bdd4     DataBaseEngineSink.obj
 0002:00007dec       __ehfuncinfo$?OnRequestSetFreeTableLimit@CDataBaseEngineSink@@IAE_NKPAXG@Z 0042bdec     DataBaseEngineSink.obj
 0002:00007e10       __catchsym$?OnRequestSetBigWinner@CDataBaseEngineSink@@IAE_NKPAXG@Z$3 0042be10     DataBaseEngineSink.obj
 0002:00007e20       __tryblocktable$?OnRequestSetBigWinner@CDataBaseEngineSink@@IAE_NKPAXG@Z 0042be20     DataBaseEngineSink.obj
 0002:00007e34       __unwindtable$?OnRequestSetBigWinner@CDataBaseEngineSink@@IAE_NKPAXG@Z 0042be34     DataBaseEngineSink.obj
 0002:00007e4c       __ehfuncinfo$?OnRequestSetBigWinner@CDataBaseEngineSink@@IAE_NKPAXG@Z 0042be4c     DataBaseEngineSink.obj
 0002:00007e70       __catchsym$?OnRequestSetFlag@CDataBaseEngineSink@@IAE_NKPAXG@Z$3 0042be70     DataBaseEngineSink.obj
 0002:00007e80       __tryblocktable$?OnRequestSetFlag@CDataBaseEngineSink@@IAE_NKPAXG@Z 0042be80     DataBaseEngineSink.obj
 0002:00007e94       __unwindtable$?OnRequestSetFlag@CDataBaseEngineSink@@IAE_NKPAXG@Z 0042be94     DataBaseEngineSink.obj
 0002:00007eac       __ehfuncinfo$?OnRequestSetFlag@CDataBaseEngineSink@@IAE_NKPAXG@Z 0042beac     DataBaseEngineSink.obj
 0002:00007ed0       __catchsym$?OnRequestClearMedal@CDataBaseEngineSink@@IAE_NKPAXG@Z$2 0042bed0     DataBaseEngineSink.obj
 0002:00007ee0       __unwindtable$?OnRequestClearMedal@CDataBaseEngineSink@@IAE_NKPAXG@Z 0042bee0     DataBaseEngineSink.obj
 0002:00007ef0       __tryblocktable$?OnRequestClearMedal@CDataBaseEngineSink@@IAE_NKPAXG@Z 0042bef0     DataBaseEngineSink.obj
 0002:00007f04       __ehfuncinfo$?OnRequestClearMedal@CDataBaseEngineSink@@IAE_NKPAXG@Z 0042bf04     DataBaseEngineSink.obj
 0002:00007f28       __catchsym$?OnRequestSetFavoriteConfig@CDataBaseEngineSink@@IAE_NKPAXG@Z$3 0042bf28     DataBaseEngineSink.obj
 0002:00007f38       __tryblocktable$?OnRequestSetFavoriteConfig@CDataBaseEngineSink@@IAE_NKPAXG@Z 0042bf38     DataBaseEngineSink.obj
 0002:00007f4c       __unwindtable$?OnRequestSetFavoriteConfig@CDataBaseEngineSink@@IAE_NKPAXG@Z 0042bf4c     DataBaseEngineSink.obj
 0002:00007f64       __ehfuncinfo$?OnRequestSetFavoriteConfig@CDataBaseEngineSink@@IAE_NKPAXG@Z 0042bf64     DataBaseEngineSink.obj
 0002:00007f88       __catchsym$?OnRequestModifyGroupName@CDataBaseEngineSink@@IAE_NKPAXG@Z$3 0042bf88     DataBaseEngineSink.obj
 0002:00007f98       __tryblocktable$?OnRequestModifyGroupName@CDataBaseEngineSink@@IAE_NKPAXG@Z 0042bf98     DataBaseEngineSink.obj
 0002:00007fac       __unwindtable$?OnRequestModifyGroupName@CDataBaseEngineSink@@IAE_NKPAXG@Z 0042bfac     DataBaseEngineSink.obj
 0002:00007fc4       __ehfuncinfo$?OnRequestModifyGroupName@CDataBaseEngineSink@@IAE_NKPAXG@Z 0042bfc4     DataBaseEngineSink.obj
 0002:00007fe8       __catchsym$?OnRequestRoomDetail@CDataBaseEngineSink@@IAE_NKPAXG@Z$3 0042bfe8     DataBaseEngineSink.obj
 0002:00007ff8       __tryblocktable$?OnRequestRoomDetail@CDataBaseEngineSink@@IAE_NKPAXG@Z 0042bff8     DataBaseEngineSink.obj
 0002:0000800c       __unwindtable$?OnRequestRoomDetail@CDataBaseEngineSink@@IAE_NKPAXG@Z 0042c00c     DataBaseEngineSink.obj
 0002:00008024       __ehfuncinfo$?OnRequestRoomDetail@CDataBaseEngineSink@@IAE_NKPAXG@Z 0042c024     DataBaseEngineSink.obj
 0002:00008048       __catchsym$?OnRequestCaptainList@CDataBaseEngineSink@@IAE_NKPAXG@Z$3 0042c048     DataBaseEngineSink.obj
 0002:00008058       __tryblocktable$?OnRequestCaptainList@CDataBaseEngineSink@@IAE_NKPAXG@Z 0042c058     DataBaseEngineSink.obj
 0002:0000806c       __unwindtable$?OnRequestCaptainList@CDataBaseEngineSink@@IAE_NKPAXG@Z 0042c06c     DataBaseEngineSink.obj
 0002:00008084       __ehfuncinfo$?OnRequestCaptainList@CDataBaseEngineSink@@IAE_NKPAXG@Z 0042c084     DataBaseEngineSink.obj
 0002:000080a8       __catchsym$?OnRequestAddTeamer@CDataBaseEngineSink@@IAE_NKPAXG@Z$3 0042c0a8     DataBaseEngineSink.obj
 0002:000080b8       __tryblocktable$?OnRequestAddTeamer@CDataBaseEngineSink@@IAE_NKPAXG@Z 0042c0b8     DataBaseEngineSink.obj
 0002:000080cc       __unwindtable$?OnRequestAddTeamer@CDataBaseEngineSink@@IAE_NKPAXG@Z 0042c0cc     DataBaseEngineSink.obj
 0002:000080e4       __ehfuncinfo$?OnRequestAddTeamer@CDataBaseEngineSink@@IAE_NKPAXG@Z 0042c0e4     DataBaseEngineSink.obj
 0002:00008108       __catchsym$?OnRequestTeamerDayRecord@CDataBaseEngineSink@@IAE_NKPAXG@Z$3 0042c108     DataBaseEngineSink.obj
 0002:00008118       __tryblocktable$?OnRequestTeamerDayRecord@CDataBaseEngineSink@@IAE_NKPAXG@Z 0042c118     DataBaseEngineSink.obj
 0002:0000812c       __unwindtable$?OnRequestTeamerDayRecord@CDataBaseEngineSink@@IAE_NKPAXG@Z 0042c12c     DataBaseEngineSink.obj
 0002:00008144       __ehfuncinfo$?OnRequestTeamerDayRecord@CDataBaseEngineSink@@IAE_NKPAXG@Z 0042c144     DataBaseEngineSink.obj
 0002:00008168       __catchsym$?OnRequestSetPrivacy@CDataBaseEngineSink@@IAE_NKPAXG@Z$3 0042c168     DataBaseEngineSink.obj
 0002:00008178       __tryblocktable$?OnRequestSetPrivacy@CDataBaseEngineSink@@IAE_NKPAXG@Z 0042c178     DataBaseEngineSink.obj
 0002:0000818c       __unwindtable$?OnRequestSetPrivacy@CDataBaseEngineSink@@IAE_NKPAXG@Z 0042c18c     DataBaseEngineSink.obj
 0002:000081a4       __ehfuncinfo$?OnRequestSetPrivacy@CDataBaseEngineSink@@IAE_NKPAXG@Z 0042c1a4     DataBaseEngineSink.obj
 0002:000081c8       __catchsym$?OnRequestSetCaptainPoint@CDataBaseEngineSink@@IAE_NKPAXG@Z$3 0042c1c8     DataBaseEngineSink.obj
 0002:000081d8       __tryblocktable$?OnRequestSetCaptainPoint@CDataBaseEngineSink@@IAE_NKPAXG@Z 0042c1d8     DataBaseEngineSink.obj
 0002:000081ec       __unwindtable$?OnRequestSetCaptainPoint@CDataBaseEngineSink@@IAE_NKPAXG@Z 0042c1ec     DataBaseEngineSink.obj
 0002:00008204       __ehfuncinfo$?OnRequestSetCaptainPoint@CDataBaseEngineSink@@IAE_NKPAXG@Z 0042c204     DataBaseEngineSink.obj
 0002:00008228       __catchsym$?OnRequestOpenBox@CDataBaseEngineSink@@IAE_NKPAXG@Z$3 0042c228     DataBaseEngineSink.obj
 0002:00008238       __tryblocktable$?OnRequestOpenBox@CDataBaseEngineSink@@IAE_NKPAXG@Z 0042c238     DataBaseEngineSink.obj
 0002:0000824c       __unwindtable$?OnRequestOpenBox@CDataBaseEngineSink@@IAE_NKPAXG@Z 0042c24c     DataBaseEngineSink.obj
 0002:00008264       __ehfuncinfo$?OnRequestOpenBox@CDataBaseEngineSink@@IAE_NKPAXG@Z 0042c264     DataBaseEngineSink.obj
 0002:00008288       __catchsym$?OnRequestGetAwardScore@CDataBaseEngineSink@@IAE_NKPAXG@Z$3 0042c288     DataBaseEngineSink.obj
 0002:00008298       __tryblocktable$?OnRequestGetAwardScore@CDataBaseEngineSink@@IAE_NKPAXG@Z 0042c298     DataBaseEngineSink.obj
 0002:000082ac       __unwindtable$?OnRequestGetAwardScore@CDataBaseEngineSink@@IAE_NKPAXG@Z 0042c2ac     DataBaseEngineSink.obj
 0002:000082c4       __ehfuncinfo$?OnRequestGetAwardScore@CDataBaseEngineSink@@IAE_NKPAXG@Z 0042c2c4     DataBaseEngineSink.obj
 0002:000082e8       __catchsym$?OnRequestInvitationCode@CDataBaseEngineSink@@IAE_NKPAXG@Z$3 0042c2e8     DataBaseEngineSink.obj
 0002:000082f8       __tryblocktable$?OnRequestInvitationCode@CDataBaseEngineSink@@IAE_NKPAXG@Z 0042c2f8     DataBaseEngineSink.obj
 0002:0000830c       __unwindtable$?OnRequestInvitationCode@CDataBaseEngineSink@@IAE_NKPAXG@Z 0042c30c     DataBaseEngineSink.obj
 0002:00008324       __ehfuncinfo$?OnRequestInvitationCode@CDataBaseEngineSink@@IAE_NKPAXG@Z 0042c324     DataBaseEngineSink.obj
 0002:00008348       __catchsym$?OnRequestBlindCode@CDataBaseEngineSink@@IAE_NKPAXG@Z$3 0042c348     DataBaseEngineSink.obj
 0002:00008358       __tryblocktable$?OnRequestBlindCode@CDataBaseEngineSink@@IAE_NKPAXG@Z 0042c358     DataBaseEngineSink.obj
 0002:0000836c       __unwindtable$?OnRequestBlindCode@CDataBaseEngineSink@@IAE_NKPAXG@Z 0042c36c     DataBaseEngineSink.obj
 0002:00008384       __ehfuncinfo$?OnRequestBlindCode@CDataBaseEngineSink@@IAE_NKPAXG@Z 0042c384     DataBaseEngineSink.obj
 0002:000083a8       __catchsym$?OnRequestCheckNewUser@CDataBaseEngineSink@@IAE_NKPAXG@Z$2 0042c3a8     DataBaseEngineSink.obj
 0002:000083b8       __unwindtable$?OnRequestCheckNewUser@CDataBaseEngineSink@@IAE_NKPAXG@Z 0042c3b8     DataBaseEngineSink.obj
 0002:000083c8       __tryblocktable$?OnRequestCheckNewUser@CDataBaseEngineSink@@IAE_NKPAXG@Z 0042c3c8     DataBaseEngineSink.obj
 0002:000083dc       __ehfuncinfo$?OnRequestCheckNewUser@CDataBaseEngineSink@@IAE_NKPAXG@Z 0042c3dc     DataBaseEngineSink.obj
 0002:00008400       __catchsym$?OnRequestQueryScore@CDataBaseEngineSink@@IAE_NKPAXG@Z$3 0042c400     DataBaseEngineSink.obj
 0002:00008410       __tryblocktable$?OnRequestQueryScore@CDataBaseEngineSink@@IAE_NKPAXG@Z 0042c410     DataBaseEngineSink.obj
 0002:00008424       __unwindtable$?OnRequestQueryScore@CDataBaseEngineSink@@IAE_NKPAXG@Z 0042c424     DataBaseEngineSink.obj
 0002:0000843c       __ehfuncinfo$?OnRequestQueryScore@CDataBaseEngineSink@@IAE_NKPAXG@Z 0042c43c     DataBaseEngineSink.obj
 0002:00008460       __catchsym$?OnRequestUpdateOnlineStatus@CDataBaseEngineSink@@IAE_NKPAXG@Z$2 0042c460     DataBaseEngineSink.obj
 0002:00008470       __unwindtable$?OnRequestUpdateOnlineStatus@CDataBaseEngineSink@@IAE_NKPAXG@Z 0042c470     DataBaseEngineSink.obj
 0002:00008480       __tryblocktable$?OnRequestUpdateOnlineStatus@CDataBaseEngineSink@@IAE_NKPAXG@Z 0042c480     DataBaseEngineSink.obj
 0002:00008494       __ehfuncinfo$?OnRequestUpdateOnlineStatus@CDataBaseEngineSink@@IAE_NKPAXG@Z 0042c494     DataBaseEngineSink.obj
 0002:000084b8       __catchsym$?OnRequestLoadSingleGroup@CDataBaseEngineSink@@IAE_NKPAXG@Z$2 0042c4b8     DataBaseEngineSink.obj
 0002:000084c8       __unwindtable$?OnRequestLoadSingleGroup@CDataBaseEngineSink@@IAE_NKPAXG@Z 0042c4c8     DataBaseEngineSink.obj
 0002:000084d8       __tryblocktable$?OnRequestLoadSingleGroup@CDataBaseEngineSink@@IAE_NKPAXG@Z 0042c4d8     DataBaseEngineSink.obj
 0002:000084ec       __ehfuncinfo$?OnRequestLoadSingleGroup@CDataBaseEngineSink@@IAE_NKPAXG@Z 0042c4ec     DataBaseEngineSink.obj
 0002:00008510       __catchsym$?OnRequestModifyInfo@CDataBaseEngineSink@@IAE_NKPAXG@Z$3 0042c510     DataBaseEngineSink.obj
 0002:00008520       __tryblocktable$?OnRequestModifyInfo@CDataBaseEngineSink@@IAE_NKPAXG@Z 0042c520     DataBaseEngineSink.obj
 0002:00008534       __unwindtable$?OnRequestModifyInfo@CDataBaseEngineSink@@IAE_NKPAXG@Z 0042c534     DataBaseEngineSink.obj
 0002:0000854c       __ehfuncinfo$?OnRequestModifyInfo@CDataBaseEngineSink@@IAE_NKPAXG@Z 0042c54c     DataBaseEngineSink.obj
 0002:00008570       __catchsym$?OnRequestUpdateMember@CDataBaseEngineSink@@IAE_NKPAXG@Z$2 0042c570     DataBaseEngineSink.obj
 0002:00008580       __unwindtable$?OnRequestUpdateMember@CDataBaseEngineSink@@IAE_NKPAXG@Z 0042c580     DataBaseEngineSink.obj
 0002:00008590       __tryblocktable$?OnRequestUpdateMember@CDataBaseEngineSink@@IAE_NKPAXG@Z 0042c590     DataBaseEngineSink.obj
 0002:000085a4       __ehfuncinfo$?OnRequestUpdateMember@CDataBaseEngineSink@@IAE_NKPAXG@Z 0042c5a4     DataBaseEngineSink.obj
 0002:000085c8       __catchsym$?OnRequestLoadGroupList@CDataBaseEngineSink@@IAE_NKPAXG@Z$2 0042c5c8     DataBaseEngineSink.obj
 0002:000085d8       __unwindtable$?OnRequestLoadGroupList@CDataBaseEngineSink@@IAE_NKPAXG@Z 0042c5d8     DataBaseEngineSink.obj
 0002:000085e8       __tryblocktable$?OnRequestLoadGroupList@CDataBaseEngineSink@@IAE_NKPAXG@Z 0042c5e8     DataBaseEngineSink.obj
 0002:000085fc       __ehfuncinfo$?OnRequestLoadGroupList@CDataBaseEngineSink@@IAE_NKPAXG@Z 0042c5fc     DataBaseEngineSink.obj
 0002:00008620       __catchsym$?OnRequestLoadGroupItem@CDataBaseEngineSink@@IAE_NKPAXG@Z$2 0042c620     DataBaseEngineSink.obj
 0002:00008630       __unwindtable$?OnRequestLoadGroupItem@CDataBaseEngineSink@@IAE_NKPAXG@Z 0042c630     DataBaseEngineSink.obj
 0002:00008640       __tryblocktable$?OnRequestLoadGroupItem@CDataBaseEngineSink@@IAE_NKPAXG@Z 0042c640     DataBaseEngineSink.obj
 0002:00008654       __ehfuncinfo$?OnRequestLoadGroupItem@CDataBaseEngineSink@@IAE_NKPAXG@Z 0042c654     DataBaseEngineSink.obj
 0002:00008678       __catchsym$?OnRequestLoadGroupMember@CDataBaseEngineSink@@IAE_NKPAXG@Z$2 0042c678     DataBaseEngineSink.obj
 0002:00008688       __unwindtable$?OnRequestLoadGroupMember@CDataBaseEngineSink@@IAE_NKPAXG@Z 0042c688     DataBaseEngineSink.obj
 0002:00008698       __tryblocktable$?OnRequestLoadGroupMember@CDataBaseEngineSink@@IAE_NKPAXG@Z 0042c698     DataBaseEngineSink.obj
 0002:000086ac       __ehfuncinfo$?OnRequestLoadGroupMember@CDataBaseEngineSink@@IAE_NKPAXG@Z 0042c6ac     DataBaseEngineSink.obj
 0002:000086d0       __catchsym$?OnRequestLoadGroupConfig@CDataBaseEngineSink@@IAE_NKPAXG@Z$2 0042c6d0     DataBaseEngineSink.obj
 0002:000086e0       __unwindtable$?OnRequestLoadGroupConfig@CDataBaseEngineSink@@IAE_NKPAXG@Z 0042c6e0     DataBaseEngineSink.obj
 0002:000086f0       __tryblocktable$?OnRequestLoadGroupConfig@CDataBaseEngineSink@@IAE_NKPAXG@Z 0042c6f0     DataBaseEngineSink.obj
 0002:00008704       __ehfuncinfo$?OnRequestLoadGroupConfig@CDataBaseEngineSink@@IAE_NKPAXG@Z 0042c704     DataBaseEngineSink.obj
 0002:00008728       __unwindtable$?ExtractGroupID@CDataBaseEngineSink@@IAEGPB_WAAVCDWordArray@@@Z 0042c728     DataBaseEngineSink.obj
 0002:00008740       __ehfuncinfo$?ExtractGroupID@CDataBaseEngineSink@@IAEGPB_WAAVCDWordArray@@@Z 0042c740     DataBaseEngineSink.obj
 0002:00008764       __unwindtable$?TraceDatabaseException@CDataBaseEngineSink@@IAEXPAD0HPAUIDataBaseException@@@Z 0042c764     DataBaseEngineSink.obj
 0002:0000876c       __ehfuncinfo$?TraceDatabaseException@CDataBaseEngineSink@@IAEXPAD0HPAUIDataBaseException@@@Z 0042c76c     DataBaseEngineSink.obj
 0002:00008790       __unwindtable$??0CGroupInfoManager@@QAE@XZ 0042c790     GroupInfoManager.obj
 0002:000087a0       __ehfuncinfo$??0CGroupInfoManager@@QAE@XZ 0042c7a0     GroupInfoManager.obj
 0002:000087c4       __ehfuncinfo$??1CGroupInfoManager@@UAE@XZ 0042c7c4     GroupInfoManager.obj
 0002:000087e8       __unwindtable$??1CGroupInfoManager@@UAE@XZ 0042c7e8     GroupInfoManager.obj
 0002:00008820       __catchsym$?ActiveGroupItem@CGroupInfoManager@@UAE_NAAUtagIMGroupItem@@@Z$3 0042c820     GroupInfoManager.obj
 0002:00008830       __unwindtable$?ActiveGroupItem@CGroupInfoManager@@UAE_NAAUtagIMGroupItem@@@Z 0042c830     GroupInfoManager.obj
 0002:00008840       __tryblocktable$?ActiveGroupItem@CGroupInfoManager@@UAE_NAAUtagIMGroupItem@@@Z 0042c840     GroupInfoManager.obj
 0002:00008854       __ehfuncinfo$?ActiveGroupItem@CGroupInfoManager@@UAE_NAAUtagIMGroupItem@@@Z 0042c854     GroupInfoManager.obj
 0002:000088cc       __unwindtable$?LoadInitParameter@CInitParameter@@QAEXXZ 0042c8cc     InitParameter.obj
 0002:000088d4       __ehfuncinfo$?LoadInitParameter@CInitParameter@@QAEXXZ 0042c8d4     InitParameter.obj
 0002:000088f8       __unwindtable$??0CServerListManager@NServerListManager@@QAE@XZ 0042c8f8     ServerListManager.obj
 0002:00008908       __ehfuncinfo$??0CServerListManager@NServerListManager@@QAE@XZ 0042c908     ServerListManager.obj
 0002:0000892c       __ehfuncinfo$??1CServerListManager@NServerListManager@@UAE@XZ 0042c92c     ServerListManager.obj
 0002:00008950       __unwindtable$??1CServerListManager@NServerListManager@@UAE@XZ 0042c950     ServerListManager.obj
 0002:00008988       __catchsym$?InsertGameServer@CServerListManager@NServerListManager@@QAE_NPAUtagGameServer@@@Z$3 0042c988     ServerListManager.obj
 0002:00008998       __unwindtable$?InsertGameServer@CServerListManager@NServerListManager@@QAE_NPAUtagGameServer@@@Z 0042c998     ServerListManager.obj
 0002:000089a8       __tryblocktable$?InsertGameServer@CServerListManager@NServerListManager@@QAE_NPAUtagGameServer@@@Z 0042c9a8     ServerListManager.obj
 0002:000089bc       __ehfuncinfo$?InsertGameServer@CServerListManager@NServerListManager@@QAE_NPAUtagGameServer@@@Z 0042c9bc     ServerListManager.obj
 0002:000089e0       __unwindtable$??0CLocalUserItem@@IAE@XZ 0042c9e0     ServerUserManager.obj
 0002:000089f0       __ehfuncinfo$??0CLocalUserItem@@IAE@XZ 0042c9f0     ServerUserManager.obj
 0002:00008a14       __ehfuncinfo$??1?$CMap@KKPAVCGroupItem@@PAV1@@@UAE@XZ 0042ca14     GroupInfoManager.obj
 0002:00008a14       __ehfuncinfo$??1?$CMap@KKPAVCServerUserItem@@PAV1@@@UAE@XZ 0042ca14     ServerUserManager.obj
 0002:00008a14       __ehfuncinfo$??1?$CMap@GGPAVCGameServerItem@NServerListManager@@AAPAV12@@@UAE@XZ 0042ca14     ServerListManager.obj
 0002:00008a14       __ehfuncinfo$??1?$CMap@DDPAVCWordNode@@PAV1@@@UAE@XZ 0042ca14     WordFilter.obj
 0002:00008a38       __unwindtable$??0CServerUserManager@@QAE@XZ 0042ca38     ServerUserManager.obj
 0002:00008a50       __ehfuncinfo$??0CServerUserManager@@QAE@XZ 0042ca50     ServerUserManager.obj
 0002:00008a74       __ehfuncinfo$??1CServerUserManager@@UAE@XZ 0042ca74     ServerUserManager.obj
 0002:00008a98       __unwindtable$??1CServerUserManager@@UAE@XZ 0042ca98     ServerUserManager.obj
 0002:00008ad8       __catchsym$?InsertRemoteUserItem@CServerUserManager@@UAEPAVCRemoteUserItem@@AAUtagIMUserInfo@@@Z$3 0042cad8     ServerUserManager.obj
 0002:00008ae8       __unwindtable$?InsertRemoteUserItem@CServerUserManager@@UAEPAVCRemoteUserItem@@AAUtagIMUserInfo@@@Z 0042cae8     ServerUserManager.obj
 0002:00008af8       __tryblocktable$?InsertRemoteUserItem@CServerUserManager@@UAEPAVCRemoteUserItem@@AAUtagIMUserInfo@@@Z 0042caf8     ServerUserManager.obj
 0002:00008b0c       __ehfuncinfo$?InsertRemoteUserItem@CServerUserManager@@UAEPAVCRemoteUserItem@@AAUtagIMUserInfo@@@Z 0042cb0c     ServerUserManager.obj
 0002:00008b30       __catchsym$?InsertLocalUserItem@CServerUserManager@@UAEPAVCLocalUserItem@@AAUtagIMUserInfo@@PB_W@Z$3 0042cb30     ServerUserManager.obj
 0002:00008b40       __tryblocktable$?InsertLocalUserItem@CServerUserManager@@UAEPAVCLocalUserItem@@AAUtagIMUserInfo@@PB_W@Z 0042cb40     ServerUserManager.obj
 0002:00008b54       __unwindtable$?InsertLocalUserItem@CServerUserManager@@UAEPAVCLocalUserItem@@AAUtagIMUserInfo@@PB_W@Z 0042cb54     ServerUserManager.obj
 0002:00008b6c       __ehfuncinfo$?InsertLocalUserItem@CServerUserManager@@UAEPAVCLocalUserItem@@AAUtagIMUserInfo@@PB_W@Z 0042cb6c     ServerUserManager.obj
 0002:00008b90       __unwindtable$?CreateInstance@?$CTempldateHelper@UITCPNetworkEngine@@@@QAE_NXZ 0042cb90     ServiceUnits.obj
 0002:00008b90       __unwindtable$?CreateInstance@?$CTempldateHelper@UIAttemperEngine@@@@QAE_NXZ 0042cb90     ServiceUnits.obj
 0002:00008b90       __unwindtable$?CreateInstance@?$CTempldateHelper@UITCPSocketService@@@@QAE_NXZ 0042cb90     ServiceUnits.obj
 0002:00008b90       __unwindtable$?CreateInstance@?$CTempldateHelper@UIDataBase@@@@QAE_NXZ 0042cb90     DataBaseEngineSink.obj
 0002:00008b90       __unwindtable$?CreateInstance@?$CTempldateHelper@UITimerEngine@@@@QAE_NXZ 0042cb90     ServiceUnits.obj
 0002:00008b90       __unwindtable$?CreateInstance@?$CTempldateHelper@UIDataBaseEngine@@@@QAE_NXZ 0042cb90     ServiceUnits.obj
 0002:00008ba0       __tryblocktable$?CreateInstance@?$CTempldateHelper@UIDataBase@@@@QAE_NXZ 0042cba0     DataBaseEngineSink.obj
 0002:00008ba0       __tryblocktable$?CreateInstance@?$CTempldateHelper@UITCPNetworkEngine@@@@QAE_NXZ 0042cba0     ServiceUnits.obj
 0002:00008ba0       __tryblocktable$?CreateInstance@?$CTempldateHelper@UITimerEngine@@@@QAE_NXZ 0042cba0     ServiceUnits.obj
 0002:00008ba0       __tryblocktable$?CreateInstance@?$CTempldateHelper@UIDataBaseEngine@@@@QAE_NXZ 0042cba0     ServiceUnits.obj
 0002:00008ba0       __tryblocktable$?CreateInstance@?$CTempldateHelper@UITCPSocketService@@@@QAE_NXZ 0042cba0     ServiceUnits.obj
 0002:00008ba0       __tryblocktable$?CreateInstance@?$CTempldateHelper@UIAttemperEngine@@@@QAE_NXZ 0042cba0     ServiceUnits.obj
 0002:00008bb4       __catchsym$?CreateInstance@?$CTempldateHelper@UIDataBase@@@@QAE_NXZ$3 0042cbb4     DataBaseEngineSink.obj
 0002:00008bb4       __catchsym$?CreateInstance@?$CTempldateHelper@UIDataBaseEngine@@@@QAE_NXZ$3 0042cbb4     ServiceUnits.obj
 0002:00008bb4       __catchsym$?CreateInstance@?$CTempldateHelper@UITCPSocketService@@@@QAE_NXZ$3 0042cbb4     ServiceUnits.obj
 0002:00008bb4       __catchsym$?CreateInstance@?$CTempldateHelper@UITimerEngine@@@@QAE_NXZ$3 0042cbb4     ServiceUnits.obj
 0002:00008bb4       __catchsym$?CreateInstance@?$CTempldateHelper@UIAttemperEngine@@@@QAE_NXZ$3 0042cbb4     ServiceUnits.obj
 0002:00008bb4       __catchsym$?CreateInstance@?$CTempldateHelper@UITCPNetworkEngine@@@@QAE_NXZ$3 0042cbb4     ServiceUnits.obj
 0002:00008bd4       __ehfuncinfo$?CreateInstance@?$CTempldateHelper@UIDataBase@@@@QAE_NXZ 0042cbd4     DataBaseEngineSink.obj
 0002:00008bd4       __ehfuncinfo$?CreateInstance@?$CTempldateHelper@UIAttemperEngine@@@@QAE_NXZ 0042cbd4     ServiceUnits.obj
 0002:00008bd4       __ehfuncinfo$?CreateInstance@?$CTempldateHelper@UITCPNetworkEngine@@@@QAE_NXZ 0042cbd4     ServiceUnits.obj
 0002:00008bd4       __ehfuncinfo$?CreateInstance@?$CTempldateHelper@UIDataBaseEngine@@@@QAE_NXZ 0042cbd4     ServiceUnits.obj
 0002:00008bd4       __ehfuncinfo$?CreateInstance@?$CTempldateHelper@UITimerEngine@@@@QAE_NXZ 0042cbd4     ServiceUnits.obj
 0002:00008bd4       __ehfuncinfo$?CreateInstance@?$CTempldateHelper@UITCPSocketService@@@@QAE_NXZ 0042cbd4     ServiceUnits.obj
 0002:00008bf8       __ehfuncinfo$??0CServiceUnits@@QAE@XZ 0042cbf8     ServiceUnits.obj
 0002:00008c1c       __unwindtable$??0CServiceUnits@@QAE@XZ 0042cc1c     ServiceUnits.obj
 0002:00008c4c       __ehfuncinfo$??1CServiceUnits@@UAE@XZ 0042cc4c     ServiceUnits.obj
 0002:00008c70       __unwindtable$??1CServiceUnits@@UAE@XZ 0042cc70     ServiceUnits.obj
 0002:00008cb8       __unwindtable$?PostControlRequest@CServiceUnits@@UAA_NGPAXG@Z 0042ccb8     ServiceUnits.obj
 0002:00008cc0       __ehfuncinfo$?PostControlRequest@CServiceUnits@@UAA_NGPAXG@Z 0042ccc0     ServiceUnits.obj
 0002:00008ce4       __unwindtable$?OnUIControlRequest@CServiceUnits@@IAEJIJ@Z 0042cce4     ServiceUnits.obj
 0002:00008cec       __ehfuncinfo$?OnUIControlRequest@CServiceUnits@@IAEJIJ@Z 0042ccec     ServiceUnits.obj
 0002:00008d10       __ehfuncinfo$??1CWordNode@@UAE@XZ 0042cd10     WordFilter.obj
 0002:00008d34       __unwindtable$??1CWordNode@@UAE@XZ 0042cd34     WordFilter.obj
 0002:00008d5c       __catchsym$?InsertChild@CWordNode@@QAEPAV1@D@Z$3 0042cd5c     WordFilter.obj
 0002:00008d6c       __unwindtable$?InsertChild@CWordNode@@QAEPAV1@D@Z 0042cd6c     WordFilter.obj
 0002:00008d7c       __tryblocktable$?InsertChild@CWordNode@@QAEPAV1@D@Z 0042cd7c     WordFilter.obj
 0002:00008d90       __ehfuncinfo$?InsertChild@CWordNode@@QAEPAV1@D@Z 0042cd90     WordFilter.obj
 0002:00008db4       __catchsym$?RebuildTree@CWordTree@@IAEXXZ$5 0042cdb4     WordFilter.obj
 0002:00008dc4       __tryblocktable$?RebuildTree@CWordTree@@IAEXXZ 0042cdc4     WordFilter.obj
 0002:00008dd8       __unwindtable$?RebuildTree@CWordTree@@IAEXXZ 0042cdd8     WordFilter.obj
 0002:00008df8       __ehfuncinfo$?RebuildTree@CWordTree@@IAEXXZ 0042cdf8     WordFilter.obj
 0002:00008e1c       __unwindtable$??0CWordFilter@@QAE@XZ 0042ce1c     WordFilter.obj
 0002:00008e24       __ehfuncinfo$??0CWordFilter@@QAE@XZ 0042ce24     WordFilter.obj
 0002:00008e48       __unwindtable$?InsertKeyword@CWordFilter@@QAE_NPB_W@Z 0042ce48     WordFilter.obj
 0002:00008e50       __ehfuncinfo$?InsertKeyword@CWordFilter@@QAE_NPB_W@Z 0042ce50     WordFilter.obj
 0002:00008e74       __unwindtable$?FilterWords@CWordFilter@@QAE_NPB_W@Z 0042ce74     WordFilter.obj
 0002:00008e7c       __ehfuncinfo$?FilterWords@CWordFilter@@QAE_NPB_W@Z 0042ce7c     WordFilter.obj
 0002:00008ea0       __sehtable$?__scrt_common_main_seh@@YAHXZ 0042cea0     msvcrt:exe_wwinmain.obj
 0002:00008ec0       __sehtable$___scrt_is_nonwritable_in_current_image 0042cec0     msvcrt:utility.obj
 0002:00008ee0       __sehtable$??_L@YGXPAXIIP6EX0@Z1@Z 0042cee0     msvcrt:ehvecctr.obj
 0002:00008f00       __sehtable$??_M@YGXPAXIIP6EX0@Z@Z 0042cf00     msvcrt:ehvecdtr.obj
 0002:00008f20       __sehtable$?__ArrayUnwind@@YGXPAXIIP6EX0@Z@Z 0042cf20     msvcrt:ehvecdtr.obj
 0002:00009658       .idata$6                   0042d658     mfc140u:mfc140u.dll
 0002:00009958       .idata$6                   0042d958     kernel32:KERNEL32.dll
 0002:000099ba       .idata$6                   0042d9ba     user32:USER32.dll
 0002:000099c6       .idata$6                   0042d9c6     comctl32:COMCTL32.dll
 0002:000099d4       .idata$6                   0042d9d4     oleaut32:OLEAUT32.dll
 0002:00009ba8       .idata$6                   0042dba8     ServiceCore:ServiceCore.dll
 0002:0000a0d2       .idata$6                   0042e0d2     KernelEngine:KernelEngine.dll
 0002:0000a0f8       .idata$6                   0042e0f8     DbgHelp:dbghelp.dll
 0002:0000a1b6       .idata$6                   0042e1b6     vcruntime:VCRUNTIME140.dll
 0002:0000a4a4       .idata$6                   0042e4a4     ucrt:api-ms-win-crt-stdio-l1-1-0.dll
 0002:0000a4c4       .idata$6                   0042e4c4     ucrt:api-ms-win-crt-runtime-l1-1-0.dll
 0002:0000a4e6       .idata$6                   0042e4e6     ucrt:api-ms-win-crt-string-l1-1-0.dll
 0002:0000a508       .idata$6                   0042e508     ucrt:api-ms-win-crt-convert-l1-1-0.dll
 0002:0000a52a       .idata$6                   0042e52a     ucrt:api-ms-win-crt-heap-l1-1-0.dll
 0002:0000a54a       .idata$6                   0042e54a     ucrt:api-ms-win-crt-utility-l1-1-0.dll
 0002:0000a56c       .idata$6                   0042e56c     ucrt:api-ms-win-crt-time-l1-1-0.dll
 0002:0000a58c       .idata$6                   0042e58c     ucrt:api-ms-win-crt-locale-l1-1-0.dll
 0002:0000a5ae       .idata$6                   0042e5ae     ucrt:api-ms-win-crt-math-l1-1-0.dll
 0003:00000b80       ?strFile@?1??SendLogData@CAttemperEngineSink@@IAAXPB_WZZ@4V?$CStringT@_WV?$StrTraitMFC_DLL@_WV?$ChTraitsCRT@_W@ATL@@@@@ATL@@A 0042fb80     AttemperEngineSink.obj
 0003:00000b84       ?$TSS0@?1??SendLogData@CAttemperEngineSink@@IAAXPB_WZZ@4HA 0042fb84     AttemperEngineSink.obj
 0003:00000b98       ?g_sResult@@3PADA          0042fb98     Stdafx.obj
 0003:000013a0       ?g_wsResult@@3PA_WA        004303a0     Stdafx.obj
 0003:00001bb4       ?module_local_atexit_table@@3U_onexit_table_t@@A 00430bb4     msvcrt:utility.obj
 0003:00001bc0       ?module_local_at_quick_exit_table@@3U_onexit_table_t@@A 00430bc0     msvcrt:utility.obj
 0003:00001bcc       ?is_initialized_as_dll@@3_NA 00430bcc     msvcrt:utility.obj
 0003:00001bd0       ?_Tss_mutex@@3U_RTL_CRITICAL_SECTION@@A 00430bd0     msvcrt:thread_safe_statics.obj
 0003:00001be8       ?_Tss_cv@@3U_RTL_CONDITION_VARIABLE@@A 00430be8     msvcrt:thread_safe_statics.obj
 0003:00001bec       ?_Tss_event@@3PAXA         00430bec     msvcrt:thread_safe_statics.obj
 0003:00001bf0       ?encoded_sleep_condition_variable_cs@@3P6GHPAU_RTL_CONDITION_VARIABLE@@PAU_RTL_CRITICAL_SECTION@@K@ZA 00430bf0     msvcrt:thread_safe_statics.obj
 0003:00001bf4       ?encoded_wake_all_condition_variable@@3P6GXPAU_RTL_CONDITION_VARIABLE@@@ZA 00430bf4     msvcrt:thread_safe_statics.obj
 0003:00001c20       _GS_ExceptionRecord        00430c20     msvcrt:gs_report.obj
 0003:00001c70       _GS_ContextRecord          00430c70     msvcrt:gs_report.obj
 0004:00000000       __guard_fids__             00431000     msvcrt:exe_wwinmain.obj
 0004:00000004       __guard_fids__             00431004     msvcrt:exe_wwinmain.obj
 0004:00000008       __guard_fids__             00431008     msvcrt:exe_wwinmain.obj
 0004:0000000c       __guard_fids_?pre_c_initialization@@YAHXZ 0043100c     msvcrt:exe_wwinmain.obj
 0004:00000014       __guard_fids__             00431014     msvcrt:std_type_info_static.obj
 0004:00000018       __guard_fids__             00431018     msvcrt:thread_safe_statics.obj
 0004:0000001c       __guard_fids_?__scrt_initialize_thread_safe_statics@@YAHXZ 0043101c     msvcrt:thread_safe_statics.obj
 0004:00000020       __guard_fids___except_handler4 00431020     msvcrt:_chandler4gs_.obj
 0004:00000024       __guard_fids____scrt_set_unhandled_exception_filter 00431024     msvcrt:utility_desktop.obj
 0004:00000028       __guard_fids__             00431028     msvcrt:guard_support.obj
 0004:0000002c       __guard_fids_??__E_AtlBaseModule@ATL@@YAXXZ 0043102c     atls:atlbase.obj
 0004:00000030       __guard_fids__             00431030     atls:atlbase.obj
 0004:00000034       __guard_fids__             00431034     mfcs140u:appmodul.obj
 0006:00000390       $R000000                   00433390     AccessServer.res
 0006:000009f8       $R000668                   004339f8     AccessServer.res
 0006:00000ce0       $R000950                   00433ce0     AccessServer.res
 0006:00000e08       $R000A78                   00433e08     AccessServer.res
 0006:00001cb0       $R001920                   00434cb0     AccessServer.res
 0006:00002558       $R0021C8                   00435558     AccessServer.res
 0006:00002ac0       $R002730                   00435ac0     AccessServer.res
 0006:00044ae8       $R044758                   00477ae8     AccessServer.res
 0006:00055310       $R054F80                   00488310     AccessServer.res
 0006:000578b8       $R057528                   0048a8b8     AccessServer.res
 0006:00058960       $R0585D0                   0048b960     AccessServer.res
 0006:00058dc8       $R058A38                   0048bdc8     AccessServer.res
 0006:00058e68       $R058AD8                   0048be68     AccessServer.res
 0006:00058f68       $R058BD8                   0048bf68     AccessServer.res
 0006:00059240       $R058EB0                   0048c240     AccessServer.res
 0006:00059540       $R0591B0                   0048c540     AccessServer.res
