 AndroidDistribute

 Timestamp is 651e7f8d (Thu Oct  5 17:19:09 2023)

 Preferred load address is 00400000

 Start         Length     Name                   Class
 0001:00000000 00000050H .text$di                CODE
 0001:00000050 00017f60H .text$mn                CODE
 0001:00017fb0 00000b00H .text$x                 CODE
 0001:00018ab0 00000019H .text$yd                CODE
 0002:00000000 00000508H .idata$5                DATA
 0002:00000508 00000004H .00cfg                  DATA
 0002:0000050c 00000004H .CRT$XCA                DATA
 0002:00000510 00000004H .CRT$XCAA               DATA
 0002:00000514 00000008H .CRT$XCL                DATA
 0002:0000051c 00000004H .CRT$XCU                DATA
 0002:00000520 00000004H .CRT$XCZ                DATA
 0002:00000524 00000004H .CRT$XIA                DATA
 0002:00000528 00000004H .CRT$XIAA               DATA
 0002:0000052c 00000004H .CRT$XIAC               DATA
 0002:00000530 00000004H .CRT$XIC                DATA
 0002:00000534 00000004H .CRT$XIZ                DATA
 0002:00000538 00000004H .CRT$XLA                DATA
 0002:0000053c 00000004H .CRT$XLZ                DATA
 0002:00000540 00000004H .CRT$XPA                DATA
 0002:00000544 00000004H .CRT$XPZ                DATA
 0002:00000548 00000004H .CRT$XTA                DATA
 0002:0000054c 00000004H .CRT$XTZ                DATA
 0002:00000550 00008fd4H .rdata                  DATA
 0002:00009524 00000018H .rdata$T                DATA
 0002:0000953c 00001434H .rdata$r                DATA
 0002:0000a970 000000d0H .rdata$sxdata           DATA
 0002:0000aa40 00000408H .rdata$zzzdbg           DATA
 0002:0000ae48 00000004H .rtc$IAA                DATA
 0002:0000ae4c 00000004H .rtc$IZZ                DATA
 0002:0000ae50 00000004H .rtc$TAA                DATA
 0002:0000ae54 00000004H .rtc$TZZ                DATA
 0002:0000ae58 00001134H .xdata$x                DATA
 0002:0000bf8c 00000000H ATL$__a                 DATA
 0002:0000bf8c 00000000H ATL$__z                 DATA
 0002:0000bf8c 00000000H .edata                  DATA
 0002:0000bf8c 0000017cH .idata$2                DATA
 0002:0000c108 00000014H .idata$3                DATA
 0002:0000c11c 00000508H .idata$4                DATA
 0002:0000c624 00000e00H .idata$6                DATA
 0003:00000000 00000078H .data                   DATA
 0003:00000078 00000ca0H .data$r                 DATA
 0003:00000d18 00002ce4H .bss                    DATA
 0004:00000000 00000064H .gfids$y                DATA
 0005:00000000 00000004H .tls                    DATA
 0005:00000004 00000004H .tls$                   DATA
 0005:00000008 00000001H .tls$ZZZ                DATA
 0006:00000000 00000180H .rsrc$01                DATA
 0006:00000180 00002bb0H .rsrc$02                DATA

  Address         Publics by Value              Rva+Base       Lib:Object

 0000:00000000       ___guard_fids_table        00000000     <absolute>
 0000:00000000       ___guard_longjmp_count     00000000     <absolute>
 0000:00000000       ___guard_fids_count        00000000     <absolute>
 0000:00000000       ___guard_longjmp_table     00000000     <absolute>
 0000:00000000       ___dynamic_value_reloc_table 00000000     <absolute>
 0000:00000000       ___guard_iat_count         00000000     <absolute>
 0000:00000000       ___guard_iat_table         00000000     <absolute>
 0000:0000002c       __tls_array                0000002c     <absolute>
 0000:00000034       ___safe_se_handler_count   00000034     <absolute>
 0000:00000100       ___guard_flags             00000100     <absolute>
 0000:00000000       ___ImageBase               00400000     <linker-defined>
 0001:00000050       ??0WHLogControl@@QAE@XZ    00401050 f   Log.obj
 0001:00000060       ??1WHLogControl@@QAE@XZ    00401060 f   Log.obj
 0001:00000070       ?SetLogStatus@WHLogControl@@SAXE@Z 00401070 f   Log.obj
 0001:00000080       ?GetLogStatus@WHLogControl@@SAEXZ 00401080 f   Log.obj
 0001:00000090       ?LogPrintf@WHLogControl@@SAXGPADPBDZZ 00401090 f   Log.obj
 0001:000002c0       ?LogPrintf@WHLogControl@@SAXGPA_WPB_WZZ 004012c0 f   Log.obj
 0001:000005d0       ??$__vcrt_va_start_verify_argument_type@PB_W@@YAXXZ 004015d0 f i Log.obj
 0001:000005d0       ??$__vcrt_va_start_verify_argument_type@QB_W@@YAXXZ 004015d0 f i Log.obj
 0001:000005d0       ??3@YAXPAX0@Z              004015d0 f i AIManager.obj
 0001:000005d0       ??$__vcrt_va_start_verify_argument_type@PBD@@YAXXZ 004015d0 f i Log.obj
 0001:000005d0       ?__global_delete@@YAXPAXI@Z 004015d0 f i AttemperEngineSink.obj
 0001:000005d0       ?__empty_global_delete@@YAXPAXI@Z 004015d0 f i AttemperEngineSink.obj
 0001:000005e0       ??$sprintf_s@$0BAE@@@YAHAAY0BAE@DPBDZZ 004015e0 f i Log.obj
 0001:00000610       ??$sprintf_s@$0EAA@@@YAHAAY0EAA@DPBDZZ 00401610 f i Log.obj
 0001:00000640       ___local_stdio_printf_options 00401640 f i Log.obj
 0001:00000650       __vfwprintf_s_l            00401650 f i Log.obj
 0001:00000680       __vsnprintf                00401680 f i Log.obj
 0001:000006a0       __vsnprintf_l              004016a0 f i Log.obj
 0001:00000700       __vsnwprintf               00401700 f i Log.obj
 0001:00000720       __vsnwprintf_l             00401720 f i Log.obj
 0001:00000780       __vsprintf_s_l             00401780 f i Log.obj
 0001:000007d0       _fwprintf_s                004017d0 f i Log.obj
 0001:00000810       _vsprintf_s                00401810 f i Log.obj
 0001:00000960       ??0CAttemperEngineSink@@QAE@XZ 00401960 f   AttemperEngineSink.obj
 0001:00000ab0       ??1CAttemperEngineSink@@UAE@XZ 00401ab0 f   AttemperEngineSink.obj
 0001:00000ae0       ?QueryInterface@CAttemperEngineSink@@UAEPAXABU_GUID@@K@Z 00401ae0 f   AttemperEngineSink.obj
 0001:00000b60       ?OnAttemperEngineStart@CAttemperEngineSink@@UAE_NPAUIUnknownEx@@@Z 00401b60 f   AttemperEngineSink.obj
 0001:00000bf0       ?OnAttemperEngineConclude@CAttemperEngineSink@@UAE_NPAUIUnknownEx@@@Z 00401bf0 f   AttemperEngineSink.obj
 0001:00000c80       ?OnEventControl@CAttemperEngineSink@@UAE_NGPAXG@Z 00401c80 f   AttemperEngineSink.obj
 0001:00000e60       ?OnEventAttemperData@CAttemperEngineSink@@UAE_NGPAXG@Z 00401e60 f   AttemperEngineSink.obj
 0001:00000e70       ?OnEventTimer@CAttemperEngineSink@@UAE_NKI@Z 00401e70 f   AttemperEngineSink.obj
 0001:00001160       ?OnEventDataBase@CAttemperEngineSink@@UAE_NGKPAXG@Z 00402160 f   AttemperEngineSink.obj
 0001:00001310       ?OnEventTCPSocketLink@CAttemperEngineSink@@UAE_NGH@Z 00402310 f   AttemperEngineSink.obj
 0001:000014a0       ?OnEventTCPSocketShut@CAttemperEngineSink@@UAE_NGE@Z 004024a0 f   AttemperEngineSink.obj
 0001:00001570       ?OnEventTCPSocketRead@CAttemperEngineSink@@UAE_NGUTCP_Command@@PAXG@Z 00402570 f   AttemperEngineSink.obj
 0001:000015d0       ?OnEventTCPNetworkBind@CAttemperEngineSink@@UAE_NKK@Z 004025d0 f   AttemperEngineSink.obj
 0001:000016c0       ?OnEventTCPNetworkShut@CAttemperEngineSink@@UAE_NKKK@Z 004026c0 f   AttemperEngineSink.obj
 0001:000017a0       ?OnEventTCPNetworkRead@CAttemperEngineSink@@UAE_NUTCP_Command@@PAXGK@Z 004027a0 f   AttemperEngineSink.obj
 0001:00001890       ?SendData@CAttemperEngineSink@@UAE_NEGGPAXG@Z 00402890 f   AttemperEngineSink.obj
 0001:00001940       ?SendData@CAttemperEngineSink@@UAE_NKGGPAXG@Z 00402940 f   AttemperEngineSink.obj
 0001:000019a0       ?SendData@CAttemperEngineSink@@UAE_NPAUIServerUserItem@@GGPAXG@Z 004029a0 f   AttemperEngineSink.obj
 0001:000019c0       ?SendLogData@CAttemperEngineSink@@UAAXPAUIServerUserItem@@PB_WZZ 004029c0 f   AttemperEngineSink.obj
 0001:00001b70       ?SendLogData@CAttemperEngineSink@@UAEXUtagLogUserInfo@@@Z 00402b70 f   AttemperEngineSink.obj
 0001:00001d10       ?SendLogData@CAttemperEngineSink@@UAAXPB_WZZ 00402d10 f   AttemperEngineSink.obj
 0001:00001e60       ?SendLogData@CAttemperEngineSink@@UAEXPAUIServerUserItem@@QB_WPB_W@Z 00402e60 f   AttemperEngineSink.obj
 0001:00001fc0       ?DisconnectCorrespond@CAttemperEngineSink@@UAE_NXZ 00402fc0 f   AttemperEngineSink.obj
 0001:00002020       ?InsertDistribute@CAttemperEngineSink@@UAE_NPAUIServerUserItem@@@Z 00403020 f   AttemperEngineSink.obj
 0001:00002030       ?OnDBGroupAIParameter@CAttemperEngineSink@@IAE_NKPAXG@Z 00403030 f   AttemperEngineSink.obj
 0001:00002260       ?OnDBGroupAIParameterEnd@CAttemperEngineSink@@IAE_NKPAXG@Z 00403260 f   AttemperEngineSink.obj
 0001:00002280       ?OnDBLoadAIUser@CAttemperEngineSink@@IAE_NKPAXG@Z 00403280 f   AttemperEngineSink.obj
 0001:000024c0       ?OnDBLoadAIUserEnd@CAttemperEngineSink@@IAE_NKPAXG@Z 004034c0 f   AttemperEngineSink.obj
 0001:00002650       ?OnDBLoadAITimeChange@CAttemperEngineSink@@IAE_NKPAXG@Z 00403650 f   AttemperEngineSink.obj
 0001:00002740       ?OnDBLoadAITimeWeightIn@CAttemperEngineSink@@IAE_NKPAXG@Z 00403740 f   AttemperEngineSink.obj
 0001:00002850       ?OnDBLoadAITimeWeightOut@CAttemperEngineSink@@IAE_NKPAXG@Z 00403850 f   AttemperEngineSink.obj
 0001:00002960       ?OnDBAIOperateResult@CAttemperEngineSink@@IAE_NKPAXG@Z 00403960 f   AttemperEngineSink.obj
 0001:00002a70       ?OnDBClearAIResult@CAttemperEngineSink@@IAE_NKPAXG@Z 00403a70 f   AttemperEngineSink.obj
 0001:00002b00       ?OnTCPNetworkService@CAttemperEngineSink@@IAE_NGPAXGK@Z 00403b00 f   AttemperEngineSink.obj
 0001:00002c50       ?OnTCPNetworkSubRegister@CAttemperEngineSink@@IAE_NPAXGK@Z 00403c50 f   AttemperEngineSink.obj
 0001:00002e70       ?OnTCPNetworkSubGroupGameRule@CAttemperEngineSink@@IAE_NPAXGK@Z 00403e70 f   AttemperEngineSink.obj
 0001:000030b0       ?OnTCPSocketMainRegister@CAttemperEngineSink@@IAE_NGPAXG@Z 004040b0 f   AttemperEngineSink.obj
 0001:000030f0       ?OnTCPSocketMainWebMessage@CAttemperEngineSink@@IAE_NGPAXG@Z 004040f0 f   AttemperEngineSink.obj
 0001:000038c0       ?OnTCPNetworkSubGroupRegister@CAttemperEngineSink@@IAE_NPAXGK@Z 004048c0 f   AttemperEngineSink.obj
 0001:00003900       ?OnTCPNetworkSubUpdateGroupGameRule@CAttemperEngineSink@@IAE_NPAXGK@Z 00404900 f   AttemperEngineSink.obj
 0001:00003a90       ?OnTCPNetworkSubUpdateGroupUserScore@CAttemperEngineSink@@IAE_NPAXGK@Z 00404a90 f   AttemperEngineSink.obj
 0001:00003bc0       ?OnTCPNetworkAIAction@CAttemperEngineSink@@IAE_NGPAXGK@Z 00404bc0 f   AttemperEngineSink.obj
 0001:00003cb0       ?OnTCPNetworkSubAIParameter@CAttemperEngineSink@@IAE_NPAXGK@Z 00404cb0 f   AttemperEngineSink.obj
 0001:00003db0       ?OnTCPNetworkSubAIPrsnlRoomCreateSuccess@CAttemperEngineSink@@IAE_NPAXGK@Z 00404db0 f   AttemperEngineSink.obj
 0001:00003e10       ?OnTCPNetworkSubAILogonResult@CAttemperEngineSink@@IAE_NPAXGK@Z 00404e10 f   AttemperEngineSink.obj
 0001:00003f30       ?OnTCPNetworkSubAIUpdateStatus@CAttemperEngineSink@@IAE_NPAXGK@Z 00404f30 f   AttemperEngineSink.obj
 0001:00003f90       ?OnTCPNetworkSubAITableChange@CAttemperEngineSink@@IAE_NPAXGK@Z 00404f90 f   AttemperEngineSink.obj
 0001:00004000       ?OnTCPNetworkSubAISitFailure@CAttemperEngineSink@@IAE_NPAXGK@Z 00405000 f   AttemperEngineSink.obj
 0001:00004100       ?GetBindParameter@CAttemperEngineSink@@UAEPAUtagBindParameter@@G@Z 00405100 f   AttemperEngineSink.obj
 0001:00004150       ?SendUIControlPacket@CAttemperEngineSink@@IAE_NGPAXG@Z 00405150 f   AttemperEngineSink.obj
 0001:00004180       ??$_snwprintf_s@$0CAA@@@YAHAAY0CAA@_WIPB_WZZ 00405180 f i AttemperEngineSink.obj
 0001:000041b0       ??$_snwprintf_s@$0IA@@@YAHAAY0IA@_WIPB_WZZ 004051b0 f i AttemperEngineSink.obj
 0001:000041e0       ??0?$CWHArray@KABK@@QAE@XZ 004051e0 f i AttemperEngineSink.obj
 0001:00004220       ??0IAttemperEngineSink@@QAE@XZ 00405220 f i AttemperEngineSink.obj
 0001:00004240       ??0IUnknownEx@@QAE@XZ      00405240 f i AttemperEngineSink.obj
 0001:00004260       ??0TimeChange@@QAE@XZ      00405260 f i AttemperEngineSink.obj
 0001:00004280       ??1?$CWHArray@KABK@@UAE@XZ 00405280 f i AttemperEngineSink.obj
 0001:000042e0       ??2@YAPAXIPAX@Z            004052e0 f i AttemperEngineSink.obj
 0001:000042f0       ??_G?$CWHArray@KABK@@UAEPAXI@Z 004052f0 f i AttemperEngineSink.obj
 0001:000042f0       ??_E?$CWHArray@KABK@@UAEPAXI@Z 004052f0 f i AttemperEngineSink.obj
 0001:00004320       ??_ECAttemperEngineSink@@UAEPAXI@Z 00405320 f i AttemperEngineSink.obj
 0001:00004320       ??_GCAttemperEngineSink@@UAEPAXI@Z 00405320 f i AttemperEngineSink.obj
 0001:00004360       ?GetBuildVer@@YAEK@Z       00405360 f i AttemperEngineSink.obj
 0001:00004380       ?GetMainVer@@YAEK@Z        00405380 f i AttemperEngineSink.obj
 0001:00004390       ?GetProductVer@@YAEK@Z     00405390 f i AttemperEngineSink.obj
 0001:000043b0       ?GetSubVer@@YAEK@Z         004053b0 f i AttemperEngineSink.obj
 0001:000043d0       ?InterfaceVersionCompare@@YA_NKK@Z 004053d0 f i AttemperEngineSink.obj
 0001:00004480       _==                        00405480 f i AttemperEngineSink.obj
 0001:000044b0       _IsEqualGUID               004054b0 f i AttemperEngineSink.obj
 0001:000044f0       __vsnwprintf_s             004054f0 f i AttemperEngineSink.obj
 0001:00004520       __vsnwprintf_s_l           00405520 f i AttemperEngineSink.obj
 0001:00004580       __vswprintf_s_l            00405580 f i AttemperEngineSink.obj
 0001:000045d0       _vswprintf_s               004055d0 f i AttemperEngineSink.obj
 0001:00004660       ??0CDataBaseEngineSink@@QAE@XZ 00405660 f   DataBaseEngineSink.obj
 0001:000047c0       ??1CDataBaseEngineSink@@UAE@XZ 004057c0 f   DataBaseEngineSink.obj
 0001:00004890       ?QueryInterface@CDataBaseEngineSink@@UAEPAXABU_GUID@@K@Z 00405890 f   DataBaseEngineSink.obj
 0001:00004960       ?GetDataBase@CDataBaseEngineSink@@UAEPAXABU_GUID@@K@Z 00405960 f   DataBaseEngineSink.obj
 0001:00004970       ?GetDataBaseEngine@CDataBaseEngineSink@@UAEPAXABU_GUID@@K@Z 00405970 f   DataBaseEngineSink.obj
 0001:000049c0       ?PostGameDataBaseResult@CDataBaseEngineSink@@UAE_NGPAXG@Z 004059c0 f   DataBaseEngineSink.obj
 0001:000049d0       ?OnDataBaseEngineStart@CDataBaseEngineSink@@UAE_NPAUIUnknownEx@@@Z 004059d0 f   DataBaseEngineSink.obj
 0001:00004e60       ?OnDataBaseEngineConclude@CDataBaseEngineSink@@UAE_NPAUIUnknownEx@@@Z 00405e60 f   DataBaseEngineSink.obj
 0001:00004f70       ?OnDataBaseEngineTimer@CDataBaseEngineSink@@UAE_NKI@Z 00405f70 f   DataBaseEngineSink.obj
 0001:00004f80       ?OnDataBaseEngineControl@CDataBaseEngineSink@@UAE_NGPAXG@Z 00405f80 f   DataBaseEngineSink.obj
 0001:00004f90       ?OnDataBaseEngineRequest@CDataBaseEngineSink@@UAE_NGKPAXG@Z 00405f90 f   DataBaseEngineSink.obj
 0001:00005170       ?OnRequestAIParameter@CDataBaseEngineSink@@IAE_NKPAXGAAK@Z 00406170 f   DataBaseEngineSink.obj
 0001:000057c0       ?OnRequestLoadAIParameter@CDataBaseEngineSink@@IAE_NKPAXGAAK@Z 004067c0 f   DataBaseEngineSink.obj
 0001:000060f0       ?OnRequestLoadAIUser@CDataBaseEngineSink@@IAE_NKPAXGAAK@Z 004070f0 f   DataBaseEngineSink.obj
 0001:000065e0       ?OnRequestUnLockAIUser@CDataBaseEngineSink@@IAE_NKPAXGAAK@Z 004075e0 f   DataBaseEngineSink.obj
 0001:000066b0       ?OnRequestAIQuitGroup@CDataBaseEngineSink@@IAE_NKPAXGAAK@Z 004076b0 f   DataBaseEngineSink.obj
 0001:00006860       ?OnRequestLoadSingleAI@CDataBaseEngineSink@@IAE_NKPAXGAAK@Z 00407860 f   DataBaseEngineSink.obj
 0001:00006b40       ?OnRequestLoadAllAIOption@CDataBaseEngineSink@@IAE_NKPAXGAAK@Z 00407b40 f   DataBaseEngineSink.obj
 0001:000071d0       ?OnAIOperateResult@CDataBaseEngineSink@@IAEXK_NKGPB_W@Z 004081d0 f   DataBaseEngineSink.obj
 0001:000072b0       ?OnAIOperateClear@CDataBaseEngineSink@@IAE_NKPAXGAAK@Z 004082b0 f   DataBaseEngineSink.obj
 0001:00007370       ?SendLogData@CDataBaseEngineSink@@AAAXPB_WZZ 00408370 f   DataBaseEngineSink.obj
 0001:00007490       ??0?$CTempldateHelper@UIDataBase@@@@QAE@ABU_GUID@@KPB_WPBD@Z 00408490 f i DataBaseEngineSink.obj
 0001:00007520       ??0?$CW2CWEX@$0IA@@ATL@@QAE@PB_W@Z 00408520 f i DataBaseEngineSink.obj
 0001:00007520       ??0CPair@?$CMap@KKPAV?$CMap@GGPAV?$CMap@KKPAUtagAIUserInfo@@PAU1@@@PAV1@@@PAV1@@@IAE@K@Z 00408520 f i AIManager.obj
 0001:00007520       ??0CPair@?$CMap@KKHH@@IAE@K@Z 00408520 f i AIManager.obj
 0001:00007520       ??0CPair@?$CMap@KKPAUtagAIUserInfo@@PAU1@@@IAE@K@Z 00408520 f i AIManager.obj
 0001:00007520       ??0CPair@?$CMap@KKPAV?$CMap@GGPAUtagGroupAIParameter@@PAU1@@@PAV1@@@IAE@K@Z 00408520 f i AIManager.obj
 0001:00007540       ??0CDataBaseHelper@@QAE@XZ 00408540 f i DataBaseEngineSink.obj
 0001:00007580       ??0IDataBaseEngineSink@@QAE@XZ 00408580 f i DataBaseEngineSink.obj
 0001:000075a0       ??0IGameDataBaseEngine@@QAE@XZ 004085a0 f i DataBaseEngineSink.obj
 0001:000075c0       ??0_variant_t@@QAE@XZ      004085c0 f i DataBaseEngineSink.obj
 0001:000075e0       ??1?$CTempldateHelper@UIDataBase@@@@UAE@XZ 004085e0 f i DataBaseEngineSink.obj
 0001:00007630       ??1CDataBaseHelper@@UAE@XZ 00408630 f i DataBaseEngineSink.obj
 0001:00007650       ??1_variant_t@@QAE@XZ      00408650 f i DataBaseEngineSink.obj
 0001:00007670       ??B?$CW2CWEX@$0IA@@ATL@@QBEPB_WXZ 00408670 f i DataBaseEngineSink.obj
 0001:00007680       ??_E?$CTempldateHelper@UIDataBase@@@@UAEPAXI@Z 00408680 f i DataBaseEngineSink.obj
 0001:00007680       ??_G?$CTempldateHelper@UIDataBase@@@@UAEPAXI@Z 00408680 f i DataBaseEngineSink.obj
 0001:000076c0       ??_ECDataBaseEngineSink@@UAEPAXI@Z 004086c0 f i DataBaseEngineSink.obj
 0001:000076c0       ??_GCDataBaseEngineSink@@UAEPAXI@Z 004086c0 f i DataBaseEngineSink.obj
 0001:00007700       ??_GCDataBaseHelper@@UAEPAXI@Z 00408700 f i DataBaseEngineSink.obj
 0001:00007700       ??_ECDataBaseHelper@@UAEPAXI@Z 00408700 f i DataBaseEngineSink.obj
 0001:00007740       ?CreateInstance@?$CTempldateHelper@UIDataBase@@@@QAE_NXZ 00408740 f i DataBaseEngineSink.obj
 0001:00007920       ?GetCustomRule@CDataBaseEngineSink@@UAEPAXXZ 00408920 f i DataBaseEngineSink.obj
 0001:00007940       ?GetGameServiceAttrib@CDataBaseEngineSink@@UAEPAUtagGameServiceAttrib@@XZ 00408940 f i DataBaseEngineSink.obj
 0001:00007960       ?GetGameServiceOption@CDataBaseEngineSink@@UAEPAUtagGameServiceOption@@XZ 00408960 f i DataBaseEngineSink.obj
 0001:00007974       ?QueryInterface@CDataBaseEngineSink@@W3AEPAXABU_GUID@@K@Z 00408974 f i DataBaseEngineSink.obj
 0001:00007980       ?Release@CDataBaseEngineSink@@UAEXXZ 00408980 f i DataBaseEngineSink.obj
 0001:00007980       ??1CObject@@UAE@XZ         00408980 f i DBCorrespondManager.obj
 0001:00007980       ??1?$CW2CWEX@$0IA@@ATL@@QAE@XZ 00408980 f i DataBaseEngineSink.obj
 0001:00007980       ?Release@CAttemperEngineSink@@UAEXXZ 00408980 f i AttemperEngineSink.obj
 0001:00007980       ?AssertValid@CObject@@UBEXXZ 00408980 f i DBCorrespondManager.obj
 0001:0000798b       ?Release@CDataBaseEngineSink@@W3AEXXZ 0040898b f i DataBaseEngineSink.obj
 0001:000079a0       ??0CDBCorrespondManager@@QAE@XZ 004089a0 f   DBCorrespondManager.obj
 0001:00007a30       ??1CDBCorrespondManager@@QAE@XZ 00408a30 f   DBCorrespondManager.obj
 0001:00007ab0       ?QueryInterface@CDBCorrespondManager@@UAEPAXABU_GUID@@K@Z 00408ab0 f   DBCorrespondManager.obj
 0001:00007b30       ?StartService@CDBCorrespondManager@@UAE_NXZ 00408b30 f   DBCorrespondManager.obj
 0001:00007b50       ?ConcludeService@CDBCorrespondManager@@UAE_NXZ 00408b50 f   DBCorrespondManager.obj
 0001:00007be0       ?InitDBCorrespondManager@CDBCorrespondManager@@UAA_NPAUIDataBaseEngine@@@Z 00408be0 f   DBCorrespondManager.obj
 0001:00007bf0       ?PostDataBaseRequest@CDBCorrespondManager@@UAA_NKGKPAXGE@Z 00408bf0 f   DBCorrespondManager.obj
 0001:00007c80       ?OnPostRequestComplete@CDBCorrespondManager@@UAA_NK_N@Z 00408c80 f   DBCorrespondManager.obj
 0001:00007d90       ?OnTimerNotify@CDBCorrespondManager@@UAA_NXZ 00408d90 f   DBCorrespondManager.obj
 0001:00007e00       ?IsPostDBRequest@CDBCorrespondManager@@QAE_NK@Z 00408e00 f   DBCorrespondManager.obj
 0001:00007e50       ?GetUserArrayIndex@CDBCorrespondManager@@QAEHK@Z 00408e50 f   DBCorrespondManager.obj
 0001:00007eb0       ?AmortizeSyncData@CDBCorrespondManager@@QAE_NKGKPAXGE@Z 00408eb0 f   DBCorrespondManager.obj
 0001:00007fb0       ?PerformAmortisation@CDBCorrespondManager@@QAEXXZ 00408fb0 f   DBCorrespondManager.obj
 0001:00008090       ?ClearAmortizeData@CDBCorrespondManager@@QAEXXZ 00409090 f   DBCorrespondManager.obj
 0001:000080e0       ??0?$CList@PAUtagDBRequestHead@@ABQAU1@@@QAE@H@Z 004090e0 f i DBCorrespondManager.obj
 0001:00008140       ??0CCriticalSection@@QAE@XZ 00409140 f i DBCorrespondManager.obj
 0001:000081c0       ??0CObject@@IAE@XZ         004091c0 f i DBCorrespondManager.obj
 0001:000081d0       ??0IDBCorrespondManager@@QAE@XZ 004091d0 f i DBCorrespondManager.obj
 0001:000081f0       ??0IServiceModule@@QAE@XZ  004091f0 f i DBCorrespondManager.obj
 0001:00008210       ??1?$CList@PAUtagDBRequestHead@@ABQAU1@@@UAE@XZ 00409210 f i DBCorrespondManager.obj
 0001:00008260       ??1CCriticalSection@@UAE@XZ 00409260 f i DBCorrespondManager.obj
 0001:00008290       ??3CObject@@SGXPAX@Z       00409290 f i DBCorrespondManager.obj
 0001:000082b0       ??_G?$CList@PAUtagDBRequestHead@@ABQAU1@@@UAEPAXI@Z 004092b0 f i DBCorrespondManager.obj
 0001:000082b0       ??_E?$CList@PAUtagDBRequestHead@@ABQAU1@@@UAEPAXI@Z 004092b0 f i DBCorrespondManager.obj
 0001:00008300       ??_ECCriticalSection@@UAEPAXI@Z 00409300 f i DBCorrespondManager.obj
 0001:00008300       ??_GCCriticalSection@@UAEPAXI@Z 00409300 f i DBCorrespondManager.obj
 0001:00008350       ??_GCDBCorrespondManager@@QAEPAXI@Z 00409350 f i DBCorrespondManager.obj
 0001:00008380       ?AddTail@?$CList@PAUtagDBRequestHead@@ABQAU1@@@QAEPAU__POSITION@@ABQAUtagDBRequestHead@@@Z 00409380 f i DBCorrespondManager.obj
 0001:000083e0       ?AtlThrowImpl@ATL@@YGXJ@Z  004093e0 f i DBCorrespondManager.obj
 0001:00008400       ?Dump@CObject@@UBEXAAVCDumpContext@@@Z 00409400 f i DBCorrespondManager.obj
 0001:00008400       ?Serialize@CObject@@UAEXAAVCArchive@@@Z 00409400 f i DBCorrespondManager.obj
 0001:00008400       ?DoDataExchange@CWnd@@MAEXPAVCDataExchange@@@Z 00409400 f i AIDistributeDlg.obj
 0001:00008410       ?EnsureRead@CArchive@@QAEXPAXI@Z 00409410 f i DBCorrespondManager.obj
 0001:00008450       ?FreeNode@?$CList@PAUtagDBRequestHead@@ABQAU1@@@IAEXPAUCNode@1@@Z 00409450 f i DBCorrespondManager.obj
 0001:000084a0       ?GetHeadPosition@?$CList@PAUtagDBRequestHead@@ABQAU1@@@QBEPAU__POSITION@@XZ 004094a0 f i DBCorrespondManager.obj
 0001:000084c0       ?GetNext@?$CList@PAUtagDBRequestHead@@ABQAU1@@@QAEAAPAUtagDBRequestHead@@AAPAU__POSITION@@@Z 004094c0 f i DBCorrespondManager.obj
 0001:000084f0       ?Init@CCriticalSection@@AAEJXZ 004094f0 f i DBCorrespondManager.obj
 0001:00008530       ?IsStoring@CArchive@@QBEHXZ 00409530 f i DBCorrespondManager.obj
 0001:00008560       ?Lock@CCriticalSection@@QAEHXZ 00409560 f i DBCorrespondManager.obj
 0001:00008580       ?Lock@CCriticalSection@@UAEHK@Z 00409580 f i DBCorrespondManager.obj
 0001:000085a0       ?NewNode@?$CList@PAUtagDBRequestHead@@ABQAU1@@@IAEPAUCNode@1@PAU21@0@Z 004095a0 f i DBCorrespondManager.obj
 0001:000086b0       ?Release@CDBCorrespondManager@@UAEXXZ 004096b0 f i DBCorrespondManager.obj
 0001:000086f0       ?RemoveAll@?$CList@PAUtagDBRequestHead@@ABQAU1@@@QAEXXZ 004096f0 f i DBCorrespondManager.obj
 0001:00008760       ?RemoveAt@?$CList@PAUtagDBRequestHead@@ABQAU1@@@QAEXPAU__POSITION@@@Z 00409760 f i DBCorrespondManager.obj
 0001:000087d0       ?RemoveHead@?$CList@PAUtagDBRequestHead@@ABQAU1@@@QAEPAUtagDBRequestHead@@XZ 004097d0 f i DBCorrespondManager.obj
 0001:00008860       ?Serialize@?$CList@PAUtagDBRequestHead@@ABQAU1@@@UAEXAAVCArchive@@@Z 00409860 f i DBCorrespondManager.obj
 0001:00008920       ?Unlock@CCriticalSection@@UAEHXZ 00409920 f i DBCorrespondManager.obj
 0001:00008940       ?Unlock@CSyncObject@@UAEHJPAJ@Z 00409940 f i DBCorrespondManager.obj
 0001:00008960       ?data@CPlex@@QAEPAXXZ      00409960 f i DBCorrespondManager.obj
 0001:00008980       _HRESULT_FROM_WIN32        00409980 f i DBCorrespondManager.obj
 0001:00008b10       ??0CAIManager@@QAE@XZ      00409b10 f   AIManager.obj
 0001:00008c10       ??1CAIManager@@UAE@XZ      00409c10 f   AIManager.obj
 0001:00008cb0       ?SetWeightOutOption@CAIManager@@QAEXUWeightOutOption@@@Z 00409cb0 f   AIManager.obj
 0001:00008ce0       ?SetWeightInOption@CAIManager@@QAEXUWeightInOption@@@Z 00409ce0 f   AIManager.obj
 0001:00008d10       ?SetWeightOutOption@CAIManager@@QAEXHUtagWeightOutRatio@@@Z 00409d10 f   AIManager.obj
 0001:00008d50       ?SetWeightInOption@CAIManager@@QAEXHUtagWeightInRatio@@@Z 00409d50 f   AIManager.obj
 0001:00008d80       ?SetAITimeChange@CAIManager@@QAE_NPAUTimeChange@@@Z 00409d80 f   AIManager.obj
 0001:00008db0       ?SetAITimeChange@CAIManager@@QAE_NHH@Z 00409db0 f   AIManager.obj
 0001:00008de0       ?InsertGroupParameter@CAIManager@@QAEEUtagGroupAIParameter@@@Z 00409de0 f   AIManager.obj
 0001:00009040       ?GetGroupParameter@CAIManager@@QAEPAUtagGroupAIParameter@@KG@Z 0040a040 f   AIManager.obj
 0001:000090a0       ?SetDBCorrespondManager@CAIManager@@QAEXPAUIDBCorrespondManager@@PAUITCPNetworkEngine@@@Z 0040a0a0 f   AIManager.obj
 0001:000090d0       ?SendLoadOneKindAIAction@CAIManager@@QAEXKG@Z 0040a0d0 f   AIManager.obj
 0001:00009190       ?SendLoadAllAIAction@CAIManager@@QAEXXZ 0040a190 f   AIManager.obj
 0001:00009290       ?InsertAIUser@CAIManager@@QAEXKGPAUtagAIUserInfo@@@Z 0040a290 f   AIManager.obj
 0001:00009740       ?SendAIToGameServer@CAIManager@@QAEXPAUCMD_SS_G_PersonalRoomCreateSuccess@@K@Z 0040a740 f   AIManager.obj
 0001:00009b80       ?SendOneAIToGameServer@CAIManager@@QAEXPAUtagAISitFailure@@K@Z 0040ab80 f   AIManager.obj
 0001:0000a010       ?SendAIToGroupServer@CAIManager@@QAEXKGK@Z 0040b010 f   AIManager.obj
 0001:0000a290       ?InsertServerItem@CAIManager@@QAE_NKAAUtagGameServer@@@Z 0040b290 f   AIManager.obj
 0001:0000a420       ?UpdateAIStatusInfo@CAIManager@@QAE_NPAUtagAIStatusInfo@@@Z 0040b420 f   AIManager.obj
 0001:0000a5d0       ?UpdateAIScore@CAIManager@@QAE_NPAUtagAIStatusInfo@@@Z 0040b5d0 f   AIManager.obj
 0001:0000a7d0       ?GetAIWeightIn@CAIManager@@QAEKK@Z 0040b7d0 f   AIManager.obj
 0001:0000a870       ?GetAIWeightOut@CAIManager@@QAEKK@Z 0040b870 f   AIManager.obj
 0001:0000a920       ?GetTimeAICount@CAIManager@@QAEKK@Z 0040b920 f   AIManager.obj
 0001:0000a950       ?GetAIWaitTimeCount@CAIManager@@QAEK_J@Z 0040b950 f   AIManager.obj
 0001:0000a9b0       ?AIInOrOut@CAIManager@@QAEKK@Z 0040b9b0 f   AIManager.obj
 0001:0000aed0       ?GetAICount@CAIManager@@QAEKXZ 0040bed0 f   AIManager.obj
 0001:0000af80       ?CreateRoom@CAIManager@@QAEKGGUCMD_GR_AICreateTable@@@Z 0040bf80 f   AIManager.obj
 0001:0000b1e0       ?GetSingleAICount@CAIManager@@QAEPAUtagAIUserInfo@@KG@Z 0040c1e0 f   AIManager.obj
 0001:0000b3a0       ?DeleteServer@CAIManager@@QAE_NK@Z 0040c3a0 f   AIManager.obj
 0001:0000b6b0       ?UpdateAITableChange@CAIManager@@QAE_NPAUCMD_SS_G_AI_Update_Table_Count@@@Z 0040c6b0 f   AIManager.obj
 0001:0000bc40       ?GroupCreateRoomCount@CAIManager@@QAE_NKG@Z 0040cc40 f   AIManager.obj
 0001:0000bc50       ?InsertGroupGameRule@CAIManager@@QAE_NUtagGroupConfigInfo@@@Z 0040cc50 f   AIManager.obj
 0001:0000bdd0       ?DeleteGroupGameRule@CAIManager@@QAE_NUtagGroupConfigInfo@@@Z 0040cdd0 f   AIManager.obj
 0001:0000bf00       ?ModifyGroupGameRule@CAIManager@@QAE_NUtagGroupConfigInfo@@@Z 0040cf00 f   AIManager.obj
 0001:0000c050       ?CheckGroupRoomIsNull@CAIManager@@QAE_NXZ 0040d050 f   AIManager.obj
 0001:0000c7b0       ?SetUserLeave@CAIManager@@QAE_NUCMD_CS_C_DeleteAI@@@Z 0040d7b0 f   AIManager.obj
 0001:0000cab0       ?LetUserLeave@CAIManager@@QAE_NXZ 0040dab0 f   AIManager.obj
 0001:0000ce80       ?ResetUserStatus@CAIManager@@QAE_NG@Z 0040de80 f   AIManager.obj
 0001:0000d050       ??$CompareElements@GG@@YGHPBG0@Z 0040e050 f i AIManager.obj
 0001:0000d0b0       ??$CompareElements@KK@@YGHPBK0@Z 0040e0b0 f i AIManager.obj
 0001:0000d110       ??$HashKey@G@@YGIG@Z       0040e110 f i AIManager.obj
 0001:0000d170       ??$HashKey@K@@YGIK@Z       0040e170 f i AIManager.obj
 0001:0000d1d0       ??$SerializeElements@G@@YGXAAVCArchive@@PAGH@Z 0040e1d0 f i AIManager.obj
 0001:0000d2d0       ??$SerializeElements@PAVCGameKindItem@NServerListManager@@@@YGXAAVCArchive@@PAPAVCGameKindItem@NServerListManager@@H@Z 0040e2d0 f i ServerListManager.obj
 0001:0000d2d0       ??$SerializeElements@PAUtagServerItem@@@@YGXAAVCArchive@@PAPAUtagServerItem@@H@Z 0040e2d0 f i AIManager.obj
 0001:0000d2d0       ??$SerializeElements@PAVCGameNodeItem@NServerListManager@@@@YGXAAVCArchive@@PAPAVCGameNodeItem@NServerListManager@@H@Z 0040e2d0 f i ServerListManager.obj
 0001:0000d2d0       ??$SerializeElements@PAVCGamePageItem@NServerListManager@@@@YGXAAVCArchive@@PAPAVCGamePageItem@NServerListManager@@H@Z 0040e2d0 f i ServerListManager.obj
 0001:0000d2d0       ??$SerializeElements@PAUtagGroupAIParameter@@@@YGXAAVCArchive@@PAPAUtagGroupAIParameter@@H@Z 0040e2d0 f i AIManager.obj
 0001:0000d2d0       ??$SerializeElements@PAV?$CMap@GGPAV?$CMap@KKPAUtagAIUserInfo@@PAU1@@@PAV1@@@@@YGXAAVCArchive@@PAPAV?$CMap@GGPAV?$CMap@KKPAUtagAIUserInfo@@PAU1@@@PAV1@@@H@Z 0040e2d0 f i AIManager.obj
 0001:0000d2d0       ??$SerializeElements@PAUtagAIUserInfo@@@@YGXAAVCArchive@@PAPAUtagAIUserInfo@@H@Z 0040e2d0 f i AIManager.obj
 0001:0000d2d0       ??$SerializeElements@PAVCGameServerItem@NServerListManager@@@@YGXAAVCArchive@@PAPAVCGameServerItem@NServerListManager@@H@Z 0040e2d0 f i ServerListManager.obj
 0001:0000d2d0       ??$SerializeElements@K@@YGXAAVCArchive@@PAKH@Z 0040e2d0 f i AIManager.obj
 0001:0000d2d0       ??$SerializeElements@H@@YGXAAVCArchive@@PAHH@Z 0040e2d0 f i AIManager.obj
 0001:0000d2d0       ??$SerializeElements@PAV?$CMap@KKPAUtagAIUserInfo@@PAU1@@@@@YGXAAVCArchive@@PAPAV?$CMap@KKPAUtagAIUserInfo@@PAU1@@@H@Z 0040e2d0 f i AIManager.obj
 0001:0000d2d0       ??$SerializeElements@PAUtagDBRequestHead@@@@YGXAAVCArchive@@PAPAUtagDBRequestHead@@H@Z 0040e2d0 f i DBCorrespondManager.obj
 0001:0000d2d0       ??$SerializeElements@PAVCGameTypeItem@NServerListManager@@@@YGXAAVCArchive@@PAPAVCGameTypeItem@NServerListManager@@H@Z 0040e2d0 f i ServerListManager.obj
 0001:0000d2d0       ??$SerializeElements@PAV?$CMap@GGPAUtagGroupAIParameter@@PAU1@@@@@YGXAAVCArchive@@PAPAV?$CMap@GGPAUtagGroupAIParameter@@PAU1@@@H@Z 0040e2d0 f i AIManager.obj
 0001:0000d3d0       ??0?$CMap@GGPAUtagGroupAIParameter@@PAU1@@@QAE@H@Z 0040e3d0 f i AIManager.obj
 0001:0000d430       ??0?$CMap@GGPAUtagServerItem@@PAU1@@@QAE@H@Z 0040e430 f i AIManager.obj
 0001:0000d490       ??0?$CMap@GGPAV?$CMap@KKPAUtagAIUserInfo@@PAU1@@@PAV1@@@QAE@H@Z 0040e490 f i AIManager.obj
 0001:0000d4f0       ??0?$CMap@KKHH@@QAE@H@Z    0040e4f0 f i AIManager.obj
 0001:0000d550       ??0?$CMap@KKPAUtagAIUserInfo@@PAU1@@@QAE@H@Z 0040e550 f i AIManager.obj
 0001:0000d5b0       ??0?$CMap@KKPAV?$CMap@GGPAUtagGroupAIParameter@@PAU1@@@PAV1@@@QAE@H@Z 0040e5b0 f i AIManager.obj
 0001:0000d610       ??0?$CMap@KKPAV?$CMap@GGPAV?$CMap@KKPAUtagAIUserInfo@@PAU1@@@PAV1@@@PAV1@@@QAE@H@Z 0040e610 f i AIManager.obj
 0001:0000d670       ??0?$CWHArray@UtagAreadyCheckKind@?1??CheckGroupRoomIsNull@CAIManager@@QAE_NXZ@ABU1?1??23@QAE_NXZ@@@QAE@XZ 0040e670 f i AIManager.obj
 0001:0000d6b0       ??0?$CWHArray@UtagDeleteGroupUser@@ABU1@@@QAE@XZ 0040e6b0 f i AIManager.obj
 0001:0000d6f0       ??0?$CWHArray@UtagGroupConfigInfo@@ABU1@@@QAE@XZ 0040e6f0 f i AIManager.obj
 0001:0000d730       ??0CAssoc@?$CMap@GGPAUtagServerItem@@PAU1@@@QAE@G@Z 0040e730 f i AIManager.obj
 0001:0000d730       ??0CAssoc@?$CMap@GGPAVCGameNodeItem@NServerListManager@@AAPAV12@@@QAE@G@Z 0040e730 f i ServerListManager.obj
 0001:0000d730       ??0CAssoc@?$CMap@GGPAVCGameKindItem@NServerListManager@@AAPAV12@@@QAE@G@Z 0040e730 f i ServerListManager.obj
 0001:0000d730       ??0CAssoc@?$CMap@GGPAVCGameServerItem@NServerListManager@@AAPAV12@@@QAE@G@Z 0040e730 f i ServerListManager.obj
 0001:0000d730       ??0CAssoc@?$CMap@GGPAV?$CMap@KKPAUtagAIUserInfo@@PAU1@@@PAV1@@@QAE@G@Z 0040e730 f i AIManager.obj
 0001:0000d730       ??0CAssoc@?$CMap@GGPAUtagGroupAIParameter@@PAU1@@@QAE@G@Z 0040e730 f i AIManager.obj
 0001:0000d730       ??0CAssoc@?$CMap@GGPAVCGameTypeItem@NServerListManager@@AAPAV12@@@QAE@G@Z 0040e730 f i ServerListManager.obj
 0001:0000d730       ??0CAssoc@?$CMap@GGPAVCGamePageItem@NServerListManager@@AAPAV12@@@QAE@G@Z 0040e730 f i ServerListManager.obj
 0001:0000d750       ??0CAssoc@?$CMap@KKPAUtagAIUserInfo@@PAU1@@@QAE@K@Z 0040e750 f i AIManager.obj
 0001:0000d750       ??0CAssoc@?$CMap@KKPAV?$CMap@GGPAUtagGroupAIParameter@@PAU1@@@PAV1@@@QAE@K@Z 0040e750 f i AIManager.obj
 0001:0000d750       ??0CAssoc@?$CMap@KKPAV?$CMap@GGPAV?$CMap@KKPAUtagAIUserInfo@@PAU1@@@PAV1@@@PAV1@@@QAE@K@Z 0040e750 f i AIManager.obj
 0001:0000d750       ??0CAssoc@?$CMap@KKHH@@QAE@K@Z 0040e750 f i AIManager.obj
 0001:0000d770       ??0tagGroupConfigInfo@@QAE@XZ 0040e770 f i AIManager.obj
 0001:0000d7a0       ??0tagServerItem@@QAE@XZ   0040e7a0 f i AIManager.obj
 0001:0000d7d0       ??1?$CMap@GGPAUtagGroupAIParameter@@PAU1@@@UAE@XZ 0040e7d0 f i AIManager.obj
 0001:0000d820       ??1?$CMap@GGPAUtagServerItem@@PAU1@@@UAE@XZ 0040e820 f i AIManager.obj
 0001:0000d870       ??1?$CMap@GGPAV?$CMap@KKPAUtagAIUserInfo@@PAU1@@@PAV1@@@UAE@XZ 0040e870 f i AIManager.obj
 0001:0000d8c0       ??1?$CMap@KKHH@@UAE@XZ     0040e8c0 f i AIManager.obj
 0001:0000d910       ??1?$CMap@KKPAUtagAIUserInfo@@PAU1@@@UAE@XZ 0040e910 f i AIManager.obj
 0001:0000d960       ??1?$CMap@KKPAV?$CMap@GGPAUtagGroupAIParameter@@PAU1@@@PAV1@@@UAE@XZ 0040e960 f i AIManager.obj
 0001:0000d9b0       ??1?$CMap@KKPAV?$CMap@GGPAV?$CMap@KKPAUtagAIUserInfo@@PAU1@@@PAV1@@@PAV1@@@UAE@XZ 0040e9b0 f i AIManager.obj
 0001:0000da00       ??1?$CWHArray@UtagAreadyCheckKind@?1??CheckGroupRoomIsNull@CAIManager@@QAE_NXZ@ABU1?1??23@QAE_NXZ@@@UAE@XZ 0040ea00 f i AIManager.obj
 0001:0000da60       ??1?$CWHArray@UtagDeleteGroupUser@@ABU1@@@UAE@XZ 0040ea60 f i AIManager.obj
 0001:0000dac0       ??1?$CWHArray@UtagGroupConfigInfo@@ABU1@@@UAE@XZ 0040eac0 f i AIManager.obj
 0001:0000db20       ??2CObject@@SGPAXI@Z       0040eb20 f i AIManager.obj
 0001:0000db40       ??A?$CMap@KKPAV?$CMap@GGPAV?$CMap@KKPAUtagAIUserInfo@@PAU1@@@PAV1@@@PAV1@@@QAEAAPAV?$CMap@GGPAV?$CMap@KKPAUtagAIUserInfo@@PAU1@@@PAV1@@@K@Z 0040eb40 f i AIManager.obj
 0001:0000db40       ??A?$CMap@KKPAUtagAIUserInfo@@PAU1@@@QAEAAPAUtagAIUserInfo@@K@Z 0040eb40 f i AIManager.obj
 0001:0000db40       ??A?$CMap@KKPAV?$CMap@GGPAUtagGroupAIParameter@@PAU1@@@PAV1@@@QAEAAPAV?$CMap@GGPAUtagGroupAIParameter@@PAU1@@@K@Z 0040eb40 f i AIManager.obj
 0001:0000db40       ??A?$CMap@KKHH@@QAEAAHK@Z  0040eb40 f i AIManager.obj
 0001:0000dc00       ??A?$CWHArray@UtagDeleteGroupUser@@ABU1@@@QAEAAUtagDeleteGroupUser@@H@Z 0040ec00 f i AIManager.obj
 0001:0000dc20       ??A?$CWHArray@UtagGroupConfigInfo@@ABU1@@@QAEAAUtagGroupConfigInfo@@H@Z 0040ec20 f i AIManager.obj
 0001:0000dc40       ??_G?$CMap@GGPAUtagGroupAIParameter@@PAU1@@@UAEPAXI@Z 0040ec40 f i AIManager.obj
 0001:0000dc40       ??_E?$CMap@GGPAUtagGroupAIParameter@@PAU1@@@UAEPAXI@Z 0040ec40 f i AIManager.obj
 0001:0000dc90       ??_G?$CMap@GGPAUtagServerItem@@PAU1@@@UAEPAXI@Z 0040ec90 f i AIManager.obj
 0001:0000dc90       ??_E?$CMap@GGPAUtagServerItem@@PAU1@@@UAEPAXI@Z 0040ec90 f i AIManager.obj
 0001:0000dce0       ??_E?$CMap@GGPAV?$CMap@KKPAUtagAIUserInfo@@PAU1@@@PAV1@@@UAEPAXI@Z 0040ece0 f i AIManager.obj
 0001:0000dce0       ??_G?$CMap@GGPAV?$CMap@KKPAUtagAIUserInfo@@PAU1@@@PAV1@@@UAEPAXI@Z 0040ece0 f i AIManager.obj
 0001:0000dd30       ??_G?$CMap@KKHH@@UAEPAXI@Z 0040ed30 f i AIManager.obj
 0001:0000dd30       ??_E?$CMap@KKHH@@UAEPAXI@Z 0040ed30 f i AIManager.obj
 0001:0000dd80       ??_E?$CMap@KKPAUtagAIUserInfo@@PAU1@@@UAEPAXI@Z 0040ed80 f i AIManager.obj
 0001:0000dd80       ??_G?$CMap@KKPAUtagAIUserInfo@@PAU1@@@UAEPAXI@Z 0040ed80 f i AIManager.obj
 0001:0000ddd0       ??_G?$CMap@KKPAV?$CMap@GGPAUtagGroupAIParameter@@PAU1@@@PAV1@@@UAEPAXI@Z 0040edd0 f i AIManager.obj
 0001:0000ddd0       ??_E?$CMap@KKPAV?$CMap@GGPAUtagGroupAIParameter@@PAU1@@@PAV1@@@UAEPAXI@Z 0040edd0 f i AIManager.obj
 0001:0000de20       ??_E?$CMap@KKPAV?$CMap@GGPAV?$CMap@KKPAUtagAIUserInfo@@PAU1@@@PAV1@@@PAV1@@@UAEPAXI@Z 0040ee20 f i AIManager.obj
 0001:0000de20       ??_G?$CMap@KKPAV?$CMap@GGPAV?$CMap@KKPAUtagAIUserInfo@@PAU1@@@PAV1@@@PAV1@@@UAEPAXI@Z 0040ee20 f i AIManager.obj
 0001:0000de70       ??_G?$CWHArray@UtagAreadyCheckKind@?1??CheckGroupRoomIsNull@CAIManager@@QAE_NXZ@ABU1?1??23@QAE_NXZ@@@UAEPAXI@Z 0040ee70 f i AIManager.obj
 0001:0000de70       ??_E?$CWHArray@UtagAreadyCheckKind@?1??CheckGroupRoomIsNull@CAIManager@@QAE_NXZ@ABU1?1??23@QAE_NXZ@@@UAEPAXI@Z 0040ee70 f i AIManager.obj
 0001:0000dea0       ??_E?$CWHArray@UtagDeleteGroupUser@@ABU1@@@UAEPAXI@Z 0040eea0 f i AIManager.obj
 0001:0000dea0       ??_G?$CWHArray@UtagDeleteGroupUser@@ABU1@@@UAEPAXI@Z 0040eea0 f i AIManager.obj
 0001:0000ded0       ??_G?$CWHArray@UtagGroupConfigInfo@@ABU1@@@UAEPAXI@Z 0040eed0 f i AIManager.obj
 0001:0000ded0       ??_E?$CWHArray@UtagGroupConfigInfo@@ABU1@@@UAEPAXI@Z 0040eed0 f i AIManager.obj
 0001:0000df00       ??_ECAIManager@@UAEPAXI@Z  0040ef00 f i AIManager.obj
 0001:0000df00       ??_GCAIManager@@UAEPAXI@Z  0040ef00 f i AIManager.obj
 0001:0000df40       ?Add@?$CWHArray@UtagAreadyCheckKind@?1??CheckGroupRoomIsNull@CAIManager@@QAE_NXZ@ABU1?1??23@QAE_NXZ@@@QAEHABUtagAreadyCheckKind@?1??CheckGroupRoomIsNull@CAIManager@@QAE_NXZ@@Z 0040ef40 f i AIManager.obj
 0001:0000df70       ?Add@?$CWHArray@UtagDeleteGroupUser@@ABU1@@@QAEHABUtagDeleteGroupUser@@@Z 0040ef70 f i AIManager.obj
 0001:0000dfa0       ?Add@?$CWHArray@UtagGroupConfigInfo@@ABU1@@@QAEHABUtagGroupConfigInfo@@@Z 0040efa0 f i AIManager.obj
 0001:0000dfd0       ?AllocMemory@?$CWHArray@UtagAreadyCheckKind@?1??CheckGroupRoomIsNull@CAIManager@@QAE_NXZ@ABU1?1??23@QAE_NXZ@@@QAEXH@Z 0040efd0 f i AIManager.obj
 0001:0000e0d0       ?AllocMemory@?$CWHArray@UtagDeleteGroupUser@@ABU1@@@QAEXH@Z 0040f0d0 f i AIManager.obj
 0001:0000e1d0       ?AllocMemory@?$CWHArray@UtagGroupConfigInfo@@ABU1@@@QAEXH@Z 0040f1d0 f i AIManager.obj
 0001:0000e2e0       ?ElementAt@?$CWHArray@UtagDeleteGroupUser@@ABU1@@@QAEAAUtagDeleteGroupUser@@H@Z 0040f2e0 f i AIManager.obj
 0001:0000e310       ?ElementAt@?$CWHArray@UtagGroupConfigInfo@@ABU1@@@QAEAAUtagGroupConfigInfo@@H@Z 0040f310 f i AIManager.obj
 0001:0000e340       ?FreeMemory@?$CWHArray@UtagAreadyCheckKind@?1??CheckGroupRoomIsNull@CAIManager@@QAE_NXZ@ABU1?1??23@QAE_NXZ@@@QAEXXZ 0040f340 f i AIManager.obj
 0001:0000e3d0       ?GetAssocAt@?$CMap@KKPAV?$CMap@GGPAV?$CMap@KKPAUtagAIUserInfo@@PAU1@@@PAV1@@@PAV1@@@IBEPAVCAssoc@1@KAAI0@Z 0040f3d0 f i AIManager.obj
 0001:0000e3d0       ?GetAssocAt@?$CMap@KKPAV?$CMap@GGPAUtagGroupAIParameter@@PAU1@@@PAV1@@@IBEPAVCAssoc@1@KAAI0@Z 0040f3d0 f i AIManager.obj
 0001:0000e3d0       ?GetAssocAt@?$CMap@KKPAUtagAIUserInfo@@PAU1@@@IBEPAVCAssoc@1@KAAI0@Z 0040f3d0 f i AIManager.obj
 0001:0000e3d0       ?GetAssocAt@?$CMap@KKHH@@IBEPAVCAssoc@1@KAAI0@Z 0040f3d0 f i AIManager.obj
 0001:0000e460       ?GetCount@?$CMap@KKPAUtagAIUserInfo@@PAU1@@@QBEHXZ 0040f460 f i AIManager.obj
 0001:0000e460       ?GetCount@?$CList@PAUtagDBRequestHead@@ABQAU1@@@QBEHXZ 0040f460 f i DBCorrespondManager.obj
 0001:0000e460       ?GetCount@?$CMap@KKHH@@QBEHXZ 0040f460 f i AIManager.obj
 0001:0000e480       ?GetCount@?$CWHArray@PAVCGameTypeItem@NServerListManager@@ABQAV12@@@QBEHXZ 0040f480 f i ServerListManager.obj
 0001:0000e480       ?GetCount@?$CWHArray@PAVCGameKindItem@NServerListManager@@ABQAV12@@@QBEHXZ 0040f480 f i ServerListManager.obj
 0001:0000e480       ?GetCount@?$CWHArray@UtagDeleteGroupUser@@ABU1@@@QBEHXZ 0040f480 f i AIManager.obj
 0001:0000e480       ?GetCount@?$CWHArray@KABK@@QBEHXZ 0040f480 f i AttemperEngineSink.obj
 0001:0000e480       ?GetCount@?$CWHArray@PAVCGamePageItem@NServerListManager@@ABQAV12@@@QBEHXZ 0040f480 f i ServerListManager.obj
 0001:0000e480       ?GetCount@?$CWHArray@PAVCGameServerItem@NServerListManager@@ABQAV12@@@QBEHXZ 0040f480 f i ServerListManager.obj
 0001:0000e480       ?GetCount@?$CWHArray@UtagGroupConfigInfo@@ABU1@@@QBEHXZ 0040f480 f i AIManager.obj
 0001:0000e480       ?GetCount@?$CWHArray@PAVCGameNodeItem@NServerListManager@@ABQAV12@@@QBEHXZ 0040f480 f i ServerListManager.obj
 0001:0000e4a0       ?GetNextAssoc@?$CMap@GGPAUtagServerItem@@PAU1@@@QBEXAAPAU__POSITION@@AAGAAPAUtagServerItem@@@Z 0040f4a0 f i AIManager.obj
 0001:0000e4a0       ?GetNextAssoc@?$CMap@GGPAVCGameTypeItem@NServerListManager@@AAPAV12@@@QBEXAAPAU__POSITION@@AAGAAPAVCGameTypeItem@NServerListManager@@@Z 0040f4a0 f i ServerListManager.obj
 0001:0000e4a0       ?GetNextAssoc@?$CMap@GGPAVCGameNodeItem@NServerListManager@@AAPAV12@@@QBEXAAPAU__POSITION@@AAGAAPAVCGameNodeItem@NServerListManager@@@Z 0040f4a0 f i ServerListManager.obj
 0001:0000e4a0       ?GetNextAssoc@?$CMap@GGPAVCGameKindItem@NServerListManager@@AAPAV12@@@QBEXAAPAU__POSITION@@AAGAAPAVCGameKindItem@NServerListManager@@@Z 0040f4a0 f i ServerListManager.obj
 0001:0000e4a0       ?GetNextAssoc@?$CMap@GGPAUtagGroupAIParameter@@PAU1@@@QBEXAAPAU__POSITION@@AAGAAPAUtagGroupAIParameter@@@Z 0040f4a0 f i AIManager.obj
 0001:0000e4a0       ?GetNextAssoc@?$CMap@GGPAVCGamePageItem@NServerListManager@@AAPAV12@@@QBEXAAPAU__POSITION@@AAGAAPAVCGamePageItem@NServerListManager@@@Z 0040f4a0 f i ServerListManager.obj
 0001:0000e4a0       ?GetNextAssoc@?$CMap@GGPAVCGameServerItem@NServerListManager@@AAPAV12@@@QBEXAAPAU__POSITION@@AAGAAPAVCGameServerItem@NServerListManager@@@Z 0040f4a0 f i ServerListManager.obj
 0001:0000e4a0       ?GetNextAssoc@?$CMap@GGPAV?$CMap@KKPAUtagAIUserInfo@@PAU1@@@PAV1@@@QBEXAAPAU__POSITION@@AAGAAPAV?$CMap@KKPAUtagAIUserInfo@@PAU1@@@@Z 0040f4a0 f i AIManager.obj
 0001:0000e5f0       ?GetNextAssoc@?$CMap@KKPAV?$CMap@GGPAUtagGroupAIParameter@@PAU1@@@PAV1@@@QBEXAAPAU__POSITION@@AAKAAPAV?$CMap@GGPAUtagGroupAIParameter@@PAU1@@@@Z 0040f5f0 f i AIManager.obj
 0001:0000e5f0       ?GetNextAssoc@?$CMap@KKPAV?$CMap@GGPAV?$CMap@KKPAUtagAIUserInfo@@PAU1@@@PAV1@@@PAV1@@@QBEXAAPAU__POSITION@@AAKAAPAV?$CMap@GGPAV?$CMap@KKPAUtagAIUserInfo@@PAU1@@@PAV1@@@@Z 0040f5f0 f i AIManager.obj
 0001:0000e5f0       ?GetNextAssoc@?$CMap@KKPAUtagAIUserInfo@@PAU1@@@QBEXAAPAU__POSITION@@AAKAAPAUtagAIUserInfo@@@Z 0040f5f0 f i AIManager.obj
 0001:0000e5f0       ?GetNextAssoc@?$CMap@KKHH@@QBEXAAPAU__POSITION@@AAKAAH@Z 0040f5f0 f i AIManager.obj
 0001:0000e740       ?GetStartPosition@?$CMap@GGPAVCGamePageItem@NServerListManager@@AAPAV12@@@QBEPAU__POSITION@@XZ 0040f740 f i ServerListManager.obj
 0001:0000e740       ?GetStartPosition@?$CMap@KKPAV?$CMap@GGPAV?$CMap@KKPAUtagAIUserInfo@@PAU1@@@PAV1@@@PAV1@@@QBEPAU__POSITION@@XZ 0040f740 f i AIManager.obj
 0001:0000e740       ?GetStartPosition@?$CMap@GGPAVCGameNodeItem@NServerListManager@@AAPAV12@@@QBEPAU__POSITION@@XZ 0040f740 f i ServerListManager.obj
 0001:0000e740       ?GetStartPosition@?$CMap@KKHH@@QBEPAU__POSITION@@XZ 0040f740 f i AIManager.obj
 0001:0000e740       ?GetStartPosition@?$CMap@GGPAVCGameKindItem@NServerListManager@@AAPAV12@@@QBEPAU__POSITION@@XZ 0040f740 f i ServerListManager.obj
 0001:0000e740       ?GetStartPosition@?$CMap@GGPAVCGameServerItem@NServerListManager@@AAPAV12@@@QBEPAU__POSITION@@XZ 0040f740 f i ServerListManager.obj
 0001:0000e740       ?GetStartPosition@?$CMap@GGPAVCGameTypeItem@NServerListManager@@AAPAV12@@@QBEPAU__POSITION@@XZ 0040f740 f i ServerListManager.obj
 0001:0000e740       ?GetStartPosition@?$CMap@GGPAV?$CMap@KKPAUtagAIUserInfo@@PAU1@@@PAV1@@@QBEPAU__POSITION@@XZ 0040f740 f i AIManager.obj
 0001:0000e740       ?GetStartPosition@?$CMap@GGPAUtagServerItem@@PAU1@@@QBEPAU__POSITION@@XZ 0040f740 f i AIManager.obj
 0001:0000e740       ?GetStartPosition@?$CMap@KKPAV?$CMap@GGPAUtagGroupAIParameter@@PAU1@@@PAV1@@@QBEPAU__POSITION@@XZ 0040f740 f i AIManager.obj
 0001:0000e740       ?GetStartPosition@?$CMap@GGPAUtagGroupAIParameter@@PAU1@@@QBEPAU__POSITION@@XZ 0040f740 f i AIManager.obj
 0001:0000e770       ?Lookup@?$CMap@KKPAUtagAIUserInfo@@PAU1@@@QBEHKAAPAUtagAIUserInfo@@@Z 0040f770 f i AIManager.obj
 0001:0000e770       ?Lookup@?$CMap@KKPAV?$CMap@GGPAUtagGroupAIParameter@@PAU1@@@PAV1@@@QBEHKAAPAV?$CMap@GGPAUtagGroupAIParameter@@PAU1@@@@Z 0040f770 f i AIManager.obj
 0001:0000e770       ?Lookup@?$CMap@KKHH@@QBEHKAAH@Z 0040f770 f i AIManager.obj
 0001:0000e770       ?Lookup@?$CMap@KKPAV?$CMap@GGPAV?$CMap@KKPAUtagAIUserInfo@@PAU1@@@PAV1@@@PAV1@@@QBEHKAAPAV?$CMap@GGPAV?$CMap@KKPAUtagAIUserInfo@@PAU1@@@PAV1@@@@Z 0040f770 f i AIManager.obj
 0001:0000e7b0       ?NewAssoc@?$CMap@GGPAVCGamePageItem@NServerListManager@@AAPAV12@@@IAEPAVCAssoc@1@G@Z 0040f7b0 f i ServerListManager.obj
 0001:0000e7b0       ?NewAssoc@?$CMap@GGPAVCGameTypeItem@NServerListManager@@AAPAV12@@@IAEPAVCAssoc@1@G@Z 0040f7b0 f i ServerListManager.obj
 0001:0000e7b0       ?NewAssoc@?$CMap@GGPAV?$CMap@KKPAUtagAIUserInfo@@PAU1@@@PAV1@@@IAEPAVCAssoc@1@G@Z 0040f7b0 f i AIManager.obj
 0001:0000e7b0       ?NewAssoc@?$CMap@GGPAUtagGroupAIParameter@@PAU1@@@IAEPAVCAssoc@1@G@Z 0040f7b0 f i AIManager.obj
 0001:0000e7b0       ?NewAssoc@?$CMap@GGPAVCGameKindItem@NServerListManager@@AAPAV12@@@IAEPAVCAssoc@1@G@Z 0040f7b0 f i ServerListManager.obj
 0001:0000e7b0       ?NewAssoc@?$CMap@GGPAVCGameServerItem@NServerListManager@@AAPAV12@@@IAEPAVCAssoc@1@G@Z 0040f7b0 f i ServerListManager.obj
 0001:0000e7b0       ?NewAssoc@?$CMap@GGPAVCGameNodeItem@NServerListManager@@AAPAV12@@@IAEPAVCAssoc@1@G@Z 0040f7b0 f i ServerListManager.obj
 0001:0000e7b0       ?NewAssoc@?$CMap@GGPAUtagServerItem@@PAU1@@@IAEPAVCAssoc@1@G@Z 0040f7b0 f i AIManager.obj
 0001:0000e930       ?NewAssoc@?$CMap@KKPAV?$CMap@GGPAUtagGroupAIParameter@@PAU1@@@PAV1@@@IAEPAVCAssoc@1@K@Z 0040f930 f i AIManager.obj
 0001:0000e930       ?NewAssoc@?$CMap@KKPAUtagAIUserInfo@@PAU1@@@IAEPAVCAssoc@1@K@Z 0040f930 f i AIManager.obj
 0001:0000e930       ?NewAssoc@?$CMap@KKPAV?$CMap@GGPAV?$CMap@KKPAUtagAIUserInfo@@PAU1@@@PAV1@@@PAV1@@@IAEPAVCAssoc@1@K@Z 0040f930 f i AIManager.obj
 0001:0000e930       ?NewAssoc@?$CMap@KKHH@@IAEPAVCAssoc@1@K@Z 0040f930 f i AIManager.obj
 0001:0000eab0       ?RemoveAll@?$CMap@GGPAVCGameKindItem@NServerListManager@@AAPAV12@@@QAEXXZ 0040fab0 f i ServerListManager.obj
 0001:0000eab0       ?RemoveAll@?$CMap@GGPAVCGameServerItem@NServerListManager@@AAPAV12@@@QAEXXZ 0040fab0 f i ServerListManager.obj
 0001:0000eab0       ?RemoveAll@?$CMap@GGPAV?$CMap@KKPAUtagAIUserInfo@@PAU1@@@PAV1@@@QAEXXZ 0040fab0 f i AIManager.obj
 0001:0000eab0       ?RemoveAll@?$CMap@KKPAV?$CMap@GGPAV?$CMap@KKPAUtagAIUserInfo@@PAU1@@@PAV1@@@PAV1@@@QAEXXZ 0040fab0 f i AIManager.obj
 0001:0000eab0       ?RemoveAll@?$CMap@KKPAV?$CMap@GGPAUtagGroupAIParameter@@PAU1@@@PAV1@@@QAEXXZ 0040fab0 f i AIManager.obj
 0001:0000eab0       ?RemoveAll@?$CMap@KKPAUtagAIUserInfo@@PAU1@@@QAEXXZ 0040fab0 f i AIManager.obj
 0001:0000eab0       ?RemoveAll@?$CMap@GGPAVCGameNodeItem@NServerListManager@@AAPAV12@@@QAEXXZ 0040fab0 f i ServerListManager.obj
 0001:0000eab0       ?RemoveAll@?$CMap@GGPAUtagServerItem@@PAU1@@@QAEXXZ 0040fab0 f i AIManager.obj
 0001:0000eab0       ?RemoveAll@?$CMap@KKHH@@QAEXXZ 0040fab0 f i AIManager.obj
 0001:0000eab0       ?RemoveAll@?$CMap@GGPAVCGamePageItem@NServerListManager@@AAPAV12@@@QAEXXZ 0040fab0 f i ServerListManager.obj
 0001:0000eab0       ?RemoveAll@?$CMap@GGPAUtagGroupAIParameter@@PAU1@@@QAEXXZ 0040fab0 f i AIManager.obj
 0001:0000eab0       ?RemoveAll@?$CMap@GGPAVCGameTypeItem@NServerListManager@@AAPAV12@@@QAEXXZ 0040fab0 f i ServerListManager.obj
 0001:0000eb50       ?RemoveAll@?$CWHArray@UtagAreadyCheckKind@?1??CheckGroupRoomIsNull@CAIManager@@QAE_NXZ@ABU1?1??23@QAE_NXZ@@@QAEXXZ 0040fb50 f i AIManager.obj
 0001:0000ebb0       ?RemoveAt@?$CWHArray@UtagDeleteGroupUser@@ABU1@@@QAEXHH@Z 0040fbb0 f i AIManager.obj
 0001:0000ec50       ?RemoveAt@?$CWHArray@UtagGroupConfigInfo@@ABU1@@@QAEXHH@Z 0040fc50 f i AIManager.obj
 0001:0000ed00       ?RemoveKey@?$CMap@KKPAUtagAIUserInfo@@PAU1@@@QAEHK@Z 0040fd00 f i AIManager.obj
 0001:0000edb0       ?Serialize@?$CMap@GGPAUtagServerItem@@PAU1@@@UAEXAAVCArchive@@@Z 0040fdb0 f i AIManager.obj
 0001:0000edb0       ?Serialize@?$CMap@GGPAV?$CMap@KKPAUtagAIUserInfo@@PAU1@@@PAV1@@@UAEXAAVCArchive@@@Z 0040fdb0 f i AIManager.obj
 0001:0000edb0       ?Serialize@?$CMap@GGPAUtagGroupAIParameter@@PAU1@@@UAEXAAVCArchive@@@Z 0040fdb0 f i AIManager.obj
 0001:0000eee0       ?Serialize@?$CMap@KKPAV?$CMap@GGPAUtagGroupAIParameter@@PAU1@@@PAV1@@@UAEXAAVCArchive@@@Z 0040fee0 f i AIManager.obj
 0001:0000eee0       ?Serialize@?$CMap@KKHH@@UAEXAAVCArchive@@@Z 0040fee0 f i AIManager.obj
 0001:0000eee0       ?Serialize@?$CMap@KKPAV?$CMap@GGPAV?$CMap@KKPAUtagAIUserInfo@@PAU1@@@PAV1@@@PAV1@@@UAEXAAVCArchive@@@Z 0040fee0 f i AIManager.obj
 0001:0000eee0       ?Serialize@?$CMap@KKPAUtagAIUserInfo@@PAU1@@@UAEXAAVCArchive@@@Z 0040fee0 f i AIManager.obj
 0001:0000f010       ?SetAt@?$CMap@GGPAUtagGroupAIParameter@@PAU1@@@QAEXGPAUtagGroupAIParameter@@@Z 00410010 f i AIManager.obj
 0001:0000f010       ?SetAt@?$CMap@GGPAV?$CMap@KKPAUtagAIUserInfo@@PAU1@@@PAV1@@@QAEXGPAV?$CMap@KKPAUtagAIUserInfo@@PAU1@@@@Z 00410010 f i AIManager.obj
 0001:0000f010       ?SetAt@?$CMap@GGPAUtagServerItem@@PAU1@@@QAEXGPAUtagServerItem@@@Z 00410010 f i AIManager.obj
 0001:0000f030       ?SetAt@?$CMap@KKPAUtagAIUserInfo@@PAU1@@@QAEXKPAUtagAIUserInfo@@@Z 00410030 f i AIManager.obj
 0001:0000f030       ?SetAt@?$CMap@KKHH@@QAEXKH@Z 00410030 f i AIManager.obj
 0001:0000f030       ?SetAt@?$CMap@KKPAV?$CMap@GGPAUtagGroupAIParameter@@PAU1@@@PAV1@@@QAEXKPAV?$CMap@GGPAUtagGroupAIParameter@@PAU1@@@@Z 00410030 f i AIManager.obj
 0001:0000f030       ?SetAt@?$CMap@KKPAV?$CMap@GGPAV?$CMap@KKPAUtagAIUserInfo@@PAU1@@@PAV1@@@PAV1@@@QAEXKPAV?$CMap@GGPAV?$CMap@KKPAUtagAIUserInfo@@PAU1@@@PAV1@@@@Z 00410030 f i AIManager.obj
 0001:0000f050       ?SetAtGrow@?$CWHArray@UtagAreadyCheckKind@?1??CheckGroupRoomIsNull@CAIManager@@QAE_NXZ@ABU1?1??23@QAE_NXZ@@@QAEXHABUtagAreadyCheckKind@?1??CheckGroupRoomIsNull@CAIManager@@QAE_NXZ@@Z 00410050 f i AIManager.obj
 0001:0000f0a0       ?SetAtGrow@?$CWHArray@UtagDeleteGroupUser@@ABU1@@@QAEXHABUtagDeleteGroupUser@@@Z 004100a0 f i AIManager.obj
 0001:0000f100       ?SetAtGrow@?$CWHArray@UtagGroupConfigInfo@@ABU1@@@QAEXHABUtagGroupConfigInfo@@@Z 00410100 f i AIManager.obj
 0001:0000f160       ?SetSize@?$CWHArray@UtagAreadyCheckKind@?1??CheckGroupRoomIsNull@CAIManager@@QAE_NXZ@ABU1?1??23@QAE_NXZ@@@QAEXH@Z 00410160 f i AIManager.obj
 0001:0000f230       ?SetSize@?$CWHArray@UtagDeleteGroupUser@@ABU1@@@QAEXH@Z 00410230 f i AIManager.obj
 0001:0000f2f0       ?SetSize@?$CWHArray@UtagGroupConfigInfo@@ABU1@@@QAEXH@Z 004102f0 f i AIManager.obj
 0001:0000f420       ??0CAIDistributeApp@@QAE@XZ 00410420 f   AIDistribute.obj
 0001:0000f450       ?InitInstance@CAIDistributeApp@@UAEHXZ 00410450 f   AIDistribute.obj
 0001:0000f520       ?GetThisMessageMap@CAIDistributeApp@@KGPBUAFX_MSGMAP@@XZ 00410520 f   AIDistribute.obj
 0001:0000f530       ?GetMessageMap@CAIDistributeApp@@MBEPBUAFX_MSGMAP@@XZ 00410530 f   AIDistribute.obj
 0001:0000f540       ??1CAIDistributeApp@@UAE@XZ 00410540 f i AIDistribute.obj
 0001:0000f560       ??_GCAIDistributeApp@@UAEPAXI@Z 00410560 f i AIDistribute.obj
 0001:0000f560       ??_ECAIDistributeApp@@UAEPAXI@Z 00410560 f i AIDistribute.obj
 0001:0000f5b0       ?GetApplicationRecoveryPingInterval@CWinApp@@UAEKXZ 004105b0 f i AIDistribute.obj
 0001:0000f5c0       ?GetApplicationRecoveryParameter@CWinApp@@UAEPAXXZ 004105c0 f i AIDistribute.obj
 0001:0000f5c0       ?GetApplicationRestartFlags@CWinApp@@UAEKXZ 004105c0 f i AIDistribute.obj
 0001:0000f5d0       ?ReopenPreviousFilesAtRestart@CWinApp@@UBEHXZ 004105d0 f i AIDistribute.obj
 0001:0000f5f0       ?RestoreAutosavedFilesAtRestart@CWinApp@@UBEHXZ 004105f0 f i AIDistribute.obj
 0001:0000f610       ?SupportsApplicationRecovery@CWinApp@@UBEHXZ 00410610 f i AIDistribute.obj
 0001:0000f630       ?SupportsAutosaveAtInterval@CWinApp@@UBEHXZ 00410630 f i AIDistribute.obj
 0001:0000f650       ?SupportsAutosaveAtRestart@CWinApp@@UBEHXZ 00410650 f i AIDistribute.obj
 0001:0000f670       ?SupportsRestartManager@CWinApp@@UBEHXZ 00410670 f i AIDistribute.obj
 0001:0000f6a0       ??0CAIDistributeDlg@@QAE@XZ 004106a0 f   AIDistributeDlg.obj
 0001:0000f780       ??1CAIDistributeDlg@@UAE@XZ 00410780 f   AIDistributeDlg.obj
 0001:0000f7d0       ?DoDataExchange@CAIDistributeDlg@@MAEXPAVCDataExchange@@@Z 004107d0 f   AIDistributeDlg.obj
 0001:0000f810       ?OnInitDialog@CAIDistributeDlg@@MAEHXZ 00410810 f   AIDistributeDlg.obj
 0001:0000f8d0       ?OnOK@CAIDistributeDlg@@MAEXXZ 004108d0 f   AIDistributeDlg.obj
 0001:0000f8e0       ?OnCancel@CAIDistributeDlg@@MAEXXZ 004108e0 f   AIDistributeDlg.obj
 0001:0000f910       ?PreTranslateMessage@CAIDistributeDlg@@MAEHPAUtagMSG@@@Z 00410910 f   AIDistributeDlg.obj
 0001:0000f950       ?OnServiceUnitsStatus@CAIDistributeDlg@@UAEXW4enServiceStatus@@@Z 00410950 f   AIDistributeDlg.obj
 0001:0000fab0       ?UpdateServerLogo@CAIDistributeDlg@@IAEXPB_W@Z 00410ab0 f   AIDistributeDlg.obj
 0001:0000fac0       ?UpdateServerTitle@CAIDistributeDlg@@IAEXW4enServiceStatus@@@Z 00410ac0 f   AIDistributeDlg.obj
 0001:0000fbd0       ?UpdateParameterStatus@CAIDistributeDlg@@IAEXAAUtagModuleInitParameter@@@Z 00410bd0 f   AIDistributeDlg.obj
 0001:0000fbe0       ?StartServerService@CAIDistributeDlg@@IAE_NG@Z 00410be0 f   AIDistributeDlg.obj
 0001:0000fc50       ?GetPlatformDBParameter@CAIDistributeDlg@@IAE_NAAUtagDataBaseParameter@@@Z 00410c50 f   AIDistributeDlg.obj
 0001:0000fe10       ?OnBnClickedStartService@CAIDistributeDlg@@IAEXXZ 00410e10 f   AIDistributeDlg.obj
 0001:0000fed0       ?OnBnClickedStopService@CAIDistributeDlg@@IAEXXZ 00410ed0 f   AIDistributeDlg.obj
 0001:0000ff50       ?OnMessageProcessCmdLine@CAIDistributeDlg@@QAEJIJ@Z 00410f50 f   AIDistributeDlg.obj
 0001:00010040       ?GetThisMessageMap@CAIDistributeDlg@@KGPBUAFX_MSGMAP@@XZ 00411040 f   AIDistributeDlg.obj
 0001:00010050       ?GetMessageMap@CAIDistributeDlg@@MBEPBUAFX_MSGMAP@@XZ 00411050 f   AIDistributeDlg.obj
 0001:00010060       ?ExceptionCrashHandler@@YAJPAU_EXCEPTION_POINTERS@@@Z 00411060 f   AIDistributeDlg.obj
 0001:000100d0       ??$_snwprintf_s@$0BAE@@@YAHAAY0BAE@_WIPB_WZZ 004110d0 f i AIDistributeDlg.obj
 0001:00010100       ??0CreateRoomPayFee@@QAE@XZ 00411100 f i AIDistributeDlg.obj
 0001:00010150       ??0IServiceUnitsSink@@QAE@XZ 00411150 f i AIDistributeDlg.obj
 0001:00010170       ??0tagModuleInitParameter@@QAE@XZ 00411170 f i AIDistributeDlg.obj
 0001:00010190       ??0tagPersonalRoomOptionRightAndFee@@QAE@XZ 00411190 f i AIDistributeDlg.obj
 0001:000101c0       ??_ECAIDistributeDlg@@UAEPAXI@Z 004111c0 f i AIDistributeDlg.obj
 0001:000101c0       ??_GCAIDistributeDlg@@UAEPAXI@Z 004111c0 f i AIDistributeDlg.obj
 0001:00010210       ??_H@YGXPAXIIP6EPAX0@Z@Z   00411210 f i AIDistributeDlg.obj
 0001:00010240       ?AfxGetApp@@YGPAVCWinApp@@XZ 00411240 f i AIDistributeDlg.obj
 0001:00010250       ?AfxGetInstanceHandle@@YGPAUHINSTANCE__@@XZ 00411250 f i AIDistributeDlg.obj
 0001:00010260       ?BeginModalState@CWnd@@UAEXXZ 00411260 f i AIDistributeDlg.obj
 0001:00010280       ?Create@CDialog@@UAEHIPAVCWnd@@@Z 00411280 f i AIDistributeDlg.obj
 0001:000102a0       ?EndModalState@CWnd@@UAEXXZ 004112a0 f i AIDistributeDlg.obj
 0001:000102c0       ?PostMessageW@CWnd@@QAEHIIJ@Z 004112c0 f i AIDistributeDlg.obj
 0001:000102f0       ?SetIcon@CWnd@@QAEPAUHICON__@@PAU2@H@Z 004112f0 f i AIDistributeDlg.obj
 0001:00010320       ??0CInitParameter@@QAE@XZ  00411320 f   InitParameter.obj
 0001:00010340       ??1CInitParameter@@UAE@XZ  00411340 f   InitParameter.obj
 0001:00010360       ?InitParameter@CInitParameter@@QAEXXZ 00411360 f   InitParameter.obj
 0001:00010490       ?LoadInitParameter@CInitParameter@@QAEXXZ 00411490 f   InitParameter.obj
 0001:000109d0       ?SetServerParameter@CInitParameter@@QAEXPAUtagGameServiceAttrib@@PAUtagGameServiceOption@@@Z 004119d0 f   InitParameter.obj
 0001:000109e0       ?ReadMobileParameter@CInitParameter@@QAEXXZ 004119e0 f   InitParameter.obj
 0001:000109f0       ??_GCInitParameter@@UAEPAXI@Z 004119f0 f i InitParameter.obj
 0001:000109f0       ??_ECInitParameter@@UAEPAXI@Z 004119f0 f i InitParameter.obj
 0001:00010a30       ??0CGameTypeItem@NServerListManager@@QAE@XZ 00411a30 f   ServerListManager.obj
 0001:00010a60       ??0CGameKindItem@NServerListManager@@QAE@XZ 00411a60 f   ServerListManager.obj
 0001:00010a90       ??0CGameNodeItem@NServerListManager@@QAE@XZ 00411a90 f   ServerListManager.obj
 0001:00010ac0       ??0CGamePageItem@NServerListManager@@QAE@XZ 00411ac0 f   ServerListManager.obj
 0001:00010af0       ??0CGameServerItem@NServerListManager@@QAE@XZ 00411af0 f   ServerListManager.obj
 0001:00010b20       ??0CServerListManager@NServerListManager@@QAE@XZ 00411b20 f   ServerListManager.obj
 0001:00010c70       ??1CServerListManager@NServerListManager@@UAE@XZ 00411c70 f   ServerListManager.obj
 0001:00011260       ?ResetServerList@CServerListManager@NServerListManager@@QAEXXZ 00412260 f   ServerListManager.obj
 0001:00011290       ?CleanKernelItem@CServerListManager@NServerListManager@@QAEXXZ 00412290 f   ServerListManager.obj
 0001:00011440       ?CleanServerItem@CServerListManager@NServerListManager@@QAEXXZ 00412440 f   ServerListManager.obj
 0001:00011510       ?DisuseKernelItem@CServerListManager@NServerListManager@@QAEXXZ 00412510 f   ServerListManager.obj
 0001:00011620       ?DisuseServerItem@CServerListManager@NServerListManager@@QAEXXZ 00412620 f   ServerListManager.obj
 0001:00011670       ?CollectOnlineInfo@CServerListManager@NServerListManager@@QAEKXZ 00412670 f   ServerListManager.obj
 0001:000116e0       ?CollectOnlineInfo@CServerListManager@NServerListManager@@QAEKG@Z 004126e0 f   ServerListManager.obj
 0001:00011750       ?InsertGameType@CServerListManager@NServerListManager@@QAE_NPAUtagGameType@@@Z 00412750 f   ServerListManager.obj
 0001:000118e0       ?InsertGameKind@CServerListManager@NServerListManager@@QAE_NPAUtagGameKind@@@Z 004128e0 f   ServerListManager.obj
 0001:00011a80       ?InsertGameNode@CServerListManager@NServerListManager@@QAE_NPAUtagGameNode@@@Z 00412a80 f   ServerListManager.obj
 0001:00011c10       ?InsertGamePage@CServerListManager@NServerListManager@@QAE_NPAUtagGamePage@@@Z 00412c10 f   ServerListManager.obj
 0001:00011da0       ?InsertGameServer@CServerListManager@NServerListManager@@QAE_NPAUtagGameServer@@@Z 00412da0 f   ServerListManager.obj
 0001:00012080       ?DeleteGameType@CServerListManager@NServerListManager@@QAE_NG@Z 00413080 f   ServerListManager.obj
 0001:000120e0       ?DeleteGameKind@CServerListManager@NServerListManager@@QAE_NG@Z 004130e0 f   ServerListManager.obj
 0001:00012150       ?DeleteGameNode@CServerListManager@NServerListManager@@QAE_NG@Z 00413150 f   ServerListManager.obj
 0001:000121c0       ?DeleteGamePage@CServerListManager@NServerListManager@@QAE_NG@Z 004131c0 f   ServerListManager.obj
 0001:00012230       ?DeleteGameServer@CServerListManager@NServerListManager@@QAE_NG@Z 00413230 f   ServerListManager.obj
 0001:000122e0       ?EmunGameTypeItem@CServerListManager@NServerListManager@@QAEPAVCGameTypeItem@2@AAPAU__POSITION@@@Z 004132e0 f   ServerListManager.obj
 0001:00012340       ?EmunGameKindItem@CServerListManager@NServerListManager@@QAEPAVCGameKindItem@2@AAPAU__POSITION@@@Z 00413340 f   ServerListManager.obj
 0001:000123a0       ?EmunGameNodeItem@CServerListManager@NServerListManager@@QAEPAVCGameNodeItem@2@AAPAU__POSITION@@@Z 004133a0 f   ServerListManager.obj
 0001:00012400       ?EmunGamePageItem@CServerListManager@NServerListManager@@QAEPAVCGamePageItem@2@AAPAU__POSITION@@@Z 00413400 f   ServerListManager.obj
 0001:00012460       ?EmunGameServerItem@CServerListManager@NServerListManager@@QAEPAVCGameServerItem@2@AAPAU__POSITION@@@Z 00413460 f   ServerListManager.obj
 0001:000124c0       ?SearchGameType@CServerListManager@NServerListManager@@QAEPAVCGameTypeItem@2@G@Z 004134c0 f   ServerListManager.obj
 0001:000124f0       ?SearchGameKind@CServerListManager@NServerListManager@@QAEPAVCGameKindItem@2@G@Z 004134f0 f   ServerListManager.obj
 0001:00012520       ?SearchGameNode@CServerListManager@NServerListManager@@QAEPAVCGameNodeItem@2@G@Z 00413520 f   ServerListManager.obj
 0001:00012550       ?SearchGamePage@CServerListManager@NServerListManager@@QAEPAVCGamePageItem@2@G@Z 00413550 f   ServerListManager.obj
 0001:00012580       ?SearchGameServer@CServerListManager@NServerListManager@@QAEPAVCGameServerItem@2@G@Z 00413580 f   ServerListManager.obj
 0001:000125b0       ??0?$CMap@GGPAVCGameKindItem@NServerListManager@@AAPAV12@@@QAE@H@Z 004135b0 f i ServerListManager.obj
 0001:00012610       ??0?$CMap@GGPAVCGameNodeItem@NServerListManager@@AAPAV12@@@QAE@H@Z 00413610 f i ServerListManager.obj
 0001:00012670       ??0?$CMap@GGPAVCGamePageItem@NServerListManager@@AAPAV12@@@QAE@H@Z 00413670 f i ServerListManager.obj
 0001:000126d0       ??0?$CMap@GGPAVCGameServerItem@NServerListManager@@AAPAV12@@@QAE@H@Z 004136d0 f i ServerListManager.obj
 0001:00012730       ??0?$CMap@GGPAVCGameTypeItem@NServerListManager@@AAPAV12@@@QAE@H@Z 00413730 f i ServerListManager.obj
 0001:00012790       ??0?$CWHArray@PAVCGameKindItem@NServerListManager@@ABQAV12@@@QAE@XZ 00413790 f i ServerListManager.obj
 0001:000127d0       ??0?$CWHArray@PAVCGameNodeItem@NServerListManager@@ABQAV12@@@QAE@XZ 004137d0 f i ServerListManager.obj
 0001:00012810       ??0?$CWHArray@PAVCGamePageItem@NServerListManager@@ABQAV12@@@QAE@XZ 00413810 f i ServerListManager.obj
 0001:00012850       ??0?$CWHArray@PAVCGameServerItem@NServerListManager@@ABQAV12@@@QAE@XZ 00413850 f i ServerListManager.obj
 0001:00012890       ??0?$CWHArray@PAVCGameTypeItem@NServerListManager@@ABQAV12@@@QAE@XZ 00413890 f i ServerListManager.obj
 0001:000128d0       ??0CGameListItem@NServerListManager@@IAE@XZ 004138d0 f i ServerListManager.obj
 0001:000128f0       ??0CPair@?$CMap@GGPAV?$CMap@KKPAUtagAIUserInfo@@PAU1@@@PAV1@@@IAE@G@Z 004138f0 f i AIManager.obj
 0001:000128f0       ??0CPair@?$CMap@GGPAVCGameNodeItem@NServerListManager@@AAPAV12@@@IAE@G@Z 004138f0 f i ServerListManager.obj
 0001:000128f0       ??0CPair@?$CMap@GGPAVCGamePageItem@NServerListManager@@AAPAV12@@@IAE@G@Z 004138f0 f i ServerListManager.obj
 0001:000128f0       ??0CPair@?$CMap@GGPAUtagServerItem@@PAU1@@@IAE@G@Z 004138f0 f i AIManager.obj
 0001:000128f0       ??0CPair@?$CMap@GGPAVCGameKindItem@NServerListManager@@AAPAV12@@@IAE@G@Z 004138f0 f i ServerListManager.obj
 0001:000128f0       ??0CPair@?$CMap@GGPAUtagGroupAIParameter@@PAU1@@@IAE@G@Z 004138f0 f i AIManager.obj
 0001:000128f0       ??0CPair@?$CMap@GGPAVCGameServerItem@NServerListManager@@AAPAV12@@@IAE@G@Z 004138f0 f i ServerListManager.obj
 0001:000128f0       ??0CPair@?$CMap@GGPAVCGameTypeItem@NServerListManager@@AAPAV12@@@IAE@G@Z 004138f0 f i ServerListManager.obj
 0001:00012910       ??1?$CMap@GGPAVCGameKindItem@NServerListManager@@AAPAV12@@@UAE@XZ 00413910 f i ServerListManager.obj
 0001:00012960       ??1?$CMap@GGPAVCGameNodeItem@NServerListManager@@AAPAV12@@@UAE@XZ 00413960 f i ServerListManager.obj
 0001:000129b0       ??1?$CMap@GGPAVCGamePageItem@NServerListManager@@AAPAV12@@@UAE@XZ 004139b0 f i ServerListManager.obj
 0001:00012a00       ??1?$CMap@GGPAVCGameServerItem@NServerListManager@@AAPAV12@@@UAE@XZ 00413a00 f i ServerListManager.obj
 0001:00012a50       ??1?$CMap@GGPAVCGameTypeItem@NServerListManager@@AAPAV12@@@UAE@XZ 00413a50 f i ServerListManager.obj
 0001:00012aa0       ??1?$CWHArray@PAVCGameKindItem@NServerListManager@@ABQAV12@@@UAE@XZ 00413aa0 f i ServerListManager.obj
 0001:00012b00       ??1?$CWHArray@PAVCGameNodeItem@NServerListManager@@ABQAV12@@@UAE@XZ 00413b00 f i ServerListManager.obj
 0001:00012b60       ??1?$CWHArray@PAVCGamePageItem@NServerListManager@@ABQAV12@@@UAE@XZ 00413b60 f i ServerListManager.obj
 0001:00012bc0       ??1?$CWHArray@PAVCGameServerItem@NServerListManager@@ABQAV12@@@UAE@XZ 00413bc0 f i ServerListManager.obj
 0001:00012c20       ??1?$CWHArray@PAVCGameTypeItem@NServerListManager@@ABQAV12@@@UAE@XZ 00413c20 f i ServerListManager.obj
 0001:00012c80       ??A?$CMap@GGPAUtagServerItem@@PAU1@@@QAEAAPAUtagServerItem@@G@Z 00413c80 f i AIManager.obj
 0001:00012c80       ??A?$CMap@GGPAUtagGroupAIParameter@@PAU1@@@QAEAAPAUtagGroupAIParameter@@G@Z 00413c80 f i AIManager.obj
 0001:00012c80       ??A?$CMap@GGPAV?$CMap@KKPAUtagAIUserInfo@@PAU1@@@PAV1@@@QAEAAPAV?$CMap@KKPAUtagAIUserInfo@@PAU1@@@G@Z 00413c80 f i AIManager.obj
 0001:00012c80       ??A?$CMap@GGPAVCGameKindItem@NServerListManager@@AAPAV12@@@QAEAAPAVCGameKindItem@NServerListManager@@G@Z 00413c80 f i ServerListManager.obj
 0001:00012c80       ??A?$CMap@GGPAVCGameTypeItem@NServerListManager@@AAPAV12@@@QAEAAPAVCGameTypeItem@NServerListManager@@G@Z 00413c80 f i ServerListManager.obj
 0001:00012c80       ??A?$CMap@GGPAVCGamePageItem@NServerListManager@@AAPAV12@@@QAEAAPAVCGamePageItem@NServerListManager@@G@Z 00413c80 f i ServerListManager.obj
 0001:00012c80       ??A?$CMap@GGPAVCGameServerItem@NServerListManager@@AAPAV12@@@QAEAAPAVCGameServerItem@NServerListManager@@G@Z 00413c80 f i ServerListManager.obj
 0001:00012c80       ??A?$CMap@GGPAVCGameNodeItem@NServerListManager@@AAPAV12@@@QAEAAPAVCGameNodeItem@NServerListManager@@G@Z 00413c80 f i ServerListManager.obj
 0001:00012d40       ??A?$CWHArray@PAVCGamePageItem@NServerListManager@@ABQAV12@@@QAEAAPAVCGamePageItem@NServerListManager@@H@Z 00413d40 f i ServerListManager.obj
 0001:00012d40       ??A?$CWHArray@KABK@@QAEAAKH@Z 00413d40 f i AttemperEngineSink.obj
 0001:00012d40       ??A?$CWHArray@PAVCGameNodeItem@NServerListManager@@ABQAV12@@@QAEAAPAVCGameNodeItem@NServerListManager@@H@Z 00413d40 f i ServerListManager.obj
 0001:00012d40       ??A?$CWHArray@PAVCGameServerItem@NServerListManager@@ABQAV12@@@QAEAAPAVCGameServerItem@NServerListManager@@H@Z 00413d40 f i ServerListManager.obj
 0001:00012d40       ??A?$CWHArray@PAVCGameKindItem@NServerListManager@@ABQAV12@@@QAEAAPAVCGameKindItem@NServerListManager@@H@Z 00413d40 f i ServerListManager.obj
 0001:00012d40       ??A?$CWHArray@PAVCGameTypeItem@NServerListManager@@ABQAV12@@@QAEAAPAVCGameTypeItem@NServerListManager@@H@Z 00413d40 f i ServerListManager.obj
 0001:00012d60       ??_E?$CMap@GGPAVCGameKindItem@NServerListManager@@AAPAV12@@@UAEPAXI@Z 00413d60 f i ServerListManager.obj
 0001:00012d60       ??_G?$CMap@GGPAVCGameKindItem@NServerListManager@@AAPAV12@@@UAEPAXI@Z 00413d60 f i ServerListManager.obj
 0001:00012db0       ??_E?$CMap@GGPAVCGameNodeItem@NServerListManager@@AAPAV12@@@UAEPAXI@Z 00413db0 f i ServerListManager.obj
 0001:00012db0       ??_G?$CMap@GGPAVCGameNodeItem@NServerListManager@@AAPAV12@@@UAEPAXI@Z 00413db0 f i ServerListManager.obj
 0001:00012e00       ??_E?$CMap@GGPAVCGamePageItem@NServerListManager@@AAPAV12@@@UAEPAXI@Z 00413e00 f i ServerListManager.obj
 0001:00012e00       ??_G?$CMap@GGPAVCGamePageItem@NServerListManager@@AAPAV12@@@UAEPAXI@Z 00413e00 f i ServerListManager.obj
 0001:00012e50       ??_G?$CMap@GGPAVCGameServerItem@NServerListManager@@AAPAV12@@@UAEPAXI@Z 00413e50 f i ServerListManager.obj
 0001:00012e50       ??_E?$CMap@GGPAVCGameServerItem@NServerListManager@@AAPAV12@@@UAEPAXI@Z 00413e50 f i ServerListManager.obj
 0001:00012ea0       ??_E?$CMap@GGPAVCGameTypeItem@NServerListManager@@AAPAV12@@@UAEPAXI@Z 00413ea0 f i ServerListManager.obj
 0001:00012ea0       ??_G?$CMap@GGPAVCGameTypeItem@NServerListManager@@AAPAV12@@@UAEPAXI@Z 00413ea0 f i ServerListManager.obj
 0001:00012ef0       ??_E?$CWHArray@PAVCGameKindItem@NServerListManager@@ABQAV12@@@UAEPAXI@Z 00413ef0 f i ServerListManager.obj
 0001:00012ef0       ??_G?$CWHArray@PAVCGameKindItem@NServerListManager@@ABQAV12@@@UAEPAXI@Z 00413ef0 f i ServerListManager.obj
 0001:00012f20       ??_E?$CWHArray@PAVCGameNodeItem@NServerListManager@@ABQAV12@@@UAEPAXI@Z 00413f20 f i ServerListManager.obj
 0001:00012f20       ??_G?$CWHArray@PAVCGameNodeItem@NServerListManager@@ABQAV12@@@UAEPAXI@Z 00413f20 f i ServerListManager.obj
 0001:00012f50       ??_E?$CWHArray@PAVCGamePageItem@NServerListManager@@ABQAV12@@@UAEPAXI@Z 00413f50 f i ServerListManager.obj
 0001:00012f50       ??_G?$CWHArray@PAVCGamePageItem@NServerListManager@@ABQAV12@@@UAEPAXI@Z 00413f50 f i ServerListManager.obj
 0001:00012f80       ??_G?$CWHArray@PAVCGameServerItem@NServerListManager@@ABQAV12@@@UAEPAXI@Z 00413f80 f i ServerListManager.obj
 0001:00012f80       ??_E?$CWHArray@PAVCGameServerItem@NServerListManager@@ABQAV12@@@UAEPAXI@Z 00413f80 f i ServerListManager.obj
 0001:00012fb0       ??_G?$CWHArray@PAVCGameTypeItem@NServerListManager@@ABQAV12@@@UAEPAXI@Z 00413fb0 f i ServerListManager.obj
 0001:00012fb0       ??_E?$CWHArray@PAVCGameTypeItem@NServerListManager@@ABQAV12@@@UAEPAXI@Z 00413fb0 f i ServerListManager.obj
 0001:00012fe0       ??_ECServerListManager@NServerListManager@@UAEPAXI@Z 00413fe0 f i ServerListManager.obj
 0001:00012fe0       ??_GCServerListManager@NServerListManager@@UAEPAXI@Z 00413fe0 f i ServerListManager.obj
 0001:00013020       ?Add@?$CWHArray@PAVCGameKindItem@NServerListManager@@ABQAV12@@@QAEHABQAVCGameKindItem@NServerListManager@@@Z 00414020 f i ServerListManager.obj
 0001:00013020       ?Add@?$CWHArray@PAVCGameTypeItem@NServerListManager@@ABQAV12@@@QAEHABQAVCGameTypeItem@NServerListManager@@@Z 00414020 f i ServerListManager.obj
 0001:00013020       ?Add@?$CWHArray@PAVCGameNodeItem@NServerListManager@@ABQAV12@@@QAEHABQAVCGameNodeItem@NServerListManager@@@Z 00414020 f i ServerListManager.obj
 0001:00013020       ?Add@?$CWHArray@KABK@@QAEHABK@Z 00414020 f i AttemperEngineSink.obj
 0001:00013020       ?Add@?$CWHArray@PAVCGamePageItem@NServerListManager@@ABQAV12@@@QAEHABQAVCGamePageItem@NServerListManager@@@Z 00414020 f i ServerListManager.obj
 0001:00013020       ?Add@?$CWHArray@PAVCGameServerItem@NServerListManager@@ABQAV12@@@QAEHABQAVCGameServerItem@NServerListManager@@@Z 00414020 f i ServerListManager.obj
 0001:00013050       ?AllocMemory@?$CWHArray@PAVCGameTypeItem@NServerListManager@@ABQAV12@@@QAEXH@Z 00414050 f i ServerListManager.obj
 0001:00013050       ?AllocMemory@?$CWHArray@PAVCGamePageItem@NServerListManager@@ABQAV12@@@QAEXH@Z 00414050 f i ServerListManager.obj
 0001:00013050       ?AllocMemory@?$CWHArray@KABK@@QAEXH@Z 00414050 f i AttemperEngineSink.obj
 0001:00013050       ?AllocMemory@?$CWHArray@PAVCGameServerItem@NServerListManager@@ABQAV12@@@QAEXH@Z 00414050 f i ServerListManager.obj
 0001:00013050       ?AllocMemory@?$CWHArray@PAVCGameKindItem@NServerListManager@@ABQAV12@@@QAEXH@Z 00414050 f i ServerListManager.obj
 0001:00013050       ?AllocMemory@?$CWHArray@PAVCGameNodeItem@NServerListManager@@ABQAV12@@@QAEXH@Z 00414050 f i ServerListManager.obj
 0001:00013150       ?ElementAt@?$CWHArray@KABK@@QAEAAKH@Z 00414150 f i AttemperEngineSink.obj
 0001:00013150       ?ElementAt@?$CWHArray@PAVCGameNodeItem@NServerListManager@@ABQAV12@@@QAEAAPAVCGameNodeItem@NServerListManager@@H@Z 00414150 f i ServerListManager.obj
 0001:00013150       ?ElementAt@?$CWHArray@PAVCGameServerItem@NServerListManager@@ABQAV12@@@QAEAAPAVCGameServerItem@NServerListManager@@H@Z 00414150 f i ServerListManager.obj
 0001:00013150       ?ElementAt@?$CWHArray@PAVCGameTypeItem@NServerListManager@@ABQAV12@@@QAEAAPAVCGameTypeItem@NServerListManager@@H@Z 00414150 f i ServerListManager.obj
 0001:00013150       ?ElementAt@?$CWHArray@PAVCGamePageItem@NServerListManager@@ABQAV12@@@QAEAAPAVCGamePageItem@NServerListManager@@H@Z 00414150 f i ServerListManager.obj
 0001:00013150       ?ElementAt@?$CWHArray@PAVCGameKindItem@NServerListManager@@ABQAV12@@@QAEAAPAVCGameKindItem@NServerListManager@@H@Z 00414150 f i ServerListManager.obj
 0001:00013180       ?FreeAssoc@?$CMap@GGPAUtagServerItem@@PAU1@@@IAEXPAVCAssoc@1@@Z 00414180 f i AIManager.obj
 0001:00013180       ?FreeAssoc@?$CMap@KKPAUtagAIUserInfo@@PAU1@@@IAEXPAVCAssoc@1@@Z 00414180 f i AIManager.obj
 0001:00013180       ?FreeAssoc@?$CMap@GGPAVCGameKindItem@NServerListManager@@AAPAV12@@@IAEXPAVCAssoc@1@@Z 00414180 f i ServerListManager.obj
 0001:00013180       ?FreeAssoc@?$CMap@GGPAVCGameServerItem@NServerListManager@@AAPAV12@@@IAEXPAVCAssoc@1@@Z 00414180 f i ServerListManager.obj
 0001:00013180       ?FreeAssoc@?$CMap@GGPAVCGamePageItem@NServerListManager@@AAPAV12@@@IAEXPAVCAssoc@1@@Z 00414180 f i ServerListManager.obj
 0001:00013180       ?FreeAssoc@?$CMap@GGPAVCGameTypeItem@NServerListManager@@AAPAV12@@@IAEXPAVCAssoc@1@@Z 00414180 f i ServerListManager.obj
 0001:00013180       ?FreeAssoc@?$CMap@GGPAVCGameNodeItem@NServerListManager@@AAPAV12@@@IAEXPAVCAssoc@1@@Z 00414180 f i ServerListManager.obj
 0001:000131d0       ?GetAssocAt@?$CMap@GGPAVCGameTypeItem@NServerListManager@@AAPAV12@@@IBEPAVCAssoc@1@GAAI0@Z 004141d0 f i ServerListManager.obj
 0001:000131d0       ?GetAssocAt@?$CMap@GGPAUtagServerItem@@PAU1@@@IBEPAVCAssoc@1@GAAI0@Z 004141d0 f i AIManager.obj
 0001:000131d0       ?GetAssocAt@?$CMap@GGPAVCGameKindItem@NServerListManager@@AAPAV12@@@IBEPAVCAssoc@1@GAAI0@Z 004141d0 f i ServerListManager.obj
 0001:000131d0       ?GetAssocAt@?$CMap@GGPAV?$CMap@KKPAUtagAIUserInfo@@PAU1@@@PAV1@@@IBEPAVCAssoc@1@GAAI0@Z 004141d0 f i AIManager.obj
 0001:000131d0       ?GetAssocAt@?$CMap@GGPAVCGameServerItem@NServerListManager@@AAPAV12@@@IBEPAVCAssoc@1@GAAI0@Z 004141d0 f i ServerListManager.obj
 0001:000131d0       ?GetAssocAt@?$CMap@GGPAUtagGroupAIParameter@@PAU1@@@IBEPAVCAssoc@1@GAAI0@Z 004141d0 f i AIManager.obj
 0001:000131d0       ?GetAssocAt@?$CMap@GGPAVCGamePageItem@NServerListManager@@AAPAV12@@@IBEPAVCAssoc@1@GAAI0@Z 004141d0 f i ServerListManager.obj
 0001:000131d0       ?GetAssocAt@?$CMap@GGPAVCGameNodeItem@NServerListManager@@AAPAV12@@@IBEPAVCAssoc@1@GAAI0@Z 004141d0 f i ServerListManager.obj
 0001:00013260       ?InitHashTable@?$CMap@KKPAUtagAIUserInfo@@PAU1@@@QAEXIH@Z 00414260 f i AIManager.obj
 0001:00013260       ?InitHashTable@?$CMap@KKHH@@QAEXIH@Z 00414260 f i AIManager.obj
 0001:00013260       ?InitHashTable@?$CMap@GGPAVCGameNodeItem@NServerListManager@@AAPAV12@@@QAEXIH@Z 00414260 f i ServerListManager.obj
 0001:00013260       ?InitHashTable@?$CMap@GGPAVCGameTypeItem@NServerListManager@@AAPAV12@@@QAEXIH@Z 00414260 f i ServerListManager.obj
 0001:00013260       ?InitHashTable@?$CMap@GGPAVCGamePageItem@NServerListManager@@AAPAV12@@@QAEXIH@Z 00414260 f i ServerListManager.obj
 0001:00013260       ?InitHashTable@?$CMap@KKPAV?$CMap@GGPAUtagGroupAIParameter@@PAU1@@@PAV1@@@QAEXIH@Z 00414260 f i AIManager.obj
 0001:00013260       ?InitHashTable@?$CMap@GGPAVCGameKindItem@NServerListManager@@AAPAV12@@@QAEXIH@Z 00414260 f i ServerListManager.obj
 0001:00013260       ?InitHashTable@?$CMap@GGPAUtagServerItem@@PAU1@@@QAEXIH@Z 00414260 f i AIManager.obj
 0001:00013260       ?InitHashTable@?$CMap@GGPAV?$CMap@KKPAUtagAIUserInfo@@PAU1@@@PAV1@@@QAEXIH@Z 00414260 f i AIManager.obj
 0001:00013260       ?InitHashTable@?$CMap@GGPAUtagGroupAIParameter@@PAU1@@@QAEXIH@Z 00414260 f i AIManager.obj
 0001:00013260       ?InitHashTable@?$CMap@KKPAV?$CMap@GGPAV?$CMap@KKPAUtagAIUserInfo@@PAU1@@@PAV1@@@PAV1@@@QAEXIH@Z 00414260 f i AIManager.obj
 0001:00013260       ?InitHashTable@?$CMap@GGPAVCGameServerItem@NServerListManager@@AAPAV12@@@QAEXIH@Z 00414260 f i ServerListManager.obj
 0001:00013320       ?Lookup@?$CMap@GGPAVCGameNodeItem@NServerListManager@@AAPAV12@@@QBEHGAAPAVCGameNodeItem@NServerListManager@@@Z 00414320 f i ServerListManager.obj
 0001:00013320       ?Lookup@?$CMap@GGPAVCGamePageItem@NServerListManager@@AAPAV12@@@QBEHGAAPAVCGamePageItem@NServerListManager@@@Z 00414320 f i ServerListManager.obj
 0001:00013320       ?Lookup@?$CMap@GGPAVCGameTypeItem@NServerListManager@@AAPAV12@@@QBEHGAAPAVCGameTypeItem@NServerListManager@@@Z 00414320 f i ServerListManager.obj
 0001:00013320       ?Lookup@?$CMap@GGPAV?$CMap@KKPAUtagAIUserInfo@@PAU1@@@PAV1@@@QBEHGAAPAV?$CMap@KKPAUtagAIUserInfo@@PAU1@@@@Z 00414320 f i AIManager.obj
 0001:00013320       ?Lookup@?$CMap@GGPAVCGameServerItem@NServerListManager@@AAPAV12@@@QBEHGAAPAVCGameServerItem@NServerListManager@@@Z 00414320 f i ServerListManager.obj
 0001:00013320       ?Lookup@?$CMap@GGPAUtagGroupAIParameter@@PAU1@@@QBEHGAAPAUtagGroupAIParameter@@@Z 00414320 f i AIManager.obj
 0001:00013320       ?Lookup@?$CMap@GGPAVCGameKindItem@NServerListManager@@AAPAV12@@@QBEHGAAPAVCGameKindItem@NServerListManager@@@Z 00414320 f i ServerListManager.obj
 0001:00013320       ?Lookup@?$CMap@GGPAUtagServerItem@@PAU1@@@QBEHGAAPAUtagServerItem@@@Z 00414320 f i AIManager.obj
 0001:00013370       ?RemoveAll@?$CWHArray@PAVCGamePageItem@NServerListManager@@ABQAV12@@@QAEXXZ 00414370 f i ServerListManager.obj
 0001:00013370       ?RemoveAll@?$CWHArray@PAVCGameNodeItem@NServerListManager@@ABQAV12@@@QAEXXZ 00414370 f i ServerListManager.obj
 0001:00013370       ?RemoveAll@?$CWHArray@PAVCGameTypeItem@NServerListManager@@ABQAV12@@@QAEXXZ 00414370 f i ServerListManager.obj
 0001:00013370       ?RemoveAll@?$CWHArray@KABK@@QAEXXZ 00414370 f i DBCorrespondManager.obj
 0001:00013370       ?RemoveAll@?$CWHArray@PAVCGameKindItem@NServerListManager@@ABQAV12@@@QAEXXZ 00414370 f i ServerListManager.obj
 0001:00013370       ?RemoveAll@?$CWHArray@PAVCGameServerItem@NServerListManager@@ABQAV12@@@QAEXXZ 00414370 f i ServerListManager.obj
 0001:000133d0       ?RemoveAt@?$CWHArray@PAVCGameTypeItem@NServerListManager@@ABQAV12@@@QAEXHH@Z 004143d0 f i ServerListManager.obj
 0001:000133d0       ?RemoveAt@?$CWHArray@PAVCGamePageItem@NServerListManager@@ABQAV12@@@QAEXHH@Z 004143d0 f i ServerListManager.obj
 0001:000133d0       ?RemoveAt@?$CWHArray@PAVCGameServerItem@NServerListManager@@ABQAV12@@@QAEXHH@Z 004143d0 f i ServerListManager.obj
 0001:000133d0       ?RemoveAt@?$CWHArray@PAVCGameNodeItem@NServerListManager@@ABQAV12@@@QAEXHH@Z 004143d0 f i ServerListManager.obj
 0001:000133d0       ?RemoveAt@?$CWHArray@PAVCGameKindItem@NServerListManager@@ABQAV12@@@QAEXHH@Z 004143d0 f i ServerListManager.obj
 0001:000133d0       ?RemoveAt@?$CWHArray@KABK@@QAEXHH@Z 004143d0 f i AttemperEngineSink.obj
 0001:00013470       ?RemoveKey@?$CMap@GGPAVCGameKindItem@NServerListManager@@AAPAV12@@@QAEHG@Z 00414470 f i ServerListManager.obj
 0001:00013470       ?RemoveKey@?$CMap@GGPAVCGamePageItem@NServerListManager@@AAPAV12@@@QAEHG@Z 00414470 f i ServerListManager.obj
 0001:00013470       ?RemoveKey@?$CMap@GGPAVCGameTypeItem@NServerListManager@@AAPAV12@@@QAEHG@Z 00414470 f i ServerListManager.obj
 0001:00013470       ?RemoveKey@?$CMap@GGPAUtagServerItem@@PAU1@@@QAEHG@Z 00414470 f i AIManager.obj
 0001:00013470       ?RemoveKey@?$CMap@GGPAVCGameServerItem@NServerListManager@@AAPAV12@@@QAEHG@Z 00414470 f i ServerListManager.obj
 0001:00013470       ?RemoveKey@?$CMap@GGPAVCGameNodeItem@NServerListManager@@AAPAV12@@@QAEHG@Z 00414470 f i ServerListManager.obj
 0001:00013520       ?Serialize@?$CMap@GGPAVCGameKindItem@NServerListManager@@AAPAV12@@@UAEXAAVCArchive@@@Z 00414520 f i ServerListManager.obj
 0001:00013520       ?Serialize@?$CMap@GGPAVCGameNodeItem@NServerListManager@@AAPAV12@@@UAEXAAVCArchive@@@Z 00414520 f i ServerListManager.obj
 0001:00013520       ?Serialize@?$CMap@GGPAVCGameServerItem@NServerListManager@@AAPAV12@@@UAEXAAVCArchive@@@Z 00414520 f i ServerListManager.obj
 0001:00013520       ?Serialize@?$CMap@GGPAVCGameTypeItem@NServerListManager@@AAPAV12@@@UAEXAAVCArchive@@@Z 00414520 f i ServerListManager.obj
 0001:00013520       ?Serialize@?$CMap@GGPAVCGamePageItem@NServerListManager@@AAPAV12@@@UAEXAAVCArchive@@@Z 00414520 f i ServerListManager.obj
 0001:00013650       ?SetAt@?$CMap@GGPAVCGameServerItem@NServerListManager@@AAPAV12@@@QAEXGAAPAVCGameServerItem@NServerListManager@@@Z 00414650 f i ServerListManager.obj
 0001:00013650       ?SetAt@?$CMap@GGPAVCGamePageItem@NServerListManager@@AAPAV12@@@QAEXGAAPAVCGamePageItem@NServerListManager@@@Z 00414650 f i ServerListManager.obj
 0001:00013650       ?SetAt@?$CMap@GGPAVCGameNodeItem@NServerListManager@@AAPAV12@@@QAEXGAAPAVCGameNodeItem@NServerListManager@@@Z 00414650 f i ServerListManager.obj
 0001:00013650       ?SetAt@?$CMap@GGPAVCGameKindItem@NServerListManager@@AAPAV12@@@QAEXGAAPAVCGameKindItem@NServerListManager@@@Z 00414650 f i ServerListManager.obj
 0001:00013650       ?SetAt@?$CMap@GGPAVCGameTypeItem@NServerListManager@@AAPAV12@@@QAEXGAAPAVCGameTypeItem@NServerListManager@@@Z 00414650 f i ServerListManager.obj
 0001:00013680       ?SetAtGrow@?$CWHArray@PAVCGamePageItem@NServerListManager@@ABQAV12@@@QAEXHABQAVCGamePageItem@NServerListManager@@@Z 00414680 f i ServerListManager.obj
 0001:00013680       ?SetAtGrow@?$CWHArray@PAVCGameKindItem@NServerListManager@@ABQAV12@@@QAEXHABQAVCGameKindItem@NServerListManager@@@Z 00414680 f i ServerListManager.obj
 0001:00013680       ?SetAtGrow@?$CWHArray@PAVCGameServerItem@NServerListManager@@ABQAV12@@@QAEXHABQAVCGameServerItem@NServerListManager@@@Z 00414680 f i ServerListManager.obj
 0001:00013680       ?SetAtGrow@?$CWHArray@PAVCGameNodeItem@NServerListManager@@ABQAV12@@@QAEXHABQAVCGameNodeItem@NServerListManager@@@Z 00414680 f i ServerListManager.obj
 0001:00013680       ?SetAtGrow@?$CWHArray@KABK@@QAEXHABK@Z 00414680 f i AttemperEngineSink.obj
 0001:00013680       ?SetAtGrow@?$CWHArray@PAVCGameTypeItem@NServerListManager@@ABQAV12@@@QAEXHABQAVCGameTypeItem@NServerListManager@@@Z 00414680 f i ServerListManager.obj
 0001:000136d0       ?SetSize@?$CWHArray@PAVCGameServerItem@NServerListManager@@ABQAV12@@@QAEXH@Z 004146d0 f i ServerListManager.obj
 0001:000136d0       ?SetSize@?$CWHArray@PAVCGamePageItem@NServerListManager@@ABQAV12@@@QAEXH@Z 004146d0 f i ServerListManager.obj
 0001:000136d0       ?SetSize@?$CWHArray@KABK@@QAEXH@Z 004146d0 f i AttemperEngineSink.obj
 0001:000136d0       ?SetSize@?$CWHArray@PAVCGameTypeItem@NServerListManager@@ABQAV12@@@QAEXH@Z 004146d0 f i ServerListManager.obj
 0001:000136d0       ?SetSize@?$CWHArray@PAVCGameKindItem@NServerListManager@@ABQAV12@@@QAEXH@Z 004146d0 f i ServerListManager.obj
 0001:000136d0       ?SetSize@?$CWHArray@PAVCGameNodeItem@NServerListManager@@ABQAV12@@@QAEXH@Z 004146d0 f i ServerListManager.obj
 0001:000137b0       ??0CServiceUnits@@QAE@XZ   004147b0 f   ServiceUnits.obj
 0001:00013a10       ??1CServiceUnits@@UAE@XZ   00414a10 f   ServiceUnits.obj
 0001:00013b70       ?SetServiceUnitsSink@CServiceUnits@@QAE_NPAUIServiceUnitsSink@@@Z 00414b70 f   ServiceUnits.obj
 0001:00013b90       ?PostControlRequest@CServiceUnits@@QAE_NGPAXG@Z 00414b90 f   ServiceUnits.obj
 0001:00013c70       ?StartService@CServiceUnits@@QAE_NXZ 00414c70 f   ServiceUnits.obj
 0001:00013d90       ?ConcludeService@CServiceUnits@@QAE_NXZ 00414d90 f   ServiceUnits.obj
 0001:00013fa0       ?CollocateService@CServiceUnits@@QAE_NAAUtagGameMatchOption@@@Z 00414fa0 f   ServiceUnits.obj
 0001:00013fe0       ?CollocateService@CServiceUnits@@QAE_NPB_WAAUtagGameServiceOption@@@Z 00414fe0 f   ServiceUnits.obj
 0001:00014030       ?LoadDataBaseParameter@CServiceUnits@@QAE_NPB_W0AAUtagDataBaseParameter@@@Z 00415030 f   ServiceUnits.obj
 0001:00014040       ?CreateServiceDLL@CServiceUnits@@IAE_NXZ 00415040 f   ServiceUnits.obj
 0001:00014280       ?InitializeService@CServiceUnits@@IAE_NXZ 00415280 f   ServiceUnits.obj
 0001:00014bf0       ?StartKernelService@CServiceUnits@@IAE_NXZ 00415bf0 f   ServiceUnits.obj
 0001:00014d70       ?StartNetworkService@CServiceUnits@@IAE_NXZ 00415d70 f   ServiceUnits.obj
 0001:00014db0       ?RectifyServiceParameter@CServiceUnits@@IAE_NXZ 00415db0 f   ServiceUnits.obj
 0001:00014dc0       ?SetServiceStatus@CServiceUnits@@AAE_NW4enServiceStatus@@@Z 00415dc0 f   ServiceUnits.obj
 0001:00014e20       ?WritePersonalDissumeInfo@CServiceUnits@@AAE_NXZ 00415e20 f   ServiceUnits.obj
 0001:00014e30       ?ConnectPlatformDB@CServiceUnits@@AAE_NAAVCDataBaseHelper@@@Z 00415e30 f   ServiceUnits.obj
 0001:00014e40       ?UnLockServerUser@CServiceUnits@@AAE_NXZ 00415e40 f   ServiceUnits.obj
 0001:00014e50       ?SendControlPacket@CServiceUnits@@QAE_NGPAXG@Z 00415e50 f   ServiceUnits.obj
 0001:00014eb0       ?WriteSeverCount@CServiceUnits@@QAEX_N@Z 00415eb0 f   ServiceUnits.obj
 0001:00014ec0       ?OnUIControlRequest@CServiceUnits@@IAEJIJ@Z 00415ec0 f   ServiceUnits.obj
 0001:00015060       ?GetThisMessageMap@CServiceUnits@@KGPBUAFX_MSGMAP@@XZ 00416060 f   ServiceUnits.obj
 0001:00015070       ?GetMessageMap@CServiceUnits@@MBEPBUAFX_MSGMAP@@XZ 00416070 f   ServiceUnits.obj
 0001:00015080       ??0?$CTempldateHelper@UIAttemperEngine@@@@QAE@ABU_GUID@@KPB_WPBD@Z 00416080 f i ServiceUnits.obj
 0001:00015110       ??0?$CTempldateHelper@UIDataBaseEngine@@@@QAE@ABU_GUID@@KPB_WPBD@Z 00416110 f i ServiceUnits.obj
 0001:000151a0       ??0?$CTempldateHelper@UIGameServiceManager@@@@QAE@ABU_GUID@@K@Z 004161a0 f i ServiceUnits.obj
 0001:00015230       ??0?$CTempldateHelper@UIMatchServiceManager@@@@QAE@ABU_GUID@@KPB_WPBD@Z 00416230 f i ServiceUnits.obj
 0001:000152c0       ??0?$CTempldateHelper@UIPersonalRoomServiceManager@@@@QAE@ABU_GUID@@KPB_WPBD@Z 004162c0 f i ServiceUnits.obj
 0001:00015350       ??0?$CTempldateHelper@UITCPNetworkEngine@@@@QAE@ABU_GUID@@KPB_WPBD@Z 00416350 f i ServiceUnits.obj
 0001:000153e0       ??0?$CTempldateHelper@UITCPSocketService@@@@QAE@ABU_GUID@@KPB_WPBD@Z 004163e0 f i ServiceUnits.obj
 0001:00015470       ??0?$CTempldateHelper@UITimerEngine@@@@QAE@ABU_GUID@@KPB_WPBD@Z 00416470 f i ServiceUnits.obj
 0001:00015500       ??0CAttemperEngineHelper@@QAE@XZ 00416500 f i ServiceUnits.obj
 0001:00015540       ??0CDataBaseEngineHelper@@QAE@XZ 00416540 f i ServiceUnits.obj
 0001:00015580       ??0CGameServiceManagerHelper@@QAE@XZ 00416580 f i ServiceUnits.obj
 0001:000155b0       ??0CMatchServiceManagerHelper@@QAE@XZ 004165b0 f i ServiceUnits.obj
 0001:000155f0       ??0CPersonalRoomServiceManagerHelper@@QAE@XZ 004165f0 f i ServiceUnits.obj
 0001:00015630       ??0CRect@@QAE@HHHH@Z       00416630 f i ServiceUnits.obj
 0001:00015670       ??0CTCPNetworkEngineHelper@@QAE@XZ 00416670 f i ServiceUnits.obj
 0001:000156b0       ??0CTCPSocketServiceHelper@@QAE@XZ 004166b0 f i ServiceUnits.obj
 0001:000156f0       ??0CTimerEngineHelper@@QAE@XZ 004166f0 f i ServiceUnits.obj
 0001:00015730       ??1?$CTempldateHelper@UIAttemperEngine@@@@UAE@XZ 00416730 f i ServiceUnits.obj
 0001:00015780       ??1?$CTempldateHelper@UIDataBaseEngine@@@@UAE@XZ 00416780 f i ServiceUnits.obj
 0001:000157d0       ??1?$CTempldateHelper@UIGameServiceManager@@@@UAE@XZ 004167d0 f i ServiceUnits.obj
 0001:00015820       ??1?$CTempldateHelper@UIMatchServiceManager@@@@UAE@XZ 00416820 f i ServiceUnits.obj
 0001:00015870       ??1?$CTempldateHelper@UIPersonalRoomServiceManager@@@@UAE@XZ 00416870 f i ServiceUnits.obj
 0001:000158c0       ??1?$CTempldateHelper@UITCPNetworkEngine@@@@UAE@XZ 004168c0 f i ServiceUnits.obj
 0001:00015910       ??1?$CTempldateHelper@UITCPSocketService@@@@UAE@XZ 00416910 f i ServiceUnits.obj
 0001:00015960       ??1?$CTempldateHelper@UITimerEngine@@@@UAE@XZ 00416960 f i ServiceUnits.obj
 0001:000159b0       ??1CAttemperEngineHelper@@UAE@XZ 004169b0 f i ServiceUnits.obj
 0001:000159d0       ??1CDataBaseEngineHelper@@UAE@XZ 004169d0 f i ServiceUnits.obj
 0001:000159f0       ??1CGameServiceManagerHelper@@UAE@XZ 004169f0 f i ServiceUnits.obj
 0001:00015a10       ??1CMatchServiceManagerHelper@@UAE@XZ 00416a10 f i ServiceUnits.obj
 0001:00015a30       ??1CPersonalRoomServiceManagerHelper@@UAE@XZ 00416a30 f i ServiceUnits.obj
 0001:00015a50       ??1CTCPNetworkEngineHelper@@UAE@XZ 00416a50 f i ServiceUnits.obj
 0001:00015a70       ??1CTCPSocketServiceHelper@@UAE@XZ 00416a70 f i ServiceUnits.obj
 0001:00015a90       ??1CTimerEngineHelper@@UAE@XZ 00416a90 f i ServiceUnits.obj
 0001:00015ab0       ??C?$CTempldateHelper@UIDataBaseEngine@@@@QBEPAUIDataBaseEngine@@XZ 00416ab0 f i ServiceUnits.obj
 0001:00015ab0       ??C?$CTempldateHelper@UIDataBase@@@@QBEPAUIDataBase@@XZ 00416ab0 f i DataBaseEngineSink.obj
 0001:00015ab0       ??C?$CTempldateHelper@UITimerEngine@@@@QBEPAUITimerEngine@@XZ 00416ab0 f i ServiceUnits.obj
 0001:00015ab0       ??C?$CTempldateHelper@UIPersonalRoomServiceManager@@@@QBEPAUIPersonalRoomServiceManager@@XZ 00416ab0 f i ServiceUnits.obj
 0001:00015ab0       ??C?$CTempldateHelper@UIMatchServiceManager@@@@QBEPAUIMatchServiceManager@@XZ 00416ab0 f i ServiceUnits.obj
 0001:00015ab0       ??C?$CTempldateHelper@UIAttemperEngine@@@@QBEPAUIAttemperEngine@@XZ 00416ab0 f i ServiceUnits.obj
 0001:00015ab0       ??C?$CTempldateHelper@UITCPSocketService@@@@QBEPAUITCPSocketService@@XZ 00416ab0 f i DataBaseEngineSink.obj
 0001:00015ab0       ??C?$CTempldateHelper@UITCPNetworkEngine@@@@QBEPAUITCPNetworkEngine@@XZ 00416ab0 f i ServiceUnits.obj
 0001:00015ad0       ??_G?$CTempldateHelper@UIAttemperEngine@@@@UAEPAXI@Z 00416ad0 f i ServiceUnits.obj
 0001:00015ad0       ??_E?$CTempldateHelper@UIAttemperEngine@@@@UAEPAXI@Z 00416ad0 f i ServiceUnits.obj
 0001:00015b10       ??_E?$CTempldateHelper@UIDataBaseEngine@@@@UAEPAXI@Z 00416b10 f i ServiceUnits.obj
 0001:00015b10       ??_G?$CTempldateHelper@UIDataBaseEngine@@@@UAEPAXI@Z 00416b10 f i ServiceUnits.obj
 0001:00015b50       ??_E?$CTempldateHelper@UIGameServiceManager@@@@UAEPAXI@Z 00416b50 f i ServiceUnits.obj
 0001:00015b50       ??_G?$CTempldateHelper@UIGameServiceManager@@@@UAEPAXI@Z 00416b50 f i ServiceUnits.obj
 0001:00015b90       ??_E?$CTempldateHelper@UIMatchServiceManager@@@@UAEPAXI@Z 00416b90 f i ServiceUnits.obj
 0001:00015b90       ??_G?$CTempldateHelper@UIMatchServiceManager@@@@UAEPAXI@Z 00416b90 f i ServiceUnits.obj
 0001:00015bd0       ??_E?$CTempldateHelper@UIPersonalRoomServiceManager@@@@UAEPAXI@Z 00416bd0 f i ServiceUnits.obj
 0001:00015bd0       ??_G?$CTempldateHelper@UIPersonalRoomServiceManager@@@@UAEPAXI@Z 00416bd0 f i ServiceUnits.obj
 0001:00015c10       ??_E?$CTempldateHelper@UITCPNetworkEngine@@@@UAEPAXI@Z 00416c10 f i ServiceUnits.obj
 0001:00015c10       ??_G?$CTempldateHelper@UITCPNetworkEngine@@@@UAEPAXI@Z 00416c10 f i ServiceUnits.obj
 0001:00015c50       ??_G?$CTempldateHelper@UITCPSocketService@@@@UAEPAXI@Z 00416c50 f i ServiceUnits.obj
 0001:00015c50       ??_E?$CTempldateHelper@UITCPSocketService@@@@UAEPAXI@Z 00416c50 f i ServiceUnits.obj
 0001:00015c90       ??_G?$CTempldateHelper@UITimerEngine@@@@UAEPAXI@Z 00416c90 f i ServiceUnits.obj
 0001:00015c90       ??_E?$CTempldateHelper@UITimerEngine@@@@UAEPAXI@Z 00416c90 f i ServiceUnits.obj
 0001:00015cd0       ??_GCAttemperEngineHelper@@UAEPAXI@Z 00416cd0 f i ServiceUnits.obj
 0001:00015cd0       ??_ECAttemperEngineHelper@@UAEPAXI@Z 00416cd0 f i ServiceUnits.obj
 0001:00015d10       ??_GCDataBaseEngineHelper@@UAEPAXI@Z 00416d10 f i ServiceUnits.obj
 0001:00015d10       ??_ECDataBaseEngineHelper@@UAEPAXI@Z 00416d10 f i ServiceUnits.obj
 0001:00015d50       ??_GCGameServiceManagerHelper@@UAEPAXI@Z 00416d50 f i ServiceUnits.obj
 0001:00015d50       ??_ECGameServiceManagerHelper@@UAEPAXI@Z 00416d50 f i ServiceUnits.obj
 0001:00015d90       ??_GCMatchServiceManagerHelper@@UAEPAXI@Z 00416d90 f i ServiceUnits.obj
 0001:00015d90       ??_ECMatchServiceManagerHelper@@UAEPAXI@Z 00416d90 f i ServiceUnits.obj
 0001:00015dd0       ??_ECPersonalRoomServiceManagerHelper@@UAEPAXI@Z 00416dd0 f i ServiceUnits.obj
 0001:00015dd0       ??_GCPersonalRoomServiceManagerHelper@@UAEPAXI@Z 00416dd0 f i ServiceUnits.obj
 0001:00015e10       ??_GCServiceUnits@@UAEPAXI@Z 00416e10 f i ServiceUnits.obj
 0001:00015e10       ??_ECServiceUnits@@UAEPAXI@Z 00416e10 f i ServiceUnits.obj
 0001:00015e60       ??_ECTCPNetworkEngineHelper@@UAEPAXI@Z 00416e60 f i ServiceUnits.obj
 0001:00015e60       ??_GCTCPNetworkEngineHelper@@UAEPAXI@Z 00416e60 f i ServiceUnits.obj
 0001:00015ea0       ??_GCTCPSocketServiceHelper@@UAEPAXI@Z 00416ea0 f i ServiceUnits.obj
 0001:00015ea0       ??_ECTCPSocketServiceHelper@@UAEPAXI@Z 00416ea0 f i ServiceUnits.obj
 0001:00015ee0       ??_GCTimerEngineHelper@@UAEPAXI@Z 00416ee0 f i ServiceUnits.obj
 0001:00015ee0       ??_ECTimerEngineHelper@@UAEPAXI@Z 00416ee0 f i ServiceUnits.obj
 0001:00015f20       ?AfxGetMainWnd@@YGPAVCWnd@@XZ 00416f20 f i ServiceUnits.obj
 0001:00015f60       ?CloseInstance@?$CTempldateHelper@UIGameServiceManager@@@@QAE_NXZ 00416f60 f i ServiceUnits.obj
 0001:00015f60       ?CloseInstance@?$CTempldateHelper@UITCPNetworkEngine@@@@QAE_NXZ 00416f60 f i ServiceUnits.obj
 0001:00015f60       ?CloseInstance@?$CTempldateHelper@UIMatchServiceManager@@@@QAE_NXZ 00416f60 f i ServiceUnits.obj
 0001:00015f60       ?CloseInstance@?$CTempldateHelper@UIPersonalRoomServiceManager@@@@QAE_NXZ 00416f60 f i ServiceUnits.obj
 0001:00015f60       ?CloseInstance@?$CTempldateHelper@UITCPSocketService@@@@QAE_NXZ 00416f60 f i ServiceUnits.obj
 0001:00015f60       ?CloseInstance@?$CTempldateHelper@UITimerEngine@@@@QAE_NXZ 00416f60 f i ServiceUnits.obj
 0001:00015f60       ?CloseInstance@?$CTempldateHelper@UIAttemperEngine@@@@QAE_NXZ 00416f60 f i ServiceUnits.obj
 0001:00015f60       ?CloseInstance@?$CTempldateHelper@UIDataBase@@@@QAE_NXZ 00416f60 f i DataBaseEngineSink.obj
 0001:00015f60       ?CloseInstance@?$CTempldateHelper@UIDataBaseEngine@@@@QAE_NXZ 00416f60 f i ServiceUnits.obj
 0001:00015fe0       ?CreateInstance@?$CTempldateHelper@UIAttemperEngine@@@@QAE_NXZ 00416fe0 f i ServiceUnits.obj
 0001:000161c0       ?CreateInstance@?$CTempldateHelper@UIDataBaseEngine@@@@QAE_NXZ 004171c0 f i ServiceUnits.obj
 0001:000163a0       ?CreateInstance@?$CTempldateHelper@UITCPNetworkEngine@@@@QAE_NXZ 004173a0 f i ServiceUnits.obj
 0001:00016580       ?CreateInstance@?$CTempldateHelper@UITCPSocketService@@@@QAE_NXZ 00417580 f i ServiceUnits.obj
 0001:00016760       ?CreateInstance@?$CTempldateHelper@UITimerEngine@@@@QAE_NXZ 00417760 f i ServiceUnits.obj
 0001:00016940       ?GetErrorDescribe@?$CTempldateHelper@UITCPNetworkEngine@@@@QBEPB_WXZ 00417940 f i ServiceUnits.obj
 0001:00016940       ?GetErrorDescribe@?$CTempldateHelper@UIAttemperEngine@@@@QBEPB_WXZ 00417940 f i ServiceUnits.obj
 0001:00016940       ?GetErrorDescribe@?$CTempldateHelper@UITimerEngine@@@@QBEPB_WXZ 00417940 f i ServiceUnits.obj
 0001:00016940       ?GetErrorDescribe@?$CTempldateHelper@UIDataBaseEngine@@@@QBEPB_WXZ 00417940 f i ServiceUnits.obj
 0001:00016940       ?GetErrorDescribe@?$CTempldateHelper@UITCPSocketService@@@@QBEPB_WXZ 00417940 f i ServiceUnits.obj
 0001:00016960       ?GetInterface@?$CTempldateHelper@UIAttemperEngine@@@@QBEPAUIAttemperEngine@@XZ 00417960 f i ServiceUnits.obj
 0001:00016960       ?GetInterface@?$CTempldateHelper@UIPersonalRoomServiceManager@@@@QBEPAUIPersonalRoomServiceManager@@XZ 00417960 f i ServiceUnits.obj
 0001:00016960       ?GetInterface@?$CTempldateHelper@UIDataBase@@@@QBEPAUIDataBase@@XZ 00417960 f i DataBaseEngineSink.obj
 0001:00016960       ?GetInterface@?$CTempldateHelper@UIGameServiceManager@@@@QBEPAUIGameServiceManager@@XZ 00417960 f i ServiceUnits.obj
 0001:00016960       ?GetInterface@?$CTempldateHelper@UIMatchServiceManager@@@@QBEPAUIMatchServiceManager@@XZ 00417960 f i ServiceUnits.obj
 0001:00016960       ?GetInterface@?$CTempldateHelper@UITCPNetworkEngine@@@@QBEPAUITCPNetworkEngine@@XZ 00417960 f i ServiceUnits.obj
 0001:00016960       ?GetInterface@?$CTempldateHelper@UITCPSocketService@@@@QBEPAUITCPSocketService@@XZ 00417960 f i DataBaseEngineSink.obj
 0001:00016960       ?GetInterface@?$CTempldateHelper@UIDataBaseEngine@@@@QBEPAUIDataBaseEngine@@XZ 00417960 f i ServiceUnits.obj
 0001:00016960       ?GetInterface@?$CTempldateHelper@UITimerEngine@@@@QBEPAUITimerEngine@@XZ 00417960 f i ServiceUnits.obj
 0001:00016980       ?SetModuleCreateInfo@?$CTempldateHelper@UIGameServiceManager@@@@QAEXPB_WPBD@Z 00417980 f i ServiceUnits.obj
 0001:000169c0       ?Init@CComCriticalSection@ATL@@QAEJXZ 004179c0 f i Stdafx.obj
 0001:00016a00       ?_AtlInitializeCriticalSectionEx@ATL@@YAHPAU_RTL_CRITICAL_SECTION@@KK@Z 00417a00 f i Stdafx.obj
 0001:00016c39       _wWinMainCRTStartup        00417c39 f   MSVCRT:exe_wwinmain.obj
 0001:00016c43       @__security_check_cookie@4 00417c43 f   MSVCRT:_secchk_.obj
 0001:00016c60       __alloca_probe             00417c60 f   MSVCRT:chkstk.obj
 0001:00016c60       __chkstk                   00417c60 f   MSVCRT:chkstk.obj
 0001:00016c8d       ??3@YAXPAX@Z               00417c8d f   MSVCRT:delete_scalar.obj
 0001:00016c92       ??3@YAXPAXI@Z              00417c92 f   MSVCRT:delete_scalar_size.obj
 0001:00016ca0       ??_U@YAPAXI@Z              00417ca0 f   MSVCRT:new_array.obj
 0001:00016ca9       ??_V@YAXPAX@Z              00417ca9 f   MSVCRT:delete_array.obj
 0001:00016cae       ??_Etype_info@@UAEPAXI@Z   00417cae f i MSVCRT:std_type_info_static.obj
 0001:00016cae       ??_Gtype_info@@UAEPAXI@Z   00417cae f i MSVCRT:std_type_info_static.obj
 0001:00016cd1       ??2@YAPAXI@Z               00417cd1 f   MSVCRT:new_scalar.obj
 0001:00016d48       ___scrt_acquire_startup_lock 00417d48 f   MSVCRT:utility.obj
 0001:00016d7d       ___scrt_initialize_crt     00417d7d f   MSVCRT:utility.obj
 0001:00016db6       ___scrt_initialize_onexit_tables 00417db6 f   MSVCRT:utility.obj
 0001:00016e4d       ___scrt_is_nonwritable_in_current_image 00417e4d f   MSVCRT:utility.obj
 0001:00016ed7       ___scrt_release_startup_lock 00417ed7 f   MSVCRT:utility.obj
 0001:00016ef4       ___scrt_uninitialize_crt   00417ef4 f   MSVCRT:utility.obj
 0001:00016f1c       __onexit                   00417f1c f   MSVCRT:utility.obj
 0001:00016f57       _atexit                    00417f57 f   MSVCRT:utility.obj
 0001:00016f6c       ??_L@YGXPAXIIP6EX0@Z1@Z    00417f6c f   MSVCRT:ehvecctr.obj
 0001:00016fd5       ??_M@YGXPAXIIP6EX0@Z@Z     00417fd5 f   MSVCRT:ehvecdtr.obj
 0001:0001704f       ?__ArrayUnwind@@YGXPAXIIP6EX0@Z@Z 0041804f f   MSVCRT:ehvecdtr.obj
 0001:0001717c       ??$__crt_fast_encode_pointer@P6GHPAU_RTL_CONDITION_VARIABLE@@PAU_RTL_CRITICAL_SECTION@@K@Z@@YAP6GHPAU_RTL_CONDITION_VARIABLE@@PAU_RTL_CRITICAL_SECTION@@K@ZQ6GH01K@Z@Z 0041817c f i MSVCRT:thread_safe_statics.obj
 0001:0001717c       ??$__crt_fast_encode_pointer@P6GXPAU_RTL_CONDITION_VARIABLE@@@Z@@YAP6GXPAU_RTL_CONDITION_VARIABLE@@@ZQ6GX0@Z@Z 0041817c f i MSVCRT:thread_safe_statics.obj
 0001:000171b5       ___security_init_cookie    004181b5 f   MSVCRT:gs_support.obj
 0001:00017251       __get_startup_argv_mode    00418251 f   MSVCRT:argv_mode.obj
 0001:00017255       __get_startup_commit_mode  00418255 f   MSVCRT:commit_mode.obj
 0001:00017255       ___scrt_initialize_winrt   00418255 f   MSVCRT:utility_desktop.obj
 0001:00017255       __get_startup_thread_locale_mode 00418255 f   MSVCRT:thread_locale.obj
 0001:00017255       __get_startup_new_mode     00418255 f   MSVCRT:new_mode.obj
 0001:00017255       __matherr                  00418255 f   MSVCRT:matherr.obj
 0001:00017258       __get_startup_file_mode    00418258 f   MSVCRT:file_mode.obj
 0001:0001725e       ?__scrt_initialize_type_info@@YAXXZ 0041825e f   MSVCRT:tncleanup.obj
 0001:0001726a       __initialize_default_precision 0041826a f   MSVCRT:default_precision.obj
 0001:0001728b       __initialize_invalid_parameter_handler 0041828b f   MSVCRT:invalid_parameter_handler.obj
 0001:0001728b       @_guard_check_icall_nop@4  0041828b f   MSVCRT:guard_support.obj
 0001:0001728b       __initialize_denormal_control 0041828b f   MSVCRT:denormal_control.obj
 0001:0001728c       ___local_stdio_scanf_options 0041828c f i MSVCRT:default_local_stdio_options.obj
 0001:00017292       ___scrt_initialize_default_local_stdio_options 00418292 f   MSVCRT:default_local_stdio_options.obj
 0001:000172af       ___scrt_is_user_matherr_present 004182af f   MSVCRT:matherr_detection.obj
 0001:000172bb       ___scrt_get_dyn_tls_init_callback 004182bb f   MSVCRT:dyn_tls_init.obj
 0001:000172c1       ___scrt_get_dyn_tls_dtor_callback 004182c1 f   MSVCRT:dyn_tls_dtor.obj
 0001:000172c7       ___scrt_fastfail           004182c7 f   MSVCRT:utility_desktop.obj
 0001:000173e2       ___scrt_get_show_window_mode 004183e2 f   MSVCRT:utility_desktop.obj
 0001:00017415       ___scrt_is_managed_app     00418415 f   MSVCRT:utility_desktop.obj
 0001:00017459       ___scrt_set_unhandled_exception_filter 00418459 f   MSVCRT:utility_desktop.obj
 0001:00017465       ___scrt_unhandled_exception_filter@4 00418465 f   MSVCRT:utility_desktop.obj
 0001:000174a6       __RTC_Initialize           004184a6 f   MSVCRT:_initsect_.obj
 0001:000174d1       __RTC_Terminate            004184d1 f   MSVCRT:_initsect_.obj
 0001:000174fc       @_guard_check_icall@4      004184fc f i MSVCRT:checkcfg.obj
 0001:00017510       __SEH_prolog4              00418510 f   MSVCRT:_sehprolg4_.obj
 0001:00017556       __SEH_epilog4              00418556 f   MSVCRT:_sehprolg4_.obj
 0001:0001756b       __except_handler4          0041856b f   MSVCRT:_chandler4gs_.obj
 0001:0001758e       ___raise_securityfailure   0041858e f   MSVCRT:gs_report.obj
 0001:000175b6       ___report_gsfailure        004185b6 f   MSVCRT:gs_report.obj
 0001:000176b1       ??0bad_alloc@std@@QAE@ABV01@@Z 004186b1 f i MSVCRT:throw_bad_alloc.obj
 0001:000176cc       ??0bad_alloc@std@@QAE@XZ   004186cc f i MSVCRT:throw_bad_alloc.obj
 0001:000176e4       ??0bad_array_new_length@std@@QAE@ABV01@@Z 004186e4 f i MSVCRT:throw_bad_alloc.obj
 0001:000176ff       ??0bad_array_new_length@std@@QAE@XZ 004186ff f i MSVCRT:throw_bad_alloc.obj
 0001:00017717       ??0exception@std@@QAE@ABV01@@Z 00418717 f i MSVCRT:throw_bad_alloc.obj
 0001:00017743       ??1bad_alloc@std@@UAE@XZ   00418743 f i MSVCRT:throw_bad_alloc.obj
 0001:00017743       ??1bad_array_new_length@std@@UAE@XZ 00418743 f i MSVCRT:throw_bad_alloc.obj
 0001:00017754       ??_Gbad_array_new_length@std@@UAEPAXI@Z 00418754 f i MSVCRT:throw_bad_alloc.obj
 0001:00017754       ??_Eexception@std@@UAEPAXI@Z 00418754 f i MSVCRT:throw_bad_alloc.obj
 0001:00017754       ??_Ebad_array_new_length@std@@UAEPAXI@Z 00418754 f i MSVCRT:throw_bad_alloc.obj
 0001:00017754       ??_Ebad_alloc@std@@UAEPAXI@Z 00418754 f i MSVCRT:throw_bad_alloc.obj
 0001:00017754       ??_Gbad_alloc@std@@UAEPAXI@Z 00418754 f i MSVCRT:throw_bad_alloc.obj
 0001:00017754       ??_Gexception@std@@UAEPAXI@Z 00418754 f i MSVCRT:throw_bad_alloc.obj
 0001:00017781       ?__scrt_throw_std_bad_alloc@@YAXXZ 00418781 f   MSVCRT:throw_bad_alloc.obj
 0001:0001779e       ?__scrt_throw_std_bad_array_new_length@@YAXXZ 0041879e f   MSVCRT:throw_bad_alloc.obj
 0001:000177bb       ?what@exception@std@@UBEPBDXZ 004187bb f i MSVCRT:throw_bad_alloc.obj
 0001:000177c8       ___isa_available_init      004187c8 f   MSVCRT:_cpu_disp_.obj
 0001:0001796c       ___scrt_is_ucrt_dll_in_use 0041896c f   MSVCRT:ucrt_detection.obj
 0001:00017978       ?AfxThrowInvalidArgException@@YGXXZ 00418978 f   mfc140u:mfc140u.dll
 0001:0001797e       ?AfxLoadLibrary@@YGPAUHINSTANCE__@@PB_W@Z 0041897e f   mfc140u:mfc140u.dll
 0001:00017984       ?AfxFreeLibrary@@YGHPAUHINSTANCE__@@@Z 00418984 f   mfc140u:mfc140u.dll
 0001:0001798a       ?AfxThrowMemoryException@@YGXXZ 0041898a f   mfc140u:mfc140u.dll
 0001:00017990       ?AfxThrowArchiveException@@YGXHPB_W@Z 00418990 f   mfc140u:mfc140u.dll
 0001:00017996       ?AfxThrowOleException@@YGXJ@Z 00418996 f   mfc140u:mfc140u.dll
 0001:0001799c       ?GetRuntimeClass@CObject@@UBEPAUCRuntimeClass@@XZ 0041899c f   mfc140u:mfc140u.dll
 0001:000179a2       ?Read@CArchive@@QAEIPAXI@Z 004189a2 f   mfc140u:mfc140u.dll
 0001:000179a8       ?Write@CArchive@@QAEXPBXI@Z 004189a8 f   mfc140u:mfc140u.dll
 0001:000179ae       ?ReadCount@CArchive@@QAEKXZ 004189ae f   mfc140u:mfc140u.dll
 0001:000179b4       ?WriteCount@CArchive@@QAEXK@Z 004189b4 f   mfc140u:mfc140u.dll
 0001:000179ba       ?Create@CPlex@@SGPAU1@AAPAU1@II@Z 004189ba f   mfc140u:mfc140u.dll
 0001:000179c0       ?FreeDataChain@CPlex@@QAEXXZ 004189c0 f   mfc140u:mfc140u.dll
 0001:000179c6       ??0CSyncObject@@QAE@PB_W@Z 004189c6 f   mfc140u:mfc140u.dll
 0001:000179cc       ??1CSyncObject@@UAE@XZ     004189cc f   mfc140u:mfc140u.dll
 0001:000179d2       ?GetRuntimeClass@CCriticalSection@@UBEPAUCRuntimeClass@@XZ 004189d2 f   mfc140u:mfc140u.dll
 0001:000179d8       ?OnCmdMsg@CCmdTarget@@UAEHIHPAXPAUAFX_CMDHANDLERINFO@@@Z 004189d8 f   mfc140u:mfc140u.dll
 0001:000179de       ?OnFinalRelease@CCmdTarget@@UAEXXZ 004189de f   mfc140u:mfc140u.dll
 0001:000179e4       ?IsInvokeAllowed@CCmdTarget@@UAEHJ@Z 004189e4 f   mfc140u:mfc140u.dll
 0001:000179ea       ?GetDispatchIID@CCmdTarget@@UAEHPAU_GUID@@@Z 004189ea f   mfc140u:mfc140u.dll
 0001:000179f0       ?GetTypeInfoCount@CCmdTarget@@UAEIXZ 004189f0 f   mfc140u:mfc140u.dll
 0001:000179f6       ?GetTypeLibCache@CCmdTarget@@UAEPAVCTypeLibCache@@XZ 004189f6 f   mfc140u:mfc140u.dll
 0001:000179fc       ?GetTypeLib@CCmdTarget@@UAEJKPAPAUITypeLib@@@Z 004189fc f   mfc140u:mfc140u.dll
 0001:00017a02       ?GetCommandMap@CCmdTarget@@MBEPBUAFX_OLECMDMAP@@XZ 00418a02 f   mfc140u:mfc140u.dll
 0001:00017a08       ?GetDispatchMap@CCmdTarget@@MBEPBUAFX_DISPMAP@@XZ 00418a08 f   mfc140u:mfc140u.dll
 0001:00017a0e       ?GetConnectionMap@CCmdTarget@@MBEPBUAFX_CONNECTIONMAP@@XZ 00418a0e f   mfc140u:mfc140u.dll
 0001:00017a14       ?GetInterfaceMap@CCmdTarget@@MBEPBUAFX_INTERFACEMAP@@XZ 00418a14 f   mfc140u:mfc140u.dll
 0001:00017a1a       ?GetEventSinkMap@CCmdTarget@@MBEPBUAFX_EVENTSINKMAP@@XZ 00418a1a f   mfc140u:mfc140u.dll
 0001:00017a20       ?OnCreateAggregates@CCmdTarget@@UAEHXZ 00418a20 f   mfc140u:mfc140u.dll
 0001:00017a26       ?GetInterfaceHook@CCmdTarget@@UAEPAUIUnknown@@PBX@Z 00418a26 f   mfc140u:mfc140u.dll
 0001:00017a2c       ?GetExtraConnectionPoints@CCmdTarget@@MAEHPAVCPtrArray@@@Z 00418a2c f   mfc140u:mfc140u.dll
 0001:00017a32       ?GetConnectionHook@CCmdTarget@@MAEPAUIConnectionPoint@@ABU_GUID@@@Z 00418a32 f   mfc140u:mfc140u.dll
 0001:00017a38       ?AfxInitRichEdit2@@YGHXZ   00418a38 f   mfc140u:mfc140u.dll
 0001:00017a3e       ?DoModal@CDialog@@UAEHXZ   00418a3e f   mfc140u:mfc140u.dll
 0001:00017a44       ?PreTranslateMessage@CWinThread@@UAEHPAUtagMSG@@@Z 00418a44 f   mfc140u:mfc140u.dll
 0001:00017a4a       ?PumpMessage@CWinThread@@UAEHXZ 00418a4a f   mfc140u:mfc140u.dll
 0001:00017a50       ?IsIdleMessage@CWinThread@@UAEHPAUtagMSG@@@Z 00418a50 f   mfc140u:mfc140u.dll
 0001:00017a56       ?ProcessMessageFilter@CWinThread@@UAEHHPAUtagMSG@@@Z 00418a56 f   mfc140u:mfc140u.dll
 0001:00017a5c       ?GetMainWnd@CWinThread@@UAEPAVCWnd@@XZ 00418a5c f   mfc140u:mfc140u.dll
 0001:00017a62       ?Delete@CWinThread@@UAEXXZ 00418a62 f   mfc140u:mfc140u.dll
 0001:00017a68       ?GetRuntimeClass@CWinApp@@UBEPAUCRuntimeClass@@XZ 00418a68 f   mfc140u:mfc140u.dll
 0001:00017a6e       ??0CWinApp@@QAE@PB_W@Z     00418a6e f   mfc140u:mfc140u.dll
 0001:00017a74       ?SetRegistryKey@CWinApp@@IAEXPB_W@Z 00418a74 f   mfc140u:mfc140u.dll
 0001:00017a7a       ?GetProfileIntW@CWinApp@@UAEIPB_W0H@Z 00418a7a f   mfc140u:mfc140u.dll
 0001:00017a80       ?WriteProfileInt@CWinApp@@UAEHPB_W0H@Z 00418a80 f   mfc140u:mfc140u.dll
 0001:00017a86       ?GetProfileStringW@CWinApp@@UAE?AV?$CStringT@_WV?$StrTraitMFC_DLL@_WV?$ChTraitsCRT@_W@ATL@@@@@ATL@@PB_W00@Z 00418a86 f   mfc140u:mfc140u.dll
 0001:00017a8c       ?WriteProfileStringW@CWinApp@@UAEHPB_W00@Z 00418a8c f   mfc140u:mfc140u.dll
 0001:00017a92       ?GetProfileBinary@CWinApp@@UAEHPB_W0PAPAEPAI@Z 00418a92 f   mfc140u:mfc140u.dll
 0001:00017a98       ?WriteProfileBinary@CWinApp@@UAEHPB_W0PAEI@Z 00418a98 f   mfc140u:mfc140u.dll
 0001:00017a9e       ?InitLibId@CWinApp@@UAEXXZ 00418a9e f   mfc140u:mfc140u.dll
 0001:00017aa4       ?Register@CWinApp@@UAEHXZ  00418aa4 f   mfc140u:mfc140u.dll
 0001:00017aaa       ?Unregister@CWinApp@@UAEHXZ 00418aaa f   mfc140u:mfc140u.dll
 0001:00017ab0       ?OpenDocumentFile@CWinApp@@UAEPAVCDocument@@PB_W@Z 00418ab0 f   mfc140u:mfc140u.dll
 0001:00017ab6       ?OpenDocumentFile@CWinApp@@UAEPAVCDocument@@PB_WH@Z 00418ab6 f   mfc140u:mfc140u.dll
 0001:00017abc       ?AddToRecentFileList@CWinApp@@UAEXPB_W@Z 00418abc f   mfc140u:mfc140u.dll
 0001:00017ac2       ?InitApplication@CWinApp@@UAEHXZ 00418ac2 f   mfc140u:mfc140u.dll
 0001:00017ac8       ?SaveAllModified@CWinApp@@UAEHXZ 00418ac8 f   mfc140u:mfc140u.dll
 0001:00017ace       ?DoMessageBox@CWinApp@@UAEHPB_WII@Z 00418ace f   mfc140u:mfc140u.dll
 0001:00017ad4       ?DoWaitCursor@CWinApp@@UAEXH@Z 00418ad4 f   mfc140u:mfc140u.dll
 0001:00017ada       ?OnDDECommand@CWinApp@@UAEHPA_W@Z 00418ada f   mfc140u:mfc140u.dll
 0001:00017ae0       ?WinHelpW@CWinApp@@UAEXKI@Z 00418ae0 f   mfc140u:mfc140u.dll
 0001:00017ae6       ?HtmlHelpW@CWinApp@@UAEXKI@Z 00418ae6 f   mfc140u:mfc140u.dll
 0001:00017aec       ?WinHelpInternal@CWinApp@@UAEXKI@Z 00418aec f   mfc140u:mfc140u.dll
 0001:00017af2       ?RegisterWithRestartManager@CWinApp@@UAEJHABV?$CStringT@_WV?$StrTraitMFC_DLL@_WV?$ChTraitsCRT@_W@ATL@@@@@ATL@@@Z 00418af2 f   mfc140u:mfc140u.dll
 0001:00017af8       ?RegisterWithRestartManager@CWinApp@@UAEJPB_WKP6GKPAX@Z1KK@Z 00418af8 f   mfc140u:mfc140u.dll
 0001:00017afe       ?ApplicationRecoveryCallback@CWinApp@@UAEKPAX@Z 00418afe f   mfc140u:mfc140u.dll
 0001:00017b04       ?GetDataRecoveryHandler@CWinApp@@UAEPAVCDataRecoveryHandler@@XZ 00418b04 f   mfc140u:mfc140u.dll
 0001:00017b0a       ?IsTaskbarInteractionEnabled@CWinApp@@UAEHXZ 00418b0a f   mfc140u:mfc140u.dll
 0001:00017b10       ?InitInstance@CWinApp@@UAEHXZ 00418b10 f   mfc140u:mfc140u.dll
 0001:00017b16       ?ExitInstance@CWinApp@@UAEHXZ 00418b16 f   mfc140u:mfc140u.dll
 0001:00017b1c       ?RestartInstance@CWinApp@@UAEHXZ 00418b1c f   mfc140u:mfc140u.dll
 0001:00017b22       ?Run@CWinApp@@UAEHXZ       00418b22 f   mfc140u:mfc140u.dll
 0001:00017b28       ?OnIdle@CWinApp@@UAEHJ@Z   00418b28 f   mfc140u:mfc140u.dll
 0001:00017b2e       ?ProcessWndProcException@CWinApp@@UAEJPAVCException@@PBUtagMSG@@@Z 00418b2e f   mfc140u:mfc140u.dll
 0001:00017b34       ?LoadAppLangResourceDLL@CWinApp@@UAEPAUHINSTANCE__@@XZ 00418b34 f   mfc140u:mfc140u.dll
 0001:00017b3a       ??1CWinApp@@UAE@XZ         00418b3a f   mfc140u:mfc140u.dll
 0001:00017b40       ?GetThisMessageMap@CWinApp@@KGPBUAFX_MSGMAP@@XZ 00418b40 f   mfc140u:mfc140u.dll
 0001:00017b46       ?LoadSysPolicies@CWinApp@@UAEHXZ 00418b46 f   mfc140u:mfc140u.dll
 0001:00017b4c       ?AfxEnableControlContainer@@YAXPAVCOccManager@@@Z 00418b4c f   mfc140u:mfc140u.dll
 0001:00017b52       ?AfxGetModuleState@@YGPAVAFX_MODULE_STATE@@XZ 00418b52 f   mfc140u:mfc140u.dll
 0001:00017b58       ?DDX_Control@@YGXPAVCDataExchange@@HAAVCWnd@@@Z 00418b58 f   mfc140u:mfc140u.dll
 0001:00017b5e       ?PreSubclassWindow@CWnd@@UAEXXZ 00418b5e f   mfc140u:mfc140u.dll
 0001:00017b64       ?Create@CWnd@@UAEHPB_W0KABUtagRECT@@PAV1@IPAUCCreateContext@@@Z 00418b64 f   mfc140u:mfc140u.dll
 0001:00017b6a       ?CreateEx@CWnd@@UAEHKPB_W0KHHHHPAUHWND__@@PAUHMENU__@@PAX@Z 00418b6a f   mfc140u:mfc140u.dll
 0001:00017b70       ?CreateEx@CWnd@@UAEHKPB_W0KABUtagRECT@@PAV1@IPAX@Z 00418b70 f   mfc140u:mfc140u.dll
 0001:00017b76       ?DestroyWindow@CWnd@@UAEHXZ 00418b76 f   mfc140u:mfc140u.dll
 0001:00017b7c       ?PreCreateWindow@CWnd@@UAEHAAUtagCREATESTRUCTW@@@Z 00418b7c f   mfc140u:mfc140u.dll
 0001:00017b82       ?CalcWindowRect@CWnd@@UAEXPAUtagRECT@@I@Z 00418b82 f   mfc140u:mfc140u.dll
 0001:00017b88       ?GetDlgItem@CWnd@@QBEPAV1@H@Z 00418b88 f   mfc140u:mfc140u.dll
 0001:00017b8e       ?SetWindowTextW@CWnd@@QAEXPB_W@Z 00418b8e f   mfc140u:mfc140u.dll
 0001:00017b94       ?GetMenu@CWnd@@UBEPAVCMenu@@XZ 00418b94 f   mfc140u:mfc140u.dll
 0001:00017b9a       ?SetMenu@CWnd@@UAEHPAVCMenu@@@Z 00418b9a f   mfc140u:mfc140u.dll
 0001:00017ba0       ?OnToolHitTest@CWnd@@UBEHVCPoint@@PAUtagTOOLINFOW@@@Z 00418ba0 f   mfc140u:mfc140u.dll
 0001:00017ba6       ?EnableWindow@CWnd@@QAEHH@Z 00418ba6 f   mfc140u:mfc140u.dll
 0001:00017bac       ?GetScrollBarCtrl@CWnd@@UBEPAVCScrollBar@@H@Z 00418bac f   mfc140u:mfc140u.dll
 0001:00017bb2       ?WinHelpW@CWnd@@UAEXKI@Z   00418bb2 f   mfc140u:mfc140u.dll
 0001:00017bb8       ?HtmlHelpW@CWnd@@UAEXKI@Z  00418bb8 f   mfc140u:mfc140u.dll
 0001:00017bbe       ?WinHelpInternal@CWnd@@UAEXKI@Z 00418bbe f   mfc140u:mfc140u.dll
 0001:00017bc4       ?ContinueModal@CWnd@@UAEHXZ 00418bc4 f   mfc140u:mfc140u.dll
 0001:00017bca       ?EndModalLoop@CWnd@@UAEXH@Z 00418bca f   mfc140u:mfc140u.dll
 0001:00017bd0       ?OnDrawIconicThumbnailOrLivePreview@CWnd@@UAEXAAVCDC@@VCRect@@VCSize@@HAAH@Z 00418bd0 f   mfc140u:mfc140u.dll
 0001:00017bd6       ?GetInterfaceMap@CWnd@@MBEPBUAFX_INTERFACEMAP@@XZ 00418bd6 f   mfc140u:mfc140u.dll
 0001:00017bdc       ?EnsureStdObj@CWnd@@UAEJXZ 00418bdc f   mfc140u:mfc140u.dll
 0001:00017be2       ?get_accParent@CWnd@@UAEJPAPAUIDispatch@@@Z 00418be2 f   mfc140u:mfc140u.dll
 0001:00017be8       ?get_accChildCount@CWnd@@UAEJPAJ@Z 00418be8 f   mfc140u:mfc140u.dll
 0001:00017bee       ?get_accChild@CWnd@@UAEJUtagVARIANT@@PAPAUIDispatch@@@Z 00418bee f   mfc140u:mfc140u.dll
 0001:00017bf4       ?get_accName@CWnd@@UAEJUtagVARIANT@@PAPA_W@Z 00418bf4 f   mfc140u:mfc140u.dll
 0001:00017bfa       ?get_accValue@CWnd@@UAEJUtagVARIANT@@PAPA_W@Z 00418bfa f   mfc140u:mfc140u.dll
 0001:00017c00       ?get_accDescription@CWnd@@UAEJUtagVARIANT@@PAPA_W@Z 00418c00 f   mfc140u:mfc140u.dll
 0001:00017c06       ?get_accRole@CWnd@@UAEJUtagVARIANT@@PAU2@@Z 00418c06 f   mfc140u:mfc140u.dll
 0001:00017c0c       ?get_accState@CWnd@@UAEJUtagVARIANT@@PAU2@@Z 00418c0c f   mfc140u:mfc140u.dll
 0001:00017c12       ?get_accHelp@CWnd@@UAEJUtagVARIANT@@PAPA_W@Z 00418c12 f   mfc140u:mfc140u.dll
 0001:00017c18       ?get_accHelpTopic@CWnd@@UAEJPAPA_WUtagVARIANT@@PAJ@Z 00418c18 f   mfc140u:mfc140u.dll
 0001:00017c1e       ?get_accKeyboardShortcut@CWnd@@UAEJUtagVARIANT@@PAPA_W@Z 00418c1e f   mfc140u:mfc140u.dll
 0001:00017c24       ?get_accFocus@CWnd@@UAEJPAUtagVARIANT@@@Z 00418c24 f   mfc140u:mfc140u.dll
 0001:00017c2a       ?get_accSelection@CWnd@@UAEJPAUtagVARIANT@@@Z 00418c2a f   mfc140u:mfc140u.dll
 0001:00017c30       ?get_accDefaultAction@CWnd@@UAEJUtagVARIANT@@PAPA_W@Z 00418c30 f   mfc140u:mfc140u.dll
 0001:00017c36       ?accSelect@CWnd@@UAEJJUtagVARIANT@@@Z 00418c36 f   mfc140u:mfc140u.dll
 0001:00017c3c       ?accLocation@CWnd@@UAEJPAJ000UtagVARIANT@@@Z 00418c3c f   mfc140u:mfc140u.dll
 0001:00017c42       ?accNavigate@CWnd@@UAEJJUtagVARIANT@@PAU2@@Z 00418c42 f   mfc140u:mfc140u.dll
 0001:00017c48       ?accHitTest@CWnd@@UAEJJJPAUtagVARIANT@@@Z 00418c48 f   mfc140u:mfc140u.dll
 0001:00017c4e       ?accDoDefaultAction@CWnd@@UAEJUtagVARIANT@@@Z 00418c4e f   mfc140u:mfc140u.dll
 0001:00017c54       ?put_accName@CWnd@@UAEJUtagVARIANT@@PA_W@Z 00418c54 f   mfc140u:mfc140u.dll
 0001:00017c5a       ?put_accValue@CWnd@@UAEJUtagVARIANT@@PA_W@Z 00418c5a f   mfc140u:mfc140u.dll
 0001:00017c60       ?SetProxy@CWnd@@UAEJPAUIAccessibleProxy@@@Z 00418c60 f   mfc140u:mfc140u.dll
 0001:00017c66       ?CreateAccessibleProxy@CWnd@@UAEJIJPAJ@Z 00418c66 f   mfc140u:mfc140u.dll
 0001:00017c6c       ?OnCommand@CWnd@@MAEHIJ@Z  00418c6c f   mfc140u:mfc140u.dll
 0001:00017c72       ?OnNotify@CWnd@@MAEHIJPAJ@Z 00418c72 f   mfc140u:mfc140u.dll
 0001:00017c78       ?GetSuperWndProcAddr@CWnd@@MAEPAP6GJPAUHWND__@@IIJ@ZXZ 00418c78 f   mfc140u:mfc140u.dll
 0001:00017c7e       ?OnAmbientProperty@CWnd@@UAEHPAVCOleControlSite@@JPAUtagVARIANT@@@Z 00418c7e f   mfc140u:mfc140u.dll
 0001:00017c84       ?WindowProc@CWnd@@MAEJIIJ@Z 00418c84 f   mfc140u:mfc140u.dll
 0001:00017c8a       ?OnWndMsg@CWnd@@MAEHIIJPAJ@Z 00418c8a f   mfc140u:mfc140u.dll
 0001:00017c90       ?DefWindowProcW@CWnd@@MAEJIIJ@Z 00418c90 f   mfc140u:mfc140u.dll
 0001:00017c96       ?PostNcDestroy@CWnd@@MAEXXZ 00418c96 f   mfc140u:mfc140u.dll
 0001:00017c9c       ?OnChildNotify@CWnd@@MAEHIIJPAJ@Z 00418c9c f   mfc140u:mfc140u.dll
 0001:00017ca2       ?OnTouchInputs@CWnd@@MAEHIPAUtagTOUCHINPUT@@@Z 00418ca2 f   mfc140u:mfc140u.dll
 0001:00017ca8       ?OnTouchInput@CWnd@@MAEHVCPoint@@HHPAUtagTOUCHINPUT@@@Z 00418ca8 f   mfc140u:mfc140u.dll
 0001:00017cae       ?GetGestureStatus@CWnd@@MAEKVCPoint@@@Z 00418cae f   mfc140u:mfc140u.dll
 0001:00017cb4       ?OnGestureZoom@CWnd@@MAEHVCPoint@@J@Z 00418cb4 f   mfc140u:mfc140u.dll
 0001:00017cba       ?OnGesturePan@CWnd@@MAEHVCPoint@@0@Z 00418cba f   mfc140u:mfc140u.dll
 0001:00017cc0       ?OnGestureRotate@CWnd@@MAEHVCPoint@@N@Z 00418cc0 f   mfc140u:mfc140u.dll
 0001:00017cc6       ?OnGestureTwoFingerTap@CWnd@@MAEHVCPoint@@@Z 00418cc6 f   mfc140u:mfc140u.dll
 0001:00017ccc       ?OnGesturePressAndTap@CWnd@@MAEHVCPoint@@J@Z 00418ccc f   mfc140u:mfc140u.dll
 0001:00017cd2       ?ResizeDynamicLayout@CWnd@@MAEXXZ 00418cd2 f   mfc140u:mfc140u.dll
 0001:00017cd8       ?IsFrameWnd@CWnd@@UBEHXZ   00418cd8 f   mfc140u:mfc140u.dll
 0001:00017cde       ?OnFinalRelease@CWnd@@UAEXXZ 00418cde f   mfc140u:mfc140u.dll
 0001:00017ce4       ?CreateControlContainer@CWnd@@MAEHPAPAVCOleControlContainer@@@Z 00418ce4 f   mfc140u:mfc140u.dll
 0001:00017cea       ?CreateControlSite@CWnd@@MAEHPAVCOleControlContainer@@PAPAVCOleControlSite@@IABU_GUID@@@Z 00418cea f   mfc140u:mfc140u.dll
 0001:00017cf0       ?GetRuntimeClass@CDialog@@UBEPAUCRuntimeClass@@XZ 00418cf0 f   mfc140u:mfc140u.dll
 0001:00017cf6       ?Create@CDialog@@UAEHPB_WPAVCWnd@@@Z 00418cf6 f   mfc140u:mfc140u.dll
 0001:00017cfc       ?CreateIndirect@CDialog@@UAEHPBUDLGTEMPLATE@@PAVCWnd@@PAX@Z 00418cfc f   mfc140u:mfc140u.dll
 0001:00017d02       ?CreateIndirect@CDialog@@UAEHPAXPAVCWnd@@@Z 00418d02 f   mfc140u:mfc140u.dll
 0001:00017d08       ??0CDialog@@QAE@IPAVCWnd@@@Z 00418d08 f   mfc140u:mfc140u.dll
 0001:00017d0e       ?OnInitDialog@CDialog@@UAEHXZ 00418d0e f   mfc140u:mfc140u.dll
 0001:00017d14       ?OnSetFont@CDialog@@UAEXPAVCFont@@@Z 00418d14 f   mfc140u:mfc140u.dll
 0001:00017d1a       ?OnCancel@CDialog@@MAEXXZ  00418d1a f   mfc140u:mfc140u.dll
 0001:00017d20       ??1CDialog@@UAE@XZ         00418d20 f   mfc140u:mfc140u.dll
 0001:00017d26       ?PreTranslateMessage@CDialog@@UAEHPAUtagMSG@@@Z 00418d26 f   mfc140u:mfc140u.dll
 0001:00017d2c       ?OnCmdMsg@CDialog@@UAEHIHPAXPAUAFX_CMDHANDLERINFO@@@Z 00418d2c f   mfc140u:mfc140u.dll
 0001:00017d32       ?CheckAutoCenter@CDialog@@UAEHXZ 00418d32 f   mfc140u:mfc140u.dll
 0001:00017d38       ?SetOccDialogInfo@CDialog@@MAEHPAU_AFX_OCC_DIALOG_INFO@@@Z 00418d38 f   mfc140u:mfc140u.dll
 0001:00017d3e       ?GetOccDialogInfo@CDialog@@MAEPAU_AFX_OCC_DIALOG_INFO@@XZ 00418d3e f   mfc140u:mfc140u.dll
 0001:00017d44       ?PreInitDialog@CDialog@@MAEXXZ 00418d44 f   mfc140u:mfc140u.dll
 0001:00017d4a       ?OnQueryEndSession@CDialog@@IAEHXZ 00418d4a f   mfc140u:mfc140u.dll
 0001:00017d50       ?GetThisMessageMap@CDialog@@KGPBUAFX_MSGMAP@@XZ 00418d50 f   mfc140u:mfc140u.dll
 0001:00017d56       ?GetRuntimeClass@CWnd@@UBEPAUCRuntimeClass@@XZ 00418d56 f   mfc140u:mfc140u.dll
 0001:00017d5c       ??0CWnd@@QAE@XZ            00418d5c f   mfc140u:mfc140u.dll
 0001:00017d62       ?PreTranslateMessage@CWnd@@UAEHPAUtagMSG@@@Z 00418d62 f   mfc140u:mfc140u.dll
 0001:00017d68       ??1CWnd@@UAE@XZ            00418d68 f   mfc140u:mfc140u.dll
 0001:00017d6e       ?CheckAutoCenter@CWnd@@UAEHXZ 00418d6e f   mfc140u:mfc140u.dll
 0001:00017d74       ?SetOccDialogInfo@CWnd@@MAEHPAU_AFX_OCC_DIALOG_INFO@@@Z 00418d74 f   mfc140u:mfc140u.dll
 0001:00017d7a       ?GetOccDialogInfo@CWnd@@MAEPAU_AFX_OCC_DIALOG_INFO@@XZ 00418d7a f   mfc140u:mfc140u.dll
 0001:00017d80       ?GetThisMessageMap@CWnd@@KGPBUAFX_MSGMAP@@XZ 00418d80 f   mfc140u:mfc140u.dll
 0001:00017d86       ?AfxGetThread@@YGPAVCWinThread@@XZ 00418d86 f   mfc140u:mfc140u.dll
 0001:00017d8c       ?AfxInitialize@@YGHHK@Z    00418d8c f   mfcs140u:appmodul.obj
 0001:00017da7       _wWinMain@16               00418da7 f   mfcs140u:appmodul.obj
 0001:00017db0       _IsProcessorFeaturePresent@4 00418db0 f   kernel32:KERNEL32.dll
 0001:00017db6       ??0CAtlBaseModule@ATL@@QAE@XZ 00418db6 f   atls:atlbase.obj
 0001:00017e09       ??0_ATL_BASE_MODULE70@ATL@@QAE@XZ 00418e09 f i atls:atlbase.obj
 0001:00017e2c       ??1CAtlBaseModule@ATL@@QAE@XZ 00418e2c f   atls:atlbase.obj
 0001:00017e42       ?RemoveAll@?$CSimpleArray@PAUHINSTANCE__@@V?$CSimpleArrayEqualHelper@PAUHINSTANCE__@@@ATL@@@ATL@@QAEXXZ 00418e42 f i atls:atlbase.obj
 0001:00017e60       _MiniDumpWriteDump@28      00418e60 f   DbgHelp:dbghelp.dll
 0001:00017e66       _memset                    00418e66 f   vcruntime:VCRUNTIME140.dll
 0001:00017e6c       __purecall                 00418e6c f   vcruntime:VCRUNTIME140.dll
 0001:00017e72       _memcmp                    00418e72 f   vcruntime:VCRUNTIME140.dll
 0001:00017e78       _memcpy                    00418e78 f   vcruntime:VCRUNTIME140.dll
 0001:00017e7e       ___CxxFrameHandler3        00418e7e f   vcruntime:VCRUNTIME140.dll
 0001:00017e84       ___vcrt_InitializeCriticalSectionEx 00418e84 f   vcruntime:VCRUNTIME140.dll
 0001:00017e8a       __except_handler4_common   00418e8a f   vcruntime:VCRUNTIME140.dll
 0001:00017e90       ___std_exception_copy      00418e90 f   vcruntime:VCRUNTIME140.dll
 0001:00017e96       ___std_exception_destroy   00418e96 f   vcruntime:VCRUNTIME140.dll
 0001:00017e9c       __CxxThrowException@8      00418e9c f   vcruntime:VCRUNTIME140.dll
 0001:00017ea2       _strlen                    00418ea2 f   ucrt:api-ms-win-crt-string-l1-1-0.dll
 0001:00017ea8       _free                      00418ea8 f   ucrt:api-ms-win-crt-heap-l1-1-0.dll
 0001:00017eae       __seh_filter_exe           00418eae f   ucrt:api-ms-win-crt-runtime-l1-1-0.dll
 0001:00017eb4       __set_app_type             00418eb4 f   ucrt:api-ms-win-crt-runtime-l1-1-0.dll
 0001:00017eba       ___setusermatherr          00418eba f   ucrt:api-ms-win-crt-math-l1-1-0.dll
 0001:00017ec0       __configure_wide_argv      00418ec0 f   ucrt:api-ms-win-crt-runtime-l1-1-0.dll
 0001:00017ec6       __initialize_wide_environment 00418ec6 f   ucrt:api-ms-win-crt-runtime-l1-1-0.dll
 0001:00017ecc       __get_wide_winmain_command_line 00418ecc f   ucrt:api-ms-win-crt-runtime-l1-1-0.dll
 0001:00017ed2       __initterm                 00418ed2 f   ucrt:api-ms-win-crt-runtime-l1-1-0.dll
 0001:00017ed8       __initterm_e               00418ed8 f   ucrt:api-ms-win-crt-runtime-l1-1-0.dll
 0001:00017ede       _exit                      00418ede f   ucrt:api-ms-win-crt-runtime-l1-1-0.dll
 0001:00017ee4       __exit                     00418ee4 f   ucrt:api-ms-win-crt-runtime-l1-1-0.dll
 0001:00017eea       __set_fmode                00418eea f   ucrt:api-ms-win-crt-stdio-l1-1-0.dll
 0001:00017ef0       __cexit                    00418ef0 f   ucrt:api-ms-win-crt-runtime-l1-1-0.dll
 0001:00017ef6       __c_exit                   00418ef6 f   ucrt:api-ms-win-crt-runtime-l1-1-0.dll
 0001:00017efc       __register_thread_local_exe_atexit_callback 00418efc f   ucrt:api-ms-win-crt-runtime-l1-1-0.dll
 0001:00017f02       __configthreadlocale       00418f02 f   ucrt:api-ms-win-crt-locale-l1-1-0.dll
 0001:00017f08       __set_new_mode             00418f08 f   ucrt:api-ms-win-crt-heap-l1-1-0.dll
 0001:00017f0e       ___p__commode              00418f0e f   ucrt:api-ms-win-crt-stdio-l1-1-0.dll
 0001:00017f14       __callnewh                 00418f14 f   ucrt:api-ms-win-crt-heap-l1-1-0.dll
 0001:00017f1a       _malloc                    00418f1a f   ucrt:api-ms-win-crt-heap-l1-1-0.dll
 0001:00017f20       __initialize_onexit_table  00418f20 f   ucrt:api-ms-win-crt-runtime-l1-1-0.dll
 0001:00017f26       __register_onexit_function 00418f26 f   ucrt:api-ms-win-crt-runtime-l1-1-0.dll
 0001:00017f2c       __crt_atexit               00418f2c f   ucrt:api-ms-win-crt-runtime-l1-1-0.dll
 0001:00017f32       _terminate                 00418f32 f   ucrt:api-ms-win-crt-runtime-l1-1-0.dll
 0001:00017f38       __controlfp_s              00418f38 f   ucrt:api-ms-win-crt-runtime-l1-1-0.dll
 0001:00017f40       __SEH_prolog4_GS           00418f40 f   MSVCRT:_sehprolg4gs_.obj
 0001:00017f89       __SEH_epilog4_GS           00418f89 f   MSVCRT:_sehprolg4gs_.obj
 0001:00017f9a       ?AfxWinMain@@YGHPAUHINSTANCE__@@0PA_WH@Z 00418f9a f   mfc140u:mfc140u.dll
 0001:00017fa0       ___scrt_stub_for_acrt_uninitialize 00418fa0 f   MSVCRT:ucrt_stubs.obj
 0001:00017fa0       ___acrt_initialize         00418fa0 f   MSVCRT:ucrt_stubs.obj
 0001:00017fa0       ___acrt_uninitialize       00418fa0 f   MSVCRT:ucrt_stubs.obj
 0001:00017fa0       ___vcrt_initialize         00418fa0 f   MSVCRT:ucrt_stubs.obj
 0001:00017fa0       ___scrt_stub_for_acrt_initialize 00418fa0 f   MSVCRT:ucrt_stubs.obj
 0001:00017fa0       __should_initialize_environment 00418fa0 f   MSVCRT:env_mode.obj
 0001:00017fa0       ___vcrt_uninitialize       00418fa0 f   MSVCRT:ucrt_stubs.obj
 0002:00000000       __imp__InitCommonControls@0 0041a000     comctl32:COMCTL32.dll
 0002:00000004       \177COMCTL32_NULL_THUNK_DATA 0041a004     comctl32:COMCTL32.dll
 0002:00000008       __imp__lstrcpynW@12        0041a008     kernel32:KERNEL32.dll
 0002:0000000c       __imp__GetLastError@0      0041a00c     kernel32:KERNEL32.dll
 0002:00000010       __imp__GetProcAddress@8    0041a010     kernel32:KERNEL32.dll
 0002:00000014       __imp__lstrcpynA@12        0041a014     kernel32:KERNEL32.dll
 0002:00000018       __imp__MultiByteToWideChar@24 0041a018     kernel32:KERNEL32.dll
 0002:0000001c       __imp__EnterCriticalSection@4 0041a01c     kernel32:KERNEL32.dll
 0002:00000020       __imp__LeaveCriticalSection@4 0041a020     kernel32:KERNEL32.dll
 0002:00000024       __imp__InitializeCriticalSectionAndSpinCount@8 0041a024     kernel32:KERNEL32.dll
 0002:00000028       __imp__DeleteCriticalSection@4 0041a028     kernel32:KERNEL32.dll
 0002:0000002c       __imp__CreateFileW@28      0041a02c     kernel32:KERNEL32.dll
 0002:00000030       __imp__CloseHandle@4       0041a030     kernel32:KERNEL32.dll
 0002:00000034       __imp__SetUnhandledExceptionFilter@4 0041a034     kernel32:KERNEL32.dll
 0002:00000038       __imp__GetCurrentProcess@0 0041a038     kernel32:KERNEL32.dll
 0002:0000003c       __imp__GetCurrentProcessId@0 0041a03c     kernel32:KERNEL32.dll
 0002:00000040       __imp__GetCurrentThreadId@0 0041a040     kernel32:KERNEL32.dll
 0002:00000044       __imp__OutputDebugStringW@4 0041a044     kernel32:KERNEL32.dll
 0002:00000048       __imp__CreateEventW@16     0041a048     kernel32:KERNEL32.dll
 0002:0000004c       __imp__IsProcessorFeaturePresent@4 0041a04c     kernel32:KERNEL32.dll
 0002:00000050       __imp__GetStartupInfoW@4   0041a050     kernel32:KERNEL32.dll
 0002:00000054       __imp__UnhandledExceptionFilter@4 0041a054     kernel32:KERNEL32.dll
 0002:00000058       __imp__IsDebuggerPresent@0 0041a058     kernel32:KERNEL32.dll
 0002:0000005c       __imp__InitializeSListHead@4 0041a05c     kernel32:KERNEL32.dll
 0002:00000060       __imp__GetSystemTimeAsFileTime@4 0041a060     kernel32:KERNEL32.dll
 0002:00000064       __imp__TerminateProcess@8  0041a064     kernel32:KERNEL32.dll
 0002:00000068       __imp__QueryPerformanceCounter@4 0041a068     kernel32:KERNEL32.dll
 0002:0000006c       __imp__GetModuleHandleW@4  0041a06c     kernel32:KERNEL32.dll
 0002:00000070       __imp__GetLocalTime@4      0041a070     kernel32:KERNEL32.dll
 0002:00000074       \177KERNEL32_NULL_THUNK_DATA 0041a074     kernel32:KERNEL32.dll
 0002:00000078       __imp_?GetValue_WORD@CDataBaseAide@@QAEGPB_W@Z 0041a078     KernelEngine:KernelEngine.dll
 0002:0000007c       __imp_??1CTraceServiceControl@@UAE@XZ 0041a07c     KernelEngine:KernelEngine.dll
 0002:00000080       __imp_??0CTraceServiceControl@@QAE@XZ 0041a080     KernelEngine:KernelEngine.dll
 0002:00000084       __imp_?ExecuteProcess@CDataBaseAide@@QAEJPB_W_N@Z 0041a084     KernelEngine:KernelEngine.dll
 0002:00000088       __imp_?AddParameterOutput@CDataBaseAide@@QAEXPB_WPA_WIW4ParameterDirectionEnum@ADOCG@@@Z 0041a088     KernelEngine:KernelEngine.dll
 0002:0000008c       __imp_?AddParameter@CDataBaseAide@@QAEXPB_WKW4ParameterDirectionEnum@ADOCG@@@Z 0041a08c     KernelEngine:KernelEngine.dll
 0002:00000090       __imp_?AddParameter@CDataBaseAide@@QAEXPB_WGW4ParameterDirectionEnum@ADOCG@@@Z 0041a090     KernelEngine:KernelEngine.dll
 0002:00000094       __imp_?AddParameter@CDataBaseAide@@QAEXPB_W_JW4ParameterDirectionEnum@ADOCG@@@Z 0041a094     KernelEngine:KernelEngine.dll
 0002:00000098       __imp_?AddParameter@CDataBaseAide@@QAEXPB_WHW4ParameterDirectionEnum@ADOCG@@@Z 0041a098     KernelEngine:KernelEngine.dll
 0002:0000009c       __imp_?ResetParameter@CDataBaseAide@@QAEXXZ 0041a09c     KernelEngine:KernelEngine.dll
 0002:000000a0       __imp_?GetValue_LONGLONG@CDataBaseAide@@QAE_JPB_W@Z 0041a0a0     KernelEngine:KernelEngine.dll
 0002:000000a4       __imp_?GetValue_DWORD@CDataBaseAide@@QAEKPB_W@Z 0041a0a4     KernelEngine:KernelEngine.dll
 0002:000000a8       __imp_?SetDataBase@CDataBaseAide@@QAE_NPAUIUnknownEx@@@Z 0041a0a8     KernelEngine:KernelEngine.dll
 0002:000000ac       __imp_??1CDataBaseAide@@UAE@XZ 0041a0ac     KernelEngine:KernelEngine.dll
 0002:000000b0       __imp_??0CDataBaseAide@@QAE@PAUIUnknownEx@@@Z 0041a0b0     KernelEngine:KernelEngine.dll
 0002:000000b4       __imp_?TraceString@CTraceService@@SA_NPB_WW4enTraceLevel@@@Z 0041a0b4     KernelEngine:KernelEngine.dll
 0002:000000b8       \177KernelEngine_NULL_THUNK_DATA 0041a0b8     KernelEngine:KernelEngine.dll
 0002:000000bc       __imp__VariantClear@4      0041a0bc     oleaut32:OLEAUT32.dll
 0002:000000c0       __imp__VariantInit@4       0041a0c0     oleaut32:OLEAUT32.dll
 0002:000000c4       \177OLEAUT32_NULL_THUNK_DATA 0041a0c4     oleaut32:OLEAUT32.dll
 0002:000000c8       __imp_??0CWHDataLocker@@QAE@AAVCCriticalSection@@_N@Z 0041a0c8     ServiceCore:ServiceCore.dll
 0002:000000cc       __imp_??1CWHDataLocker@@UAE@XZ 0041a0cc     ServiceCore:ServiceCore.dll
 0002:000000d0       __imp_?GetWorkDirectory@CWHService@@SA_NQA_WG@Z 0041a0d0     ServiceCore:ServiceCore.dll
 0002:000000d4       __imp_??0CWHIniData@@QAE@XZ 0041a0d4     ServiceCore:ServiceCore.dll
 0002:000000d8       __imp_??1CWHIniData@@UAE@XZ 0041a0d8     ServiceCore:ServiceCore.dll
 0002:000000dc       __imp_?SetIniFilePath@CWHIniData@@QAEXPB_W@Z 0041a0dc     ServiceCore:ServiceCore.dll
 0002:000000e0       __imp_?ReadInt@CWHIniData@@QAEIPB_W0H@Z 0041a0e0     ServiceCore:ServiceCore.dll
 0002:000000e4       __imp_?ReadEncryptString@CWHIniData@@QAEPB_WPB_W00PA_WG@Z 0041a0e4     ServiceCore:ServiceCore.dll
 0002:000000e8       __imp_??0CWHCommandLine@@QAE@XZ 0041a0e8     ServiceCore:ServiceCore.dll
 0002:000000ec       __imp_??1CWHCommandLine@@UAE@XZ 0041a0ec     ServiceCore:ServiceCore.dll
 0002:000000f0       __imp_?SearchCommandItem@CWHCommandLine@@QAE_NPB_W0QA_WG@Z 0041a0f0     ServiceCore:ServiceCore.dll
 0002:000000f4       __imp_??0CWHDataQueue@@QAE@XZ 0041a0f4     ServiceCore:ServiceCore.dll
 0002:000000f8       __imp_??1CWHDataQueue@@UAE@XZ 0041a0f8     ServiceCore:ServiceCore.dll
 0002:000000fc       __imp_?InsertData@CWHDataQueue@@QAE_NGPAXG@Z 0041a0fc     ServiceCore:ServiceCore.dll
 0002:00000100       __imp_?DistillData@CWHDataQueue@@QAE_NAAUtagDataHead@@PAXG@Z 0041a100     ServiceCore:ServiceCore.dll
 0002:00000104       \177ServiceCore_NULL_THUNK_DATA 0041a104     ServiceCore:ServiceCore.dll
 0002:00000108       __imp__SendMessageW@16     0041a108     user32:USER32.dll
 0002:0000010c       __imp__PostMessageW@16     0041a10c     user32:USER32.dll
 0002:00000110       __imp__EnableWindow@8      0041a110     user32:USER32.dll
 0002:00000114       __imp__LoadIconW@8         0041a114     user32:USER32.dll
 0002:00000118       __imp__IsWindow@4          0041a118     user32:USER32.dll
 0002:0000011c       __imp__wsprintfW           0041a11c     user32:USER32.dll
 0002:00000120       \177USER32_NULL_THUNK_DATA 0041a120     user32:USER32.dll
 0002:00000124       __imp__memset              0041a124     vcruntime:VCRUNTIME140.dll
 0002:00000128       __imp___purecall           0041a128     vcruntime:VCRUNTIME140.dll
 0002:0000012c       __imp__memcmp              0041a12c     vcruntime:VCRUNTIME140.dll
 0002:00000130       __imp__memcpy              0041a130     vcruntime:VCRUNTIME140.dll
 0002:00000134       __imp__memmove             0041a134     vcruntime:VCRUNTIME140.dll
 0002:00000138       __imp____CxxFrameHandler3  0041a138     vcruntime:VCRUNTIME140.dll
 0002:0000013c       __imp____vcrt_InitializeCriticalSectionEx 0041a13c     vcruntime:VCRUNTIME140.dll
 0002:00000140       __imp___except_handler4_common 0041a140     vcruntime:VCRUNTIME140.dll
 0002:00000144       __imp____std_exception_copy 0041a144     vcruntime:VCRUNTIME140.dll
 0002:00000148       __imp____std_exception_destroy 0041a148     vcruntime:VCRUNTIME140.dll
 0002:0000014c       __imp___CxxThrowException@8 0041a14c     vcruntime:VCRUNTIME140.dll
 0002:00000150       \177VCRUNTIME140_NULL_THUNK_DATA 0041a150     vcruntime:VCRUNTIME140.dll
 0002:00000154       __imp___wtol               0041a154     ucrt:api-ms-win-crt-convert-l1-1-0.dll
 0002:00000158       \177api-ms-win-crt-convert-l1-1-0_NULL_THUNK_DATA 0041a158     ucrt:api-ms-win-crt-convert-l1-1-0.dll
 0002:0000015c       __imp___mkdir              0041a15c     ucrt:api-ms-win-crt-filesystem-l1-1-0.dll
 0002:00000160       __imp___wmkdir             0041a160     ucrt:api-ms-win-crt-filesystem-l1-1-0.dll
 0002:00000164       \177api-ms-win-crt-filesystem-l1-1-0_NULL_THUNK_DATA 0041a164     ucrt:api-ms-win-crt-filesystem-l1-1-0.dll
 0002:00000168       __imp__free                0041a168     ucrt:api-ms-win-crt-heap-l1-1-0.dll
 0002:0000016c       __imp___set_new_mode       0041a16c     ucrt:api-ms-win-crt-heap-l1-1-0.dll
 0002:00000170       __imp___callnewh           0041a170     ucrt:api-ms-win-crt-heap-l1-1-0.dll
 0002:00000174       __imp__malloc              0041a174     ucrt:api-ms-win-crt-heap-l1-1-0.dll
 0002:00000178       \177api-ms-win-crt-heap-l1-1-0_NULL_THUNK_DATA 0041a178     ucrt:api-ms-win-crt-heap-l1-1-0.dll
 0002:0000017c       __imp___wsetlocale         0041a17c     ucrt:api-ms-win-crt-locale-l1-1-0.dll
 0002:00000180       __imp___configthreadlocale 0041a180     ucrt:api-ms-win-crt-locale-l1-1-0.dll
 0002:00000184       \177api-ms-win-crt-locale-l1-1-0_NULL_THUNK_DATA 0041a184     ucrt:api-ms-win-crt-locale-l1-1-0.dll
 0002:00000188       __imp____setusermatherr    0041a188     ucrt:api-ms-win-crt-math-l1-1-0.dll
 0002:0000018c       \177api-ms-win-crt-math-l1-1-0_NULL_THUNK_DATA 0041a18c     ucrt:api-ms-win-crt-math-l1-1-0.dll
 0002:00000190       __imp___get_wide_winmain_command_line 0041a190     ucrt:api-ms-win-crt-runtime-l1-1-0.dll
 0002:00000194       __imp___invalid_parameter_noinfo 0041a194     ucrt:api-ms-win-crt-runtime-l1-1-0.dll
 0002:00000198       __imp___errno              0041a198     ucrt:api-ms-win-crt-runtime-l1-1-0.dll
 0002:0000019c       __imp___controlfp_s        0041a19c     ucrt:api-ms-win-crt-runtime-l1-1-0.dll
 0002:000001a0       __imp__terminate           0041a1a0     ucrt:api-ms-win-crt-runtime-l1-1-0.dll
 0002:000001a4       __imp___crt_atexit         0041a1a4     ucrt:api-ms-win-crt-runtime-l1-1-0.dll
 0002:000001a8       __imp___register_onexit_function 0041a1a8     ucrt:api-ms-win-crt-runtime-l1-1-0.dll
 0002:000001ac       __imp___initialize_onexit_table 0041a1ac     ucrt:api-ms-win-crt-runtime-l1-1-0.dll
 0002:000001b0       __imp___seh_filter_exe     0041a1b0     ucrt:api-ms-win-crt-runtime-l1-1-0.dll
 0002:000001b4       __imp___register_thread_local_exe_atexit_callback 0041a1b4     ucrt:api-ms-win-crt-runtime-l1-1-0.dll
 0002:000001b8       __imp___c_exit             0041a1b8     ucrt:api-ms-win-crt-runtime-l1-1-0.dll
 0002:000001bc       __imp___cexit              0041a1bc     ucrt:api-ms-win-crt-runtime-l1-1-0.dll
 0002:000001c0       __imp___set_app_type       0041a1c0     ucrt:api-ms-win-crt-runtime-l1-1-0.dll
 0002:000001c4       __imp___exit               0041a1c4     ucrt:api-ms-win-crt-runtime-l1-1-0.dll
 0002:000001c8       __imp__exit                0041a1c8     ucrt:api-ms-win-crt-runtime-l1-1-0.dll
 0002:000001cc       __imp___initterm_e         0041a1cc     ucrt:api-ms-win-crt-runtime-l1-1-0.dll
 0002:000001d0       __imp___initterm           0041a1d0     ucrt:api-ms-win-crt-runtime-l1-1-0.dll
 0002:000001d4       __imp___configure_wide_argv 0041a1d4     ucrt:api-ms-win-crt-runtime-l1-1-0.dll
 0002:000001d8       __imp___initialize_wide_environment 0041a1d8     ucrt:api-ms-win-crt-runtime-l1-1-0.dll
 0002:000001dc       \177api-ms-win-crt-runtime-l1-1-0_NULL_THUNK_DATA 0041a1dc     ucrt:api-ms-win-crt-runtime-l1-1-0.dll
 0002:000001e0       __imp____stdio_common_vswprintf_s 0041a1e0     ucrt:api-ms-win-crt-stdio-l1-1-0.dll
 0002:000001e4       __imp___set_fmode          0041a1e4     ucrt:api-ms-win-crt-stdio-l1-1-0.dll
 0002:000001e8       __imp____p__commode        0041a1e8     ucrt:api-ms-win-crt-stdio-l1-1-0.dll
 0002:000001ec       __imp___wfopen_s           0041a1ec     ucrt:api-ms-win-crt-stdio-l1-1-0.dll
 0002:000001f0       __imp____stdio_common_vfwprintf_s 0041a1f0     ucrt:api-ms-win-crt-stdio-l1-1-0.dll
 0002:000001f4       __imp____stdio_common_vswprintf 0041a1f4     ucrt:api-ms-win-crt-stdio-l1-1-0.dll
 0002:000001f8       __imp__fclose              0041a1f8     ucrt:api-ms-win-crt-stdio-l1-1-0.dll
 0002:000001fc       __imp____stdio_common_vsnwprintf_s 0041a1fc     ucrt:api-ms-win-crt-stdio-l1-1-0.dll
 0002:00000200       __imp__fopen               0041a200     ucrt:api-ms-win-crt-stdio-l1-1-0.dll
 0002:00000204       __imp__fwrite              0041a204     ucrt:api-ms-win-crt-stdio-l1-1-0.dll
 0002:00000208       __imp____stdio_common_vsprintf 0041a208     ucrt:api-ms-win-crt-stdio-l1-1-0.dll
 0002:0000020c       __imp____stdio_common_vsprintf_s 0041a20c     ucrt:api-ms-win-crt-stdio-l1-1-0.dll
 0002:00000210       \177api-ms-win-crt-stdio-l1-1-0_NULL_THUNK_DATA 0041a210     ucrt:api-ms-win-crt-stdio-l1-1-0.dll
 0002:00000214       __imp__wcslen              0041a214     ucrt:api-ms-win-crt-string-l1-1-0.dll
 0002:00000218       __imp__strlen              0041a218     ucrt:api-ms-win-crt-string-l1-1-0.dll
 0002:0000021c       \177api-ms-win-crt-string-l1-1-0_NULL_THUNK_DATA 0041a21c     ucrt:api-ms-win-crt-string-l1-1-0.dll
 0002:00000220       __imp___time64             0041a220     ucrt:api-ms-win-crt-time-l1-1-0.dll
 0002:00000224       __imp___difftime64         0041a224     ucrt:api-ms-win-crt-time-l1-1-0.dll
 0002:00000228       \177api-ms-win-crt-time-l1-1-0_NULL_THUNK_DATA 0041a228     ucrt:api-ms-win-crt-time-l1-1-0.dll
 0002:0000022c       __imp__ldiv                0041a22c     ucrt:api-ms-win-crt-utility-l1-1-0.dll
 0002:00000230       __imp__rand                0041a230     ucrt:api-ms-win-crt-utility-l1-1-0.dll
 0002:00000234       \177api-ms-win-crt-utility-l1-1-0_NULL_THUNK_DATA 0041a234     ucrt:api-ms-win-crt-utility-l1-1-0.dll
 0002:00000238       __imp__MiniDumpWriteDump@28 0041a238     DbgHelp:dbghelp.dll
 0002:0000023c       \177dbghelp_NULL_THUNK_DATA 0041a23c     DbgHelp:dbghelp.dll
 0002:00000240       __imp_??1CWnd@@UAE@XZ      0041a240     mfc140u:mfc140u.dll
 0002:00000244       __imp_?CheckAutoCenter@CWnd@@UAEHXZ 0041a244     mfc140u:mfc140u.dll
 0002:00000248       __imp_?SetOccDialogInfo@CWnd@@MAEHPAU_AFX_OCC_DIALOG_INFO@@@Z 0041a248     mfc140u:mfc140u.dll
 0002:0000024c       __imp_?accLocation@CWnd@@UAEJPAJ000UtagVARIANT@@@Z 0041a24c     mfc140u:mfc140u.dll
 0002:00000250       __imp_?GetThisMessageMap@CWnd@@KGPBUAFX_MSGMAP@@XZ 0041a250     mfc140u:mfc140u.dll
 0002:00000254       __imp_?AfxGetThread@@YGPAVCWinThread@@XZ 0041a254     mfc140u:mfc140u.dll
 0002:00000258       __imp_?accSelect@CWnd@@UAEJJUtagVARIANT@@@Z 0041a258     mfc140u:mfc140u.dll
 0002:0000025c       __imp_?get_accDefaultAction@CWnd@@UAEJUtagVARIANT@@PAPA_W@Z 0041a25c     mfc140u:mfc140u.dll
 0002:00000260       __imp_?get_accSelection@CWnd@@UAEJPAUtagVARIANT@@@Z 0041a260     mfc140u:mfc140u.dll
 0002:00000264       __imp_?get_accFocus@CWnd@@UAEJPAUtagVARIANT@@@Z 0041a264     mfc140u:mfc140u.dll
 0002:00000268       __imp_?get_accKeyboardShortcut@CWnd@@UAEJUtagVARIANT@@PAPA_W@Z 0041a268     mfc140u:mfc140u.dll
 0002:0000026c       __imp_?get_accHelpTopic@CWnd@@UAEJPAPA_WUtagVARIANT@@PAJ@Z 0041a26c     mfc140u:mfc140u.dll
 0002:00000270       __imp_?get_accHelp@CWnd@@UAEJUtagVARIANT@@PAPA_W@Z 0041a270     mfc140u:mfc140u.dll
 0002:00000274       __imp_?get_accState@CWnd@@UAEJUtagVARIANT@@PAU2@@Z 0041a274     mfc140u:mfc140u.dll
 0002:00000278       __imp_?get_accRole@CWnd@@UAEJUtagVARIANT@@PAU2@@Z 0041a278     mfc140u:mfc140u.dll
 0002:0000027c       __imp_?get_accDescription@CWnd@@UAEJUtagVARIANT@@PAPA_W@Z 0041a27c     mfc140u:mfc140u.dll
 0002:00000280       __imp_?get_accValue@CWnd@@UAEJUtagVARIANT@@PAPA_W@Z 0041a280     mfc140u:mfc140u.dll
 0002:00000284       __imp_?get_accName@CWnd@@UAEJUtagVARIANT@@PAPA_W@Z 0041a284     mfc140u:mfc140u.dll
 0002:00000288       __imp_?get_accChild@CWnd@@UAEJUtagVARIANT@@PAPAUIDispatch@@@Z 0041a288     mfc140u:mfc140u.dll
 0002:0000028c       __imp_?get_accChildCount@CWnd@@UAEJPAJ@Z 0041a28c     mfc140u:mfc140u.dll
 0002:00000290       __imp_?get_accParent@CWnd@@UAEJPAPAUIDispatch@@@Z 0041a290     mfc140u:mfc140u.dll
 0002:00000294       __imp_?EnsureStdObj@CWnd@@UAEJXZ 0041a294     mfc140u:mfc140u.dll
 0002:00000298       __imp_?GetInterfaceMap@CWnd@@MBEPBUAFX_INTERFACEMAP@@XZ 0041a298     mfc140u:mfc140u.dll
 0002:0000029c       __imp_?OnDrawIconicThumbnailOrLivePreview@CWnd@@UAEXAAVCDC@@VCRect@@VCSize@@HAAH@Z 0041a29c     mfc140u:mfc140u.dll
 0002:000002a0       __imp_?EndModalLoop@CWnd@@UAEXH@Z 0041a2a0     mfc140u:mfc140u.dll
 0002:000002a4       __imp_?ContinueModal@CWnd@@UAEHXZ 0041a2a4     mfc140u:mfc140u.dll
 0002:000002a8       __imp_?WinHelpInternal@CWnd@@UAEXKI@Z 0041a2a8     mfc140u:mfc140u.dll
 0002:000002ac       __imp_?HtmlHelpW@CWnd@@UAEXKI@Z 0041a2ac     mfc140u:mfc140u.dll
 0002:000002b0       __imp_?WinHelpW@CWnd@@UAEXKI@Z 0041a2b0     mfc140u:mfc140u.dll
 0002:000002b4       __imp_?GetScrollBarCtrl@CWnd@@UBEPAVCScrollBar@@H@Z 0041a2b4     mfc140u:mfc140u.dll
 0002:000002b8       __imp_?EnableWindow@CWnd@@QAEHH@Z 0041a2b8     mfc140u:mfc140u.dll
 0002:000002bc       __imp_?OnToolHitTest@CWnd@@UBEHVCPoint@@PAUtagTOOLINFOW@@@Z 0041a2bc     mfc140u:mfc140u.dll
 0002:000002c0       __imp_?SetMenu@CWnd@@UAEHPAVCMenu@@@Z 0041a2c0     mfc140u:mfc140u.dll
 0002:000002c4       __imp_?GetMenu@CWnd@@UBEPAVCMenu@@XZ 0041a2c4     mfc140u:mfc140u.dll
 0002:000002c8       __imp_?SetWindowTextW@CWnd@@QAEXPB_W@Z 0041a2c8     mfc140u:mfc140u.dll
 0002:000002cc       __imp_?GetDlgItem@CWnd@@QBEPAV1@H@Z 0041a2cc     mfc140u:mfc140u.dll
 0002:000002d0       __imp_?CalcWindowRect@CWnd@@UAEXPAUtagRECT@@I@Z 0041a2d0     mfc140u:mfc140u.dll
 0002:000002d4       __imp_?PreCreateWindow@CWnd@@UAEHAAUtagCREATESTRUCTW@@@Z 0041a2d4     mfc140u:mfc140u.dll
 0002:000002d8       __imp_?DestroyWindow@CWnd@@UAEHXZ 0041a2d8     mfc140u:mfc140u.dll
 0002:000002dc       __imp_?CreateEx@CWnd@@UAEHKPB_W0KABUtagRECT@@PAV1@IPAX@Z 0041a2dc     mfc140u:mfc140u.dll
 0002:000002e0       __imp_?CreateEx@CWnd@@UAEHKPB_W0KHHHHPAUHWND__@@PAUHMENU__@@PAX@Z 0041a2e0     mfc140u:mfc140u.dll
 0002:000002e4       __imp_?Create@CWnd@@UAEHPB_W0KABUtagRECT@@PAV1@IPAUCCreateContext@@@Z 0041a2e4     mfc140u:mfc140u.dll
 0002:000002e8       __imp_?PreSubclassWindow@CWnd@@UAEXXZ 0041a2e8     mfc140u:mfc140u.dll
 0002:000002ec       __imp_?DDX_Control@@YGXPAVCDataExchange@@HAAVCWnd@@@Z 0041a2ec     mfc140u:mfc140u.dll
 0002:000002f0       __imp_?AfxGetModuleState@@YGPAVAFX_MODULE_STATE@@XZ 0041a2f0     mfc140u:mfc140u.dll
 0002:000002f4       __imp_?AfxEnableControlContainer@@YAXPAVCOccManager@@@Z 0041a2f4     mfc140u:mfc140u.dll
 0002:000002f8       __imp_?LoadSysPolicies@CWinApp@@UAEHXZ 0041a2f8     mfc140u:mfc140u.dll
 0002:000002fc       __imp_?PreTranslateMessage@CWnd@@UAEHPAUtagMSG@@@Z 0041a2fc     mfc140u:mfc140u.dll
 0002:00000300       __imp_??1CWinApp@@UAE@XZ   0041a300     mfc140u:mfc140u.dll
 0002:00000304       __imp_?LoadAppLangResourceDLL@CWinApp@@UAEPAUHINSTANCE__@@XZ 0041a304     mfc140u:mfc140u.dll
 0002:00000308       __imp_?ProcessWndProcException@CWinApp@@UAEJPAVCException@@PBUtagMSG@@@Z 0041a308     mfc140u:mfc140u.dll
 0002:0000030c       __imp_?OnIdle@CWinApp@@UAEHJ@Z 0041a30c     mfc140u:mfc140u.dll
 0002:00000310       __imp_?Run@CWinApp@@UAEHXZ 0041a310     mfc140u:mfc140u.dll
 0002:00000314       __imp_?RestartInstance@CWinApp@@UAEHXZ 0041a314     mfc140u:mfc140u.dll
 0002:00000318       __imp_?ExitInstance@CWinApp@@UAEHXZ 0041a318     mfc140u:mfc140u.dll
 0002:0000031c       __imp_?InitInstance@CWinApp@@UAEHXZ 0041a31c     mfc140u:mfc140u.dll
 0002:00000320       __imp_?IsTaskbarInteractionEnabled@CWinApp@@UAEHXZ 0041a320     mfc140u:mfc140u.dll
 0002:00000324       __imp_?GetDataRecoveryHandler@CWinApp@@UAEPAVCDataRecoveryHandler@@XZ 0041a324     mfc140u:mfc140u.dll
 0002:00000328       __imp_?ApplicationRecoveryCallback@CWinApp@@UAEKPAX@Z 0041a328     mfc140u:mfc140u.dll
 0002:0000032c       __imp_?RegisterWithRestartManager@CWinApp@@UAEJPB_WKP6GKPAX@Z1KK@Z 0041a32c     mfc140u:mfc140u.dll
 0002:00000330       __imp_?RegisterWithRestartManager@CWinApp@@UAEJHABV?$CStringT@_WV?$StrTraitMFC_DLL@_WV?$ChTraitsCRT@_W@ATL@@@@@ATL@@@Z 0041a330     mfc140u:mfc140u.dll
 0002:00000334       __imp_?GetRuntimeClass@CWnd@@UBEPAUCRuntimeClass@@XZ 0041a334     mfc140u:mfc140u.dll
 0002:00000338       __imp_?HtmlHelpW@CWinApp@@UAEXKI@Z 0041a338     mfc140u:mfc140u.dll
 0002:0000033c       __imp_?WinHelpW@CWinApp@@UAEXKI@Z 0041a33c     mfc140u:mfc140u.dll
 0002:00000340       __imp_?OnDDECommand@CWinApp@@UAEHPA_W@Z 0041a340     mfc140u:mfc140u.dll
 0002:00000344       __imp_?DoWaitCursor@CWinApp@@UAEXH@Z 0041a344     mfc140u:mfc140u.dll
 0002:00000348       __imp_?DoMessageBox@CWinApp@@UAEHPB_WII@Z 0041a348     mfc140u:mfc140u.dll
 0002:0000034c       __imp_?SaveAllModified@CWinApp@@UAEHXZ 0041a34c     mfc140u:mfc140u.dll
 0002:00000350       __imp_?InitApplication@CWinApp@@UAEHXZ 0041a350     mfc140u:mfc140u.dll
 0002:00000354       __imp_?AddToRecentFileList@CWinApp@@UAEXPB_W@Z 0041a354     mfc140u:mfc140u.dll
 0002:00000358       __imp_?OpenDocumentFile@CWinApp@@UAEPAVCDocument@@PB_WH@Z 0041a358     mfc140u:mfc140u.dll
 0002:0000035c       __imp_?OpenDocumentFile@CWinApp@@UAEPAVCDocument@@PB_W@Z 0041a35c     mfc140u:mfc140u.dll
 0002:00000360       __imp_?Unregister@CWinApp@@UAEHXZ 0041a360     mfc140u:mfc140u.dll
 0002:00000364       __imp_?Register@CWinApp@@UAEHXZ 0041a364     mfc140u:mfc140u.dll
 0002:00000368       __imp_?InitLibId@CWinApp@@UAEXXZ 0041a368     mfc140u:mfc140u.dll
 0002:0000036c       __imp_?WriteProfileBinary@CWinApp@@UAEHPB_W0PAEI@Z 0041a36c     mfc140u:mfc140u.dll
 0002:00000370       __imp_?GetProfileBinary@CWinApp@@UAEHPB_W0PAPAEPAI@Z 0041a370     mfc140u:mfc140u.dll
 0002:00000374       __imp_?WriteProfileStringW@CWinApp@@UAEHPB_W00@Z 0041a374     mfc140u:mfc140u.dll
 0002:00000378       __imp_?GetProfileStringW@CWinApp@@UAE?AV?$CStringT@_WV?$StrTraitMFC_DLL@_WV?$ChTraitsCRT@_W@ATL@@@@@ATL@@PB_W00@Z 0041a378     mfc140u:mfc140u.dll
 0002:0000037c       __imp_?WriteProfileInt@CWinApp@@UAEHPB_W0H@Z 0041a37c     mfc140u:mfc140u.dll
 0002:00000380       __imp_?GetProfileIntW@CWinApp@@UAEIPB_W0H@Z 0041a380     mfc140u:mfc140u.dll
 0002:00000384       __imp_?SetRegistryKey@CWinApp@@IAEXPB_W@Z 0041a384     mfc140u:mfc140u.dll
 0002:00000388       __imp_??0CWinApp@@QAE@PB_W@Z 0041a388     mfc140u:mfc140u.dll
 0002:0000038c       __imp_?GetRuntimeClass@CWinApp@@UBEPAUCRuntimeClass@@XZ 0041a38c     mfc140u:mfc140u.dll
 0002:00000390       __imp_?Delete@CWinThread@@UAEXXZ 0041a390     mfc140u:mfc140u.dll
 0002:00000394       __imp_?GetMainWnd@CWinThread@@UAEPAVCWnd@@XZ 0041a394     mfc140u:mfc140u.dll
 0002:00000398       __imp_?ProcessMessageFilter@CWinThread@@UAEHHPAUtagMSG@@@Z 0041a398     mfc140u:mfc140u.dll
 0002:0000039c       __imp_?IsIdleMessage@CWinThread@@UAEHPAUtagMSG@@@Z 0041a39c     mfc140u:mfc140u.dll
 0002:000003a0       __imp_?PumpMessage@CWinThread@@UAEHXZ 0041a3a0     mfc140u:mfc140u.dll
 0002:000003a4       __imp_?PreTranslateMessage@CWinThread@@UAEHPAUtagMSG@@@Z 0041a3a4     mfc140u:mfc140u.dll
 0002:000003a8       __imp_?DoModal@CDialog@@UAEHXZ 0041a3a8     mfc140u:mfc140u.dll
 0002:000003ac       __imp_?AfxInitRichEdit2@@YGHXZ 0041a3ac     mfc140u:mfc140u.dll
 0002:000003b0       __imp_?GetConnectionHook@CCmdTarget@@MAEPAUIConnectionPoint@@ABU_GUID@@@Z 0041a3b0     mfc140u:mfc140u.dll
 0002:000003b4       __imp_?GetExtraConnectionPoints@CCmdTarget@@MAEHPAVCPtrArray@@@Z 0041a3b4     mfc140u:mfc140u.dll
 0002:000003b8       __imp_?GetInterfaceHook@CCmdTarget@@UAEPAUIUnknown@@PBX@Z 0041a3b8     mfc140u:mfc140u.dll
 0002:000003bc       __imp_?OnCreateAggregates@CCmdTarget@@UAEHXZ 0041a3bc     mfc140u:mfc140u.dll
 0002:000003c0       __imp_?GetEventSinkMap@CCmdTarget@@MBEPBUAFX_EVENTSINKMAP@@XZ 0041a3c0     mfc140u:mfc140u.dll
 0002:000003c4       __imp_?GetThisMessageMap@CWinApp@@KGPBUAFX_MSGMAP@@XZ 0041a3c4     mfc140u:mfc140u.dll
 0002:000003c8       __imp_??0CWnd@@QAE@XZ      0041a3c8     mfc140u:mfc140u.dll
 0002:000003cc       __imp_?GetInterfaceMap@CCmdTarget@@MBEPBUAFX_INTERFACEMAP@@XZ 0041a3cc     mfc140u:mfc140u.dll
 0002:000003d0       __imp_?GetConnectionMap@CCmdTarget@@MBEPBUAFX_CONNECTIONMAP@@XZ 0041a3d0     mfc140u:mfc140u.dll
 0002:000003d4       __imp_?GetDispatchMap@CCmdTarget@@MBEPBUAFX_DISPMAP@@XZ 0041a3d4     mfc140u:mfc140u.dll
 0002:000003d8       __imp_?GetCommandMap@CCmdTarget@@MBEPBUAFX_OLECMDMAP@@XZ 0041a3d8     mfc140u:mfc140u.dll
 0002:000003dc       __imp_?GetTypeLib@CCmdTarget@@UAEJKPAPAUITypeLib@@@Z 0041a3dc     mfc140u:mfc140u.dll
 0002:000003e0       __imp_?GetTypeLibCache@CCmdTarget@@UAEPAVCTypeLibCache@@XZ 0041a3e0     mfc140u:mfc140u.dll
 0002:000003e4       __imp_?GetTypeInfoCount@CCmdTarget@@UAEIXZ 0041a3e4     mfc140u:mfc140u.dll
 0002:000003e8       __imp_?GetDispatchIID@CCmdTarget@@UAEHPAU_GUID@@@Z 0041a3e8     mfc140u:mfc140u.dll
 0002:000003ec       __imp_?IsInvokeAllowed@CCmdTarget@@UAEHJ@Z 0041a3ec     mfc140u:mfc140u.dll
 0002:000003f0       __imp_?OnFinalRelease@CCmdTarget@@UAEXXZ 0041a3f0     mfc140u:mfc140u.dll
 0002:000003f4       __imp_?OnCmdMsg@CCmdTarget@@UAEHIHPAXPAUAFX_CMDHANDLERINFO@@@Z 0041a3f4     mfc140u:mfc140u.dll
 0002:000003f8       __imp_?GetRuntimeClass@CCriticalSection@@UBEPAUCRuntimeClass@@XZ 0041a3f8     mfc140u:mfc140u.dll
 0002:000003fc       __imp_??1CSyncObject@@UAE@XZ 0041a3fc     mfc140u:mfc140u.dll
 0002:00000400       __imp_??0CSyncObject@@QAE@PB_W@Z 0041a400     mfc140u:mfc140u.dll
 0002:00000404       __imp_?GetThisMessageMap@CDialog@@KGPBUAFX_MSGMAP@@XZ 0041a404     mfc140u:mfc140u.dll
 0002:00000408       __imp_?OnQueryEndSession@CDialog@@IAEHXZ 0041a408     mfc140u:mfc140u.dll
 0002:0000040c       __imp_?PreInitDialog@CDialog@@MAEXXZ 0041a40c     mfc140u:mfc140u.dll
 0002:00000410       __imp_?GetOccDialogInfo@CDialog@@MAEPAU_AFX_OCC_DIALOG_INFO@@XZ 0041a410     mfc140u:mfc140u.dll
 0002:00000414       __imp_?SetOccDialogInfo@CDialog@@MAEHPAU_AFX_OCC_DIALOG_INFO@@@Z 0041a414     mfc140u:mfc140u.dll
 0002:00000418       __imp_?CheckAutoCenter@CDialog@@UAEHXZ 0041a418     mfc140u:mfc140u.dll
 0002:0000041c       __imp_?OnCmdMsg@CDialog@@UAEHIHPAXPAUAFX_CMDHANDLERINFO@@@Z 0041a41c     mfc140u:mfc140u.dll
 0002:00000420       __imp_?PreTranslateMessage@CDialog@@UAEHPAUtagMSG@@@Z 0041a420     mfc140u:mfc140u.dll
 0002:00000424       __imp_??1CDialog@@UAE@XZ   0041a424     mfc140u:mfc140u.dll
 0002:00000428       __imp_?FreeDataChain@CPlex@@QAEXXZ 0041a428     mfc140u:mfc140u.dll
 0002:0000042c       __imp_?Create@CPlex@@SGPAU1@AAPAU1@II@Z 0041a42c     mfc140u:mfc140u.dll
 0002:00000430       __imp_?WriteCount@CArchive@@QAEXK@Z 0041a430     mfc140u:mfc140u.dll
 0002:00000434       __imp_?OnCancel@CDialog@@MAEXXZ 0041a434     mfc140u:mfc140u.dll
 0002:00000438       __imp_?OnSetFont@CDialog@@UAEXPAVCFont@@@Z 0041a438     mfc140u:mfc140u.dll
 0002:0000043c       __imp_?OnInitDialog@CDialog@@UAEHXZ 0041a43c     mfc140u:mfc140u.dll
 0002:00000440       __imp_??0CDialog@@QAE@IPAVCWnd@@@Z 0041a440     mfc140u:mfc140u.dll
 0002:00000444       __imp_?CreateIndirect@CDialog@@UAEHPAXPAVCWnd@@@Z 0041a444     mfc140u:mfc140u.dll
 0002:00000448       __imp_?CreateIndirect@CDialog@@UAEHPBUDLGTEMPLATE@@PAVCWnd@@PAX@Z 0041a448     mfc140u:mfc140u.dll
 0002:0000044c       __imp_?Create@CDialog@@UAEHPB_WPAVCWnd@@@Z 0041a44c     mfc140u:mfc140u.dll
 0002:00000450       __imp_?GetRuntimeClass@CDialog@@UBEPAUCRuntimeClass@@XZ 0041a450     mfc140u:mfc140u.dll
 0002:00000454       __imp_?CreateControlSite@CWnd@@MAEHPAVCOleControlContainer@@PAPAVCOleControlSite@@IABU_GUID@@@Z 0041a454     mfc140u:mfc140u.dll
 0002:00000458       __imp_?ReadCount@CArchive@@QAEKXZ 0041a458     mfc140u:mfc140u.dll
 0002:0000045c       __imp_?Write@CArchive@@QAEXPBXI@Z 0041a45c     mfc140u:mfc140u.dll
 0002:00000460       __imp_?CreateControlContainer@CWnd@@MAEHPAPAVCOleControlContainer@@@Z 0041a460     mfc140u:mfc140u.dll
 0002:00000464       __imp_?OnFinalRelease@CWnd@@UAEXXZ 0041a464     mfc140u:mfc140u.dll
 0002:00000468       __imp_?Read@CArchive@@QAEIPAXI@Z 0041a468     mfc140u:mfc140u.dll
 0002:0000046c       __imp_?IsFrameWnd@CWnd@@UBEHXZ 0041a46c     mfc140u:mfc140u.dll
 0002:00000470       __imp_?ResizeDynamicLayout@CWnd@@MAEXXZ 0041a470     mfc140u:mfc140u.dll
 0002:00000474       __imp_?OnGesturePressAndTap@CWnd@@MAEHVCPoint@@J@Z 0041a474     mfc140u:mfc140u.dll
 0002:00000478       __imp_?OnGestureTwoFingerTap@CWnd@@MAEHVCPoint@@@Z 0041a478     mfc140u:mfc140u.dll
 0002:0000047c       __imp_?OnGestureRotate@CWnd@@MAEHVCPoint@@N@Z 0041a47c     mfc140u:mfc140u.dll
 0002:00000480       __imp_?OnGesturePan@CWnd@@MAEHVCPoint@@0@Z 0041a480     mfc140u:mfc140u.dll
 0002:00000484       __imp_?OnGestureZoom@CWnd@@MAEHVCPoint@@J@Z 0041a484     mfc140u:mfc140u.dll
 0002:00000488       __imp_?GetGestureStatus@CWnd@@MAEKVCPoint@@@Z 0041a488     mfc140u:mfc140u.dll
 0002:0000048c       __imp_?OnTouchInput@CWnd@@MAEHVCPoint@@HHPAUtagTOUCHINPUT@@@Z 0041a48c     mfc140u:mfc140u.dll
 0002:00000490       __imp_?OnTouchInputs@CWnd@@MAEHIPAUtagTOUCHINPUT@@@Z 0041a490     mfc140u:mfc140u.dll
 0002:00000494       __imp_?OnChildNotify@CWnd@@MAEHIIJPAJ@Z 0041a494     mfc140u:mfc140u.dll
 0002:00000498       __imp_?GetRuntimeClass@CObject@@UBEPAUCRuntimeClass@@XZ 0041a498     mfc140u:mfc140u.dll
 0002:0000049c       __imp_?AfxThrowOleException@@YGXJ@Z 0041a49c     mfc140u:mfc140u.dll
 0002:000004a0       __imp_?PostNcDestroy@CWnd@@MAEXXZ 0041a4a0     mfc140u:mfc140u.dll
 0002:000004a4       __imp_?AfxThrowArchiveException@@YGXHPB_W@Z 0041a4a4     mfc140u:mfc140u.dll
 0002:000004a8       __imp_?AfxThrowMemoryException@@YGXXZ 0041a4a8     mfc140u:mfc140u.dll
 0002:000004ac       __imp_?DefWindowProcW@CWnd@@MAEJIIJ@Z 0041a4ac     mfc140u:mfc140u.dll
 0002:000004b0       __imp_?OnWndMsg@CWnd@@MAEHIIJPAJ@Z 0041a4b0     mfc140u:mfc140u.dll
 0002:000004b4       __imp_?WindowProc@CWnd@@MAEJIIJ@Z 0041a4b4     mfc140u:mfc140u.dll
 0002:000004b8       __imp_?OnAmbientProperty@CWnd@@UAEHPAVCOleControlSite@@JPAUtagVARIANT@@@Z 0041a4b8     mfc140u:mfc140u.dll
 0002:000004bc       __imp_?GetSuperWndProcAddr@CWnd@@MAEPAP6GJPAUHWND__@@IIJ@ZXZ 0041a4bc     mfc140u:mfc140u.dll
 0002:000004c0       __imp_?OnNotify@CWnd@@MAEHIJPAJ@Z 0041a4c0     mfc140u:mfc140u.dll
 0002:000004c4       __imp_?OnCommand@CWnd@@MAEHIJ@Z 0041a4c4     mfc140u:mfc140u.dll
 0002:000004c8       __imp_?CreateAccessibleProxy@CWnd@@UAEJIJPAJ@Z 0041a4c8     mfc140u:mfc140u.dll
 0002:000004cc       __imp_?SetProxy@CWnd@@UAEJPAUIAccessibleProxy@@@Z 0041a4cc     mfc140u:mfc140u.dll
 0002:000004d0       __imp_?put_accValue@CWnd@@UAEJUtagVARIANT@@PA_W@Z 0041a4d0     mfc140u:mfc140u.dll
 0002:000004d4       __imp_?AfxFreeLibrary@@YGHPAUHINSTANCE__@@@Z 0041a4d4     mfc140u:mfc140u.dll
 0002:000004d8       __imp_?put_accName@CWnd@@UAEJUtagVARIANT@@PA_W@Z 0041a4d8     mfc140u:mfc140u.dll
 0002:000004dc       __imp_?accDoDefaultAction@CWnd@@UAEJUtagVARIANT@@@Z 0041a4dc     mfc140u:mfc140u.dll
 0002:000004e0       __imp_?AfxLoadLibrary@@YGPAUHINSTANCE__@@PB_W@Z 0041a4e0     mfc140u:mfc140u.dll
 0002:000004e4       __imp_??1?$CStringT@_WV?$StrTraitMFC_DLL@_WV?$ChTraitsCRT@_W@ATL@@@@@ATL@@QAE@XZ 0041a4e4     mfc140u:mfc140u.dll
 0002:000004e8       __imp_?accHitTest@CWnd@@UAEJJJPAUtagVARIANT@@@Z 0041a4e8     mfc140u:mfc140u.dll
 0002:000004ec       __imp_?WinHelpInternal@CWinApp@@UAEXKI@Z 0041a4ec     mfc140u:mfc140u.dll
 0002:000004f0       __imp_?accNavigate@CWnd@@UAEJJUtagVARIANT@@PAU2@@Z 0041a4f0     mfc140u:mfc140u.dll
 0002:000004f4       __imp_??0?$CStringT@_WV?$StrTraitMFC_DLL@_WV?$ChTraitsCRT@_W@ATL@@@@@ATL@@QAE@PB_W@Z 0041a4f4     mfc140u:mfc140u.dll
 0002:000004f8       __imp_?GetOccDialogInfo@CWnd@@MAEPAU_AFX_OCC_DIALOG_INFO@@XZ 0041a4f8     mfc140u:mfc140u.dll
 0002:000004fc       __imp_?AfxThrowInvalidArgException@@YGXXZ 0041a4fc     mfc140u:mfc140u.dll
 0002:00000500       __imp_?AfxWinMain@@YGHPAUHINSTANCE__@@0PA_WH@Z 0041a500     mfc140u:mfc140u.dll
 0002:00000504       \177mfc140u_NULL_THUNK_DATA 0041a504     mfc140u:mfc140u.dll
 0002:00000508       ___guard_check_icall_fptr  0041a508     MSVCRT:guard_support.obj
 0002:0000050c       ___xc_a                    0041a50c     MSVCRT:initializers.obj
 0002:00000520       ___xc_z                    0041a520     MSVCRT:initializers.obj
 0002:00000524       ___xi_a                    0041a524     MSVCRT:initializers.obj
 0002:00000534       ___xi_z                    0041a534     MSVCRT:initializers.obj
 0002:00000538       ___xl_a                    0041a538     MSVCRT:tlssup.obj
 0002:0000053c       ___xl_z                    0041a53c     MSVCRT:tlssup.obj
 0002:00000540       ___xp_a                    0041a540     MSVCRT:initializers.obj
 0002:00000544       ___xp_z                    0041a544     MSVCRT:initializers.obj
 0002:00000548       ___xt_a                    0041a548     MSVCRT:initializers.obj
 0002:0000054c       ___xt_z                    0041a54c     MSVCRT:initializers.obj
 0002:00002618       ??_7IUnknownEx@@6B@        0041c618     AttemperEngineSink.obj
 0002:00002624       ??_7IAttemperEngineSink@@6B@ 0041c624     AttemperEngineSink.obj
 0002:00002660       ??_7?$CWHArray@KABK@@6B@   0041c660     AttemperEngineSink.obj
 0002:00002668       ??_7CAttemperEngineSink@@6B@ 0041c668     AttemperEngineSink.obj
 0002:000037bc       ??_7IDataBaseEngineSink@@6B@ 0041d7bc     DataBaseEngineSink.obj
 0002:000037dc       ??_7?$CTempldateHelper@UIDataBase@@@@6B@ 0041d7dc     DataBaseEngineSink.obj
 0002:000037e4       ??_7CDataBaseHelper@@6B@   0041d7e4     DataBaseEngineSink.obj
 0002:000037e8       ??_C@_0P@IKJBDFNG@CreateDataBase?$AA@ 0041d7e8     DataBaseEngineSink.obj
 0002:000037f8       ??_C@_1CC@JLPEDCPB@?$AAK?$AAe?$AAr?$AAn?$AAe?$AAl?$AAE?$AAn?$AAg?$AAi?$AAn?$AAe?$AA?4?$AAd?$AAl?$AAl?$AA?$AA@ 0041d7f8     DataBaseEngineSink.obj
 0002:00003820       ??_7IGameDataBaseEngine@@6B@ 0041d820     DataBaseEngineSink.obj
 0002:00003844       ??_7CDataBaseEngineSink@@6BIDataBaseEngineSink@@@ 0041d844     DataBaseEngineSink.obj
 0002:00003868       ??_7CDataBaseEngineSink@@6BIGameDataBaseEngine@@@ 0041d868     DataBaseEngineSink.obj
 0002:000038ac       ??_7CCriticalSection@@6B@  0041d8ac     DBCorrespondManager.obj
 0002:000038d0       ??_7IServiceModule@@6B@    0041d8d0     DBCorrespondManager.obj
 0002:000038e4       ??_7IDBCorrespondManager@@6B@ 0041d8e4     DBCorrespondManager.obj
 0002:00003908       ??_7?$CList@PAUtagDBRequestHead@@ABQAU1@@@6B@ 0041d908     DBCorrespondManager.obj
 0002:00003920       ??_7CDBCorrespondManager@@6B@ 0041d920     DBCorrespondManager.obj
 0002:00006490       ??_7?$CMap@KKHH@@6B@       00420490     AIManager.obj
 0002:000064a8       ??_7?$CMap@KKPAV?$CMap@GGPAUtagGroupAIParameter@@PAU1@@@PAV1@@@6B@ 004204a8     AIManager.obj
 0002:000064c0       ??_7?$CMap@KKPAV?$CMap@GGPAV?$CMap@KKPAUtagAIUserInfo@@PAU1@@@PAV1@@@PAV1@@@6B@ 004204c0     AIManager.obj
 0002:000064d8       ??_7?$CMap@GGPAUtagServerItem@@PAU1@@@6B@ 004204d8     AIManager.obj
 0002:000064f0       ??_7?$CWHArray@UtagGroupConfigInfo@@ABU1@@@6B@ 004204f0     AIManager.obj
 0002:000064f8       ??_7?$CWHArray@UtagDeleteGroupUser@@ABU1@@@6B@ 004204f8     AIManager.obj
 0002:00006500       ??_7CAIManager@@6B@        00420500     AIManager.obj
 0002:00006508       ??_7?$CMap@GGPAUtagGroupAIParameter@@PAU1@@@6B@ 00420508     AIManager.obj
 0002:00006520       ??_7?$CMap@GGPAV?$CMap@KKPAUtagAIUserInfo@@PAU1@@@PAV1@@@6B@ 00420520     AIManager.obj
 0002:00006538       ??_7?$CMap@KKPAUtagAIUserInfo@@PAU1@@@6B@ 00420538     AIManager.obj
 0002:00006550       ??_7?$CWHArray@UtagAreadyCheckKind@?1??CheckGroupRoomIsNull@CAIManager@@QAE_NXZ@ABU1?1??23@QAE_NXZ@@@6B@ 00420550     AIManager.obj
 0002:0000656c       ??_7CAIDistributeApp@@6B@  0042056c     AIDistribute.obj
 0002:000068d0       ??_7IServiceUnitsSink@@6B@ 004208d0     AIDistributeDlg.obj
 0002:000068d8       ??_7CAIDistributeDlg@@6BCDialog@@@ 004208d8     AIDistributeDlg.obj
 0002:00006a70       ??_7CAIDistributeDlg@@6BIServiceUnitsSink@@@ 00420a70     AIDistributeDlg.obj
 0002:00007068       ??_7CInitParameter@@6B@    00421068     InitParameter.obj
 0002:00007070       ??_7?$CMap@GGPAVCGameTypeItem@NServerListManager@@AAPAV12@@@6B@ 00421070     ServerListManager.obj
 0002:00007088       ??_7?$CMap@GGPAVCGameKindItem@NServerListManager@@AAPAV12@@@6B@ 00421088     ServerListManager.obj
 0002:000070a0       ??_7?$CMap@GGPAVCGameNodeItem@NServerListManager@@AAPAV12@@@6B@ 004210a0     ServerListManager.obj
 0002:000070b8       ??_7?$CMap@GGPAVCGamePageItem@NServerListManager@@AAPAV12@@@6B@ 004210b8     ServerListManager.obj
 0002:000070d0       ??_7?$CMap@GGPAVCGameServerItem@NServerListManager@@AAPAV12@@@6B@ 004210d0     ServerListManager.obj
 0002:000070e8       ??_7?$CWHArray@PAVCGameTypeItem@NServerListManager@@ABQAV12@@@6B@ 004210e8     ServerListManager.obj
 0002:000070f0       ??_7?$CWHArray@PAVCGameKindItem@NServerListManager@@ABQAV12@@@6B@ 004210f0     ServerListManager.obj
 0002:000070f8       ??_7?$CWHArray@PAVCGameNodeItem@NServerListManager@@ABQAV12@@@6B@ 004210f8     ServerListManager.obj
 0002:00007100       ??_7?$CWHArray@PAVCGamePageItem@NServerListManager@@ABQAV12@@@6B@ 00421100     ServerListManager.obj
 0002:00007108       ??_7?$CWHArray@PAVCGameServerItem@NServerListManager@@ABQAV12@@@6B@ 00421108     ServerListManager.obj
 0002:00007110       ??_7CServerListManager@NServerListManager@@6B@ 00421110     ServerListManager.obj
 0002:000075ec       ??_7?$CTempldateHelper@UITimerEngine@@@@6B@ 004215ec     ServiceUnits.obj
 0002:000075f4       ??_7CTimerEngineHelper@@6B@ 004215f4     ServiceUnits.obj
 0002:000075f8       ??_C@_0BC@PLOLBCGN@CreateTimerEngine?$AA@ 004215f8     ServiceUnits.obj
 0002:00007610       ??_7?$CTempldateHelper@UIDataBaseEngine@@@@6B@ 00421610     ServiceUnits.obj
 0002:00007618       ??_7CDataBaseEngineHelper@@6B@ 00421618     ServiceUnits.obj
 0002:0000761c       ??_C@_0BF@FHMKIOLL@CreateDataBaseEngine?$AA@ 0042161c     ServiceUnits.obj
 0002:00007638       ??_7?$CTempldateHelper@UIAttemperEngine@@@@6B@ 00421638     ServiceUnits.obj
 0002:00007640       ??_7CAttemperEngineHelper@@6B@ 00421640     ServiceUnits.obj
 0002:00007644       ??_C@_0BF@PBPGMLEA@CreateAttemperEngine?$AA@ 00421644     ServiceUnits.obj
 0002:00007660       ??_7?$CTempldateHelper@UITCPSocketService@@@@6B@ 00421660     ServiceUnits.obj
 0002:00007668       ??_7CTCPSocketServiceHelper@@6B@ 00421668     ServiceUnits.obj
 0002:0000766c       ??_C@_0BH@FPPDPKKP@CreateTCPSocketService?$AA@ 0042166c     ServiceUnits.obj
 0002:00007688       ??_7?$CTempldateHelper@UITCPNetworkEngine@@@@6B@ 00421688     ServiceUnits.obj
 0002:00007690       ??_7CTCPNetworkEngineHelper@@6B@ 00421690     ServiceUnits.obj
 0002:00007694       ??_C@_0BH@LEGJPFFH@CreateTCPNetworkEngine?$AA@ 00421694     ServiceUnits.obj
 0002:000076b0       ??_7?$CTempldateHelper@UIGameServiceManager@@@@6B@ 004216b0     ServiceUnits.obj
 0002:000076b8       ??_7CGameServiceManagerHelper@@6B@ 004216b8     ServiceUnits.obj
 0002:000076c0       ??_7?$CTempldateHelper@UIMatchServiceManager@@@@6B@ 004216c0     ServiceUnits.obj
 0002:000076c8       ??_7CMatchServiceManagerHelper@@6B@ 004216c8     ServiceUnits.obj
 0002:000076cc       ??_C@_0BK@LKNHFFBP@CreateMatchServiceManager?$AA@ 004216cc     ServiceUnits.obj
 0002:000076e8       ??_C@_1CC@IFJAGMAK@?$AAM?$AAa?$AAt?$AAc?$AAh?$AAS?$AAe?$AAr?$AAv?$AAi?$AAc?$AAe?$AA?4?$AAd?$AAl?$AAl?$AA?$AA@ 004216e8     ServiceUnits.obj
 0002:00007710       ??_7?$CTempldateHelper@UIPersonalRoomServiceManager@@@@6B@ 00421710     ServiceUnits.obj
 0002:00007718       ??_7CPersonalRoomServiceManagerHelper@@6B@ 00421718     ServiceUnits.obj
 0002:0000771c       ??_C@_0CB@MNMPKPAH@CreatePersonalRoomServiceManager@ 0042171c     ServiceUnits.obj
 0002:00007740       ??_C@_1DA@KMGIMLLC@?$AAP?$AAe?$AAr?$AAs?$AAo?$AAn?$AAa?$AAl?$AAR?$AAo?$AAo?$AAm?$AAS?$AAe?$AAr?$AAv?$AAi?$AAc?$AAe?$AA?4?$AAd?$AAl?$AAl?$AA?$AA@ 00421740     ServiceUnits.obj
 0002:00007774       ??_7CServiceUnits@@6B@     00421774     ServiceUnits.obj
 0002:000092f0       ??_7type_info@@6B@         004232f0     MSVCRT:std_type_info_static.obj
 0002:000092f4       ??_C@_1BK@MGMFAEKH@?$AAk?$AAe?$AAr?$AAn?$AAe?$AAl?$AA3?$AA2?$AA?4?$AAd?$AAl?$AAl?$AA?$AA@ 004232f4     MSVCRT:thread_safe_statics.obj
 0002:00009310       ??_C@_0BM@HLJJNPAH@InitializeConditionVariable?$AA@ 00423310     MSVCRT:thread_safe_statics.obj
 0002:0000932c       ??_C@_0BJ@JEBJOJFJ@SleepConditionVariableCS?$AA@ 0042332c     MSVCRT:thread_safe_statics.obj
 0002:00009348       ??_C@_0BJ@PGPPEPCC@WakeAllConditionVariable?$AA@ 00423348     MSVCRT:thread_safe_statics.obj
 0002:00009370       ??_7exception@std@@6B@     00423370     MSVCRT:throw_bad_alloc.obj
 0002:00009378       ??_C@_0BC@EOODALEL@Unknown?5exception?$AA@ 00423378     MSVCRT:throw_bad_alloc.obj
 0002:00009390       ??_7bad_alloc@std@@6B@     00423390     MSVCRT:throw_bad_alloc.obj
 0002:00009398       ??_C@_0P@GHFPNOJB@bad?5allocation?$AA@ 00423398     MSVCRT:throw_bad_alloc.obj
 0002:000093ac       ??_7bad_array_new_length@std@@6B@ 004233ac     MSVCRT:throw_bad_alloc.obj
 0002:000093b4       ??_C@_0BF@KINCDENJ@bad?5array?5new?5length?$AA@ 004233b4     MSVCRT:throw_bad_alloc.obj
 0002:000093cc       _GUID_ATLVer110            004233cc     atls:atlbase.obj
 0002:000093e0       ??_C@_1IC@ONKHOIDK@?$AAE?$AAR?$AAR?$AAO?$AAR?$AA?5?$AA?3?$AA?5?$AAU?$AAn?$AAa?$AAb?$AAl?$AAe?$AA?5?$AAt?$AAo?$AA?5?$AAi?$AAn?$AAi?$AAt?$AAi?$AAa?$AAl?$AAi?$AAz?$AAe?$AA?5?$AAc?$AAr?$AAi@ 004233e0     atls:atlbase.obj
 0002:000094c8       __load_config_used         004234c8     MSVCRT:loadcfg.obj
 0002:00009524       __tls_used                 00423524     MSVCRT:tlssup.obj
 0002:0000953c       ??_R4IUnknownEx@@6B@       0042353c     AttemperEngineSink.obj
 0002:00009550       ??_R3IUnknownEx@@8         00423550     AttemperEngineSink.obj
 0002:00009560       ??_R2IUnknownEx@@8         00423560     AttemperEngineSink.obj
 0002:00009568       ??_R1A@?0A@EA@IUnknownEx@@8 00423568     AttemperEngineSink.obj
 0002:00009584       ??_R4IAttemperEngineSink@@6B@ 00423584     AttemperEngineSink.obj
 0002:00009598       ??_R3IAttemperEngineSink@@8 00423598     AttemperEngineSink.obj
 0002:000095a8       ??_R2IAttemperEngineSink@@8 004235a8     AttemperEngineSink.obj
 0002:000095b4       ??_R1A@?0A@EA@IAttemperEngineSink@@8 004235b4     AttemperEngineSink.obj
 0002:000095d0       ??_R4?$CWHArray@KABK@@6B@  004235d0     AttemperEngineSink.obj
 0002:000095e4       ??_R3?$CWHArray@KABK@@8    004235e4     AttemperEngineSink.obj
 0002:000095f4       ??_R2?$CWHArray@KABK@@8    004235f4     AttemperEngineSink.obj
 0002:000095fc       ??_R1A@?0A@EA@?$CWHArray@KABK@@8 004235fc     AttemperEngineSink.obj
 0002:00009618       ??_R4CAttemperEngineSink@@6B@ 00423618     AttemperEngineSink.obj
 0002:0000962c       ??_R3CAttemperEngineSink@@8 0042362c     AttemperEngineSink.obj
 0002:0000963c       ??_R2CAttemperEngineSink@@8 0042363c     AttemperEngineSink.obj
 0002:0000964c       ??_R1A@?0A@EA@CAttemperEngineSink@@8 0042364c     AttemperEngineSink.obj
 0002:00009668       ??_R4CDataBaseHelper@@6B@  00423668     DataBaseEngineSink.obj
 0002:0000967c       ??_R3CDataBaseHelper@@8    0042367c     DataBaseEngineSink.obj
 0002:0000968c       ??_R2CDataBaseHelper@@8    0042368c     DataBaseEngineSink.obj
 0002:00009698       ??_R1A@?0A@EA@CDataBaseHelper@@8 00423698     DataBaseEngineSink.obj
 0002:000096b4       ??_R1A@?0A@EA@?$CTempldateHelper@UIDataBase@@@@8 004236b4     DataBaseEngineSink.obj
 0002:000096d0       ??_R3?$CTempldateHelper@UIDataBase@@@@8 004236d0     DataBaseEngineSink.obj
 0002:000096e0       ??_R2?$CTempldateHelper@UIDataBase@@@@8 004236e0     DataBaseEngineSink.obj
 0002:000096e8       ??_R4?$CTempldateHelper@UIDataBase@@@@6B@ 004236e8     DataBaseEngineSink.obj
 0002:000096fc       ??_R4IDataBaseEngineSink@@6B@ 004236fc     DataBaseEngineSink.obj
 0002:00009710       ??_R3IDataBaseEngineSink@@8 00423710     DataBaseEngineSink.obj
 0002:00009720       ??_R2IDataBaseEngineSink@@8 00423720     DataBaseEngineSink.obj
 0002:0000972c       ??_R1A@?0A@EA@IDataBaseEngineSink@@8 0042372c     DataBaseEngineSink.obj
 0002:00009748       ??_R4IGameDataBaseEngine@@6B@ 00423748     DataBaseEngineSink.obj
 0002:0000975c       ??_R3IGameDataBaseEngine@@8 0042375c     DataBaseEngineSink.obj
 0002:0000976c       ??_R2IGameDataBaseEngine@@8 0042376c     DataBaseEngineSink.obj
 0002:00009778       ??_R1A@?0A@EA@IGameDataBaseEngine@@8 00423778     DataBaseEngineSink.obj
 0002:00009794       ??_R4CDataBaseEngineSink@@6BIDataBaseEngineSink@@@ 00423794     DataBaseEngineSink.obj
 0002:000097a8       ??_R3CDataBaseEngineSink@@8 004237a8     DataBaseEngineSink.obj
 0002:000097b8       ??_R2CDataBaseEngineSink@@8 004237b8     DataBaseEngineSink.obj
 0002:000097d0       ??_R1A@?0A@EA@CDataBaseEngineSink@@8 004237d0     DataBaseEngineSink.obj
 0002:000097ec       ??_R1A@?0A@EC@IUnknownEx@@8 004237ec     DataBaseEngineSink.obj
 0002:00009808       ??_R13?0A@EA@IGameDataBaseEngine@@8 00423808     DataBaseEngineSink.obj
 0002:00009824       ??_R13?0A@EC@IUnknownEx@@8 00423824     DataBaseEngineSink.obj
 0002:00009840       ??_R4CDataBaseEngineSink@@6BIGameDataBaseEngine@@@ 00423840     DataBaseEngineSink.obj
 0002:00009854       ??_R3CObject@@8            00423854     DBCorrespondManager.obj
 0002:00009864       ??_R2CObject@@8            00423864     DBCorrespondManager.obj
 0002:0000986c       ??_R1A@?0A@EA@CObject@@8   0042386c     DBCorrespondManager.obj
 0002:00009888       ??_R4CCriticalSection@@6B@ 00423888     DBCorrespondManager.obj
 0002:0000989c       ??_R3CCriticalSection@@8   0042389c     DBCorrespondManager.obj
 0002:000098ac       ??_R2CCriticalSection@@8   004238ac     DBCorrespondManager.obj
 0002:000098bc       ??_R1A@?0A@EA@CCriticalSection@@8 004238bc     DBCorrespondManager.obj
 0002:000098d8       ??_R1A@?0A@EA@CSyncObject@@8 004238d8     DBCorrespondManager.obj
 0002:000098f4       ??_R3CSyncObject@@8        004238f4     DBCorrespondManager.obj
 0002:00009904       ??_R2CSyncObject@@8        00423904     DBCorrespondManager.obj
 0002:00009910       ??_R4IServiceModule@@6B@   00423910     DBCorrespondManager.obj
 0002:00009924       ??_R3IServiceModule@@8     00423924     DBCorrespondManager.obj
 0002:00009934       ??_R2IServiceModule@@8     00423934     DBCorrespondManager.obj
 0002:00009940       ??_R1A@?0A@EA@IServiceModule@@8 00423940     DBCorrespondManager.obj
 0002:0000995c       ??_R4IDBCorrespondManager@@6B@ 0042395c     DBCorrespondManager.obj
 0002:00009970       ??_R3IDBCorrespondManager@@8 00423970     DBCorrespondManager.obj
 0002:00009980       ??_R2IDBCorrespondManager@@8 00423980     DBCorrespondManager.obj
 0002:00009990       ??_R1A@?0A@EA@IDBCorrespondManager@@8 00423990     DBCorrespondManager.obj
 0002:000099ac       ??_R4?$CList@PAUtagDBRequestHead@@ABQAU1@@@6B@ 004239ac     DBCorrespondManager.obj
 0002:000099c0       ??_R3?$CList@PAUtagDBRequestHead@@ABQAU1@@@8 004239c0     DBCorrespondManager.obj
 0002:000099d0       ??_R2?$CList@PAUtagDBRequestHead@@ABQAU1@@@8 004239d0     DBCorrespondManager.obj
 0002:000099dc       ??_R1A@?0A@EA@?$CList@PAUtagDBRequestHead@@ABQAU1@@@8 004239dc     DBCorrespondManager.obj
 0002:000099f8       ??_R4CDBCorrespondManager@@6B@ 004239f8     DBCorrespondManager.obj
 0002:00009a0c       ??_R3CDBCorrespondManager@@8 00423a0c     DBCorrespondManager.obj
 0002:00009a1c       ??_R2CDBCorrespondManager@@8 00423a1c     DBCorrespondManager.obj
 0002:00009a30       ??_R1A@?0A@EA@CDBCorrespondManager@@8 00423a30     DBCorrespondManager.obj
 0002:00009a4c       ??_R4?$CMap@KKPAUtagAIUserInfo@@PAU1@@@6B@ 00423a4c     AIManager.obj
 0002:00009a60       ??_R3?$CMap@KKPAUtagAIUserInfo@@PAU1@@@8 00423a60     AIManager.obj
 0002:00009a70       ??_R2?$CMap@KKPAUtagAIUserInfo@@PAU1@@@8 00423a70     AIManager.obj
 0002:00009a7c       ??_R1A@?0A@EA@?$CMap@KKPAUtagAIUserInfo@@PAU1@@@8 00423a7c     AIManager.obj
 0002:00009a98       ??_R4?$CMap@GGPAV?$CMap@KKPAUtagAIUserInfo@@PAU1@@@PAV1@@@6B@ 00423a98     AIManager.obj
 0002:00009aac       ??_R3?$CMap@GGPAV?$CMap@KKPAUtagAIUserInfo@@PAU1@@@PAV1@@@8 00423aac     AIManager.obj
 0002:00009abc       ??_R2?$CMap@GGPAV?$CMap@KKPAUtagAIUserInfo@@PAU1@@@PAV1@@@8 00423abc     AIManager.obj
 0002:00009ac8       ??_R1A@?0A@EA@?$CMap@GGPAV?$CMap@KKPAUtagAIUserInfo@@PAU1@@@PAV1@@@8 00423ac8     AIManager.obj
 0002:00009ae4       ??_R4?$CMap@KKPAV?$CMap@GGPAV?$CMap@KKPAUtagAIUserInfo@@PAU1@@@PAV1@@@PAV1@@@6B@ 00423ae4     AIManager.obj
 0002:00009af8       ??_R3?$CMap@KKPAV?$CMap@GGPAV?$CMap@KKPAUtagAIUserInfo@@PAU1@@@PAV1@@@PAV1@@@8 00423af8     AIManager.obj
 0002:00009b08       ??_R2?$CMap@KKPAV?$CMap@GGPAV?$CMap@KKPAUtagAIUserInfo@@PAU1@@@PAV1@@@PAV1@@@8 00423b08     AIManager.obj
 0002:00009b14       ??_R1A@?0A@EA@?$CMap@KKPAV?$CMap@GGPAV?$CMap@KKPAUtagAIUserInfo@@PAU1@@@PAV1@@@PAV1@@@8 00423b14     AIManager.obj
 0002:00009b30       ??_R4?$CMap@GGPAUtagGroupAIParameter@@PAU1@@@6B@ 00423b30     AIManager.obj
 0002:00009b44       ??_R3?$CMap@GGPAUtagGroupAIParameter@@PAU1@@@8 00423b44     AIManager.obj
 0002:00009b54       ??_R2?$CMap@GGPAUtagGroupAIParameter@@PAU1@@@8 00423b54     AIManager.obj
 0002:00009b60       ??_R1A@?0A@EA@?$CMap@GGPAUtagGroupAIParameter@@PAU1@@@8 00423b60     AIManager.obj
 0002:00009b7c       ??_R4?$CMap@KKPAV?$CMap@GGPAUtagGroupAIParameter@@PAU1@@@PAV1@@@6B@ 00423b7c     AIManager.obj
 0002:00009b90       ??_R3?$CMap@KKPAV?$CMap@GGPAUtagGroupAIParameter@@PAU1@@@PAV1@@@8 00423b90     AIManager.obj
 0002:00009ba0       ??_R2?$CMap@KKPAV?$CMap@GGPAUtagGroupAIParameter@@PAU1@@@PAV1@@@8 00423ba0     AIManager.obj
 0002:00009bac       ??_R1A@?0A@EA@?$CMap@KKPAV?$CMap@GGPAUtagGroupAIParameter@@PAU1@@@PAV1@@@8 00423bac     AIManager.obj
 0002:00009bc8       ??_R4?$CMap@KKHH@@6B@      00423bc8     AIManager.obj
 0002:00009bdc       ??_R3?$CMap@KKHH@@8        00423bdc     AIManager.obj
 0002:00009bec       ??_R2?$CMap@KKHH@@8        00423bec     AIManager.obj
 0002:00009bf8       ??_R1A@?0A@EA@?$CMap@KKHH@@8 00423bf8     AIManager.obj
 0002:00009c14       ??_R4?$CWHArray@UtagGroupConfigInfo@@ABU1@@@6B@ 00423c14     AIManager.obj
 0002:00009c28       ??_R3?$CWHArray@UtagGroupConfigInfo@@ABU1@@@8 00423c28     AIManager.obj
 0002:00009c38       ??_R2?$CWHArray@UtagGroupConfigInfo@@ABU1@@@8 00423c38     AIManager.obj
 0002:00009c40       ??_R1A@?0A@EA@?$CWHArray@UtagGroupConfigInfo@@ABU1@@@8 00423c40     AIManager.obj
 0002:00009c5c       ??_R4?$CWHArray@UtagDeleteGroupUser@@ABU1@@@6B@ 00423c5c     AIManager.obj
 0002:00009c70       ??_R3?$CWHArray@UtagDeleteGroupUser@@ABU1@@@8 00423c70     AIManager.obj
 0002:00009c80       ??_R2?$CWHArray@UtagDeleteGroupUser@@ABU1@@@8 00423c80     AIManager.obj
 0002:00009c88       ??_R1A@?0A@EA@?$CWHArray@UtagDeleteGroupUser@@ABU1@@@8 00423c88     AIManager.obj
 0002:00009ca4       ??_R4?$CMap@GGPAUtagServerItem@@PAU1@@@6B@ 00423ca4     AIManager.obj
 0002:00009cb8       ??_R3?$CMap@GGPAUtagServerItem@@PAU1@@@8 00423cb8     AIManager.obj
 0002:00009cc8       ??_R2?$CMap@GGPAUtagServerItem@@PAU1@@@8 00423cc8     AIManager.obj
 0002:00009cd4       ??_R1A@?0A@EA@?$CMap@GGPAUtagServerItem@@PAU1@@@8 00423cd4     AIManager.obj
 0002:00009cf0       ??_R4CAIManager@@6B@       00423cf0     AIManager.obj
 0002:00009d04       ??_R3CAIManager@@8         00423d04     AIManager.obj
 0002:00009d14       ??_R2CAIManager@@8         00423d14     AIManager.obj
 0002:00009d1c       ??_R1A@?0A@EA@CAIManager@@8 00423d1c     AIManager.obj
 0002:00009d38       ??_R4?$CWHArray@UtagAreadyCheckKind@?1??CheckGroupRoomIsNull@CAIManager@@QAE_NXZ@ABU1?1??23@QAE_NXZ@@@6B@ 00423d38     AIManager.obj
 0002:00009d4c       ??_R3?$CWHArray@UtagAreadyCheckKind@?1??CheckGroupRoomIsNull@CAIManager@@QAE_NXZ@ABU1?1??23@QAE_NXZ@@@8 00423d4c     AIManager.obj
 0002:00009d5c       ??_R2?$CWHArray@UtagAreadyCheckKind@?1??CheckGroupRoomIsNull@CAIManager@@QAE_NXZ@ABU1?1??23@QAE_NXZ@@@8 00423d5c     AIManager.obj
 0002:00009d64       ??_R1A@?0A@EA@?$CWHArray@UtagAreadyCheckKind@?1??CheckGroupRoomIsNull@CAIManager@@QAE_NXZ@ABU1?1??23@QAE_NXZ@@@8 00423d64     AIManager.obj
 0002:00009d80       ??_R1A@?0A@EA@CCmdTarget@@8 00423d80     AIDistribute.obj
 0002:00009d9c       ??_R3CCmdTarget@@8         00423d9c     AIDistribute.obj
 0002:00009dac       ??_R2CCmdTarget@@8         00423dac     AIDistribute.obj
 0002:00009db8       ??_R4CAIDistributeApp@@6B@ 00423db8     AIDistribute.obj
 0002:00009dcc       ??_R3CAIDistributeApp@@8   00423dcc     AIDistribute.obj
 0002:00009ddc       ??_R2CAIDistributeApp@@8   00423ddc     AIDistribute.obj
 0002:00009df4       ??_R1A@?0A@EA@CAIDistributeApp@@8 00423df4     AIDistribute.obj
 0002:00009e10       ??_R1A@?0A@EA@CWinApp@@8   00423e10     AIDistribute.obj
 0002:00009e2c       ??_R3CWinApp@@8            00423e2c     AIDistribute.obj
 0002:00009e3c       ??_R2CWinApp@@8            00423e3c     AIDistribute.obj
 0002:00009e50       ??_R1A@?0A@EA@CWinThread@@8 00423e50     AIDistribute.obj
 0002:00009e6c       ??_R3CWinThread@@8         00423e6c     AIDistribute.obj
 0002:00009e7c       ??_R2CWinThread@@8         00423e7c     AIDistribute.obj
 0002:00009e8c       ??_R1A@?0A@EA@CWnd@@8      00423e8c     AIDistributeDlg.obj
 0002:00009ea8       ??_R3CWnd@@8               00423ea8     AIDistributeDlg.obj
 0002:00009eb8       ??_R2CWnd@@8               00423eb8     AIDistributeDlg.obj
 0002:00009ec8       ??_R1A@?0A@EA@CDialog@@8   00423ec8     AIDistributeDlg.obj
 0002:00009ee4       ??_R3CDialog@@8            00423ee4     AIDistributeDlg.obj
 0002:00009ef4       ??_R2CDialog@@8            00423ef4     AIDistributeDlg.obj
 0002:00009f08       ??_R4IServiceUnitsSink@@6B@ 00423f08     AIDistributeDlg.obj
 0002:00009f1c       ??_R3IServiceUnitsSink@@8  00423f1c     AIDistributeDlg.obj
 0002:00009f2c       ??_R2IServiceUnitsSink@@8  00423f2c     AIDistributeDlg.obj
 0002:00009f34       ??_R1A@?0A@EA@IServiceUnitsSink@@8 00423f34     AIDistributeDlg.obj
 0002:00009f50       ??_R4CAIDistributeDlg@@6BCDialog@@@ 00423f50     AIDistributeDlg.obj
 0002:00009f64       ??_R3CAIDistributeDlg@@8   00423f64     AIDistributeDlg.obj
 0002:00009f74       ??_R2CAIDistributeDlg@@8   00423f74     AIDistributeDlg.obj
 0002:00009f90       ??_R1A@?0A@EA@CAIDistributeDlg@@8 00423f90     AIDistributeDlg.obj
 0002:00009fac       ??_R1KI@?0A@EA@IServiceUnitsSink@@8 00423fac     AIDistributeDlg.obj
 0002:00009fc8       ??_R4CAIDistributeDlg@@6BIServiceUnitsSink@@@ 00423fc8     AIDistributeDlg.obj
 0002:00009fdc       ??_R4CInitParameter@@6B@   00423fdc     InitParameter.obj
 0002:00009ff0       ??_R3CInitParameter@@8     00423ff0     InitParameter.obj
 0002:0000a000       ??_R2CInitParameter@@8     00424000     InitParameter.obj
 0002:0000a008       ??_R1A@?0A@EA@CInitParameter@@8 00424008     InitParameter.obj
 0002:0000a024       ??_R4?$CWHArray@PAVCGameTypeItem@NServerListManager@@ABQAV12@@@6B@ 00424024     ServerListManager.obj
 0002:0000a038       ??_R3?$CWHArray@PAVCGameTypeItem@NServerListManager@@ABQAV12@@@8 00424038     ServerListManager.obj
 0002:0000a048       ??_R2?$CWHArray@PAVCGameTypeItem@NServerListManager@@ABQAV12@@@8 00424048     ServerListManager.obj
 0002:0000a050       ??_R1A@?0A@EA@?$CWHArray@PAVCGameTypeItem@NServerListManager@@ABQAV12@@@8 00424050     ServerListManager.obj
 0002:0000a06c       ??_R4?$CWHArray@PAVCGameKindItem@NServerListManager@@ABQAV12@@@6B@ 0042406c     ServerListManager.obj
 0002:0000a080       ??_R3?$CWHArray@PAVCGameKindItem@NServerListManager@@ABQAV12@@@8 00424080     ServerListManager.obj
 0002:0000a090       ??_R2?$CWHArray@PAVCGameKindItem@NServerListManager@@ABQAV12@@@8 00424090     ServerListManager.obj
 0002:0000a098       ??_R1A@?0A@EA@?$CWHArray@PAVCGameKindItem@NServerListManager@@ABQAV12@@@8 00424098     ServerListManager.obj
 0002:0000a0b4       ??_R4?$CWHArray@PAVCGameNodeItem@NServerListManager@@ABQAV12@@@6B@ 004240b4     ServerListManager.obj
 0002:0000a0c8       ??_R3?$CWHArray@PAVCGameNodeItem@NServerListManager@@ABQAV12@@@8 004240c8     ServerListManager.obj
 0002:0000a0d8       ??_R2?$CWHArray@PAVCGameNodeItem@NServerListManager@@ABQAV12@@@8 004240d8     ServerListManager.obj
 0002:0000a0e0       ??_R1A@?0A@EA@?$CWHArray@PAVCGameNodeItem@NServerListManager@@ABQAV12@@@8 004240e0     ServerListManager.obj
 0002:0000a0fc       ??_R4?$CWHArray@PAVCGamePageItem@NServerListManager@@ABQAV12@@@6B@ 004240fc     ServerListManager.obj
 0002:0000a110       ??_R3?$CWHArray@PAVCGamePageItem@NServerListManager@@ABQAV12@@@8 00424110     ServerListManager.obj
 0002:0000a120       ??_R2?$CWHArray@PAVCGamePageItem@NServerListManager@@ABQAV12@@@8 00424120     ServerListManager.obj
 0002:0000a128       ??_R1A@?0A@EA@?$CWHArray@PAVCGamePageItem@NServerListManager@@ABQAV12@@@8 00424128     ServerListManager.obj
 0002:0000a144       ??_R4?$CWHArray@PAVCGameServerItem@NServerListManager@@ABQAV12@@@6B@ 00424144     ServerListManager.obj
 0002:0000a158       ??_R3?$CWHArray@PAVCGameServerItem@NServerListManager@@ABQAV12@@@8 00424158     ServerListManager.obj
 0002:0000a168       ??_R2?$CWHArray@PAVCGameServerItem@NServerListManager@@ABQAV12@@@8 00424168     ServerListManager.obj
 0002:0000a170       ??_R1A@?0A@EA@?$CWHArray@PAVCGameServerItem@NServerListManager@@ABQAV12@@@8 00424170     ServerListManager.obj
 0002:0000a18c       ??_R4?$CMap@GGPAVCGameTypeItem@NServerListManager@@AAPAV12@@@6B@ 0042418c     ServerListManager.obj
 0002:0000a1a0       ??_R3?$CMap@GGPAVCGameTypeItem@NServerListManager@@AAPAV12@@@8 004241a0     ServerListManager.obj
 0002:0000a1b0       ??_R2?$CMap@GGPAVCGameTypeItem@NServerListManager@@AAPAV12@@@8 004241b0     ServerListManager.obj
 0002:0000a1bc       ??_R1A@?0A@EA@?$CMap@GGPAVCGameTypeItem@NServerListManager@@AAPAV12@@@8 004241bc     ServerListManager.obj
 0002:0000a1d8       ??_R4?$CMap@GGPAVCGameKindItem@NServerListManager@@AAPAV12@@@6B@ 004241d8     ServerListManager.obj
 0002:0000a1ec       ??_R3?$CMap@GGPAVCGameKindItem@NServerListManager@@AAPAV12@@@8 004241ec     ServerListManager.obj
 0002:0000a1fc       ??_R2?$CMap@GGPAVCGameKindItem@NServerListManager@@AAPAV12@@@8 004241fc     ServerListManager.obj
 0002:0000a208       ??_R1A@?0A@EA@?$CMap@GGPAVCGameKindItem@NServerListManager@@AAPAV12@@@8 00424208     ServerListManager.obj
 0002:0000a224       ??_R4?$CMap@GGPAVCGameNodeItem@NServerListManager@@AAPAV12@@@6B@ 00424224     ServerListManager.obj
 0002:0000a238       ??_R3?$CMap@GGPAVCGameNodeItem@NServerListManager@@AAPAV12@@@8 00424238     ServerListManager.obj
 0002:0000a248       ??_R2?$CMap@GGPAVCGameNodeItem@NServerListManager@@AAPAV12@@@8 00424248     ServerListManager.obj
 0002:0000a254       ??_R1A@?0A@EA@?$CMap@GGPAVCGameNodeItem@NServerListManager@@AAPAV12@@@8 00424254     ServerListManager.obj
 0002:0000a270       ??_R4?$CMap@GGPAVCGamePageItem@NServerListManager@@AAPAV12@@@6B@ 00424270     ServerListManager.obj
 0002:0000a284       ??_R3?$CMap@GGPAVCGamePageItem@NServerListManager@@AAPAV12@@@8 00424284     ServerListManager.obj
 0002:0000a294       ??_R2?$CMap@GGPAVCGamePageItem@NServerListManager@@AAPAV12@@@8 00424294     ServerListManager.obj
 0002:0000a2a0       ??_R1A@?0A@EA@?$CMap@GGPAVCGamePageItem@NServerListManager@@AAPAV12@@@8 004242a0     ServerListManager.obj
 0002:0000a2bc       ??_R4?$CMap@GGPAVCGameServerItem@NServerListManager@@AAPAV12@@@6B@ 004242bc     ServerListManager.obj
 0002:0000a2d0       ??_R3?$CMap@GGPAVCGameServerItem@NServerListManager@@AAPAV12@@@8 004242d0     ServerListManager.obj
 0002:0000a2e0       ??_R2?$CMap@GGPAVCGameServerItem@NServerListManager@@AAPAV12@@@8 004242e0     ServerListManager.obj
 0002:0000a2ec       ??_R1A@?0A@EA@?$CMap@GGPAVCGameServerItem@NServerListManager@@AAPAV12@@@8 004242ec     ServerListManager.obj
 0002:0000a308       ??_R4CServerListManager@NServerListManager@@6B@ 00424308     ServerListManager.obj
 0002:0000a31c       ??_R3CServerListManager@NServerListManager@@8 0042431c     ServerListManager.obj
 0002:0000a32c       ??_R2CServerListManager@NServerListManager@@8 0042432c     ServerListManager.obj
 0002:0000a334       ??_R1A@?0A@EA@CServerListManager@NServerListManager@@8 00424334     ServerListManager.obj
 0002:0000a350       ??_R4CTimerEngineHelper@@6B@ 00424350     ServiceUnits.obj
 0002:0000a364       ??_R3CTimerEngineHelper@@8 00424364     ServiceUnits.obj
 0002:0000a374       ??_R2CTimerEngineHelper@@8 00424374     ServiceUnits.obj
 0002:0000a380       ??_R1A@?0A@EA@CTimerEngineHelper@@8 00424380     ServiceUnits.obj
 0002:0000a39c       ??_R1A@?0A@EA@?$CTempldateHelper@UITimerEngine@@@@8 0042439c     ServiceUnits.obj
 0002:0000a3b8       ??_R3?$CTempldateHelper@UITimerEngine@@@@8 004243b8     ServiceUnits.obj
 0002:0000a3c8       ??_R2?$CTempldateHelper@UITimerEngine@@@@8 004243c8     ServiceUnits.obj
 0002:0000a3d0       ??_R4?$CTempldateHelper@UITimerEngine@@@@6B@ 004243d0     ServiceUnits.obj
 0002:0000a3e4       ??_R4CDataBaseEngineHelper@@6B@ 004243e4     ServiceUnits.obj
 0002:0000a3f8       ??_R3CDataBaseEngineHelper@@8 004243f8     ServiceUnits.obj
 0002:0000a408       ??_R2CDataBaseEngineHelper@@8 00424408     ServiceUnits.obj
 0002:0000a414       ??_R1A@?0A@EA@CDataBaseEngineHelper@@8 00424414     ServiceUnits.obj
 0002:0000a430       ??_R1A@?0A@EA@?$CTempldateHelper@UIDataBaseEngine@@@@8 00424430     ServiceUnits.obj
 0002:0000a44c       ??_R3?$CTempldateHelper@UIDataBaseEngine@@@@8 0042444c     ServiceUnits.obj
 0002:0000a45c       ??_R2?$CTempldateHelper@UIDataBaseEngine@@@@8 0042445c     ServiceUnits.obj
 0002:0000a464       ??_R4?$CTempldateHelper@UIDataBaseEngine@@@@6B@ 00424464     ServiceUnits.obj
 0002:0000a478       ??_R4CAttemperEngineHelper@@6B@ 00424478     ServiceUnits.obj
 0002:0000a48c       ??_R3CAttemperEngineHelper@@8 0042448c     ServiceUnits.obj
 0002:0000a49c       ??_R2CAttemperEngineHelper@@8 0042449c     ServiceUnits.obj
 0002:0000a4a8       ??_R1A@?0A@EA@CAttemperEngineHelper@@8 004244a8     ServiceUnits.obj
 0002:0000a4c4       ??_R1A@?0A@EA@?$CTempldateHelper@UIAttemperEngine@@@@8 004244c4     ServiceUnits.obj
 0002:0000a4e0       ??_R3?$CTempldateHelper@UIAttemperEngine@@@@8 004244e0     ServiceUnits.obj
 0002:0000a4f0       ??_R2?$CTempldateHelper@UIAttemperEngine@@@@8 004244f0     ServiceUnits.obj
 0002:0000a4f8       ??_R4?$CTempldateHelper@UIAttemperEngine@@@@6B@ 004244f8     ServiceUnits.obj
 0002:0000a50c       ??_R4CTCPSocketServiceHelper@@6B@ 0042450c     ServiceUnits.obj
 0002:0000a520       ??_R3CTCPSocketServiceHelper@@8 00424520     ServiceUnits.obj
 0002:0000a530       ??_R2CTCPSocketServiceHelper@@8 00424530     ServiceUnits.obj
 0002:0000a53c       ??_R1A@?0A@EA@CTCPSocketServiceHelper@@8 0042453c     ServiceUnits.obj
 0002:0000a558       ??_R1A@?0A@EA@?$CTempldateHelper@UITCPSocketService@@@@8 00424558     ServiceUnits.obj
 0002:0000a574       ??_R3?$CTempldateHelper@UITCPSocketService@@@@8 00424574     ServiceUnits.obj
 0002:0000a584       ??_R2?$CTempldateHelper@UITCPSocketService@@@@8 00424584     ServiceUnits.obj
 0002:0000a58c       ??_R4?$CTempldateHelper@UITCPSocketService@@@@6B@ 0042458c     ServiceUnits.obj
 0002:0000a5a0       ??_R4CTCPNetworkEngineHelper@@6B@ 004245a0     ServiceUnits.obj
 0002:0000a5b4       ??_R3CTCPNetworkEngineHelper@@8 004245b4     ServiceUnits.obj
 0002:0000a5c4       ??_R2CTCPNetworkEngineHelper@@8 004245c4     ServiceUnits.obj
 0002:0000a5d0       ??_R1A@?0A@EA@CTCPNetworkEngineHelper@@8 004245d0     ServiceUnits.obj
 0002:0000a5ec       ??_R1A@?0A@EA@?$CTempldateHelper@UITCPNetworkEngine@@@@8 004245ec     ServiceUnits.obj
 0002:0000a608       ??_R3?$CTempldateHelper@UITCPNetworkEngine@@@@8 00424608     ServiceUnits.obj
 0002:0000a618       ??_R2?$CTempldateHelper@UITCPNetworkEngine@@@@8 00424618     ServiceUnits.obj
 0002:0000a620       ??_R4?$CTempldateHelper@UITCPNetworkEngine@@@@6B@ 00424620     ServiceUnits.obj
 0002:0000a634       ??_R4CGameServiceManagerHelper@@6B@ 00424634     ServiceUnits.obj
 0002:0000a648       ??_R3CGameServiceManagerHelper@@8 00424648     ServiceUnits.obj
 0002:0000a658       ??_R2CGameServiceManagerHelper@@8 00424658     ServiceUnits.obj
 0002:0000a664       ??_R1A@?0A@EA@CGameServiceManagerHelper@@8 00424664     ServiceUnits.obj
 0002:0000a680       ??_R1A@?0A@EA@?$CTempldateHelper@UIGameServiceManager@@@@8 00424680     ServiceUnits.obj
 0002:0000a69c       ??_R3?$CTempldateHelper@UIGameServiceManager@@@@8 0042469c     ServiceUnits.obj
 0002:0000a6ac       ??_R2?$CTempldateHelper@UIGameServiceManager@@@@8 004246ac     ServiceUnits.obj
 0002:0000a6b4       ??_R4?$CTempldateHelper@UIGameServiceManager@@@@6B@ 004246b4     ServiceUnits.obj
 0002:0000a6c8       ??_R4CMatchServiceManagerHelper@@6B@ 004246c8     ServiceUnits.obj
 0002:0000a6dc       ??_R3CMatchServiceManagerHelper@@8 004246dc     ServiceUnits.obj
 0002:0000a6ec       ??_R2CMatchServiceManagerHelper@@8 004246ec     ServiceUnits.obj
 0002:0000a6f8       ??_R1A@?0A@EA@CMatchServiceManagerHelper@@8 004246f8     ServiceUnits.obj
 0002:0000a714       ??_R1A@?0A@EA@?$CTempldateHelper@UIMatchServiceManager@@@@8 00424714     ServiceUnits.obj
 0002:0000a730       ??_R3?$CTempldateHelper@UIMatchServiceManager@@@@8 00424730     ServiceUnits.obj
 0002:0000a740       ??_R2?$CTempldateHelper@UIMatchServiceManager@@@@8 00424740     ServiceUnits.obj
 0002:0000a748       ??_R4?$CTempldateHelper@UIMatchServiceManager@@@@6B@ 00424748     ServiceUnits.obj
 0002:0000a75c       ??_R4CPersonalRoomServiceManagerHelper@@6B@ 0042475c     ServiceUnits.obj
 0002:0000a770       ??_R3CPersonalRoomServiceManagerHelper@@8 00424770     ServiceUnits.obj
 0002:0000a780       ??_R2CPersonalRoomServiceManagerHelper@@8 00424780     ServiceUnits.obj
 0002:0000a78c       ??_R1A@?0A@EA@CPersonalRoomServiceManagerHelper@@8 0042478c     ServiceUnits.obj
 0002:0000a7a8       ??_R1A@?0A@EA@?$CTempldateHelper@UIPersonalRoomServiceManager@@@@8 004247a8     ServiceUnits.obj
 0002:0000a7c4       ??_R3?$CTempldateHelper@UIPersonalRoomServiceManager@@@@8 004247c4     ServiceUnits.obj
 0002:0000a7d4       ??_R2?$CTempldateHelper@UIPersonalRoomServiceManager@@@@8 004247d4     ServiceUnits.obj
 0002:0000a7dc       ??_R4?$CTempldateHelper@UIPersonalRoomServiceManager@@@@6B@ 004247dc     ServiceUnits.obj
 0002:0000a7f0       ??_R4CServiceUnits@@6B@    004247f0     ServiceUnits.obj
 0002:0000a804       ??_R3CServiceUnits@@8      00424804     ServiceUnits.obj
 0002:0000a814       ??_R2CServiceUnits@@8      00424814     ServiceUnits.obj
 0002:0000a828       ??_R1A@?0A@EA@CServiceUnits@@8 00424828     ServiceUnits.obj
 0002:0000a844       ??_R4type_info@@6B@        00424844     MSVCRT:std_type_info_static.obj
 0002:0000a858       ??_R3type_info@@8          00424858     MSVCRT:std_type_info_static.obj
 0002:0000a868       ??_R2type_info@@8          00424868     MSVCRT:std_type_info_static.obj
 0002:0000a870       ??_R1A@?0A@EA@type_info@@8 00424870     MSVCRT:std_type_info_static.obj
 0002:0000a88c       ??_R4exception@std@@6B@    0042488c     MSVCRT:throw_bad_alloc.obj
 0002:0000a8a0       ??_R3exception@std@@8      004248a0     MSVCRT:throw_bad_alloc.obj
 0002:0000a8b0       ??_R2exception@std@@8      004248b0     MSVCRT:throw_bad_alloc.obj
 0002:0000a8b8       ??_R1A@?0A@EA@exception@std@@8 004248b8     MSVCRT:throw_bad_alloc.obj
 0002:0000a8d4       ??_R4bad_alloc@std@@6B@    004248d4     MSVCRT:throw_bad_alloc.obj
 0002:0000a8e8       ??_R3bad_alloc@std@@8      004248e8     MSVCRT:throw_bad_alloc.obj
 0002:0000a8f8       ??_R2bad_alloc@std@@8      004248f8     MSVCRT:throw_bad_alloc.obj
 0002:0000a904       ??_R1A@?0A@EA@bad_alloc@std@@8 00424904     MSVCRT:throw_bad_alloc.obj
 0002:0000a920       ??_R4bad_array_new_length@std@@6B@ 00424920     MSVCRT:throw_bad_alloc.obj
 0002:0000a934       ??_R3bad_array_new_length@std@@8 00424934     MSVCRT:throw_bad_alloc.obj
 0002:0000a944       ??_R2bad_array_new_length@std@@8 00424944     MSVCRT:throw_bad_alloc.obj
 0002:0000a954       ??_R1A@?0A@EA@bad_array_new_length@std@@8 00424954     MSVCRT:throw_bad_alloc.obj
 0002:0000a970       ___safe_se_handler_table   00424970     <linker-defined>
 0002:0000ae48       ___rtc_iaa                 00424e48     MSVCRT:_initsect_.obj
 0002:0000ae4c       ___rtc_izz                 00424e4c     MSVCRT:_initsect_.obj
 0002:0000ae50       ___rtc_taa                 00424e50     MSVCRT:_initsect_.obj
 0002:0000ae54       ___rtc_tzz                 00424e54     MSVCRT:_initsect_.obj
 0002:0000befc       __TI2?AVbad_alloc@std@@    00425efc     MSVCRT:throw_bad_alloc.obj
 0002:0000bf0c       __CTA2?AVbad_alloc@std@@   00425f0c     MSVCRT:throw_bad_alloc.obj
 0002:0000bf18       __CT??_R0?AVbad_alloc@std@@@8??0bad_alloc@std@@QAE@ABV01@@Z12 00425f18     MSVCRT:throw_bad_alloc.obj
 0002:0000bf34       __CT??_R0?AVexception@std@@@8??0exception@std@@QAE@ABV01@@Z12 00425f34     MSVCRT:throw_bad_alloc.obj
 0002:0000bf50       __TI3?AVbad_array_new_length@std@@ 00425f50     MSVCRT:throw_bad_alloc.obj
 0002:0000bf60       __CTA3?AVbad_array_new_length@std@@ 00425f60     MSVCRT:throw_bad_alloc.obj
 0002:0000bf70       __CT??_R0?AVbad_array_new_length@std@@@8??0bad_array_new_length@std@@QAE@ABV01@@Z12 00425f70     MSVCRT:throw_bad_alloc.obj
 0002:0000bf8c       __IMPORT_DESCRIPTOR_mfc140u 00425f8c     mfc140u:mfc140u.dll
 0002:0000bfa0       __IMPORT_DESCRIPTOR_KERNEL32 00425fa0     kernel32:KERNEL32.dll
 0002:0000bfb4       __IMPORT_DESCRIPTOR_USER32 00425fb4     user32:USER32.dll
 0002:0000bfc8       __IMPORT_DESCRIPTOR_COMCTL32 00425fc8     comctl32:COMCTL32.dll
 0002:0000bfdc       __IMPORT_DESCRIPTOR_OLEAUT32 00425fdc     oleaut32:OLEAUT32.dll
 0002:0000bff0       __IMPORT_DESCRIPTOR_ServiceCore 00425ff0     ServiceCore:ServiceCore.dll
 0002:0000c004       __IMPORT_DESCRIPTOR_KernelEngine 00426004     KernelEngine:KernelEngine.dll
 0002:0000c018       __IMPORT_DESCRIPTOR_dbghelp 00426018     DbgHelp:dbghelp.dll
 0002:0000c02c       __IMPORT_DESCRIPTOR_VCRUNTIME140 0042602c     vcruntime:VCRUNTIME140.dll
 0002:0000c040       __IMPORT_DESCRIPTOR_api-ms-win-crt-string-l1-1-0 00426040     ucrt:api-ms-win-crt-string-l1-1-0.dll
 0002:0000c054       __IMPORT_DESCRIPTOR_api-ms-win-crt-stdio-l1-1-0 00426054     ucrt:api-ms-win-crt-stdio-l1-1-0.dll
 0002:0000c068       __IMPORT_DESCRIPTOR_api-ms-win-crt-filesystem-l1-1-0 00426068     ucrt:api-ms-win-crt-filesystem-l1-1-0.dll
 0002:0000c07c       __IMPORT_DESCRIPTOR_api-ms-win-crt-locale-l1-1-0 0042607c     ucrt:api-ms-win-crt-locale-l1-1-0.dll
 0002:0000c090       __IMPORT_DESCRIPTOR_api-ms-win-crt-runtime-l1-1-0 00426090     ucrt:api-ms-win-crt-runtime-l1-1-0.dll
 0002:0000c0a4       __IMPORT_DESCRIPTOR_api-ms-win-crt-utility-l1-1-0 004260a4     ucrt:api-ms-win-crt-utility-l1-1-0.dll
 0002:0000c0b8       __IMPORT_DESCRIPTOR_api-ms-win-crt-time-l1-1-0 004260b8     ucrt:api-ms-win-crt-time-l1-1-0.dll
 0002:0000c0cc       __IMPORT_DESCRIPTOR_api-ms-win-crt-convert-l1-1-0 004260cc     ucrt:api-ms-win-crt-convert-l1-1-0.dll
 0002:0000c0e0       __IMPORT_DESCRIPTOR_api-ms-win-crt-heap-l1-1-0 004260e0     ucrt:api-ms-win-crt-heap-l1-1-0.dll
 0002:0000c0f4       __IMPORT_DESCRIPTOR_api-ms-win-crt-math-l1-1-0 004260f4     ucrt:api-ms-win-crt-math-l1-1-0.dll
 0002:0000c108       __NULL_IMPORT_DESCRIPTOR   00426108     mfc140u:mfc140u.dll
 0003:00000040       ___security_cookie_complement 00428040     MSVCRT:gs_cookie.obj
 0003:00000044       ___security_cookie         00428044     MSVCRT:gs_cookie.obj
 0003:00000048       __fltused                  00428048     MSVCRT:fltused.obj
 0003:0000004c       ___scrt_native_dllmain_reason 0042804c     MSVCRT:utility.obj
 0003:00000050       __Init_global_epoch        00428050     MSVCRT:thread_safe_statics.obj
 0003:00000054       ___scrt_default_matherr    00428054     MSVCRT:matherr.obj
 0003:00000060       ___isa_enabled             00428060     MSVCRT:_cpu_disp_.obj
 0003:00000070       ___scrt_ucrt_dll_is_in_use 00428070     MSVCRT:ucrt_stubs.obj
 0003:00000078       ??_R0?AUIUnknownEx@@@8     00428078     AttemperEngineSink.obj
 0003:00000094       ??_R0?AUIAttemperEngineSink@@@8 00428094     AttemperEngineSink.obj
 0003:000000b8       ??_R0?AV?$CWHArray@KABK@@@8 004280b8     AttemperEngineSink.obj
 0003:000000d8       ??_R0?AVCAttemperEngineSink@@@8 004280d8     AttemperEngineSink.obj
 0003:000000fc       ??_R0?AVCDataBaseHelper@@@8 004280fc     DataBaseEngineSink.obj
 0003:0000011c       ??_R0?AV?$CTempldateHelper@UIDataBase@@@@@8 0042811c     DataBaseEngineSink.obj
 0003:0000014c       ??_R0PAUIDataBaseException@@@8 0042814c     DataBaseEngineSink.obj
 0003:00000170       ??_R0PA_W@8                00428170     DataBaseEngineSink.obj
 0003:00000180       ??_R0?AUIDataBaseEngineSink@@@8 00428180     DataBaseEngineSink.obj
 0003:000001a4       ??_R0?AUIGameDataBaseEngine@@@8 004281a4     DataBaseEngineSink.obj
 0003:000001c8       ??_R0?AVCDataBaseEngineSink@@@8 004281c8     DataBaseEngineSink.obj
 0003:000001ec       ??_R0?AVCObject@@@8        004281ec     DBCorrespondManager.obj
 0003:00000204       ??_R0?AVCCriticalSection@@@8 00428204     DBCorrespondManager.obj
 0003:00000224       ??_R0?AVCSyncObject@@@8    00428224     DBCorrespondManager.obj
 0003:00000240       ??_R0?AUIServiceModule@@@8 00428240     DBCorrespondManager.obj
 0003:00000260       ??_R0?AUIDBCorrespondManager@@@8 00428260     DBCorrespondManager.obj
 0003:00000284       ??_R0?AV?$CList@PAUtagDBRequestHead@@ABQAU1@@@@8 00428284     DBCorrespondManager.obj
 0003:000002b8       ??_R0?AVCDBCorrespondManager@@@8 004282b8     DBCorrespondManager.obj
 0003:000002dc       ??_R0?AV?$CMap@KKPAUtagAIUserInfo@@PAU1@@@@8 004282dc     AIManager.obj
 0003:00000310       ??_R0?AV?$CMap@GGPAV?$CMap@KKPAUtagAIUserInfo@@PAU1@@@PAV1@@@@8 00428310     AIManager.obj
 0003:00000358       ??_R0?AV?$CMap@KKPAV?$CMap@GGPAV?$CMap@KKPAUtagAIUserInfo@@PAU1@@@PAV1@@@PAV1@@@@8 00428358     AIManager.obj
 0003:000003b0       ??_R0?AV?$CMap@GGPAUtagGroupAIParameter@@PAU1@@@@8 004283b0     AIManager.obj
 0003:000003e8       ??_R0?AV?$CMap@KKPAV?$CMap@GGPAUtagGroupAIParameter@@PAU1@@@PAV1@@@@8 004283e8     AIManager.obj
 0003:00000430       ??_R0?AV?$CMap@KKHH@@@8    00428430     AIManager.obj
 0003:0000044c       ??_R0?AV?$CWHArray@UtagGroupConfigInfo@@ABU1@@@@8 0042844c     AIManager.obj
 0003:00000480       ??_R0?AV?$CWHArray@UtagDeleteGroupUser@@ABU1@@@@8 00428480     AIManager.obj
 0003:000004b4       ??_R0?AV?$CMap@GGPAUtagServerItem@@PAU1@@@@8 004284b4     AIManager.obj
 0003:000004e4       ??_R0?AVCAIManager@@@8     004284e4     AIManager.obj
 0003:00000500       ??_R0?AV?$CWHArray@UtagAreadyCheckKind@?1??CheckGroupRoomIsNull@CAIManager@@QAE_NXZ@ABU1?1??23@QAE_NXZ@@@@8 00428500     AIManager.obj
 0003:00000570       ??_R0?AVCCmdTarget@@@8     00428570     AIDistribute.obj
 0003:0000058c       ??_R0?AVCAIDistributeApp@@@8 0042858c     AIDistribute.obj
 0003:000005ac       ??_R0?AVCWinApp@@@8        004285ac     AIDistribute.obj
 0003:000005c4       ??_R0?AVCWinThread@@@8     004285c4     AIDistribute.obj
 0003:000005e0       ??_R0?AVCWnd@@@8           004285e0     AIDistributeDlg.obj
 0003:000005f4       ??_R0?AVCDialog@@@8        004285f4     AIDistributeDlg.obj
 0003:0000060c       ??_R0?AUIServiceUnitsSink@@@8 0042860c     AIDistributeDlg.obj
 0003:0000062c       ??_R0?AVCAIDistributeDlg@@@8 0042862c     AIDistributeDlg.obj
 0003:0000064c       ??_R0?AVCInitParameter@@@8 0042864c     InitParameter.obj
 0003:00000670       ??_R0?AV?$CWHArray@PAVCGameTypeItem@NServerListManager@@ABQAV12@@@@8 00428670     ServerListManager.obj
 0003:000006b8       ??_R0?AV?$CWHArray@PAVCGameKindItem@NServerListManager@@ABQAV12@@@@8 004286b8     ServerListManager.obj
 0003:00000700       ??_R0?AV?$CWHArray@PAVCGameNodeItem@NServerListManager@@ABQAV12@@@@8 00428700     ServerListManager.obj
 0003:00000748       ??_R0?AV?$CWHArray@PAVCGamePageItem@NServerListManager@@ABQAV12@@@@8 00428748     ServerListManager.obj
 0003:00000790       ??_R0?AV?$CWHArray@PAVCGameServerItem@NServerListManager@@ABQAV12@@@@8 00428790     ServerListManager.obj
 0003:000007e0       ??_R0?AV?$CMap@GGPAVCGameTypeItem@NServerListManager@@AAPAV12@@@@8 004287e0     ServerListManager.obj
 0003:00000828       ??_R0?AV?$CMap@GGPAVCGameKindItem@NServerListManager@@AAPAV12@@@@8 00428828     ServerListManager.obj
 0003:00000870       ??_R0?AV?$CMap@GGPAVCGameNodeItem@NServerListManager@@AAPAV12@@@@8 00428870     ServerListManager.obj
 0003:000008b8       ??_R0?AV?$CMap@GGPAVCGamePageItem@NServerListManager@@AAPAV12@@@@8 004288b8     ServerListManager.obj
 0003:00000900       ??_R0?AV?$CMap@GGPAVCGameServerItem@NServerListManager@@AAPAV12@@@@8 00428900     ServerListManager.obj
 0003:00000948       ??_R0?AVCServerListManager@NServerListManager@@@8 00428948     ServerListManager.obj
 0003:0000097c       ??_R0?AVCTimerEngineHelper@@@8 0042897c     ServiceUnits.obj
 0003:000009a0       ??_R0?AV?$CTempldateHelper@UITimerEngine@@@@@8 004289a0     ServiceUnits.obj
 0003:000009d4       ??_R0?AVCDataBaseEngineHelper@@@8 004289d4     ServiceUnits.obj
 0003:000009f8       ??_R0?AV?$CTempldateHelper@UIDataBaseEngine@@@@@8 004289f8     ServiceUnits.obj
 0003:00000a2c       ??_R0?AVCAttemperEngineHelper@@@8 00428a2c     ServiceUnits.obj
 0003:00000a50       ??_R0?AV?$CTempldateHelper@UIAttemperEngine@@@@@8 00428a50     ServiceUnits.obj
 0003:00000a84       ??_R0?AVCTCPSocketServiceHelper@@@8 00428a84     ServiceUnits.obj
 0003:00000aac       ??_R0?AV?$CTempldateHelper@UITCPSocketService@@@@@8 00428aac     ServiceUnits.obj
 0003:00000ae4       ??_R0?AVCTCPNetworkEngineHelper@@@8 00428ae4     ServiceUnits.obj
 0003:00000b0c       ??_R0?AV?$CTempldateHelper@UITCPNetworkEngine@@@@@8 00428b0c     ServiceUnits.obj
 0003:00000b44       ??_R0?AVCGameServiceManagerHelper@@@8 00428b44     ServiceUnits.obj
 0003:00000b6c       ??_R0?AV?$CTempldateHelper@UIGameServiceManager@@@@@8 00428b6c     ServiceUnits.obj
 0003:00000ba4       ??_R0?AVCMatchServiceManagerHelper@@@8 00428ba4     ServiceUnits.obj
 0003:00000bd0       ??_R0?AV?$CTempldateHelper@UIMatchServiceManager@@@@@8 00428bd0     ServiceUnits.obj
 0003:00000c0c       ??_R0?AVCPersonalRoomServiceManagerHelper@@@8 00428c0c     ServiceUnits.obj
 0003:00000c40       ??_R0?AV?$CTempldateHelper@UIPersonalRoomServiceManager@@@@@8 00428c40     ServiceUnits.obj
 0003:00000c80       ??_R0?AVCServiceUnits@@@8  00428c80     ServiceUnits.obj
 0003:00000c9c       ??_R0?AVtype_info@@@8      00428c9c     MSVCRT:std_type_info_static.obj
 0003:00000cb4       ??_R0?AVbad_alloc@std@@@8  00428cb4     MSVCRT:throw_bad_alloc.obj
 0003:00000cd0       ??_R0?AVexception@std@@@8  00428cd0     MSVCRT:throw_bad_alloc.obj
 0003:00000cec       ??_R0?AVbad_array_new_length@std@@@8 00428cec     MSVCRT:throw_bad_alloc.obj
 0003:0000151a       ?m_cbLogStatus@WHLogControl@@2EA 0042951a     Log.obj
 0003:00001d28       ?_OptionsStorage@?1??__local_stdio_printf_options@@9@4_KA 00429d28     Log.obj
 0003:00002538       ?theApp@@3VCAIDistributeApp@@A 0042a538     AIDistribute.obj
 0003:00002604       ?g_pServiceUnits@CServiceUnits@@2PAV1@A 0042a604     ServiceUnits.obj
 0003:00002608       ___@@_PchSym_@00@UhkzxvUtrgsfyUdswonUdswonUKlsKowKooKlsKooKqkKltKprKpyKluKqmKqsUKlvKorKpmKlqKqsKovKlsKqoKplKluKomKquUKluKpvKpsKlrKryKqvKlsKqoKqkKltKqnKopKluKqqKprKlvKopKopUivovzhvPfmrxlwvUhgwzucOlyq@33D2F747ADB6FDFE 0042a608     Stdafx.obj
 0003:0000361a       ?m_bInitFailed@CAtlBaseModule@ATL@@2_NA 0042b61a     Stdafx.obj
 0003:0000361c       ___scrt_current_native_startup_state 0042b61c     MSVCRT:utility.obj
 0003:00003620       ___scrt_native_startup_lock 0042b620     MSVCRT:utility.obj
 0003:00003668       __tls_index                0042b668     MSVCRT:tlssup.obj
 0003:00003670       ?__type_info_root_node@@3U__type_info_node@@A 0042b670     MSVCRT:tncleanup.obj
 0003:00003678       ?_OptionsStorage@?1??__local_stdio_scanf_options@@9@4_KA 0042b678     MSVCRT:default_local_stdio_options.obj
 0003:00003680       ___scrt_debugger_hook_flag 0042b680     MSVCRT:utility_desktop.obj
 0003:000039a4       ___isa_available           0042b9a4     MSVCRT:_cpu_disp_.obj
 0003:000039a8       ___favor                   0042b9a8     MSVCRT:_cpu_disp_.obj
 0003:000039ac       __afxForceEXCLUDE          0042b9ac     mfcs140u:nolib.obj
 0003:000039b0       __afxForceSTDAFX           0042b9b0     mfcs140u:stdafx.obj
 0003:000039b4       ?_afxInitAppState@@3DA     0042b9b4     mfcs140u:appmodul.obj
 0003:000039b8       ?_AtlBaseModule@ATL@@3VCAtlBaseModule@1@A 0042b9b8     atls:atlbase.obj
 0003:000039f0       ___@@_PchSym_@00@UyrmzirvhUrmgvinvwrzgvUexgllohUzgohOmzgrevkilqPBACIAJCBDBUlyqiUcIGUhgwzucOlyq@400B0995F36844BC 0042b9f0     atls:stdafx.obj
 0003:000039f4       ___dyn_tls_dtor_callback   0042b9f4     <common>
 0003:000039f8       ___dyn_tls_init_callback   0042b9f8     <common>
 0005:00000000       __tls_start                0042d000     MSVCRT:tlssup.obj
 0005:00000004       __Init_thread_epoch        0042d004     MSVCRT:thread_safe_statics.obj
 0005:00000008       __tls_end                  0042d008     MSVCRT:tlssup.obj

 entry point at        0001:00016c39

 Static symbols

 0000:fffcd000       .debug$S                   00400000     ucrt:api-ms-win-crt-stdio-l1-1-0.dll
 0000:fffcd000       .debug$S                   00400000     ucrt:api-ms-win-crt-convert-l1-1-0.dll
 0000:fffcd000       .debug$S                   00400000     ucrt:api-ms-win-crt-stdio-l1-1-0.dll
 0000:fffcd000       .debug$S                   00400000     ucrt:api-ms-win-crt-filesystem-l1-1-0.dll
 0000:fffcd000       .debug$S                   00400000     ucrt:api-ms-win-crt-filesystem-l1-1-0.dll
 0000:fffcd000       .debug$S                   00400000     ucrt:api-ms-win-crt-stdio-l1-1-0.dll
 0000:fffcd000       .debug$S                   00400000     ucrt:api-ms-win-crt-stdio-l1-1-0.dll
 0000:fffcd000       .debug$S                   00400000     ucrt:api-ms-win-crt-stdio-l1-1-0.dll
 0000:fffcd000       .debug$S                   00400000     ucrt:api-ms-win-crt-stdio-l1-1-0.dll
 0000:fffcd000       .debug$S                   00400000     ucrt:api-ms-win-crt-stdio-l1-1-0.dll
 0000:fffcd000       .debug$S                   00400000     ucrt:api-ms-win-crt-stdio-l1-1-0.dll
 0000:fffcd000       .debug$S                   00400000     ucrt:api-ms-win-crt-stdio-l1-1-0.dll
 0000:fffcd000       .debug$S                   00400000     ucrt:api-ms-win-crt-stdio-l1-1-0.dll
 0000:fffcd000       .debug$S                   00400000     ucrt:api-ms-win-crt-string-l1-1-0.dll
 0000:fffcd000       .debug$S                   00400000     ucrt:api-ms-win-crt-string-l1-1-0.dll
 0000:fffcd000       .debug$S                   00400000     ucrt:api-ms-win-crt-time-l1-1-0.dll
 0000:fffcd000       .debug$S                   00400000     ucrt:api-ms-win-crt-time-l1-1-0.dll
 0000:fffcd000       .debug$S                   00400000     ucrt:api-ms-win-crt-utility-l1-1-0.dll
 0000:fffcd000       .debug$S                   00400000     ucrt:api-ms-win-crt-utility-l1-1-0.dll
 0000:fffcd000       .debug$S                   00400000     vcruntime:VCRUNTIME140.dll
 0000:fffcd000       .debug$S                   00400000     vcruntime:VCRUNTIME140.dll
 0000:fffcd000       .debug$S                   00400000     vcruntime:VCRUNTIME140.dll
 0000:fffcd000       .debug$S                   00400000     vcruntime:VCRUNTIME140.dll
 0000:fffcd000       .debug$S                   00400000     vcruntime:VCRUNTIME140.dll
 0000:fffcd000       .debug$S                   00400000     vcruntime:VCRUNTIME140.dll
 0000:fffcd000       .debug$S                   00400000     vcruntime:VCRUNTIME140.dll
 0000:fffcd000       .debug$S                   00400000     vcruntime:VCRUNTIME140.dll
 0000:fffcd000       .debug$S                   00400000     vcruntime:VCRUNTIME140.dll
 0000:fffcd000       .debug$S                   00400000     vcruntime:VCRUNTIME140.dll
 0000:fffcd000       .debug$S                   00400000     vcruntime:VCRUNTIME140.dll
 0000:fffcd000       .debug$S                   00400000     vcruntime:VCRUNTIME140.dll
 0000:fffcd000       .debug$S                   00400000     vcruntime:VCRUNTIME140.dll
 0000:fffcd000       .debug$S                   00400000     DbgHelp:dbghelp.dll
 0000:fffcd000       .debug$S                   00400000     KernelEngine:KernelEngine.dll
 0000:fffcd000       .debug$S                   00400000     KernelEngine:KernelEngine.dll
 0000:fffcd000       .debug$S                   00400000     KernelEngine:KernelEngine.dll
 0000:fffcd000       .debug$S                   00400000     KernelEngine:KernelEngine.dll
 0000:fffcd000       .debug$S                   00400000     KernelEngine:KernelEngine.dll
 0000:fffcd000       .debug$S                   00400000     KernelEngine:KernelEngine.dll
 0000:fffcd000       .debug$S                   00400000     KernelEngine:KernelEngine.dll
 0000:fffcd000       .debug$S                   00400000     KernelEngine:KernelEngine.dll
 0000:fffcd000       .debug$S                   00400000     KernelEngine:KernelEngine.dll
 0000:fffcd000       .debug$S                   00400000     KernelEngine:KernelEngine.dll
 0000:fffcd000       .debug$S                   00400000     KernelEngine:KernelEngine.dll
 0000:fffcd000       .debug$S                   00400000     KernelEngine:KernelEngine.dll
 0000:fffcd000       .debug$S                   00400000     KernelEngine:KernelEngine.dll
 0000:fffcd000       .debug$S                   00400000     KernelEngine:KernelEngine.dll
 0000:fffcd000       .debug$S                   00400000     KernelEngine:KernelEngine.dll
 0000:fffcd000       .debug$S                   00400000     KernelEngine:KernelEngine.dll
 0000:fffcd000       .debug$S                   00400000     ServiceCore:ServiceCore.dll
 0000:fffcd000       .debug$S                   00400000     ServiceCore:ServiceCore.dll
 0000:fffcd000       .debug$S                   00400000     ServiceCore:ServiceCore.dll
 0000:fffcd000       .debug$S                   00400000     ServiceCore:ServiceCore.dll
 0000:fffcd000       .debug$S                   00400000     ServiceCore:ServiceCore.dll
 0000:fffcd000       .debug$S                   00400000     ServiceCore:ServiceCore.dll
 0000:fffcd000       .debug$S                   00400000     ServiceCore:ServiceCore.dll
 0000:fffcd000       .debug$S                   00400000     ServiceCore:ServiceCore.dll
 0000:fffcd000       .debug$S                   00400000     ServiceCore:ServiceCore.dll
 0000:fffcd000       .debug$S                   00400000     ServiceCore:ServiceCore.dll
 0000:fffcd000       .debug$S                   00400000     ServiceCore:ServiceCore.dll
 0000:fffcd000       .debug$S                   00400000     ServiceCore:ServiceCore.dll
 0000:fffcd000       .debug$S                   00400000     ServiceCore:ServiceCore.dll
 0000:fffcd000       .debug$S                   00400000     ServiceCore:ServiceCore.dll
 0000:fffcd000       .debug$S                   00400000     ServiceCore:ServiceCore.dll
 0000:fffcd000       .debug$S                   00400000     oleaut32:OLEAUT32.dll
 0000:fffcd000       .debug$S                   00400000     oleaut32:OLEAUT32.dll
 0000:fffcd000       .debug$S                   00400000     oleaut32:OLEAUT32.dll
 0000:fffcd000       .debug$S                   00400000     ucrt:api-ms-win-crt-stdio-l1-1-0.dll
 0000:fffcd000       .debug$S                   00400000     ucrt:api-ms-win-crt-stdio-l1-1-0.dll
 0000:fffcd000       .debug$S                   00400000     ucrt:api-ms-win-crt-heap-l1-1-0.dll
 0000:fffcd000       .debug$S                   00400000     comctl32:COMCTL32.dll
 0000:fffcd000       .debug$S                   00400000     user32:USER32.dll
 0000:fffcd000       .debug$S                   00400000     user32:USER32.dll
 0000:fffcd000       .debug$S                   00400000     user32:USER32.dll
 0000:fffcd000       .debug$S                   00400000     user32:USER32.dll
 0000:fffcd000       .debug$S                   00400000     user32:USER32.dll
 0000:fffcd000       .debug$S                   00400000     user32:USER32.dll
 0000:fffcd000       .debug$S                   00400000     user32:USER32.dll
 0000:fffcd000       .debug$S                   00400000     kernel32:KERNEL32.dll
 0000:fffcd000       .debug$S                   00400000     kernel32:KERNEL32.dll
 0000:fffcd000       .debug$S                   00400000     kernel32:KERNEL32.dll
 0000:fffcd000       .debug$S                   00400000     kernel32:KERNEL32.dll
 0000:fffcd000       .debug$S                   00400000     kernel32:KERNEL32.dll
 0000:fffcd000       .debug$S                   00400000     kernel32:KERNEL32.dll
 0000:fffcd000       .debug$S                   00400000     kernel32:KERNEL32.dll
 0000:fffcd000       .debug$S                   00400000     kernel32:KERNEL32.dll
 0000:fffcd000       .debug$S                   00400000     kernel32:KERNEL32.dll
 0000:fffcd000       .debug$S                   00400000     kernel32:KERNEL32.dll
 0000:fffcd000       .debug$S                   00400000     kernel32:KERNEL32.dll
 0000:fffcd000       .debug$S                   00400000     kernel32:KERNEL32.dll
 0000:fffcd000       .debug$S                   00400000     kernel32:KERNEL32.dll
 0000:fffcd000       .debug$S                   00400000     kernel32:KERNEL32.dll
 0000:fffcd000       .debug$S                   00400000     kernel32:KERNEL32.dll
 0000:fffcd000       .debug$S                   00400000     kernel32:KERNEL32.dll
 0000:fffcd000       .debug$S                   00400000     kernel32:KERNEL32.dll
 0000:fffcd000       .debug$S                   00400000     kernel32:KERNEL32.dll
 0000:fffcd000       .debug$S                   00400000     kernel32:KERNEL32.dll
 0000:fffcd000       .debug$S                   00400000     kernel32:KERNEL32.dll
 0000:fffcd000       .debug$S                   00400000     kernel32:KERNEL32.dll
 0000:fffcd000       .debug$S                   00400000     kernel32:KERNEL32.dll
 0000:fffcd000       .debug$S                   00400000     kernel32:KERNEL32.dll
 0000:fffcd000       .debug$S                   00400000     kernel32:KERNEL32.dll
 0000:fffcd000       .debug$S                   00400000     kernel32:KERNEL32.dll
 0000:fffcd000       .debug$S                   00400000     kernel32:KERNEL32.dll
 0000:fffcd000       .debug$S                   00400000     kernel32:KERNEL32.dll
 0000:fffcd000       .debug$S                   00400000     kernel32:KERNEL32.dll
 0000:fffcd000       .debug$S                   00400000     kernel32:KERNEL32.dll
 0000:fffcd000       .debug$S                   00400000     kernel32:KERNEL32.dll
 0000:fffcd000       .debug$S                   00400000     kernel32:KERNEL32.dll
 0000:fffcd000       .debug$S                   00400000     kernel32:KERNEL32.dll
 0000:fffcd000       .debug$S                   00400000     kernel32:KERNEL32.dll
 0000:fffcd000       .debug$S                   00400000     kernel32:KERNEL32.dll
 0000:fffcd000       .debug$S                   00400000     kernel32:KERNEL32.dll
 0000:fffcd000       .debug$S                   00400000     kernel32:KERNEL32.dll
 0000:fffcd000       .debug$S                   00400000     kernel32:KERNEL32.dll
 0000:fffcd000       .debug$S                   00400000     kernel32:KERNEL32.dll
 0000:fffcd000       .debug$S                   00400000     kernel32:KERNEL32.dll
 0000:fffcd000       .debug$S                   00400000     kernel32:KERNEL32.dll
 0000:fffcd000       .debug$S                   00400000     kernel32:KERNEL32.dll
 0000:fffcd000       .debug$S                   00400000     kernel32:KERNEL32.dll
 0000:fffcd000       .debug$S                   00400000     kernel32:KERNEL32.dll
 0000:fffcd000       .debug$S                   00400000     ucrt:api-ms-win-crt-heap-l1-1-0.dll
 0000:fffcd000       .debug$S                   00400000     mfc140u:mfc140u.dll
 0000:fffcd000       .debug$S                   00400000     mfc140u:mfc140u.dll
 0000:fffcd000       .debug$S                   00400000     mfc140u:mfc140u.dll
 0000:fffcd000       .debug$S                   00400000     mfc140u:mfc140u.dll
 0000:fffcd000       .debug$S                   00400000     mfc140u:mfc140u.dll
 0000:fffcd000       .debug$S                   00400000     mfc140u:mfc140u.dll
 0000:fffcd000       .debug$S                   00400000     mfc140u:mfc140u.dll
 0000:fffcd000       .debug$S                   00400000     mfc140u:mfc140u.dll
 0000:fffcd000       .debug$S                   00400000     mfc140u:mfc140u.dll
 0000:fffcd000       .debug$S                   00400000     mfc140u:mfc140u.dll
 0000:fffcd000       .debug$S                   00400000     mfc140u:mfc140u.dll
 0000:fffcd000       .debug$S                   00400000     mfc140u:mfc140u.dll
 0000:fffcd000       .debug$S                   00400000     mfc140u:mfc140u.dll
 0000:fffcd000       .debug$S                   00400000     mfc140u:mfc140u.dll
 0000:fffcd000       .debug$S                   00400000     mfc140u:mfc140u.dll
 0000:fffcd000       .debug$S                   00400000     mfc140u:mfc140u.dll
 0000:fffcd000       .debug$S                   00400000     mfc140u:mfc140u.dll
 0000:fffcd000       .debug$S                   00400000     mfc140u:mfc140u.dll
 0000:fffcd000       .debug$S                   00400000     mfc140u:mfc140u.dll
 0000:fffcd000       .debug$S                   00400000     mfc140u:mfc140u.dll
 0000:fffcd000       .debug$S                   00400000     mfc140u:mfc140u.dll
 0000:fffcd000       .debug$S                   00400000     mfc140u:mfc140u.dll
 0000:fffcd000       .debug$S                   00400000     mfc140u:mfc140u.dll
 0000:fffcd000       .debug$S                   00400000     mfc140u:mfc140u.dll
 0000:fffcd000       .debug$S                   00400000     mfc140u:mfc140u.dll
 0000:fffcd000       .debug$S                   00400000     mfc140u:mfc140u.dll
 0000:fffcd000       .debug$S                   00400000     mfc140u:mfc140u.dll
 0000:fffcd000       .debug$S                   00400000     mfc140u:mfc140u.dll
 0000:fffcd000       .debug$S                   00400000     mfc140u:mfc140u.dll
 0000:fffcd000       .debug$S                   00400000     mfc140u:mfc140u.dll
 0000:fffcd000       .debug$S                   00400000     mfc140u:mfc140u.dll
 0000:fffcd000       .debug$S                   00400000     mfc140u:mfc140u.dll
 0000:fffcd000       .debug$S                   00400000     mfc140u:mfc140u.dll
 0000:fffcd000       .debug$S                   00400000     mfc140u:mfc140u.dll
 0000:fffcd000       .debug$S                   00400000     mfc140u:mfc140u.dll
 0000:fffcd000       .debug$S                   00400000     mfc140u:mfc140u.dll
 0000:fffcd000       .debug$S                   00400000     mfc140u:mfc140u.dll
 0000:fffcd000       .debug$S                   00400000     mfc140u:mfc140u.dll
 0000:fffcd000       .debug$S                   00400000     mfc140u:mfc140u.dll
 0000:fffcd000       .debug$S                   00400000     mfc140u:mfc140u.dll
 0000:fffcd000       .debug$S                   00400000     mfc140u:mfc140u.dll
 0000:fffcd000       .debug$S                   00400000     mfc140u:mfc140u.dll
 0000:fffcd000       .debug$S                   00400000     mfc140u:mfc140u.dll
 0000:fffcd000       .debug$S                   00400000     mfc140u:mfc140u.dll
 0000:fffcd000       .debug$S                   00400000     mfc140u:mfc140u.dll
 0000:fffcd000       .debug$S                   00400000     mfc140u:mfc140u.dll
 0000:fffcd000       .debug$S                   00400000     ucrt:api-ms-win-crt-heap-l1-1-0.dll
 0000:fffcd000       .debug$S                   00400000     ucrt:api-ms-win-crt-heap-l1-1-0.dll
 0000:fffcd000       .debug$S                   00400000     mfc140u:mfc140u.dll
 0000:fffcd000       .debug$S                   00400000     mfc140u:mfc140u.dll
 0000:fffcd000       .debug$S                   00400000     mfc140u:mfc140u.dll
 0000:fffcd000       .debug$S                   00400000     mfc140u:mfc140u.dll
 0000:fffcd000       .debug$S                   00400000     mfc140u:mfc140u.dll
 0000:fffcd000       .debug$S                   00400000     mfc140u:mfc140u.dll
 0000:fffcd000       .debug$S                   00400000     mfc140u:mfc140u.dll
 0000:fffcd000       .debug$S                   00400000     mfc140u:mfc140u.dll
 0000:fffcd000       .debug$S                   00400000     mfc140u:mfc140u.dll
 0000:fffcd000       .debug$S                   00400000     mfc140u:mfc140u.dll
 0000:fffcd000       .debug$S                   00400000     mfc140u:mfc140u.dll
 0000:fffcd000       .debug$S                   00400000     mfc140u:mfc140u.dll
 0000:fffcd000       .debug$S                   00400000     mfc140u:mfc140u.dll
 0000:fffcd000       .debug$S                   00400000     mfc140u:mfc140u.dll
 0000:fffcd000       .debug$S                   00400000     mfc140u:mfc140u.dll
 0000:fffcd000       .debug$S                   00400000     mfc140u:mfc140u.dll
 0000:fffcd000       .debug$S                   00400000     mfc140u:mfc140u.dll
 0000:fffcd000       .debug$S                   00400000     mfc140u:mfc140u.dll
 0000:fffcd000       .debug$S                   00400000     mfc140u:mfc140u.dll
 0000:fffcd000       .debug$S                   00400000     mfc140u:mfc140u.dll
 0000:fffcd000       .debug$S                   00400000     mfc140u:mfc140u.dll
 0000:fffcd000       .debug$S                   00400000     mfc140u:mfc140u.dll
 0000:fffcd000       .debug$S                   00400000     mfc140u:mfc140u.dll
 0000:fffcd000       .debug$S                   00400000     mfc140u:mfc140u.dll
 0000:fffcd000       .debug$S                   00400000     mfc140u:mfc140u.dll
 0000:fffcd000       .debug$S                   00400000     mfc140u:mfc140u.dll
 0000:fffcd000       .debug$S                   00400000     mfc140u:mfc140u.dll
 0000:fffcd000       .debug$S                   00400000     mfc140u:mfc140u.dll
 0000:fffcd000       .debug$S                   00400000     mfc140u:mfc140u.dll
 0000:fffcd000       .debug$S                   00400000     mfc140u:mfc140u.dll
 0000:fffcd000       .debug$S                   00400000     mfc140u:mfc140u.dll
 0000:fffcd000       .debug$S                   00400000     mfc140u:mfc140u.dll
 0000:fffcd000       .debug$S                   00400000     mfc140u:mfc140u.dll
 0000:fffcd000       .debug$S                   00400000     mfc140u:mfc140u.dll
 0000:fffcd000       .debug$S                   00400000     mfc140u:mfc140u.dll
 0000:fffcd000       .debug$S                   00400000     mfc140u:mfc140u.dll
 0000:fffcd000       .debug$S                   00400000     mfc140u:mfc140u.dll
 0000:fffcd000       .debug$S                   00400000     mfc140u:mfc140u.dll
 0000:fffcd000       .debug$S                   00400000     mfc140u:mfc140u.dll
 0000:fffcd000       .debug$S                   00400000     mfc140u:mfc140u.dll
 0000:fffcd000       .debug$S                   00400000     mfc140u:mfc140u.dll
 0000:fffcd000       .debug$S                   00400000     mfc140u:mfc140u.dll
 0000:fffcd000       .debug$S                   00400000     mfc140u:mfc140u.dll
 0000:fffcd000       .debug$S                   00400000     mfc140u:mfc140u.dll
 0000:fffcd000       .debug$S                   00400000     mfc140u:mfc140u.dll
 0000:fffcd000       .debug$S                   00400000     mfc140u:mfc140u.dll
 0000:fffcd000       .debug$S                   00400000     mfc140u:mfc140u.dll
 0000:fffcd000       .debug$S                   00400000     mfc140u:mfc140u.dll
 0000:fffcd000       .debug$S                   00400000     mfc140u:mfc140u.dll
 0000:fffcd000       .debug$S                   00400000     mfc140u:mfc140u.dll
 0000:fffcd000       .debug$S                   00400000     mfc140u:mfc140u.dll
 0000:fffcd000       .debug$S                   00400000     mfc140u:mfc140u.dll
 0000:fffcd000       .debug$S                   00400000     mfc140u:mfc140u.dll
 0000:fffcd000       .debug$S                   00400000     mfc140u:mfc140u.dll
 0000:fffcd000       .debug$S                   00400000     mfc140u:mfc140u.dll
 0000:fffcd000       .debug$S                   00400000     mfc140u:mfc140u.dll
 0000:fffcd000       .debug$S                   00400000     mfc140u:mfc140u.dll
 0000:fffcd000       .debug$S                   00400000     ucrt:api-ms-win-crt-heap-l1-1-0.dll
 0000:fffcd000       .debug$S                   00400000     mfc140u:mfc140u.dll
 0000:fffcd000       .debug$S                   00400000     mfc140u:mfc140u.dll
 0000:fffcd000       .debug$S                   00400000     mfc140u:mfc140u.dll
 0000:fffcd000       .debug$S                   00400000     mfc140u:mfc140u.dll
 0000:fffcd000       .debug$S                   00400000     mfc140u:mfc140u.dll
 0000:fffcd000       .debug$S                   00400000     mfc140u:mfc140u.dll
 0000:fffcd000       .debug$S                   00400000     mfc140u:mfc140u.dll
 0000:fffcd000       .debug$S                   00400000     mfc140u:mfc140u.dll
 0000:fffcd000       .debug$S                   00400000     mfc140u:mfc140u.dll
 0000:fffcd000       .debug$S                   00400000     mfc140u:mfc140u.dll
 0000:fffcd000       .debug$S                   00400000     mfc140u:mfc140u.dll
 0000:fffcd000       .debug$S                   00400000     mfc140u:mfc140u.dll
 0000:fffcd000       .debug$S                   00400000     mfc140u:mfc140u.dll
 0000:fffcd000       .debug$S                   00400000     mfc140u:mfc140u.dll
 0000:fffcd000       .debug$S                   00400000     mfc140u:mfc140u.dll
 0000:fffcd000       .debug$S                   00400000     mfc140u:mfc140u.dll
 0000:fffcd000       .debug$S                   00400000     mfc140u:mfc140u.dll
 0000:fffcd000       .debug$S                   00400000     mfc140u:mfc140u.dll
 0000:fffcd000       .debug$S                   00400000     mfc140u:mfc140u.dll
 0000:fffcd000       .debug$S                   00400000     mfc140u:mfc140u.dll
 0000:fffcd000       .debug$S                   00400000     mfc140u:mfc140u.dll
 0000:fffcd000       .debug$S                   00400000     mfc140u:mfc140u.dll
 0000:fffcd000       .debug$S                   00400000     mfc140u:mfc140u.dll
 0000:fffcd000       .debug$S                   00400000     mfc140u:mfc140u.dll
 0000:fffcd000       .debug$S                   00400000     mfc140u:mfc140u.dll
 0000:fffcd000       .debug$S                   00400000     mfc140u:mfc140u.dll
 0000:fffcd000       .debug$S                   00400000     mfc140u:mfc140u.dll
 0000:fffcd000       .debug$S                   00400000     mfc140u:mfc140u.dll
 0000:fffcd000       .debug$S                   00400000     mfc140u:mfc140u.dll
 0000:fffcd000       .debug$S                   00400000     mfc140u:mfc140u.dll
 0000:fffcd000       .debug$S                   00400000     mfc140u:mfc140u.dll
 0000:fffcd000       .debug$S                   00400000     mfc140u:mfc140u.dll
 0000:fffcd000       .debug$S                   00400000     mfc140u:mfc140u.dll
 0000:fffcd000       .debug$S                   00400000     mfc140u:mfc140u.dll
 0000:fffcd000       .debug$S                   00400000     mfc140u:mfc140u.dll
 0000:fffcd000       .debug$S                   00400000     mfc140u:mfc140u.dll
 0000:fffcd000       .debug$S                   00400000     mfc140u:mfc140u.dll
 0000:fffcd000       .debug$S                   00400000     mfc140u:mfc140u.dll
 0000:fffcd000       .debug$S                   00400000     mfc140u:mfc140u.dll
 0000:fffcd000       .debug$S                   00400000     mfc140u:mfc140u.dll
 0000:fffcd000       .debug$S                   00400000     mfc140u:mfc140u.dll
 0000:fffcd000       .debug$S                   00400000     mfc140u:mfc140u.dll
 0000:fffcd000       .debug$S                   00400000     mfc140u:mfc140u.dll
 0000:fffcd000       .debug$S                   00400000     mfc140u:mfc140u.dll
 0000:fffcd000       .debug$S                   00400000     mfc140u:mfc140u.dll
 0000:fffcd000       .debug$S                   00400000     mfc140u:mfc140u.dll
 0000:fffcd000       .debug$S                   00400000     mfc140u:mfc140u.dll
 0000:fffcd000       .debug$S                   00400000     mfc140u:mfc140u.dll
 0000:fffcd000       .debug$S                   00400000     mfc140u:mfc140u.dll
 0000:fffcd000       .debug$S                   00400000     mfc140u:mfc140u.dll
 0000:fffcd000       .debug$S                   00400000     mfc140u:mfc140u.dll
 0000:fffcd000       .debug$S                   00400000     mfc140u:mfc140u.dll
 0000:fffcd000       .debug$S                   00400000     mfc140u:mfc140u.dll
 0000:fffcd000       .debug$S                   00400000     mfc140u:mfc140u.dll
 0000:fffcd000       .debug$S                   00400000     mfc140u:mfc140u.dll
 0000:fffcd000       .debug$S                   00400000     mfc140u:mfc140u.dll
 0000:fffcd000       .debug$S                   00400000     mfc140u:mfc140u.dll
 0000:fffcd000       .debug$S                   00400000     mfc140u:mfc140u.dll
 0000:fffcd000       .debug$S                   00400000     mfc140u:mfc140u.dll
 0000:fffcd000       .debug$S                   00400000     mfc140u:mfc140u.dll
 0000:fffcd000       .debug$S                   00400000     mfc140u:mfc140u.dll
 0000:fffcd000       .debug$S                   00400000     mfc140u:mfc140u.dll
 0000:fffcd000       .debug$S                   00400000     mfc140u:mfc140u.dll
 0000:fffcd000       .debug$S                   00400000     mfc140u:mfc140u.dll
 0000:fffcd000       .debug$S                   00400000     mfc140u:mfc140u.dll
 0000:fffcd000       .debug$S                   00400000     mfc140u:mfc140u.dll
 0000:fffcd000       .debug$S                   00400000     mfc140u:mfc140u.dll
 0000:fffcd000       .debug$S                   00400000     mfc140u:mfc140u.dll
 0000:fffcd000       .debug$S                   00400000     mfc140u:mfc140u.dll
 0000:fffcd000       .debug$S                   00400000     mfc140u:mfc140u.dll
 0000:fffcd000       .debug$S                   00400000     mfc140u:mfc140u.dll
 0000:fffcd000       .debug$S                   00400000     mfc140u:mfc140u.dll
 0000:fffcd000       .debug$S                   00400000     mfc140u:mfc140u.dll
 0000:fffcd000       .debug$S                   00400000     mfc140u:mfc140u.dll
 0000:fffcd000       .debug$S                   00400000     ucrt:api-ms-win-crt-runtime-l1-1-0.dll
 0000:fffcd000       .debug$S                   00400000     ucrt:api-ms-win-crt-runtime-l1-1-0.dll
 0000:fffcd000       .debug$S                   00400000     ucrt:api-ms-win-crt-locale-l1-1-0.dll
 0000:fffcd000       .debug$S                   00400000     ucrt:api-ms-win-crt-runtime-l1-1-0.dll
 0000:fffcd000       .debug$S                   00400000     ucrt:api-ms-win-crt-runtime-l1-1-0.dll
 0000:fffcd000       .debug$S                   00400000     ucrt:api-ms-win-crt-runtime-l1-1-0.dll
 0000:fffcd000       .debug$S                   00400000     ucrt:api-ms-win-crt-locale-l1-1-0.dll
 0000:fffcd000       .debug$S                   00400000     ucrt:api-ms-win-crt-runtime-l1-1-0.dll
 0000:fffcd000       .debug$S                   00400000     ucrt:api-ms-win-crt-runtime-l1-1-0.dll
 0000:fffcd000       .debug$S                   00400000     ucrt:api-ms-win-crt-runtime-l1-1-0.dll
 0000:fffcd000       .debug$S                   00400000     ucrt:api-ms-win-crt-math-l1-1-0.dll
 0000:fffcd000       .debug$S                   00400000     ucrt:api-ms-win-crt-runtime-l1-1-0.dll
 0000:fffcd000       .debug$S                   00400000     ucrt:api-ms-win-crt-runtime-l1-1-0.dll
 0000:fffcd000       .debug$S                   00400000     ucrt:api-ms-win-crt-runtime-l1-1-0.dll
 0000:fffcd000       .debug$S                   00400000     ucrt:api-ms-win-crt-runtime-l1-1-0.dll
 0000:fffcd000       .debug$S                   00400000     ucrt:api-ms-win-crt-runtime-l1-1-0.dll
 0000:fffcd000       .debug$S                   00400000     ucrt:api-ms-win-crt-runtime-l1-1-0.dll
 0000:fffcd000       .debug$S                   00400000     ucrt:api-ms-win-crt-runtime-l1-1-0.dll
 0000:fffcd000       .debug$S                   00400000     ucrt:api-ms-win-crt-runtime-l1-1-0.dll
 0000:fffcd000       .debug$S                   00400000     ucrt:api-ms-win-crt-runtime-l1-1-0.dll
 0000:fffcd000       .debug$S                   00400000     ucrt:api-ms-win-crt-runtime-l1-1-0.dll
 0000:fffcd000       .debug$S                   00400000     ucrt:api-ms-win-crt-runtime-l1-1-0.dll
 0000:fffcd000       .debug$S                   00400000     ucrt:api-ms-win-crt-runtime-l1-1-0.dll
 0000:fffcd000       .debug$S                   00400000     ucrt:api-ms-win-crt-runtime-l1-1-0.dll
 0000:fffcd000       .debug$S                   00400000     ucrt:api-ms-win-crt-runtime-l1-1-0.dll
 0000:fffcd000       .debug$S                   00400000     ucrt:api-ms-win-crt-runtime-l1-1-0.dll
 0000:fffcd000       .debug$S                   00400000     ucrt:api-ms-win-crt-runtime-l1-1-0.dll
 0001:00000000       ??__EtheApp@@YAXXZ         00401000 f   AIDistribute.obj
 0001:0000001c       ??__E_afxInitAppState@@YAXXZ 0040101c f   mfcs140u:appmodul.obj
 0001:0000002e       ??__E_AtlBaseModule@ATL@@YAXXZ 0040102e f   atls:atlbase.obj
 0001:00000830       _memcpy_s                  00401830 f   AttemperEngineSink.obj
 0001:00000940       _time                      00401940 f   AttemperEngineSink.obj
 0001:000010d3       __catch$?OnEventTimer@CAttemperEngineSink@@UAE_NKI@Z$0 004020d3 f   AttemperEngineSink.obj
 0001:00001138       $LN19                      00402138     AttemperEngineSink.obj
 0001:000012e8       $LN15                      004022e8     AttemperEngineSink.obj
 0001:00002bb4       $LN11                      00403bb4     AttemperEngineSink.obj
 0001:00002bcc       $LN10                      00403bcc     AttemperEngineSink.obj
 0001:000038a4       $LN23                      004048a4     AttemperEngineSink.obj
 0001:00003c80       $LN11                      00404c80     AttemperEngineSink.obj
 0001:000045f0       ?AnsiToUnicode@@YAPA_WPBD@Z 004055f0 f   DataBaseEngineSink.obj
 0001:00004da2       __catch$?OnDataBaseEngineStart@CDataBaseEngineSink@@UAE_NPAUIUnknownEx@@@Z$0 00405da2 f   DataBaseEngineSink.obj
 0001:00005144       $LN15                      00406144     DataBaseEngineSink.obj
 0001:0000570a       __catch$?OnRequestAIParameter@CDataBaseEngineSink@@IAE_NKPAXGAAK@Z$0 0040670a f   DataBaseEngineSink.obj
 0001:0000603a       __catch$?OnRequestLoadAIParameter@CDataBaseEngineSink@@IAE_NKPAXGAAK@Z$0 0040703a f   DataBaseEngineSink.obj
 0001:0000651f       __catch$?OnRequestLoadAIUser@CDataBaseEngineSink@@IAE_NKPAXGAAK@Z$0 0040751f f   DataBaseEngineSink.obj
 0001:0000787b       __catch$?CreateInstance@?$CTempldateHelper@UIDataBase@@@@QAE_NXZ$0 0040887b f i DataBaseEngineSink.obj
 0001:000078aa       __catch$?CreateInstance@?$CTempldateHelper@UIDataBase@@@@QAE_NXZ$1 004088aa f i DataBaseEngineSink.obj
 0001:000089c0       _memcpy_s                  004099c0 f   AIManager.obj
 0001:00008ad0       _difftime                  00409ad0 f   AIManager.obj
 0001:00008af0       _time                      00409af0 f   AIManager.obj
 0001:0000fc24       __catch$?StartServerService@CAIDistributeDlg@@IAE_NG@Z$0 00410c24 f   AIDistributeDlg.obj
 0001:0000fe9f       __catch$?OnBnClickedStartService@CAIDistributeDlg@@IAEXXZ$0 00410e9f f   AIDistributeDlg.obj
 0001:0000ff1a       __catch$?OnBnClickedStopService@CAIDistributeDlg@@IAEXXZ$0 00410f1a f   AIDistributeDlg.obj
 0001:00010d01       __catch$??1CServerListManager@NServerListManager@@UAE@XZ$0 00411d01 f   ServerListManager.obj
 0001:00010d76       __catch$??1CServerListManager@NServerListManager@@UAE@XZ$2 00411d76 f   ServerListManager.obj
 0001:00010dfd       __catch$??1CServerListManager@NServerListManager@@UAE@XZ$4 00411dfd f   ServerListManager.obj
 0001:00010e75       __catch$??1CServerListManager@NServerListManager@@UAE@XZ$6 00411e75 f   ServerListManager.obj
 0001:00010ef9       __catch$??1CServerListManager@NServerListManager@@UAE@XZ$8 00411ef9 f   ServerListManager.obj
 0001:00010f6e       __catch$??1CServerListManager@NServerListManager@@UAE@XZ$10 00411f6e f   ServerListManager.obj
 0001:00010ff5       __catch$??1CServerListManager@NServerListManager@@UAE@XZ$12 00411ff5 f   ServerListManager.obj
 0001:0001106d       __catch$??1CServerListManager@NServerListManager@@UAE@XZ$14 0041206d f   ServerListManager.obj
 0001:000110f1       __catch$??1CServerListManager@NServerListManager@@UAE@XZ$16 004120f1 f   ServerListManager.obj
 0001:00011166       __catch$??1CServerListManager@NServerListManager@@UAE@XZ$18 00412166 f   ServerListManager.obj
 0001:00011862       __catch$?InsertGameType@CServerListManager@NServerListManager@@QAE_NPAUtagGameType@@@Z$0 00412862 f   ServerListManager.obj
 0001:000119f5       __catch$?InsertGameKind@CServerListManager@NServerListManager@@QAE_NPAUtagGameKind@@@Z$0 004129f5 f   ServerListManager.obj
 0001:00011b92       __catch$?InsertGameNode@CServerListManager@NServerListManager@@QAE_NPAUtagGameNode@@@Z$0 00412b92 f   ServerListManager.obj
 0001:00011d21       __catch$?InsertGamePage@CServerListManager@NServerListManager@@QAE_NPAUtagGamePage@@@Z$0 00412d21 f   ServerListManager.obj
 0001:00011ecc       __catch$?InsertGameServer@CServerListManager@NServerListManager@@QAE_NPAUtagGameServer@@@Z$0 00412ecc f   ServerListManager.obj
 0001:0001611b       __catch$?CreateInstance@?$CTempldateHelper@UIAttemperEngine@@@@QAE_NXZ$0 0041711b f i ServiceUnits.obj
 0001:0001614a       __catch$?CreateInstance@?$CTempldateHelper@UIAttemperEngine@@@@QAE_NXZ$1 0041714a f i ServiceUnits.obj
 0001:000162fb       __catch$?CreateInstance@?$CTempldateHelper@UIDataBaseEngine@@@@QAE_NXZ$0 004172fb f i ServiceUnits.obj
 0001:0001632a       __catch$?CreateInstance@?$CTempldateHelper@UIDataBaseEngine@@@@QAE_NXZ$1 0041732a f i ServiceUnits.obj
 0001:000164db       __catch$?CreateInstance@?$CTempldateHelper@UITCPNetworkEngine@@@@QAE_NXZ$0 004174db f i ServiceUnits.obj
 0001:0001650a       __catch$?CreateInstance@?$CTempldateHelper@UITCPNetworkEngine@@@@QAE_NXZ$1 0041750a f i ServiceUnits.obj
 0001:000166bb       __catch$?CreateInstance@?$CTempldateHelper@UITCPSocketService@@@@QAE_NXZ$0 004176bb f i ServiceUnits.obj
 0001:000166ea       __catch$?CreateInstance@?$CTempldateHelper@UITCPSocketService@@@@QAE_NXZ$1 004176ea f i ServiceUnits.obj
 0001:0001689b       __catch$?CreateInstance@?$CTempldateHelper@UITimerEngine@@@@QAE_NXZ$0 0041789b f i ServiceUnits.obj
 0001:000168ca       __catch$?CreateInstance@?$CTempldateHelper@UITimerEngine@@@@QAE_NXZ$1 004178ca f i ServiceUnits.obj
 0001:00016a13       ?pre_c_initialization@@YAHXZ 00417a13 f   MSVCRT:exe_wwinmain.obj
 0001:00016ab7       ?post_pgo_initialization@@YAHXZ 00417ab7 f   MSVCRT:exe_wwinmain.obj
 0001:00016abf       ?pre_cpp_initialization@@YAXXZ 00417abf f   MSVCRT:exe_wwinmain.obj
 0001:00016ad1       ?__scrt_common_main_seh@@YAHXZ 00417ad1 f   MSVCRT:exe_wwinmain.obj
 0001:00016c60       $$000000                   00417c60     MSVCRT:chkstk.obj
 0001:00016d04       ?find_pe_section@@YAPAU_IMAGE_SECTION_HEADER@@QAEI@Z 00417d04 f   MSVCRT:utility.obj
 0001:000170bc       ?__scrt_initialize_thread_safe_statics@@YAHXZ 004180bc f   MSVCRT:thread_safe_statics.obj
 0001:00017199       ?__scrt_uninitialize_thread_safe_statics@@YAXXZ 00418199 f   MSVCRT:thread_safe_statics.obj
 0001:00017510       $$000000                   00418510     MSVCRT:_sehprolg4_.obj
 0001:00017f40       $$000000                   00418f40     MSVCRT:_sehprolg4gs_.obj
 0001:00017fb0       __unwindfunclet$??0CAttemperEngineSink@@QAE@XZ$0 00418fb0 f   AttemperEngineSink.obj
 0001:00017fbb       __ehhandler$??0CAttemperEngineSink@@QAE@XZ 00418fbb f   AttemperEngineSink.obj
 0001:00017fd6       __ehhandler$?OnEventTimer@CAttemperEngineSink@@UAE_NKI@Z 00418fd6 f   AttemperEngineSink.obj
 0001:00017ffe       __unwindfunclet$?SendLogData@CAttemperEngineSink@@UAAXPAUIServerUserItem@@PB_WZZ$0 00418ffe f   AttemperEngineSink.obj
 0001:0001800a       __ehhandler$?SendLogData@CAttemperEngineSink@@UAAXPAUIServerUserItem@@PB_WZZ 0041900a f   AttemperEngineSink.obj
 0001:00018032       __unwindfunclet$?SendLogData@CAttemperEngineSink@@UAAXPB_WZZ$0 00419032 f   AttemperEngineSink.obj
 0001:0001803e       __ehhandler$?SendLogData@CAttemperEngineSink@@UAAXPB_WZZ 0041903e f   AttemperEngineSink.obj
 0001:00018070       __unwindfunclet$??0CDataBaseEngineSink@@QAE@XZ$0 00419070 f   DataBaseEngineSink.obj
 0001:0001807c       __unwindfunclet$??0CDataBaseEngineSink@@QAE@XZ$1 0041907c f   DataBaseEngineSink.obj
 0001:00018087       __unwindfunclet$??0CDataBaseEngineSink@@QAE@XZ$2 00419087 f   DataBaseEngineSink.obj
 0001:00018096       __unwindfunclet$??0CDataBaseEngineSink@@QAE@XZ$3 00419096 f   DataBaseEngineSink.obj
 0001:000180a4       __unwindfunclet$??0CDataBaseEngineSink@@QAE@XZ$4 004190a4 f   DataBaseEngineSink.obj
 0001:000180b3       __ehhandler$??0CDataBaseEngineSink@@QAE@XZ 004190b3 f   DataBaseEngineSink.obj
 0001:000180ce       __ehhandler$??1CDataBaseEngineSink@@UAE@XZ 004190ce f   DataBaseEngineSink.obj
 0001:000180e9       __ehhandler$?OnDataBaseEngineStart@CDataBaseEngineSink@@UAE_NPAUIUnknownEx@@@Z 004190e9 f   DataBaseEngineSink.obj
 0001:00018111       __unwindfunclet$?OnRequestAIParameter@CDataBaseEngineSink@@IAE_NKPAXGAAK@Z$2 00419111 f   DataBaseEngineSink.obj
 0001:0001811c       __unwindfunclet$?OnRequestAIParameter@CDataBaseEngineSink@@IAE_NKPAXGAAK@Z$3 0041911c f   DataBaseEngineSink.obj
 0001:00018127       __ehhandler$?OnRequestAIParameter@CDataBaseEngineSink@@IAE_NKPAXGAAK@Z 00419127 f   DataBaseEngineSink.obj
 0001:0001814f       __ehhandler$?OnRequestLoadAIParameter@CDataBaseEngineSink@@IAE_NKPAXGAAK@Z 0041914f f   DataBaseEngineSink.obj
 0001:00018177       __ehhandler$?OnRequestLoadAIUser@CDataBaseEngineSink@@IAE_NKPAXGAAK@Z 00419177 f   DataBaseEngineSink.obj
 0001:000181a0       __ehhandler$?CreateInstance@?$CTempldateHelper@UIDataBase@@@@QAE_NXZ 004191a0 f   DataBaseEngineSink.obj
 0001:000181c0       __unwindfunclet$??0CDBCorrespondManager@@QAE@XZ$0 004191c0 f   DBCorrespondManager.obj
 0001:000181cb       __unwindfunclet$??0CDBCorrespondManager@@QAE@XZ$1 004191cb f   DBCorrespondManager.obj
 0001:000181d6       __ehhandler$??0CDBCorrespondManager@@QAE@XZ 004191d6 f   DBCorrespondManager.obj
 0001:000181f1       __ehhandler$??1CDBCorrespondManager@@QAE@XZ 004191f1 f   DBCorrespondManager.obj
 0001:0001820c       __unwindfunclet$?ConcludeService@CDBCorrespondManager@@UAE_NXZ$0 0041920c f   DBCorrespondManager.obj
 0001:00018215       __ehhandler$?ConcludeService@CDBCorrespondManager@@UAE_NXZ 00419215 f   DBCorrespondManager.obj
 0001:00018230       __unwindfunclet$?PostDataBaseRequest@CDBCorrespondManager@@UAA_NKGKPAXGE@Z$0 00419230 f   DBCorrespondManager.obj
 0001:00018239       __ehhandler$?PostDataBaseRequest@CDBCorrespondManager@@UAA_NKGKPAXGE@Z 00419239 f   DBCorrespondManager.obj
 0001:00018254       __unwindfunclet$?OnPostRequestComplete@CDBCorrespondManager@@UAA_NK_N@Z$0 00419254 f   DBCorrespondManager.obj
 0001:0001825d       __ehhandler$?OnPostRequestComplete@CDBCorrespondManager@@UAA_NK_N@Z 0041925d f   DBCorrespondManager.obj
 0001:00018278       __unwindfunclet$?OnTimerNotify@CDBCorrespondManager@@UAA_NXZ$0 00419278 f   DBCorrespondManager.obj
 0001:00018281       __ehhandler$?OnTimerNotify@CDBCorrespondManager@@UAA_NXZ 00419281 f   DBCorrespondManager.obj
 0001:000182a0       __unwindfunclet$??0CCriticalSection@@QAE@XZ$0 004192a0 f   DBCorrespondManager.obj
 0001:000182a8       __ehhandler$??0CCriticalSection@@QAE@XZ 004192a8 f   DBCorrespondManager.obj
 0001:000182d0       __unwindfunclet$??0CAIManager@@QAE@XZ$0 004192d0 f   AIManager.obj
 0001:000182de       __unwindfunclet$??0CAIManager@@QAE@XZ$1 004192de f   AIManager.obj
 0001:000182ec       __unwindfunclet$??0CAIManager@@QAE@XZ$2 004192ec f   AIManager.obj
 0001:000182fa       __unwindfunclet$??0CAIManager@@QAE@XZ$3 004192fa f   AIManager.obj
 0001:00018308       __unwindfunclet$??0CAIManager@@QAE@XZ$4 00419308 f   AIManager.obj
 0001:00018316       __unwindfunclet$??0CAIManager@@QAE@XZ$5 00419316 f   AIManager.obj
 0001:00018324       __ehhandler$??0CAIManager@@QAE@XZ 00419324 f   AIManager.obj
 0001:0001833f       __ehhandler$??1CAIManager@@UAE@XZ 0041933f f   AIManager.obj
 0001:0001835a       __unwindfunclet$?InsertGroupParameter@CAIManager@@QAEEUtagGroupAIParameter@@@Z$0 0041935a f   AIManager.obj
 0001:00018367       __ehhandler$?InsertGroupParameter@CAIManager@@QAEEUtagGroupAIParameter@@@Z 00419367 f   AIManager.obj
 0001:0001838f       __unwindfunclet$?InsertAIUser@CAIManager@@QAEXKGPAUtagAIUserInfo@@@Z$0 0041938f f   AIManager.obj
 0001:0001839c       __unwindfunclet$?InsertAIUser@CAIManager@@QAEXKGPAUtagAIUserInfo@@@Z$1 0041939c f   AIManager.obj
 0001:000183a9       __unwindfunclet$?InsertAIUser@CAIManager@@QAEXKGPAUtagAIUserInfo@@@Z$2 004193a9 f   AIManager.obj
 0001:000183b6       __ehhandler$?InsertAIUser@CAIManager@@QAEXKGPAUtagAIUserInfo@@@Z 004193b6 f   AIManager.obj
 0001:000183de       __unwindfunclet$?InsertServerItem@CAIManager@@QAE_NKAAUtagGameServer@@@Z$0 004193de f   AIManager.obj
 0001:000183f3       __ehhandler$?InsertServerItem@CAIManager@@QAE_NKAAUtagGameServer@@@Z 004193f3 f   AIManager.obj
 0001:0001841b       __unwindfunclet$?CheckGroupRoomIsNull@CAIManager@@QAE_NXZ$0 0041941b f   AIManager.obj
 0001:00018426       __ehhandler$?CheckGroupRoomIsNull@CAIManager@@QAE_NXZ 00419426 f   AIManager.obj
 0001:00018450       __ehhandler$??1?$CMap@GGPAVCGameNodeItem@NServerListManager@@AAPAV12@@@UAE@XZ 00419450 f   ServerListManager.obj
 0001:00018450       __ehhandler$??1?$CMap@GGPAVCGamePageItem@NServerListManager@@AAPAV12@@@UAE@XZ 00419450 f   ServerListManager.obj
 0001:00018450       __ehhandler$??1?$CMap@GGPAVCGameTypeItem@NServerListManager@@AAPAV12@@@UAE@XZ 00419450 f   ServerListManager.obj
 0001:00018450       __ehhandler$??1?$CMap@GGPAVCGameServerItem@NServerListManager@@AAPAV12@@@UAE@XZ 00419450 f   ServerListManager.obj
 0001:00018450       __ehhandler$??1?$CMap@GGPAUtagServerItem@@PAU1@@@UAE@XZ 00419450 f   AIManager.obj
 0001:00018450       __ehhandler$??1?$CTempldateHelper@UITimerEngine@@@@UAE@XZ 00419450 f   ServiceUnits.obj
 0001:00018450       __ehhandler$??1?$CTempldateHelper@UIMatchServiceManager@@@@UAE@XZ 00419450 f   ServiceUnits.obj
 0001:00018450       __ehhandler$??1?$CTempldateHelper@UIGameServiceManager@@@@UAE@XZ 00419450 f   ServiceUnits.obj
 0001:00018450       __ehhandler$??1?$CMap@KKHH@@UAE@XZ 00419450 f   AIManager.obj
 0001:00018450       __ehhandler$??1?$CMap@KKPAV?$CMap@GGPAV?$CMap@KKPAUtagAIUserInfo@@PAU1@@@PAV1@@@PAV1@@@UAE@XZ 00419450 f   AIManager.obj
 0001:00018450       __ehhandler$??1?$CTempldateHelper@UIPersonalRoomServiceManager@@@@UAE@XZ 00419450 f   ServiceUnits.obj
 0001:00018450       __ehhandler$??1?$CTempldateHelper@UIAttemperEngine@@@@UAE@XZ 00419450 f   ServiceUnits.obj
 0001:00018450       __ehhandler$??1?$CMap@GGPAUtagGroupAIParameter@@PAU1@@@UAE@XZ 00419450 f   AIManager.obj
 0001:00018450       __ehhandler$??1?$CTempldateHelper@UIDataBaseEngine@@@@UAE@XZ 00419450 f   ServiceUnits.obj
 0001:00018450       __ehhandler$??1?$CMap@GGPAV?$CMap@KKPAUtagAIUserInfo@@PAU1@@@PAV1@@@UAE@XZ 00419450 f   AIManager.obj
 0001:00018450       __ehhandler$??1?$CTempldateHelper@UIDataBase@@@@UAE@XZ 00419450 f   DataBaseEngineSink.obj
 0001:00018450       __ehhandler$??1?$CMap@KKPAUtagAIUserInfo@@PAU1@@@UAE@XZ 00419450 f   AIManager.obj
 0001:00018450       __ehhandler$??1?$CTempldateHelper@UITCPSocketService@@@@UAE@XZ 00419450 f   ServiceUnits.obj
 0001:00018450       __ehhandler$??1?$CMap@GGPAVCGameKindItem@NServerListManager@@AAPAV12@@@UAE@XZ 00419450 f   ServerListManager.obj
 0001:00018450       __ehhandler$??1?$CList@PAUtagDBRequestHead@@ABQAU1@@@UAE@XZ 00419450 f   DBCorrespondManager.obj
 0001:00018450       __ehhandler$??1?$CTempldateHelper@UITCPNetworkEngine@@@@UAE@XZ 00419450 f   ServiceUnits.obj
 0001:00018450       __ehhandler$??1?$CMap@KKPAV?$CMap@GGPAUtagGroupAIParameter@@PAU1@@@PAV1@@@UAE@XZ 00419450 f   AIManager.obj
 0001:00018470       __unwindfunclet$?NewAssoc@?$CMap@GGPAVCGameKindItem@NServerListManager@@AAPAV12@@@IAEPAVCAssoc@1@G@Z$0 00419470 f   ServerListManager.obj
 0001:00018470       __unwindfunclet$?NewAssoc@?$CMap@KKPAUtagAIUserInfo@@PAU1@@@IAEPAVCAssoc@1@K@Z$0 00419470 f   AIManager.obj
 0001:00018470       __unwindfunclet$?NewAssoc@?$CMap@GGPAVCGamePageItem@NServerListManager@@AAPAV12@@@IAEPAVCAssoc@1@G@Z$0 00419470 f   ServerListManager.obj
 0001:00018470       __unwindfunclet$?NewAssoc@?$CMap@GGPAV?$CMap@KKPAUtagAIUserInfo@@PAU1@@@PAV1@@@IAEPAVCAssoc@1@G@Z$0 00419470 f   AIManager.obj
 0001:00018470       __unwindfunclet$?NewAssoc@?$CMap@GGPAVCGameNodeItem@NServerListManager@@AAPAV12@@@IAEPAVCAssoc@1@G@Z$0 00419470 f   ServerListManager.obj
 0001:00018470       __unwindfunclet$?NewAssoc@?$CMap@GGPAUtagGroupAIParameter@@PAU1@@@IAEPAVCAssoc@1@G@Z$0 00419470 f   AIManager.obj
 0001:00018470       __unwindfunclet$?NewAssoc@?$CMap@GGPAVCGameTypeItem@NServerListManager@@AAPAV12@@@IAEPAVCAssoc@1@G@Z$0 00419470 f   ServerListManager.obj
 0001:00018470       __unwindfunclet$?NewAssoc@?$CMap@GGPAVCGameServerItem@NServerListManager@@AAPAV12@@@IAEPAVCAssoc@1@G@Z$0 00419470 f   ServerListManager.obj
 0001:00018470       __unwindfunclet$?NewAssoc@?$CMap@KKHH@@IAEPAVCAssoc@1@K@Z$0 00419470 f   AIManager.obj
 0001:00018470       __unwindfunclet$?NewAssoc@?$CMap@GGPAUtagServerItem@@PAU1@@@IAEPAVCAssoc@1@G@Z$0 00419470 f   AIManager.obj
 0001:00018470       __unwindfunclet$?NewAssoc@?$CMap@KKPAV?$CMap@GGPAUtagGroupAIParameter@@PAU1@@@PAV1@@@IAEPAVCAssoc@1@K@Z$0 00419470 f   AIManager.obj
 0001:00018470       __unwindfunclet$?NewAssoc@?$CMap@KKPAV?$CMap@GGPAV?$CMap@KKPAUtagAIUserInfo@@PAU1@@@PAV1@@@PAV1@@@IAEPAVCAssoc@1@K@Z$0 00419470 f   AIManager.obj
 0001:00018481       __ehhandler$?NewAssoc@?$CMap@KKPAV?$CMap@GGPAV?$CMap@KKPAUtagAIUserInfo@@PAU1@@@PAV1@@@PAV1@@@IAEPAVCAssoc@1@K@Z 00419481 f   AIManager.obj
 0001:00018481       __ehhandler$?NewAssoc@?$CMap@GGPAUtagServerItem@@PAU1@@@IAEPAVCAssoc@1@G@Z 00419481 f   AIManager.obj
 0001:00018481       __ehhandler$?NewAssoc@?$CMap@KKPAV?$CMap@GGPAUtagGroupAIParameter@@PAU1@@@PAV1@@@IAEPAVCAssoc@1@K@Z 00419481 f   AIManager.obj
 0001:00018481       __ehhandler$?NewAssoc@?$CMap@GGPAVCGameServerItem@NServerListManager@@AAPAV12@@@IAEPAVCAssoc@1@G@Z 00419481 f   ServerListManager.obj
 0001:00018481       __ehhandler$?NewAssoc@?$CMap@KKHH@@IAEPAVCAssoc@1@K@Z 00419481 f   AIManager.obj
 0001:00018481       __ehhandler$?NewAssoc@?$CMap@KKPAUtagAIUserInfo@@PAU1@@@IAEPAVCAssoc@1@K@Z 00419481 f   AIManager.obj
 0001:00018481       __ehhandler$?NewAssoc@?$CMap@GGPAVCGamePageItem@NServerListManager@@AAPAV12@@@IAEPAVCAssoc@1@G@Z 00419481 f   ServerListManager.obj
 0001:00018481       __ehhandler$?NewAssoc@?$CMap@GGPAUtagGroupAIParameter@@PAU1@@@IAEPAVCAssoc@1@G@Z 00419481 f   AIManager.obj
 0001:00018481       __ehhandler$?NewAssoc@?$CMap@GGPAV?$CMap@KKPAUtagAIUserInfo@@PAU1@@@PAV1@@@IAEPAVCAssoc@1@G@Z 00419481 f   AIManager.obj
 0001:00018481       __ehhandler$?NewAssoc@?$CMap@GGPAVCGameKindItem@NServerListManager@@AAPAV12@@@IAEPAVCAssoc@1@G@Z 00419481 f   ServerListManager.obj
 0001:00018481       __ehhandler$?NewAssoc@?$CMap@GGPAVCGameNodeItem@NServerListManager@@AAPAV12@@@IAEPAVCAssoc@1@G@Z 00419481 f   ServerListManager.obj
 0001:00018481       __ehhandler$?NewAssoc@?$CMap@GGPAVCGameTypeItem@NServerListManager@@AAPAV12@@@IAEPAVCAssoc@1@G@Z 00419481 f   ServerListManager.obj
 0001:000184a0       __unwindfunclet$?SetSize@?$CWHArray@UtagGroupConfigInfo@@ABU1@@@QAEXH@Z$0 004194a0 f   AIManager.obj
 0001:000184bb       __ehhandler$?SetSize@?$CWHArray@UtagGroupConfigInfo@@ABU1@@@QAEXH@Z 004194bb f   AIManager.obj
 0001:000184e0       __unwindfunclet$?InitInstance@CAIDistributeApp@@UAEHXZ$0 004194e0 f   AIDistribute.obj
 0001:000184eb       __ehhandler$?InitInstance@CAIDistributeApp@@UAEHXZ 004194eb f   AIDistribute.obj
 0001:00018520       __unwindfunclet$??0CAIDistributeDlg@@QAE@XZ$0 00419520 f   AIDistributeDlg.obj
 0001:00018528       __unwindfunclet$??0CAIDistributeDlg@@QAE@XZ$1 00419528 f   AIDistributeDlg.obj
 0001:00018536       __unwindfunclet$??0CAIDistributeDlg@@QAE@XZ$2 00419536 f   AIDistributeDlg.obj
 0001:00018545       __ehhandler$??0CAIDistributeDlg@@QAE@XZ 00419545 f   AIDistributeDlg.obj
 0001:00018560       __ehhandler$?StartServerService@CAIDistributeDlg@@IAE_NG@Z 00419560 f   AIDistributeDlg.obj
 0001:0001857b       __unwindfunclet$?GetPlatformDBParameter@CAIDistributeDlg@@IAE_NAAUtagDataBaseParameter@@@Z$0 0041957b f   AIDistributeDlg.obj
 0001:00018587       __ehhandler$?GetPlatformDBParameter@CAIDistributeDlg@@IAE_NAAUtagDataBaseParameter@@@Z 00419587 f   AIDistributeDlg.obj
 0001:000185af       __ehhandler$?OnBnClickedStartService@CAIDistributeDlg@@IAEXXZ 004195af f   AIDistributeDlg.obj
 0001:000185ca       __ehhandler$?OnBnClickedStopService@CAIDistributeDlg@@IAEXXZ 004195ca f   AIDistributeDlg.obj
 0001:000185e5       __unwindfunclet$?OnMessageProcessCmdLine@CAIDistributeDlg@@QAEJIJ@Z$0 004195e5 f   AIDistributeDlg.obj
 0001:000185ee       __ehhandler$?OnMessageProcessCmdLine@CAIDistributeDlg@@QAEJIJ@Z 004195ee f   AIDistributeDlg.obj
 0001:00018620       __unwindfunclet$?LoadInitParameter@CInitParameter@@QAEXXZ$0 00419620 f   InitParameter.obj
 0001:0001862c       __ehhandler$?LoadInitParameter@CInitParameter@@QAEXXZ 0041962c f   InitParameter.obj
 0001:00018660       __unwindfunclet$??0CServerListManager@NServerListManager@@QAE@XZ$0 00419660 f   ServerListManager.obj
 0001:0001866b       __unwindfunclet$??0CServerListManager@NServerListManager@@QAE@XZ$1 0041966b f   ServerListManager.obj
 0001:00018676       __unwindfunclet$??0CServerListManager@NServerListManager@@QAE@XZ$2 00419676 f   ServerListManager.obj
 0001:00018681       __unwindfunclet$??0CServerListManager@NServerListManager@@QAE@XZ$3 00419681 f   ServerListManager.obj
 0001:0001868c       __unwindfunclet$??0CServerListManager@NServerListManager@@QAE@XZ$4 0041968c f   ServerListManager.obj
 0001:00018697       __unwindfunclet$??0CServerListManager@NServerListManager@@QAE@XZ$5 00419697 f   ServerListManager.obj
 0001:000186a5       __unwindfunclet$??0CServerListManager@NServerListManager@@QAE@XZ$6 004196a5 f   ServerListManager.obj
 0001:000186b3       __unwindfunclet$??0CServerListManager@NServerListManager@@QAE@XZ$7 004196b3 f   ServerListManager.obj
 0001:000186c1       __unwindfunclet$??0CServerListManager@NServerListManager@@QAE@XZ$8 004196c1 f   ServerListManager.obj
 0001:000186cf       __unwindfunclet$??0CServerListManager@NServerListManager@@QAE@XZ$9 004196cf f   ServerListManager.obj
 0001:000186dd       __ehhandler$??0CServerListManager@NServerListManager@@QAE@XZ 004196dd f   ServerListManager.obj
 0001:000186f8       __unwindfunclet$??1CServerListManager@NServerListManager@@UAE@XZ$20 004196f8 f   ServerListManager.obj
 0001:00018703       __unwindfunclet$??1CServerListManager@NServerListManager@@UAE@XZ$21 00419703 f   ServerListManager.obj
 0001:0001870e       __unwindfunclet$??1CServerListManager@NServerListManager@@UAE@XZ$22 0041970e f   ServerListManager.obj
 0001:00018719       __unwindfunclet$??1CServerListManager@NServerListManager@@UAE@XZ$23 00419719 f   ServerListManager.obj
 0001:00018724       __unwindfunclet$??1CServerListManager@NServerListManager@@UAE@XZ$24 00419724 f   ServerListManager.obj
 0001:0001872f       __unwindfunclet$??1CServerListManager@NServerListManager@@UAE@XZ$25 0041972f f   ServerListManager.obj
 0001:0001873d       __unwindfunclet$??1CServerListManager@NServerListManager@@UAE@XZ$26 0041973d f   ServerListManager.obj
 0001:0001874b       __unwindfunclet$??1CServerListManager@NServerListManager@@UAE@XZ$27 0041974b f   ServerListManager.obj
 0001:00018759       __unwindfunclet$??1CServerListManager@NServerListManager@@UAE@XZ$28 00419759 f   ServerListManager.obj
 0001:00018767       __unwindfunclet$??1CServerListManager@NServerListManager@@UAE@XZ$29 00419767 f   ServerListManager.obj
 0001:00018775       __ehhandler$??1CServerListManager@NServerListManager@@UAE@XZ 00419775 f   ServerListManager.obj
 0001:00018790       __unwindfunclet$?InsertGameType@CServerListManager@NServerListManager@@QAE_NPAUtagGameType@@@Z$2 00419790 f   ServerListManager.obj
 0001:0001879f       __ehhandler$?InsertGameType@CServerListManager@NServerListManager@@QAE_NPAUtagGameType@@@Z 0041979f f   ServerListManager.obj
 0001:000187ba       __unwindfunclet$?InsertGameKind@CServerListManager@NServerListManager@@QAE_NPAUtagGameKind@@@Z$2 004197ba f   ServerListManager.obj
 0001:000187cc       __ehhandler$?InsertGameKind@CServerListManager@NServerListManager@@QAE_NPAUtagGameKind@@@Z 004197cc f   ServerListManager.obj
 0001:000187e7       __unwindfunclet$?InsertGameNode@CServerListManager@NServerListManager@@QAE_NPAUtagGameNode@@@Z$2 004197e7 f   ServerListManager.obj
 0001:000187f6       __ehhandler$?InsertGameNode@CServerListManager@NServerListManager@@QAE_NPAUtagGameNode@@@Z 004197f6 f   ServerListManager.obj
 0001:00018811       __unwindfunclet$?InsertGamePage@CServerListManager@NServerListManager@@QAE_NPAUtagGamePage@@@Z$2 00419811 f   ServerListManager.obj
 0001:00018820       __ehhandler$?InsertGamePage@CServerListManager@NServerListManager@@QAE_NPAUtagGamePage@@@Z 00419820 f   ServerListManager.obj
 0001:0001883b       __unwindfunclet$?InsertGameServer@CServerListManager@NServerListManager@@QAE_NPAUtagGameServer@@@Z$2 0041983b f   ServerListManager.obj
 0001:0001884d       __ehhandler$?InsertGameServer@CServerListManager@NServerListManager@@QAE_NPAUtagGameServer@@@Z 0041984d f   ServerListManager.obj
 0001:00018870       __unwindfunclet$??0CServiceUnits@@QAE@XZ$0 00419870 f   ServiceUnits.obj
 0001:00018878       __unwindfunclet$??0CServiceUnits@@QAE@XZ$1 00419878 f   ServiceUnits.obj
 0001:00018886       __unwindfunclet$??0CServiceUnits@@QAE@XZ$2 00419886 f   ServiceUnits.obj
 0001:00018895       __unwindfunclet$??0CServiceUnits@@QAE@XZ$3 00419895 f   ServiceUnits.obj
 0001:000188a3       __unwindfunclet$??0CServiceUnits@@QAE@XZ$4 004198a3 f   ServiceUnits.obj
 0001:000188b1       __unwindfunclet$??0CServiceUnits@@QAE@XZ$5 004198b1 f   ServiceUnits.obj
 0001:000188cc       __unwindfunclet$??0CServiceUnits@@QAE@XZ$6 004198cc f   ServiceUnits.obj
 0001:000188e7       __unwindfunclet$??0CServiceUnits@@QAE@XZ$7 004198e7 f   ServiceUnits.obj
 0001:000188f5       __unwindfunclet$??0CServiceUnits@@QAE@XZ$8 004198f5 f   ServiceUnits.obj
 0001:00018903       __unwindfunclet$??0CServiceUnits@@QAE@XZ$9 00419903 f   ServiceUnits.obj
 0001:00018911       __unwindfunclet$??0CServiceUnits@@QAE@XZ$10 00419911 f   ServiceUnits.obj
 0001:0001891f       __unwindfunclet$??0CServiceUnits@@QAE@XZ$11 0041991f f   ServiceUnits.obj
 0001:0001892d       __unwindfunclet$??0CServiceUnits@@QAE@XZ$12 0041992d f   ServiceUnits.obj
 0001:0001893b       __unwindfunclet$??0CServiceUnits@@QAE@XZ$13 0041993b f   ServiceUnits.obj
 0001:00018949       __unwindfunclet$??0CServiceUnits@@QAE@XZ$14 00419949 f   ServiceUnits.obj
 0001:00018957       __unwindfunclet$??0CServiceUnits@@QAE@XZ$15 00419957 f   ServiceUnits.obj
 0001:00018965       __unwindfunclet$??0CServiceUnits@@QAE@XZ$16 00419965 f   ServiceUnits.obj
 0001:00018973       __unwindfunclet$??0CServiceUnits@@QAE@XZ$17 00419973 f   ServiceUnits.obj
 0001:00018981       __ehhandler$??0CServiceUnits@@QAE@XZ 00419981 f   ServiceUnits.obj
 0001:0001899c       __ehhandler$??1CServiceUnits@@UAE@XZ 0041999c f   ServiceUnits.obj
 0001:000189b7       __unwindfunclet$?PostControlRequest@CServiceUnits@@QAE_NGPAXG@Z$0 004199b7 f   ServiceUnits.obj
 0001:000189c0       __ehhandler$?PostControlRequest@CServiceUnits@@QAE_NGPAXG@Z 004199c0 f   ServiceUnits.obj
 0001:000189db       __unwindfunclet$?OnUIControlRequest@CServiceUnits@@IAEJIJ@Z$0 004199db f   ServiceUnits.obj
 0001:000189e7       __ehhandler$?OnUIControlRequest@CServiceUnits@@IAEJIJ@Z 004199e7 f   ServiceUnits.obj
 0001:00018a10       __ehhandler$?CreateInstance@?$CTempldateHelper@UIAttemperEngine@@@@QAE_NXZ 00419a10 f   ServiceUnits.obj
 0001:00018a30       __ehhandler$?CreateInstance@?$CTempldateHelper@UIDataBaseEngine@@@@QAE_NXZ 00419a30 f   ServiceUnits.obj
 0001:00018a50       __ehhandler$?CreateInstance@?$CTempldateHelper@UITCPNetworkEngine@@@@QAE_NXZ 00419a50 f   ServiceUnits.obj
 0001:00018a70       __ehhandler$?CreateInstance@?$CTempldateHelper@UITCPSocketService@@@@QAE_NXZ 00419a70 f   ServiceUnits.obj
 0001:00018a90       __ehhandler$?CreateInstance@?$CTempldateHelper@UITimerEngine@@@@QAE_NXZ 00419a90 f   ServiceUnits.obj
 0001:00018ab0       ??__FtheApp@@YAXXZ         00419ab0 f   AIDistribute.obj
 0001:00018abf       ??__F_AtlBaseModule@ATL@@YAXXZ 00419abf f   atls:atlbase.obj
 0002:00000510       ?pre_cpp_initializer@@3P6AXXZA 0041a510     MSVCRT:exe_wwinmain.obj
 0002:00000514       ?_afxInitAppState$initializer$@@3P6AXXZA 0041a514     mfcs140u:appmodul.obj
 0002:00000518       ?_AtlBaseModule$initializer$@ATL@@3P6AXXZA 0041a518     atls:atlbase.obj
 0002:0000051c       ?theApp$initializer$@@3P6AXXZA 0041a51c     AIDistribute.obj
 0002:00000528       ?pre_c_initializer@@3P6AHXZA 0041a528     MSVCRT:exe_wwinmain.obj
 0002:0000052c       ?post_pgo_initializer@@3P6AHXZA 0041a52c     MSVCRT:exe_wwinmain.obj
 0002:00000530       ?__scrt_initialize_tss_var@@3P6AHXZA 0041a530     MSVCRT:thread_safe_statics.obj
 0002:00000550       $SG95606                   0041a550     Log.obj
 0002:0000055c       $SG95774                   0041a55c     Log.obj
 0002:00000574       $SG95775                   0041a574     Log.obj
 0002:00000588       $SG95776                   0041a588     Log.obj
 0002:0000058c       $SG95779                   0041a58c     Log.obj
 0002:00000598       $SG95780                   0041a598     Log.obj
 0002:000005c0       $SG95781                   0041a5c0     Log.obj
 0002:000005e8       $SG95782                   0041a5e8     Log.obj
 0002:000005ec       $SG95811                   0041a5ec     Log.obj
 0002:00000600       $SG95810                   0041a600     Log.obj
 0002:00000650       $SG95812                   0041a650     Log.obj
 0002:000006a0       $SG95813                   0041a6a0     Log.obj
 0002:000006a8       $SG95815                   0041a6a8     Log.obj
 0002:000006ac       $SG95816                   0041a6ac     Log.obj
 0002:000006bc       $SG95817                   0041a6bc     Log.obj
 0002:000006cc       $SG95821                   0041a6cc     Log.obj
 0002:000006e0       $SG95820                   0041a6e0     Log.obj
 0002:00000730       $SG95822                   0041a730     Log.obj
 0002:00000780       $SG95823                   0041a780     Log.obj
 0002:00000788       $SG95824                   0041a788     Log.obj
 0002:00000790       $SG95826                   0041a790     Log.obj
 0002:000007e0       $SG239645                  0041a7e0     AttemperEngineSink.obj
 0002:00000858       $SG239659                  0041a858     AttemperEngineSink.obj
 0002:000008c8       $SG239675                  0041a8c8     AttemperEngineSink.obj
 0002:0000092c       $SG239706                  0041a92c     AttemperEngineSink.obj
 0002:00000938       $SG239688                  0041a938     AttemperEngineSink.obj
 0002:00000998       $SG239689                  0041a998     AttemperEngineSink.obj
 0002:000009f8       $SG239703                  0041a9f8     AttemperEngineSink.obj
 0002:00000a54       $SG239773                  0041aa54     AttemperEngineSink.obj
 0002:00000a60       $SG239704                  0041aa60     AttemperEngineSink.obj
 0002:00000af0       $SG239705                  0041aaf0     AttemperEngineSink.obj
 0002:00000b3c       $SG239815                  0041ab3c     AttemperEngineSink.obj
 0002:00000b50       $SG239737                  0041ab50     AttemperEngineSink.obj
 0002:00000bc4       $SG239911                  0041abc4     AttemperEngineSink.obj
 0002:00000bd0       $SG239738                  0041abd0     AttemperEngineSink.obj
 0002:00000c38       $SG239750                  0041ac38     AttemperEngineSink.obj
 0002:00000c94       $SG239933                  0041ac94     AttemperEngineSink.obj
 0002:00000ca0       $SG239754                  0041aca0     AttemperEngineSink.obj
 0002:00000d0c       $SG239945                  0041ad0c     AttemperEngineSink.obj
 0002:00000d18       $SG239755                  0041ad18     AttemperEngineSink.obj
 0002:00000dac       $SG239959                  0041adac     AttemperEngineSink.obj
 0002:00000db8       $SG239772                  0041adb8     AttemperEngineSink.obj
 0002:00000e18       $SG239776                  0041ae18     AttemperEngineSink.obj
 0002:00000edc       $SG239307                  0041aedc     AttemperEngineSink.obj
 0002:00000ee0       $SG239858                  0041aee0     AttemperEngineSink.obj
 0002:00000f50       $SG239860                  0041af50     AttemperEngineSink.obj
 0002:00000fd0       $SG239862                  0041afd0     AttemperEngineSink.obj
 0002:00001048       $SG239863                  0041b048     AttemperEngineSink.obj
 0002:00001134       ?IID_IUnknownEx@@3U_GUID@@B 0041b134     AttemperEngineSink.obj
 0002:00001144       $SG239336                  0041b144     AttemperEngineSink.obj
 0002:00001180       $SG239864                  0041b180     AttemperEngineSink.obj
 0002:000012bc       $SG239340                  0041b2bc     AttemperEngineSink.obj
 0002:000012c0       $SG239866                  0041b2c0     AttemperEngineSink.obj
 0002:00001334       $SG239308                  0041b334     AttemperEngineSink.obj
 0002:0000135c       $SG239347                  0041b35c     AttemperEngineSink.obj
 0002:00001398       $SG239868                  0041b398     AttemperEngineSink.obj
 0002:0000141c       $SG239341                  0041b41c     AttemperEngineSink.obj
 0002:00001444       $SG239348                  0041b444     AttemperEngineSink.obj
 0002:00001468       $SG239870                  0041b468     AttemperEngineSink.obj
 0002:000014e4       $SG239378                  0041b4e4     AttemperEngineSink.obj
 0002:000014e8       $SG239871                  0041b4e8     AttemperEngineSink.obj
 0002:00001548       $SG239873                  0041b548     AttemperEngineSink.obj
 0002:000015b8       $SG239875                  0041b5b8     AttemperEngineSink.obj
 0002:00001638       $SG239877                  0041b638     AttemperEngineSink.obj
 0002:000016b4       ?IID_IAttemperEngineSink@@3U_GUID@@B 0041b6b4     AttemperEngineSink.obj
 0002:000016c4       $SG239379                  0041b6c4     AttemperEngineSink.obj
 0002:00001700       $SG239878                  0041b700     AttemperEngineSink.obj
 0002:00001760       $SG239880                  0041b760     AttemperEngineSink.obj
 0002:000017d8       $SG239882                  0041b7d8     AttemperEngineSink.obj
 0002:00001860       $SG239884                  0041b860     AttemperEngineSink.obj
 0002:000018e0       $SG239885                  0041b8e0     AttemperEngineSink.obj
 0002:00001944       $SG239389                  0041b944     AttemperEngineSink.obj
 0002:00001948       $SG239888                  0041b948     AttemperEngineSink.obj
 0002:000019b4       $SG239390                  0041b9b4     AttemperEngineSink.obj
 0002:000019f0       $SG239890                  0041b9f0     AttemperEngineSink.obj
 0002:00001a58       $SG239891                  0041ba58     AttemperEngineSink.obj
 0002:00001af0       $SG239910                  0041baf0     AttemperEngineSink.obj
 0002:00001af8       $SG239912                  0041baf8     AttemperEngineSink.obj
 0002:00001b00       $SG239932                  0041bb00     AttemperEngineSink.obj
 0002:00001b08       $SG239934                  0041bb08     AttemperEngineSink.obj
 0002:00001b10       $SG239942                  0041bb10     AttemperEngineSink.obj
 0002:00001b18       $SG239946                  0041bb18     AttemperEngineSink.obj
 0002:00001b20       $SG239955                  0041bb20     AttemperEngineSink.obj
 0002:00001b28       $SG239960                  0041bb28     AttemperEngineSink.obj
 0002:00001b30       $SG239972                  0041bb30     AttemperEngineSink.obj
 0002:00001bf8       $SG239981                  0041bbf8     AttemperEngineSink.obj
 0002:00001c44       $SG239305                  0041bc44     AttemperEngineSink.obj
 0002:00001c80       $SG239338                  0041bc80     AttemperEngineSink.obj
 0002:00001cc8       $SG239343                  0041bcc8     AttemperEngineSink.obj
 0002:00001d10       $SG239345                  0041bd10     AttemperEngineSink.obj
 0002:00001d58       $SG239359                  0041bd58     AttemperEngineSink.obj
 0002:00001da8       $SG239370                  0041bda8     AttemperEngineSink.obj
 0002:00001e00       $SG239371                  0041be00     AttemperEngineSink.obj
 0002:00001e48       $SG239391                  0041be48     AttemperEngineSink.obj
 0002:00001e68       $SG239414                  0041be68     AttemperEngineSink.obj
 0002:00001ee8       $SG239416                  0041bee8     AttemperEngineSink.obj
 0002:00001f70       $SG239430                  0041bf70     AttemperEngineSink.obj
 0002:00001fe8       $SG239442                  0041bfe8     AttemperEngineSink.obj
 0002:00002080       $SG239496                  0041c080     AttemperEngineSink.obj
 0002:00002178       $SG239497                  0041c178     AttemperEngineSink.obj
 0002:00002258       $SG239523                  0041c258     AttemperEngineSink.obj
 0002:000022b8       $SG239525                  0041c2b8     AttemperEngineSink.obj
 0002:00002358       $SG239541                  0041c358     AttemperEngineSink.obj
 0002:000023f8       $SG239542                  0041c3f8     AttemperEngineSink.obj
 0002:00002480       $SG239559                  0041c480     AttemperEngineSink.obj
 0002:000024f0       $SG239576                  0041c4f0     AttemperEngineSink.obj
 0002:00002580       $SG239593                  0041c580     AttemperEngineSink.obj
 0002:000026d0       $SG239637                  0041c6d0     DataBaseEngineSink.obj
 0002:00002700       $SG239640                  0041c700     DataBaseEngineSink.obj
 0002:00002710       $SG239641                  0041c710     DataBaseEngineSink.obj
 0002:00002720       $SG239642                  0041c720     DataBaseEngineSink.obj
 0002:00002744       $SG239643                  0041c744     DataBaseEngineSink.obj
 0002:00002768       $SG239644                  0041c768     DataBaseEngineSink.obj
 0002:00002798       $SG239645                  0041c798     DataBaseEngineSink.obj
 0002:000027c8       $SG239646                  0041c7c8     DataBaseEngineSink.obj
 0002:000027f4       $SG239647                  0041c7f4     DataBaseEngineSink.obj
 0002:00002820       $SG239648                  0041c820     DataBaseEngineSink.obj
 0002:00002830       $SG239649                  0041c830     DataBaseEngineSink.obj
 0002:00002860       $SG239651                  0041c860     DataBaseEngineSink.obj
 0002:00002870       $SG239653                  0041c870     DataBaseEngineSink.obj
 0002:0000289c       $SG239655                  0041c89c     DataBaseEngineSink.obj
 0002:000028b0       $SG239656                  0041c8b0     DataBaseEngineSink.obj
 0002:000028c4       $SG239658                  0041c8c4     DataBaseEngineSink.obj
 0002:000028f4       $SG239660                  0041c8f4     DataBaseEngineSink.obj
 0002:00002908       $SG239661                  0041c908     DataBaseEngineSink.obj
 0002:0000291c       $SG239740                  0041c91c     DataBaseEngineSink.obj
 0002:00002940       $SG239674                  0041c940     DataBaseEngineSink.obj
 0002:000029d0       $SG239684                  0041c9d0     DataBaseEngineSink.obj
 0002:000029f0       $SG239685                  0041c9f0     DataBaseEngineSink.obj
 0002:00002a3c       $SG239705                  0041ca3c     DataBaseEngineSink.obj
 0002:00002a44       $SG239738                  0041ca44     DataBaseEngineSink.obj
 0002:00002a5c       $SG239742                  0041ca5c     DataBaseEngineSink.obj
 0002:00002a7c       $SG239744                  0041ca7c     DataBaseEngineSink.obj
 0002:00002a98       $SG239746                  0041ca98     DataBaseEngineSink.obj
 0002:00002acc       ?IID_IDataBase@@3U_GUID@@B 0041cacc     DataBaseEngineSink.obj
 0002:00002adc       ?IID_IGameDataBaseEngine@@3U_GUID@@B 0041cadc     DataBaseEngineSink.obj
 0002:00002aec       ?IID_IDataBaseEngine@@3U_GUID@@B 0041caec     DataBaseEngineSink.obj
 0002:00002afc       ?IID_IDataBaseEngineSink@@3U_GUID@@B 0041cafc     DataBaseEngineSink.obj
 0002:00002b0c       ?IID_IUnknownEx@@3U_GUID@@B 0041cb0c     DataBaseEngineSink.obj
 0002:00002b1c       $SG239314                  0041cb1c     DataBaseEngineSink.obj
 0002:00002b48       $SG239315                  0041cb48     DataBaseEngineSink.obj
 0002:00002b58       $SG239347                  0041cb58     DataBaseEngineSink.obj
 0002:00002bb4       $SG239400                  0041cbb4     DataBaseEngineSink.obj
 0002:00002bc8       $SG239358                  0041cbc8     DataBaseEngineSink.obj
 0002:00002c2c       $SG239403                  0041cc2c     DataBaseEngineSink.obj
 0002:00002c40       $SG239359                  0041cc40     DataBaseEngineSink.obj
 0002:00002c98       $SG239401                  0041cc98     DataBaseEngineSink.obj
 0002:00002cc8       $SG239402                  0041ccc8     DataBaseEngineSink.obj
 0002:00002ce0       $SG239404                  0041cce0     DataBaseEngineSink.obj
 0002:00002d08       $SG239405                  0041cd08     DataBaseEngineSink.obj
 0002:00002d30       $SG239406                  0041cd30     DataBaseEngineSink.obj
 0002:00002d60       $SG239407                  0041cd60     DataBaseEngineSink.obj
 0002:00002d94       $SG239408                  0041cd94     DataBaseEngineSink.obj
 0002:00002dc8       $SG239409                  0041cdc8     DataBaseEngineSink.obj
 0002:00002dcc       $SG239410                  0041cdcc     DataBaseEngineSink.obj
 0002:00002df0       $SG239413                  0041cdf0     DataBaseEngineSink.obj
 0002:00002ebc       $SG239414                  0041cebc     DataBaseEngineSink.obj
 0002:00002ee8       $SG239417                  0041cee8     DataBaseEngineSink.obj
 0002:00002f98       $SG239418                  0041cf98     DataBaseEngineSink.obj
 0002:00002fcc       $SG239419                  0041cfcc     DataBaseEngineSink.obj
 0002:00002ff0       $SG239421                  0041cff0     DataBaseEngineSink.obj
 0002:0000301c       $SG239422                  0041d01c     DataBaseEngineSink.obj
 0002:0000302c       $SG239458                  0041d02c     DataBaseEngineSink.obj
 0002:0000305c       $SG239461                  0041d05c     DataBaseEngineSink.obj
 0002:0000306c       $SG239462                  0041d06c     DataBaseEngineSink.obj
 0002:0000307c       $SG239463                  0041d07c     DataBaseEngineSink.obj
 0002:000030a0       $SG239464                  0041d0a0     DataBaseEngineSink.obj
 0002:000030c4       $SG239465                  0041d0c4     DataBaseEngineSink.obj
 0002:000030f4       $SG239466                  0041d0f4     DataBaseEngineSink.obj
 0002:00003124       $SG239467                  0041d124     DataBaseEngineSink.obj
 0002:00003150       $SG239468                  0041d150     DataBaseEngineSink.obj
 0002:0000317c       $SG239469                  0041d17c     DataBaseEngineSink.obj
 0002:0000318c       $SG239470                  0041d18c     DataBaseEngineSink.obj
 0002:000031bc       $SG239472                  0041d1bc     DataBaseEngineSink.obj
 0002:000031cc       $SG239474                  0041d1cc     DataBaseEngineSink.obj
 0002:000031f8       $SG239476                  0041d1f8     DataBaseEngineSink.obj
 0002:0000320c       $SG239477                  0041d20c     DataBaseEngineSink.obj
 0002:00003220       $SG239479                  0041d220     DataBaseEngineSink.obj
 0002:00003250       $SG239481                  0041d250     DataBaseEngineSink.obj
 0002:00003264       $SG239482                  0041d264     DataBaseEngineSink.obj
 0002:00003278       $SG239484                  0041d278     DataBaseEngineSink.obj
 0002:000032a8       $SG239485                  0041d2a8     DataBaseEngineSink.obj
 0002:000032b8       $SG239518                  0041d2b8     DataBaseEngineSink.obj
 0002:000032cc       $SG239519                  0041d2cc     DataBaseEngineSink.obj
 0002:000032e0       $SG239521                  0041d2e0     DataBaseEngineSink.obj
 0002:000032f8       $SG239522                  0041d2f8     DataBaseEngineSink.obj
 0002:00003364       $SG239523                  0041d364     DataBaseEngineSink.obj
 0002:00003368       $SG239524                  0041d368     DataBaseEngineSink.obj
 0002:0000338c       $SG239525                  0041d38c     DataBaseEngineSink.obj
 0002:000033b0       $SG239528                  0041d3b0     DataBaseEngineSink.obj
 0002:000033c0       $SG239529                  0041d3c0     DataBaseEngineSink.obj
 0002:000033cc       $SG239531                  0041d3cc     DataBaseEngineSink.obj
 0002:000033f8       $SG239530                  0041d3f8     DataBaseEngineSink.obj
 0002:000034c8       $SG239532                  0041d4c8     DataBaseEngineSink.obj
 0002:000034d8       $SG239550                  0041d4d8     DataBaseEngineSink.obj
 0002:000034ec       $SG239551                  0041d4ec     DataBaseEngineSink.obj
 0002:00003500       $SG239552                  0041d500     DataBaseEngineSink.obj
 0002:00003514       $SG239553                  0041d514     DataBaseEngineSink.obj
 0002:00003538       $SG239571                  0041d538     DataBaseEngineSink.obj
 0002:000035e8       $SG239572                  0041d5e8     DataBaseEngineSink.obj
 0002:000035fc       $SG239573                  0041d5fc     DataBaseEngineSink.obj
 0002:00003610       $SG239574                  0041d610     DataBaseEngineSink.obj
 0002:00003624       $SG239576                  0041d624     DataBaseEngineSink.obj
 0002:00003650       $SG239575                  0041d650     DataBaseEngineSink.obj
 0002:00003718       $SG239599                  0041d718     DataBaseEngineSink.obj
 0002:0000372c       $SG239600                  0041d72c     DataBaseEngineSink.obj
 0002:00003740       $SG239601                  0041d740     DataBaseEngineSink.obj
 0002:00003758       $SG239602                  0041d758     DataBaseEngineSink.obj
 0002:0000375c       $SG239603                  0041d75c     DataBaseEngineSink.obj
 0002:00003780       $SG239604                  0041d780     DataBaseEngineSink.obj
 0002:000037a8       $SG239607                  0041d7a8     DataBaseEngineSink.obj
 0002:00003888       ?IID_IDBCorrespondManager@@3U_GUID@@B 0041d888     DBCorrespondManager.obj
 0002:00003898       ?IID_IUnknownEx@@3U_GUID@@B 0041d898     DBCorrespondManager.obj
 0002:00003940       $SG238601                  0041d940     AIManager.obj
 0002:000039cc       $SG238602                  0041d9cc     AIManager.obj
 0002:000039d8       $SG237730                  0041d9d8     AIManager.obj
 0002:00003a8c       $SG238078                  0041da8c     AIManager.obj
 0002:00003a98       $SG237961                  0041da98     AIManager.obj
 0002:00003b54       $SG238081                  0041db54     AIManager.obj
 0002:00003b60       $SG237965                  0041db60     AIManager.obj
 0002:00003c1c       $SG238084                  0041dc1c     AIManager.obj
 0002:00003c28       $SG237966                  0041dc28     AIManager.obj
 0002:00003ce4       $SG238093                  0041dce4     AIManager.obj
 0002:00003cf0       $SG237991                  0041dcf0     AIManager.obj
 0002:00003d3c       $SG238125                  0041dd3c     AIManager.obj
 0002:00003d48       $SG237997                  0041dd48     AIManager.obj
 0002:00003da8       $SG237998                  0041dda8     AIManager.obj
 0002:00003df8       $SG237999                  0041ddf8     AIManager.obj
 0002:00003e48       $SG238014                  0041de48     AIManager.obj
 0002:00003ea8       $SG238040                  0041dea8     AIManager.obj
 0002:00003f80       $SG238042                  0041df80     AIManager.obj
 0002:00003ff8       $SG238044                  0041dff8     AIManager.obj
 0002:00004070       $SG238046                  0041e070     AIManager.obj
 0002:000040f0       $SG238049                  0041e0f0     AIManager.obj
 0002:000041a8       $SG238051                  0041e1a8     AIManager.obj
 0002:00004240       $SG238052                  0041e240     AIManager.obj
 0002:00004330       $SG238077                  0041e330     AIManager.obj
 0002:000043e8       $SG238080                  0041e3e8     AIManager.obj
 0002:00004468       $SG238083                  0041e468     AIManager.obj
 0002:000044e0       $SG238085                  0041e4e0     AIManager.obj
 0002:00004580       $SG238088                  0041e580     AIManager.obj
 0002:00004628       $SG238090                  0041e628     AIManager.obj
 0002:000046e0       $SG238092                  0041e6e0     AIManager.obj
 0002:000047a0       $SG238112                  0041e7a0     AIManager.obj
 0002:00004838       $SG238124                  0041e838     AIManager.obj
 0002:000048f0       $SG238128                  0041e8f0     AIManager.obj
 0002:00004a50       $SG238129                  0041ea50     AIManager.obj
 0002:00004a60       $SG238133                  0041ea60     AIManager.obj
 0002:00004bb8       $SG238134                  0041ebb8     AIManager.obj
 0002:00004bc8       $SG238136                  0041ebc8     AIManager.obj
 0002:00004d0c       $SG238137                  0041ed0c     AIManager.obj
 0002:00004d18       $SG238138                  0041ed18     AIManager.obj
 0002:00004e18       $SG238139                  0041ee18     AIManager.obj
 0002:00004e28       $SG238142                  0041ee28     AIManager.obj
 0002:00004eec       $SG238143                  0041eeec     AIManager.obj
 0002:00004ef8       $SG238230                  0041eef8     AIManager.obj
 0002:00004f70       $SG238232                  0041ef70     AIManager.obj
 0002:00005008       $SG238234                  0041f008     AIManager.obj
 0002:000050c0       $SG238237                  0041f0c0     AIManager.obj
 0002:00005138       $SG238240                  0041f138     AIManager.obj
 0002:000051a0       $SG238244                  0041f1a0     AIManager.obj
 0002:00005214       $SG238275                  0041f214     AIManager.obj
 0002:00005250       $SG238277                  0041f250     AIManager.obj
 0002:000052c8       $SG238279                  0041f2c8     AIManager.obj
 0002:00005350       $SG238281                  0041f350     AIManager.obj
 0002:00005390       $SG238285                  0041f390     AIManager.obj
 0002:00005410       $SG238303                  0041f410     AIManager.obj
 0002:000054a8       $SG238305                  0041f4a8     AIManager.obj
 0002:00005548       $SG238307                  0041f548     AIManager.obj
 0002:00005608       $SG238325                  0041f608     AIManager.obj
 0002:000056a0       $SG238326                  0041f6a0     AIManager.obj
 0002:00005718       $SG238328                  0041f718     AIManager.obj
 0002:00005800       $SG238330                  0041f800     AIManager.obj
 0002:000058b0       $SG238360                  0041f8b0     AIManager.obj
 0002:00005948       $SG238364                  0041f948     AIManager.obj
 0002:000059e8       $SG238365                  0041f9e8     AIManager.obj
 0002:00005a90       $SG238375                  0041fa90     AIManager.obj
 0002:00005b28       $SG238377                  0041fb28     AIManager.obj
 0002:00005bc8       $SG238387                  0041fbc8     AIManager.obj
 0002:00005c60       $SG238389                  0041fc60     AIManager.obj
 0002:00005d00       $SG238494                  0041fd00     AIManager.obj
 0002:00005d60       $SG238497                  0041fd60     AIManager.obj
 0002:00005de0       $SG238499                  0041fde0     AIManager.obj
 0002:00005e98       $SG238501                  0041fe98     AIManager.obj
 0002:00005f88       $SG238503                  0041ff88     AIManager.obj
 0002:00006050       $SG238504                  00420050     AIManager.obj
 0002:00006060       $SG238523                  00420060     AIManager.obj
 0002:000060c8       $SG238527                  004200c8     AIManager.obj
 0002:00006158       $SG238532                  00420158     AIManager.obj
 0002:000061f0       $SG238534                  004201f0     AIManager.obj
 0002:00006290       $SG238547                  00420290     AIManager.obj
 0002:00006340       $SG238550                  00420340     AIManager.obj
 0002:000063f8       $SG238576                  004203f8     AIManager.obj
 0002:00006554       ?szProduct@@3QB_WB         00420554     AIDistribute.obj
 0002:00006684       ?_messageEntries@?1??GetThisMessageMap@CAIDistributeApp@@KGPBUAFX_MSGMAP@@XZ@4QBUAFX_MSGMAP_ENTRY@@B 00420684     AIDistribute.obj
 0002:0000669c       ?messageMap@?1??GetThisMessageMap@CAIDistributeApp@@KGPBUAFX_MSGMAP@@XZ@4U3@B 0042069c     AIDistribute.obj
 0002:000066a4       ?szPlatformDB@@3QB_WB      004206a4     AIDistributeDlg.obj
 0002:000066c4       $SG252341                  004206c4     AIDistributeDlg.obj
 0002:000066f8       $SG252377                  004206f8     AIDistributeDlg.obj
 0002:0000671c       $SG252400                  0042071c     AIDistributeDlg.obj
 0002:0000672c       $SG252402                  0042072c     AIDistributeDlg.obj
 0002:00006744       $SG252404                  00420744     AIDistributeDlg.obj
 0002:00006754       $SG252425                  00420754     AIDistributeDlg.obj
 0002:0000675c       $SG252427                  0042075c     AIDistributeDlg.obj
 0002:00006764       $SG252430                  00420764     AIDistributeDlg.obj
 0002:00006774       $SG252431                  00420774     AIDistributeDlg.obj
 0002:00006778       $SG252432                  00420778     AIDistributeDlg.obj
 0002:000067b0       $SG252456                  004207b0     AIDistributeDlg.obj
 0002:000067b4       $SG252457                  004207b4     AIDistributeDlg.obj
 0002:000067b8       $SG252458                  004207b8     AIDistributeDlg.obj
 0002:000067e8       $SG252459                  004207e8     AIDistributeDlg.obj
 0002:000067f8       $SG252460                  004207f8     AIDistributeDlg.obj
 0002:00006810       $SG252461                  00420810     AIDistributeDlg.obj
 0002:00006820       $SG252462                  00420820     AIDistributeDlg.obj
 0002:00006838       $SG252463                  00420838     AIDistributeDlg.obj
 0002:00006848       $SG252464                  00420848     AIDistributeDlg.obj
 0002:00006860       $SG252465                  00420860     AIDistributeDlg.obj
 0002:00006870       $SG252466                  00420870     AIDistributeDlg.obj
 0002:00006888       $SG252467                  00420888     AIDistributeDlg.obj
 0002:00006898       $SG252468                  00420898     AIDistributeDlg.obj
 0002:000068b0       $SG252490                  004208b0     AIDistributeDlg.obj
 0002:000068b4       $SG252492                  004208b4     AIDistributeDlg.obj
 0002:00006a78       ?_messageEntries@?1??GetThisMessageMap@CAIDistributeDlg@@KGPBUAFX_MSGMAP@@XZ@4QBUAFX_MSGMAP_ENTRY@@B 00420a78     AIDistributeDlg.obj
 0002:00006af0       ?messageMap@?1??GetThisMessageMap@CAIDistributeDlg@@KGPBUAFX_MSGMAP@@XZ@4U3@B 00420af0     AIDistributeDlg.obj
 0002:00006af8       ?szPlatformDB@@3QB_WB      00420af8     InitParameter.obj
 0002:00006b18       ?szAccountsDB@@3QB_WB      00420b18     InitParameter.obj
 0002:00006b38       ?szTreasureDB@@3QB_WB      00420b38     InitParameter.obj
 0002:00006b58       $SG237023                  00420b58     InitParameter.obj
 0002:00006b5c       $SG237024                  00420b5c     InitParameter.obj
 0002:00006b60       $SG237025                  00420b60     InitParameter.obj
 0002:00006b90       $SG237026                  00420b90     InitParameter.obj
 0002:00006ba8       $SG237027                  00420ba8     InitParameter.obj
 0002:00006bc0       $SG237028                  00420bc0     InitParameter.obj
 0002:00006bd8       $SG237029                  00420bd8     InitParameter.obj
 0002:00006bf0       $SG237030                  00420bf0     InitParameter.obj
 0002:00006c08       $SG237031                  00420c08     InitParameter.obj
 0002:00006c20       $SG237032                  00420c20     InitParameter.obj
 0002:00006c40       $SG237033                  00420c40     InitParameter.obj
 0002:00006c58       $SG237034                  00420c58     InitParameter.obj
 0002:00006c70       $SG237035                  00420c70     InitParameter.obj
 0002:00006ca0       $SG237036                  00420ca0     InitParameter.obj
 0002:00006cd8       $SG237037                  00420cd8     InitParameter.obj
 0002:00006cf0       $SG237038                  00420cf0     InitParameter.obj
 0002:00006d08       $SG237039                  00420d08     InitParameter.obj
 0002:00006d1c       $SG237040                  00420d1c     InitParameter.obj
 0002:00006d38       $SG237041                  00420d38     InitParameter.obj
 0002:00006d50       $SG237042                  00420d50     InitParameter.obj
 0002:00006d68       $SG237043                  00420d68     InitParameter.obj
 0002:00006d8c       $SG237044                  00420d8c     InitParameter.obj
 0002:00006db8       $SG237045                  00420db8     InitParameter.obj
 0002:00006dd0       $SG237046                  00420dd0     InitParameter.obj
 0002:00006de0       $SG237047                  00420de0     InitParameter.obj
 0002:00006df8       $SG237048                  00420df8     InitParameter.obj
 0002:00006e08       $SG237049                  00420e08     InitParameter.obj
 0002:00006e20       $SG237050                  00420e20     InitParameter.obj
 0002:00006e30       $SG237051                  00420e30     InitParameter.obj
 0002:00006e48       $SG237052                  00420e48     InitParameter.obj
 0002:00006e58       $SG237053                  00420e58     InitParameter.obj
 0002:00006e70       $SG237054                  00420e70     InitParameter.obj
 0002:00006e80       $SG237055                  00420e80     InitParameter.obj
 0002:00006e98       $SG237056                  00420e98     InitParameter.obj
 0002:00006ea8       $SG237057                  00420ea8     InitParameter.obj
 0002:00006ec0       $SG237058                  00420ec0     InitParameter.obj
 0002:00006ed0       $SG237059                  00420ed0     InitParameter.obj
 0002:00006ee8       $SG237060                  00420ee8     InitParameter.obj
 0002:00006ef8       $SG237061                  00420ef8     InitParameter.obj
 0002:00006f10       $SG237062                  00420f10     InitParameter.obj
 0002:00006f20       $SG237063                  00420f20     InitParameter.obj
 0002:00006f38       $SG237064                  00420f38     InitParameter.obj
 0002:00006f48       $SG237065                  00420f48     InitParameter.obj
 0002:00006f60       $SG237066                  00420f60     InitParameter.obj
 0002:00006f70       $SG237067                  00420f70     InitParameter.obj
 0002:00006f88       $SG237068                  00420f88     InitParameter.obj
 0002:00006f98       $SG237069                  00420f98     InitParameter.obj
 0002:00006fb0       $SG237070                  00420fb0     InitParameter.obj
 0002:00006fc0       $SG237071                  00420fc0     InitParameter.obj
 0002:00006fd8       $SG237072                  00420fd8     InitParameter.obj
 0002:00006fe8       $SG237073                  00420fe8     InitParameter.obj
 0002:00007000       $SG237074                  00421000     InitParameter.obj
 0002:00007010       $SG237075                  00421010     InitParameter.obj
 0002:00007028       $SG237076                  00421028     InitParameter.obj
 0002:00007040       $SG237077                  00421040     InitParameter.obj
 0002:00007118       $SG239617                  00421118     ServiceUnits.obj
 0002:0000714c       $SG239643                  0042114c     ServiceUnits.obj
 0002:00007164       $SG239645                  00421164     ServiceUnits.obj
 0002:00007188       $SG239647                  00421188     ServiceUnits.obj
 0002:000071a8       $SG239648                  004211a8     ServiceUnits.obj
 0002:000071c4       $SG239650                  004211c4     ServiceUnits.obj
 0002:000071f8       $SG239676                  004211f8     ServiceUnits.obj
 0002:00007210       $SG239678                  00421210     ServiceUnits.obj
 0002:00007234       $SG239680                  00421234     ServiceUnits.obj
 0002:00007254       $SG239681                  00421254     ServiceUnits.obj
 0002:00007270       $SG239683                  00421270     ServiceUnits.obj
 0002:000072a8       ?szCompilation@@3QB_WB     004212a8     ServiceUnits.obj
 0002:000072f4       ?IID_IGameServiceManager@@3U_GUID@@B 004212f4     ServiceUnits.obj
 0002:00007304       ?IID_IGameServiceCustomTime@@3U_GUID@@B 00421304     ServiceUnits.obj
 0002:00007314       ?IID_IDBCorrespondManager@@3U_GUID@@B 00421314     ServiceUnits.obj
 0002:00007324       ?IID_IDataBaseEngine@@3U_GUID@@B 00421324     ServiceUnits.obj
 0002:00007334       ?IID_ITCPNetworkEngine@@3U_GUID@@B 00421334     ServiceUnits.obj
 0002:00007344       ?IID_ITCPSocketService@@3U_GUID@@B 00421344     ServiceUnits.obj
 0002:00007354       ?IID_ITimerEngine@@3U_GUID@@B 00421354     ServiceUnits.obj
 0002:00007364       ?IID_IMatchServiceManager@@3U_GUID@@B 00421364     ServiceUnits.obj
 0002:00007374       ?IID_IDataBaseEngineEvent@@3U_GUID@@B 00421374     ServiceUnits.obj
 0002:00007384       ?IID_IUnknownEx@@3U_GUID@@B 00421384     ServiceUnits.obj
 0002:00007394       $SG239327                  00421394     ServiceUnits.obj
 0002:000073b0       ?IID_IAttemperEngine@@3U_GUID@@B 004213b0     ServiceUnits.obj
 0002:000073c0       $SG239344                  004213c0     ServiceUnits.obj
 0002:000073d4       $SG239446                  004213d4     ServiceUnits.obj
 0002:000073ec       $SG239469                  004213ec     ServiceUnits.obj
 0002:000073fc       $SG239471                  004213fc     ServiceUnits.obj
 0002:00007408       ?IID_IPersonalRoomServiceManager@@3U_GUID@@B 00421408     ServiceUnits.obj
 0002:00007418       $SG239543                  00421418     ServiceUnits.obj
 0002:00007430       $SG239545                  00421430     ServiceUnits.obj
 0002:00007454       $SG239547                  00421454     ServiceUnits.obj
 0002:00007474       $SG239549                  00421474     ServiceUnits.obj
 0002:00007490       $SG239551                  00421490     ServiceUnits.obj
 0002:000074c4       $SG239577                  004214c4     ServiceUnits.obj
 0002:000074dc       $SG239579                  004214dc     ServiceUnits.obj
 0002:00007500       $SG239581                  00421500     ServiceUnits.obj
 0002:00007520       $SG239582                  00421520     ServiceUnits.obj
 0002:0000753c       $SG239584                  0042153c     ServiceUnits.obj
 0002:00007570       $SG239610                  00421570     ServiceUnits.obj
 0002:00007588       $SG239612                  00421588     ServiceUnits.obj
 0002:000075ac       $SG239614                  004215ac     ServiceUnits.obj
 0002:000075cc       $SG239615                  004215cc     ServiceUnits.obj
 0002:000078e0       ?_messageEntries@?1??GetThisMessageMap@CServiceUnits@@KGPBUAFX_MSGMAP@@XZ@4QBUAFX_MSGMAP_ENTRY@@B 004218e0     ServiceUnits.obj
 0002:00007910       ?messageMap@?1??GetThisMessageMap@CServiceUnits@@KGPBUAFX_MSGMAP@@XZ@4U3@B 00421910     ServiceUnits.obj
 0002:00007918       $SG65536                   00421918     Stdafx.obj
 0002:00007920       $SG65537                   00421920     Stdafx.obj
 0002:0000792c       $SG65538                   0042192c     Stdafx.obj
 0002:00007934       $SG65539                   00421934     Stdafx.obj
 0002:00007940       $SG65540                   00421940     Stdafx.obj
 0002:00007948       $SG65541                   00421948     Stdafx.obj
 0002:00007954       $SG65542                   00421954     Stdafx.obj
 0002:0000795c       $SG65543                   0042195c     Stdafx.obj
 0002:00007968       $SG65544                   00421968     Stdafx.obj
 0002:00007970       $SG65545                   00421970     Stdafx.obj
 0002:0000797c       $SG65546                   0042197c     Stdafx.obj
 0002:00007988       $SG64522                   00421988     Stdafx.obj
 0002:000079a8       $SG65547                   004219a8     Stdafx.obj
 0002:000079b0       $SG65548                   004219b0     Stdafx.obj
 0002:000079bc       $SG65549                   004219bc     Stdafx.obj
 0002:000079c4       $SG114702                  004219c4     Stdafx.obj
 0002:000079d0       $SG65550                   004219d0     Stdafx.obj
 0002:000079dc       $SG114703                  004219dc     Stdafx.obj
 0002:000079e8       $SG65551                   004219e8     Stdafx.obj
 0002:000079f0       $SG114704                  004219f0     Stdafx.obj
 0002:00007a1c       $SG65552                   00421a1c     Stdafx.obj
 0002:00007a28       $SG114705                  00421a28     Stdafx.obj
 0002:00007a3c       $SG65553                   00421a3c     Stdafx.obj
 0002:00007a44       $SG114706                  00421a44     Stdafx.obj
 0002:00007a58       $SG65554                   00421a58     Stdafx.obj
 0002:00007a64       $SG114707                  00421a64     Stdafx.obj
 0002:00007a78       $SG65555                   00421a78     Stdafx.obj
 0002:00007a80       $SG114708                  00421a80     Stdafx.obj
 0002:00007a8c       $SG65556                   00421a8c     Stdafx.obj
 0002:00007a94       $SG114709                  00421a94     Stdafx.obj
 0002:00007a9c       $SG65557                   00421a9c     Stdafx.obj
 0002:00007aac       $SG114710                  00421aac     Stdafx.obj
 0002:00007ac0       $SG65558                   00421ac0     Stdafx.obj
 0002:00007acc       $SG114711                  00421acc     Stdafx.obj
 0002:00007adc       $SG65559                   00421adc     Stdafx.obj
 0002:00007ae4       $SG114712                  00421ae4     Stdafx.obj
 0002:00007af8       $SG65560                   00421af8     Stdafx.obj
 0002:00007b04       $SG114713                  00421b04     Stdafx.obj
 0002:00007b14       $SG65561                   00421b14     Stdafx.obj
 0002:00007b1c       $SG65562                   00421b1c     Stdafx.obj
 0002:00007b28       $SG65563                   00421b28     Stdafx.obj
 0002:00007b30       $SG65564                   00421b30     Stdafx.obj
 0002:00007b3c       $SG65565                   00421b3c     Stdafx.obj
 0002:00007b48       $SG65566                   00421b48     Stdafx.obj
 0002:00007b50       $SG65567                   00421b50     Stdafx.obj
 0002:00007b5c       $SG65568                   00421b5c     Stdafx.obj
 0002:00007b68       $SG65569                   00421b68     Stdafx.obj
 0002:00007b70       $SG65570                   00421b70     Stdafx.obj
 0002:00007b7c       $SG65571                   00421b7c     Stdafx.obj
 0002:00007b84       $SG65572                   00421b84     Stdafx.obj
 0002:00007b90       $SG65573                   00421b90     Stdafx.obj
 0002:00007b98       $SG65574                   00421b98     Stdafx.obj
 0002:00007ba4       $SG65575                   00421ba4     Stdafx.obj
 0002:00007bb0       $SG65576                   00421bb0     Stdafx.obj
 0002:00007bbc       $SG65577                   00421bbc     Stdafx.obj
 0002:00007bc8       $SG65578                   00421bc8     Stdafx.obj
 0002:00007bd0       $SG65579                   00421bd0     Stdafx.obj
 0002:00007bdc       $SG65580                   00421bdc     Stdafx.obj
 0002:00007be8       $SG65581                   00421be8     Stdafx.obj
 0002:00007bf4       $SG65582                   00421bf4     Stdafx.obj
 0002:00007bfc       $SG65583                   00421bfc     Stdafx.obj
 0002:00007c08       $SG65584                   00421c08     Stdafx.obj
 0002:00007c10       $SG65585                   00421c10     Stdafx.obj
 0002:00007c1c       $SG65586                   00421c1c     Stdafx.obj
 0002:00007c24       $SG65587                   00421c24     Stdafx.obj
 0002:00007c30       $SG65588                   00421c30     Stdafx.obj
 0002:00007c38       $SG65589                   00421c38     Stdafx.obj
 0002:00007c44       $SG65590                   00421c44     Stdafx.obj
 0002:00007c50       $SG65591                   00421c50     Stdafx.obj
 0002:00007c60       $SG65592                   00421c60     Stdafx.obj
 0002:00007c70       $SG65593                   00421c70     Stdafx.obj
 0002:00007c80       $SG64569                   00421c80     Stdafx.obj
 0002:00007ca0       $SG65594                   00421ca0     Stdafx.obj
 0002:00007ca8       $SG65595                   00421ca8     Stdafx.obj
 0002:00007cb4       $SG65596                   00421cb4     Stdafx.obj
 0002:00007cbc       $SG65597                   00421cbc     Stdafx.obj
 0002:00007cc8       $SG65598                   00421cc8     Stdafx.obj
 0002:00007cd0       $SG65599                   00421cd0     Stdafx.obj
 0002:00007cdc       $SG65600                   00421cdc     Stdafx.obj
 0002:00007ce8       $SG65601                   00421ce8     Stdafx.obj
 0002:00007cf4       $SG65602                   00421cf4     Stdafx.obj
 0002:00007d00       $SG65603                   00421d00     Stdafx.obj
 0002:00007d08       $SG65604                   00421d08     Stdafx.obj
 0002:00007d14       $SG65605                   00421d14     Stdafx.obj
 0002:00007d1c       $SG65606                   00421d1c     Stdafx.obj
 0002:00007d28       $SG65607                   00421d28     Stdafx.obj
 0002:00007d38       $SG65608                   00421d38     Stdafx.obj
 0002:00007d48       $SG65609                   00421d48     Stdafx.obj
 0002:00007d58       $SG65610                   00421d58     Stdafx.obj
 0002:00007d68       $SG65611                   00421d68     Stdafx.obj
 0002:00007d78       $SG65612                   00421d78     Stdafx.obj
 0002:00007d88       $SG65613                   00421d88     Stdafx.obj
 0002:00007d90       $SG65614                   00421d90     Stdafx.obj
 0002:00007d9c       $SG65615                   00421d9c     Stdafx.obj
 0002:00007da4       $SG65616                   00421da4     Stdafx.obj
 0002:00007dbc       $SG65617                   00421dbc     Stdafx.obj
 0002:00007dd4       $SG65618                   00421dd4     Stdafx.obj
 0002:00007dec       $SG65619                   00421dec     Stdafx.obj
 0002:00007e04       $SG65620                   00421e04     Stdafx.obj
 0002:00007e0c       $SG65621                   00421e0c     Stdafx.obj
 0002:00007e18       $SG65622                   00421e18     Stdafx.obj
 0002:00007e24       $SG65623                   00421e24     Stdafx.obj
 0002:00007e2c       $SG65624                   00421e2c     Stdafx.obj
 0002:00007e38       $SG65625                   00421e38     Stdafx.obj
 0002:00007e40       $SG65626                   00421e40     Stdafx.obj
 0002:00007e50       $SG65627                   00421e50     Stdafx.obj
 0002:00007e58       $SG65628                   00421e58     Stdafx.obj
 0002:00007e64       $SG65629                   00421e64     Stdafx.obj
 0002:00007e6c       $SG65630                   00421e6c     Stdafx.obj
 0002:00007e78       $SG65631                   00421e78     Stdafx.obj
 0002:00007e80       $SG65632                   00421e80     Stdafx.obj
 0002:00007e8c       $SG65633                   00421e8c     Stdafx.obj
 0002:00007e98       $SG65634                   00421e98     Stdafx.obj
 0002:00007ea0       $SG65635                   00421ea0     Stdafx.obj
 0002:00007eac       $SG65636                   00421eac     Stdafx.obj
 0002:00007eb4       $SG65637                   00421eb4     Stdafx.obj
 0002:00007ec0       $SG65638                   00421ec0     Stdafx.obj
 0002:00007ec8       $SG65639                   00421ec8     Stdafx.obj
 0002:00007ed4       $SG65640                   00421ed4     Stdafx.obj
 0002:00007edc       $SG64616                   00421edc     Stdafx.obj
 0002:00007ef4       $SG65641                   00421ef4     Stdafx.obj
 0002:00007f00       $SG65642                   00421f00     Stdafx.obj
 0002:00007f08       $SG65643                   00421f08     Stdafx.obj
 0002:00007f20       $SG65644                   00421f20     Stdafx.obj
 0002:00007f38       $SG65645                   00421f38     Stdafx.obj
 0002:00007f40       $SG64621                   00421f40     Stdafx.obj
 0002:00007f5c       $SG65646                   00421f5c     Stdafx.obj
 0002:00007f68       $SG65647                   00421f68     Stdafx.obj
 0002:00007f74       $SG65648                   00421f74     Stdafx.obj
 0002:00007f84       $SG65649                   00421f84     Stdafx.obj
 0002:00007f94       $SG65650                   00421f94     Stdafx.obj
 0002:00007fa0       $SG65651                   00421fa0     Stdafx.obj
 0002:00007fac       $SG65652                   00421fac     Stdafx.obj
 0002:00007fb8       $SG65653                   00421fb8     Stdafx.obj
 0002:00007fc4       $SG65654                   00421fc4     Stdafx.obj
 0002:00007fd0       $SG65655                   00421fd0     Stdafx.obj
 0002:00007fdc       $SG64668                   00421fdc     Stdafx.obj
 0002:00008000       ?IID_IAndroidUserItemSink@@3U_GUID@@B 00422000     Stdafx.obj
 0002:00008010       $SG64715                   00422010     Stdafx.obj
 0002:0000802c       $SG64762                   0042202c     Stdafx.obj
 0002:00008048       ?IID_ITraceServiceManager@@3U_GUID@@B 00422048     Stdafx.obj
 0002:00008058       $SG63746                   00422058     Stdafx.obj
 0002:00008078       ?IID_IGameServiceManager@@3U_GUID@@B 00422078     Stdafx.obj
 0002:00008088       ?IID_IAsynchronismEngine@@3U_GUID@@B 00422088     Stdafx.obj
 0002:00008098       $SG63817                   00422098     Stdafx.obj
 0002:000080b0       ?IID_IDataBase@@3U_GUID@@B 004220b0     Stdafx.obj
 0002:000080c0       $SG114013                  004220c0     Stdafx.obj
 0002:000080c4       $SG114015                  004220c4     Stdafx.obj
 0002:000080c8       $SG114017                  004220c8     Stdafx.obj
 0002:000080cc       $SG114019                  004220cc     Stdafx.obj
 0002:000080d0       $SG114021                  004220d0     Stdafx.obj
 0002:000080d8       $SG114023                  004220d8     Stdafx.obj
 0002:000080f0       $SG114025                  004220f0     Stdafx.obj
 0002:00008104       $SG114027                  00422104     Stdafx.obj
 0002:00008114       $SG63864                   00422114     Stdafx.obj
 0002:0000812c       ?IID_IDataBaseEngine@@3U_GUID@@B 0042212c     Stdafx.obj
 0002:0000813c       $SG63911                   0042213c     Stdafx.obj
 0002:00008160       ?IID_IUDPNetworkEngine@@3U_GUID@@B 00422160     Stdafx.obj
 0002:00008170       $SG63958                   00422170     Stdafx.obj
 0002:00008194       $SG86503                   00422194     Stdafx.obj
 0002:000081b8       $SG86505                   004221b8     Stdafx.obj
 0002:000081e4       ?IID_ITCPNetworkEngine@@3U_GUID@@B 004221e4     Stdafx.obj
 0002:000081f4       $SG64005                   004221f4     Stdafx.obj
 0002:00008218       ?IID_ITCPSocketService@@3U_GUID@@B 00422218     Stdafx.obj
 0002:00008228       $SG64052                   00422228     Stdafx.obj
 0002:0000824c       ?IID_IWEBSocketService@@3U_GUID@@B 0042224c     Stdafx.obj
 0002:0000825c       $SG195153                  0042225c     Stdafx.obj
 0002:00008268       ?IID_ITimerEngine@@3U_GUID@@B 00422268     Stdafx.obj
 0002:00008278       $SG64099                   00422278     Stdafx.obj
 0002:00008298       ?IID_IMatchServiceManager@@3U_GUID@@B 00422298     Stdafx.obj
 0002:000082a8       $SG64146                   004222a8     Stdafx.obj
 0002:000082cc       $SG65199                   004222cc     Stdafx.obj
 0002:000082d4       $SG65200                   004222d4     Stdafx.obj
 0002:000082dc       $SG65201                   004222dc     Stdafx.obj
 0002:000082e4       $SG65202                   004222e4     Stdafx.obj
 0002:000082f4       $SG65203                   004222f4     Stdafx.obj
 0002:000082fc       $SG65204                   004222fc     Stdafx.obj
 0002:00008304       $SG65205                   00422304     Stdafx.obj
 0002:0000830c       $SG65206                   0042230c     Stdafx.obj
 0002:00008314       $SG65207                   00422314     Stdafx.obj
 0002:0000831c       $SG65208                   0042231c     Stdafx.obj
 0002:00008324       $SG65209                   00422324     Stdafx.obj
 0002:0000832c       $SG65210                   0042232c     Stdafx.obj
 0002:00008334       $SG65211                   00422334     Stdafx.obj
 0002:0000833c       $SG65212                   0042233c     Stdafx.obj
 0002:00008344       $SG65213                   00422344     Stdafx.obj
 0002:0000834c       $SG65214                   0042234c     Stdafx.obj
 0002:00008354       $SG65215                   00422354     Stdafx.obj
 0002:0000835c       $SG65216                   0042235c     Stdafx.obj
 0002:00008364       $SG65217                   00422364     Stdafx.obj
 0002:0000836c       $SG64193                   0042236c     Stdafx.obj
 0002:00008394       $SG65218                   00422394     Stdafx.obj
 0002:0000839c       $SG65219                   0042239c     Stdafx.obj
 0002:000083a4       $SG65220                   004223a4     Stdafx.obj
 0002:000083ac       $SG65221                   004223ac     Stdafx.obj
 0002:000083b4       $SG65222                   004223b4     Stdafx.obj
 0002:000083bc       $SG65223                   004223bc     Stdafx.obj
 0002:000083c4       $SG65224                   004223c4     Stdafx.obj
 0002:000083cc       $SG65225                   004223cc     Stdafx.obj
 0002:000083d4       $SG65226                   004223d4     Stdafx.obj
 0002:000083dc       $SG65227                   004223dc     Stdafx.obj
 0002:000083e4       $SG65228                   004223e4     Stdafx.obj
 0002:000083ec       $SG65229                   004223ec     Stdafx.obj
 0002:000083f4       $SG65230                   004223f4     Stdafx.obj
 0002:000083fc       $SG65231                   004223fc     Stdafx.obj
 0002:00008404       $SG65232                   00422404     Stdafx.obj
 0002:0000840c       $SG65233                   0042240c     Stdafx.obj
 0002:00008414       $SG65234                   00422414     Stdafx.obj
 0002:0000841c       $SG65235                   0042241c     Stdafx.obj
 0002:00008424       $SG65236                   00422424     Stdafx.obj
 0002:0000842c       $SG65237                   0042242c     Stdafx.obj
 0002:00008434       $SG65238                   00422434     Stdafx.obj
 0002:0000843c       $SG65239                   0042243c     Stdafx.obj
 0002:00008444       $SG65240                   00422444     Stdafx.obj
 0002:0000844c       $SG65241                   0042244c     Stdafx.obj
 0002:00008454       $SG65242                   00422454     Stdafx.obj
 0002:0000845c       $SG65243                   0042245c     Stdafx.obj
 0002:00008464       $SG65244                   00422464     Stdafx.obj
 0002:0000846c       $SG65245                   0042246c     Stdafx.obj
 0002:00008474       $SG65246                   00422474     Stdafx.obj
 0002:0000847c       $SG65247                   0042247c     Stdafx.obj
 0002:00008484       $SG65248                   00422484     Stdafx.obj
 0002:0000848c       $SG65249                   0042248c     Stdafx.obj
 0002:00008494       $SG65250                   00422494     Stdafx.obj
 0002:0000849c       $SG65251                   0042249c     Stdafx.obj
 0002:000084a4       $SG65252                   004224a4     Stdafx.obj
 0002:000084ac       $SG65253                   004224ac     Stdafx.obj
 0002:000084b4       $SG65254                   004224b4     Stdafx.obj
 0002:000084bc       $SG65255                   004224bc     Stdafx.obj
 0002:000084c4       $SG65256                   004224c4     Stdafx.obj
 0002:000084cc       $SG65257                   004224cc     Stdafx.obj
 0002:000084d4       $SG65258                   004224d4     Stdafx.obj
 0002:000084dc       $SG65259                   004224dc     Stdafx.obj
 0002:000084e4       $SG65260                   004224e4     Stdafx.obj
 0002:000084ec       $SG65261                   004224ec     Stdafx.obj
 0002:000084f4       $SG65262                   004224f4     Stdafx.obj
 0002:000084fc       $SG65263                   004224fc     Stdafx.obj
 0002:00008504       ?IID_IAttemperEngine@@3U_GUID@@B 00422504     Stdafx.obj
 0002:00008514       $SG65264                   00422514     Stdafx.obj
 0002:0000851c       $SG64240                   0042251c     Stdafx.obj
 0002:0000853c       $SG65265                   0042253c     Stdafx.obj
 0002:00008540       $SG65266                   00422540     Stdafx.obj
 0002:0000854c       $SG65267                   0042254c     Stdafx.obj
 0002:00008558       $SG65268                   00422558     Stdafx.obj
 0002:00008564       $SG65269                   00422564     Stdafx.obj
 0002:00008570       $SG65270                   00422570     Stdafx.obj
 0002:0000857c       $SG65271                   0042257c     Stdafx.obj
 0002:00008588       $SG65272                   00422588     Stdafx.obj
 0002:00008594       $SG65273                   00422594     Stdafx.obj
 0002:000085a0       $SG65274                   004225a0     Stdafx.obj
 0002:000085ac       $SG65275                   004225ac     Stdafx.obj
 0002:000085b8       $SG65276                   004225b8     Stdafx.obj
 0002:000085c4       $SG65277                   004225c4     Stdafx.obj
 0002:000085d0       $SG65278                   004225d0     Stdafx.obj
 0002:000085dc       $SG65279                   004225dc     Stdafx.obj
 0002:000085e8       $SG65280                   004225e8     Stdafx.obj
 0002:000085f4       $SG65281                   004225f4     Stdafx.obj
 0002:00008600       $SG65282                   00422600     Stdafx.obj
 0002:0000860c       $SG65283                   0042260c     Stdafx.obj
 0002:00008618       $SG65284                   00422618     Stdafx.obj
 0002:00008624       $SG65285                   00422624     Stdafx.obj
 0002:00008630       $SG65286                   00422630     Stdafx.obj
 0002:0000863c       $SG65287                   0042263c     Stdafx.obj
 0002:00008648       $SG65288                   00422648     Stdafx.obj
 0002:00008654       $SG65289                   00422654     Stdafx.obj
 0002:00008660       $SG65290                   00422660     Stdafx.obj
 0002:0000866c       $SG65291                   0042266c     Stdafx.obj
 0002:00008678       $SG65292                   00422678     Stdafx.obj
 0002:00008684       $SG65293                   00422684     Stdafx.obj
 0002:00008690       $SG65294                   00422690     Stdafx.obj
 0002:0000869c       $SG65295                   0042269c     Stdafx.obj
 0002:000086a8       $SG65296                   004226a8     Stdafx.obj
 0002:000086b4       $SG65297                   004226b4     Stdafx.obj
 0002:000086c0       $SG65298                   004226c0     Stdafx.obj
 0002:000086cc       $SG65299                   004226cc     Stdafx.obj
 0002:000086d8       $SG65300                   004226d8     Stdafx.obj
 0002:000086e4       $SG65301                   004226e4     Stdafx.obj
 0002:000086f0       $SG65302                   004226f0     Stdafx.obj
 0002:000086fc       $SG65303                   004226fc     Stdafx.obj
 0002:00008708       $SG65304                   00422708     Stdafx.obj
 0002:00008714       $SG65305                   00422714     Stdafx.obj
 0002:00008720       $SG65306                   00422720     Stdafx.obj
 0002:00008738       $SG65307                   00422738     Stdafx.obj
 0002:00008744       $SG65308                   00422744     Stdafx.obj
 0002:00008750       $SG65309                   00422750     Stdafx.obj
 0002:0000875c       $SG65310                   0042275c     Stdafx.obj
 0002:00008768       $SG65311                   00422768     Stdafx.obj
 0002:00008774       $SG64287                   00422774     Stdafx.obj
 0002:00008794       $SG65312                   00422794     Stdafx.obj
 0002:000087a0       $SG65313                   004227a0     Stdafx.obj
 0002:000087ac       $SG65314                   004227ac     Stdafx.obj
 0002:000087b8       $SG65315                   004227b8     Stdafx.obj
 0002:000087c4       $SG65316                   004227c4     Stdafx.obj
 0002:000087d0       $SG65317                   004227d0     Stdafx.obj
 0002:000087dc       $SG65318                   004227dc     Stdafx.obj
 0002:000087e8       $SG65319                   004227e8     Stdafx.obj
 0002:000087f4       $SG65320                   004227f4     Stdafx.obj
 0002:00008800       $SG65321                   00422800     Stdafx.obj
 0002:0000880c       $SG65322                   0042280c     Stdafx.obj
 0002:00008824       $SG65323                   00422824     Stdafx.obj
 0002:00008830       $SG65324                   00422830     Stdafx.obj
 0002:0000883c       $SG65325                   0042283c     Stdafx.obj
 0002:00008848       $SG65326                   00422848     Stdafx.obj
 0002:00008854       $SG65327                   00422854     Stdafx.obj
 0002:00008860       $SG65328                   00422860     Stdafx.obj
 0002:0000886c       $SG65329                   0042286c     Stdafx.obj
 0002:00008878       $SG65330                   00422878     Stdafx.obj
 0002:00008884       $SG65331                   00422884     Stdafx.obj
 0002:00008890       $SG65332                   00422890     Stdafx.obj
 0002:0000889c       $SG65333                   0042289c     Stdafx.obj
 0002:000088a8       $SG65334                   004228a8     Stdafx.obj
 0002:000088b4       $SG65335                   004228b4     Stdafx.obj
 0002:000088c0       $SG65336                   004228c0     Stdafx.obj
 0002:000088d0       $SG65337                   004228d0     Stdafx.obj
 0002:000088e0       $SG65338                   004228e0     Stdafx.obj
 0002:000088f0       $SG65339                   004228f0     Stdafx.obj
 0002:00008900       $SG65340                   00422900     Stdafx.obj
 0002:0000890c       $SG65341                   0042290c     Stdafx.obj
 0002:00008918       $SG65342                   00422918     Stdafx.obj
 0002:00008924       $SG65343                   00422924     Stdafx.obj
 0002:00008930       $SG65344                   00422930     Stdafx.obj
 0002:0000893c       $SG65345                   0042293c     Stdafx.obj
 0002:00008948       $SG65346                   00422948     Stdafx.obj
 0002:00008954       $SG65347                   00422954     Stdafx.obj
 0002:00008960       $SG65348                   00422960     Stdafx.obj
 0002:0000896c       $SG65349                   0042296c     Stdafx.obj
 0002:00008978       $SG65350                   00422978     Stdafx.obj
 0002:00008984       $SG65351                   00422984     Stdafx.obj
 0002:00008990       $SG65352                   00422990     Stdafx.obj
 0002:000089a8       $SG65353                   004229a8     Stdafx.obj
 0002:000089b4       $SG65354                   004229b4     Stdafx.obj
 0002:000089cc       $SG65355                   004229cc     Stdafx.obj
 0002:000089d8       $SG65356                   004229d8     Stdafx.obj
 0002:000089e4       $SG65357                   004229e4     Stdafx.obj
 0002:000089fc       $SG65358                   004229fc     Stdafx.obj
 0002:00008a0c       $SG64334                   00422a0c     Stdafx.obj
 0002:00008a34       $SG65359                   00422a34     Stdafx.obj
 0002:00008a40       $SG65360                   00422a40     Stdafx.obj
 0002:00008a4c       $SG65361                   00422a4c     Stdafx.obj
 0002:00008a58       $SG65362                   00422a58     Stdafx.obj
 0002:00008a64       $SG65363                   00422a64     Stdafx.obj
 0002:00008a70       $SG65364                   00422a70     Stdafx.obj
 0002:00008a7c       $SG65365                   00422a7c     Stdafx.obj
 0002:00008a94       $SG65366                   00422a94     Stdafx.obj
 0002:00008aa0       $SG65367                   00422aa0     Stdafx.obj
 0002:00008ab0       $SG65368                   00422ab0     Stdafx.obj
 0002:00008abc       $SG65369                   00422abc     Stdafx.obj
 0002:00008ac8       $SG65370                   00422ac8     Stdafx.obj
 0002:00008ad4       $SG65371                   00422ad4     Stdafx.obj
 0002:00008ae0       $SG65372                   00422ae0     Stdafx.obj
 0002:00008aec       $SG65373                   00422aec     Stdafx.obj
 0002:00008af8       $SG65374                   00422af8     Stdafx.obj
 0002:00008b04       $SG65375                   00422b04     Stdafx.obj
 0002:00008b14       $SG65376                   00422b14     Stdafx.obj
 0002:00008b20       $SG65377                   00422b20     Stdafx.obj
 0002:00008b2c       $SG65378                   00422b2c     Stdafx.obj
 0002:00008b38       $SG65379                   00422b38     Stdafx.obj
 0002:00008b44       $SG65380                   00422b44     Stdafx.obj
 0002:00008b50       $SG65381                   00422b50     Stdafx.obj
 0002:00008b5c       $SG65382                   00422b5c     Stdafx.obj
 0002:00008b74       $SG65383                   00422b74     Stdafx.obj
 0002:00008b84       $SG65384                   00422b84     Stdafx.obj
 0002:00008b90       $SG65385                   00422b90     Stdafx.obj
 0002:00008b9c       $SG65386                   00422b9c     Stdafx.obj
 0002:00008ba8       $SG65387                   00422ba8     Stdafx.obj
 0002:00008bb4       $SG65388                   00422bb4     Stdafx.obj
 0002:00008bcc       $SG65389                   00422bcc     Stdafx.obj
 0002:00008bdc       $SG65390                   00422bdc     Stdafx.obj
 0002:00008be8       $SG65391                   00422be8     Stdafx.obj
 0002:00008bf4       $SG65392                   00422bf4     Stdafx.obj
 0002:00008c00       $SG65393                   00422c00     Stdafx.obj
 0002:00008c18       $SG65394                   00422c18     Stdafx.obj
 0002:00008c28       $SG65395                   00422c28     Stdafx.obj
 0002:00008c34       $SG65396                   00422c34     Stdafx.obj
 0002:00008c40       $SG65397                   00422c40     Stdafx.obj
 0002:00008c4c       $SG65398                   00422c4c     Stdafx.obj
 0002:00008c5c       $SG65399                   00422c5c     Stdafx.obj
 0002:00008c68       $SG65400                   00422c68     Stdafx.obj
 0002:00008c74       $SG65401                   00422c74     Stdafx.obj
 0002:00008c80       $SG65402                   00422c80     Stdafx.obj
 0002:00008c90       $SG65403                   00422c90     Stdafx.obj
 0002:00008c9c       $SG65404                   00422c9c     Stdafx.obj
 0002:00008ca8       $SG65405                   00422ca8     Stdafx.obj
 0002:00008cb4       $SG64381                   00422cb4     Stdafx.obj
 0002:00008cd8       $SG65406                   00422cd8     Stdafx.obj
 0002:00008ce4       $SG65407                   00422ce4     Stdafx.obj
 0002:00008cf0       $SG65408                   00422cf0     Stdafx.obj
 0002:00008cfc       $SG65409                   00422cfc     Stdafx.obj
 0002:00008d08       $SG65410                   00422d08     Stdafx.obj
 0002:00008d14       $SG65411                   00422d14     Stdafx.obj
 0002:00008d20       $SG65412                   00422d20     Stdafx.obj
 0002:00008d2c       $SG65413                   00422d2c     Stdafx.obj
 0002:00008d38       $SG65414                   00422d38     Stdafx.obj
 0002:00008d44       $SG65415                   00422d44     Stdafx.obj
 0002:00008d50       $SG65416                   00422d50     Stdafx.obj
 0002:00008d5c       $SG65417                   00422d5c     Stdafx.obj
 0002:00008d68       $SG65418                   00422d68     Stdafx.obj
 0002:00008d74       $SG65419                   00422d74     Stdafx.obj
 0002:00008d80       $SG65420                   00422d80     Stdafx.obj
 0002:00008d8c       ?IID_IPersonalRoomServiceManager@@3U_GUID@@B 00422d8c     Stdafx.obj
 0002:00008d9c       $SG65421                   00422d9c     Stdafx.obj
 0002:00008da8       $SG65422                   00422da8     Stdafx.obj
 0002:00008db4       $SG65423                   00422db4     Stdafx.obj
 0002:00008dc0       $SG65424                   00422dc0     Stdafx.obj
 0002:00008dcc       $SG65425                   00422dcc     Stdafx.obj
 0002:00008ddc       $SG65426                   00422ddc     Stdafx.obj
 0002:00008de4       $SG65428                   00422de4     Stdafx.obj
 0002:00008de8       $SG65429                   00422de8     Stdafx.obj
 0002:00008df0       $SG65430                   00422df0     Stdafx.obj
 0002:00008dfc       $SG65431                   00422dfc     Stdafx.obj
 0002:00008e04       $SG65432                   00422e04     Stdafx.obj
 0002:00008e10       $SG65433                   00422e10     Stdafx.obj
 0002:00008e1c       $SG65434                   00422e1c     Stdafx.obj
 0002:00008e28       $SG65435                   00422e28     Stdafx.obj
 0002:00008e34       $SG65436                   00422e34     Stdafx.obj
 0002:00008e40       $SG65437                   00422e40     Stdafx.obj
 0002:00008e4c       $SG65438                   00422e4c     Stdafx.obj
 0002:00008e58       $SG65439                   00422e58     Stdafx.obj
 0002:00008e64       $SG65440                   00422e64     Stdafx.obj
 0002:00008e70       $SG65441                   00422e70     Stdafx.obj
 0002:00008e7c       $SG65442                   00422e7c     Stdafx.obj
 0002:00008e88       $SG65443                   00422e88     Stdafx.obj
 0002:00008e94       $SG65444                   00422e94     Stdafx.obj
 0002:00008ea0       $SG65445                   00422ea0     Stdafx.obj
 0002:00008eac       $SG65446                   00422eac     Stdafx.obj
 0002:00008eb8       $SG65447                   00422eb8     Stdafx.obj
 0002:00008ec4       $SG65448                   00422ec4     Stdafx.obj
 0002:00008ecc       $SG65449                   00422ecc     Stdafx.obj
 0002:00008ee4       $SG65450                   00422ee4     Stdafx.obj
 0002:00008efc       $SG65451                   00422efc     Stdafx.obj
 0002:00008f04       $SG65452                   00422f04     Stdafx.obj
 0002:00008f10       $SG64428                   00422f10     Stdafx.obj
 0002:00008f2c       $SG65453                   00422f2c     Stdafx.obj
 0002:00008f34       $SG65454                   00422f34     Stdafx.obj
 0002:00008f40       $SG65455                   00422f40     Stdafx.obj
 0002:00008f4c       $SG65456                   00422f4c     Stdafx.obj
 0002:00008f64       $SG65457                   00422f64     Stdafx.obj
 0002:00008f6c       $SG65458                   00422f6c     Stdafx.obj
 0002:00008f78       $SG65459                   00422f78     Stdafx.obj
 0002:00008f80       $SG65460                   00422f80     Stdafx.obj
 0002:00008f8c       $SG65461                   00422f8c     Stdafx.obj
 0002:00008f98       $SG65462                   00422f98     Stdafx.obj
 0002:00008fa0       $SG65463                   00422fa0     Stdafx.obj
 0002:00008fac       $SG65464                   00422fac     Stdafx.obj
 0002:00008fb4       $SG65465                   00422fb4     Stdafx.obj
 0002:00008fc0       $SG65466                   00422fc0     Stdafx.obj
 0002:00008fcc       $SG65467                   00422fcc     Stdafx.obj
 0002:00008fd8       $SG65468                   00422fd8     Stdafx.obj
 0002:00008fe4       $SG65469                   00422fe4     Stdafx.obj
 0002:00008ff0       $SG65470                   00422ff0     Stdafx.obj
 0002:00008ff8       $SG65471                   00422ff8     Stdafx.obj
 0002:00009008       $SG65472                   00423008     Stdafx.obj
 0002:00009010       $SG65473                   00423010     Stdafx.obj
 0002:0000901c       $SG65474                   0042301c     Stdafx.obj
 0002:00009024       $SG65475                   00423024     Stdafx.obj
 0002:00009030       $SG65476                   00423030     Stdafx.obj
 0002:0000903c       $SG65477                   0042303c     Stdafx.obj
 0002:00009048       $SG65478                   00423048     Stdafx.obj
 0002:00009054       $SG65479                   00423054     Stdafx.obj
 0002:00009060       $SG65480                   00423060     Stdafx.obj
 0002:0000906c       $SG65481                   0042306c     Stdafx.obj
 0002:00009078       $SG65482                   00423078     Stdafx.obj
 0002:00009084       $SG65483                   00423084     Stdafx.obj
 0002:00009090       $SG65484                   00423090     Stdafx.obj
 0002:0000909c       $SG65485                   0042309c     Stdafx.obj
 0002:000090a8       $SG65486                   004230a8     Stdafx.obj
 0002:000090b4       $SG65487                   004230b4     Stdafx.obj
 0002:000090c0       $SG65488                   004230c0     Stdafx.obj
 0002:000090c8       $SG65489                   004230c8     Stdafx.obj
 0002:000090d4       $SG65490                   004230d4     Stdafx.obj
 0002:000090e0       $SG65491                   004230e0     Stdafx.obj
 0002:000090ec       $SG65492                   004230ec     Stdafx.obj
 0002:000090f8       $SG65493                   004230f8     Stdafx.obj
 0002:00009104       $SG65494                   00423104     Stdafx.obj
 0002:00009110       $SG65495                   00423110     Stdafx.obj
 0002:0000911c       $SG65496                   0042311c     Stdafx.obj
 0002:00009128       $SG65497                   00423128     Stdafx.obj
 0002:00009134       $SG65498                   00423134     Stdafx.obj
 0002:00009140       $SG65499                   00423140     Stdafx.obj
 0002:0000914c       $SG64475                   0042314c     Stdafx.obj
 0002:00009168       $SG65500                   00423168     Stdafx.obj
 0002:00009174       $SG65501                   00423174     Stdafx.obj
 0002:00009180       $SG65502                   00423180     Stdafx.obj
 0002:0000918c       $SG65503                   0042318c     Stdafx.obj
 0002:00009198       $SG65504                   00423198     Stdafx.obj
 0002:000091a4       $SG65505                   004231a4     Stdafx.obj
 0002:000091b0       $SG65506                   004231b0     Stdafx.obj
 0002:000091bc       $SG65507                   004231bc     Stdafx.obj
 0002:000091c8       $SG65508                   004231c8     Stdafx.obj
 0002:000091d0       $SG65509                   004231d0     Stdafx.obj
 0002:000091dc       $SG65510                   004231dc     Stdafx.obj
 0002:000091e4       $SG65511                   004231e4     Stdafx.obj
 0002:000091f0       $SG65512                   004231f0     Stdafx.obj
 0002:000091f8       $SG65513                   004231f8     Stdafx.obj
 0002:00009204       $SG65514                   00423204     Stdafx.obj
 0002:0000920c       $SG65515                   0042320c     Stdafx.obj
 0002:00009218       $SG65516                   00423218     Stdafx.obj
 0002:00009220       $SG65517                   00423220     Stdafx.obj
 0002:0000922c       $SG65518                   0042322c     Stdafx.obj
 0002:00009234       $SG65519                   00423234     Stdafx.obj
 0002:00009240       $SG65520                   00423240     Stdafx.obj
 0002:0000924c       $SG65521                   0042324c     Stdafx.obj
 0002:00009258       $SG65522                   00423258     Stdafx.obj
 0002:00009264       $SG65523                   00423264     Stdafx.obj
 0002:00009270       $SG65524                   00423270     Stdafx.obj
 0002:0000927c       $SG65525                   0042327c     Stdafx.obj
 0002:00009284       $SG65526                   00423284     Stdafx.obj
 0002:00009290       $SG65527                   00423290     Stdafx.obj
 0002:00009298       $SG65528                   00423298     Stdafx.obj
 0002:000092a4       $SG65529                   004232a4     Stdafx.obj
 0002:000092ac       $SG65530                   004232ac     Stdafx.obj
 0002:000092b8       $SG65531                   004232b8     Stdafx.obj
 0002:000092c0       $SG65532                   004232c0     Stdafx.obj
 0002:000092cc       $SG65533                   004232cc     Stdafx.obj
 0002:000092d4       $SG65534                   004232d4     Stdafx.obj
 0002:000092e0       $SG65535                   004232e0     Stdafx.obj
 0002:00009364       _GS_ExceptionPointers      00423364     MSVCRT:gs_report.obj
 0002:0000ae58       __unwindtable$?SendLogData@CAttemperEngineSink@@UAAXPB_WZZ 00424e58     AttemperEngineSink.obj
 0002:0000ae60       __unwindtable$?SendLogData@CAttemperEngineSink@@UAAXPAUIServerUserItem@@PB_WZZ 00424e60     AttemperEngineSink.obj
 0002:0000ae68       __unwindtable$??0CAttemperEngineSink@@QAE@XZ 00424e68     AttemperEngineSink.obj
 0002:0000ae70       __catchsym$?OnEventTimer@CAttemperEngineSink@@UAE_NKI@Z$2 00424e70     AttemperEngineSink.obj
 0002:0000ae80       __unwindtable$?OnEventTimer@CAttemperEngineSink@@UAE_NKI@Z 00424e80     AttemperEngineSink.obj
 0002:0000ae90       __tryblocktable$?OnEventTimer@CAttemperEngineSink@@UAE_NKI@Z 00424e90     AttemperEngineSink.obj
 0002:0000aea4       __ehfuncinfo$?SendLogData@CAttemperEngineSink@@UAAXPB_WZZ 00424ea4     AttemperEngineSink.obj
 0002:0000aec8       __ehfuncinfo$?SendLogData@CAttemperEngineSink@@UAAXPAUIServerUserItem@@PB_WZZ 00424ec8     AttemperEngineSink.obj
 0002:0000aeec       __ehfuncinfo$?OnEventTimer@CAttemperEngineSink@@UAE_NKI@Z 00424eec     AttemperEngineSink.obj
 0002:0000af10       __ehfuncinfo$??0CAttemperEngineSink@@QAE@XZ 00424f10     AttemperEngineSink.obj
 0002:0000af34       __unwindtable$?CreateInstance@?$CTempldateHelper@UIDataBase@@@@QAE_NXZ 00424f34     DataBaseEngineSink.obj
 0002:0000af44       __tryblocktable$?CreateInstance@?$CTempldateHelper@UIDataBase@@@@QAE_NXZ 00424f44     DataBaseEngineSink.obj
 0002:0000af58       __catchsym$?CreateInstance@?$CTempldateHelper@UIDataBase@@@@QAE_NXZ$3 00424f58     DataBaseEngineSink.obj
 0002:0000af78       __ehfuncinfo$?CreateInstance@?$CTempldateHelper@UIDataBase@@@@QAE_NXZ 00424f78     DataBaseEngineSink.obj
 0002:0000af9c       __catchsym$?OnRequestLoadAIUser@CDataBaseEngineSink@@IAE_NKPAXGAAK@Z$2 00424f9c     DataBaseEngineSink.obj
 0002:0000afac       __unwindtable$?OnRequestLoadAIUser@CDataBaseEngineSink@@IAE_NKPAXGAAK@Z 00424fac     DataBaseEngineSink.obj
 0002:0000afbc       __catchsym$?OnRequestLoadAIParameter@CDataBaseEngineSink@@IAE_NKPAXGAAK@Z$2 00424fbc     DataBaseEngineSink.obj
 0002:0000afcc       __unwindtable$?OnRequestLoadAIParameter@CDataBaseEngineSink@@IAE_NKPAXGAAK@Z 00424fcc     DataBaseEngineSink.obj
 0002:0000afdc       __catchsym$?OnRequestAIParameter@CDataBaseEngineSink@@IAE_NKPAXGAAK@Z$4 00424fdc     DataBaseEngineSink.obj
 0002:0000afec       __catchsym$?OnDataBaseEngineStart@CDataBaseEngineSink@@UAE_NPAUIUnknownEx@@@Z$2 00424fec     DataBaseEngineSink.obj
 0002:0000affc       __unwindtable$?OnDataBaseEngineStart@CDataBaseEngineSink@@UAE_NPAUIUnknownEx@@@Z 00424ffc     DataBaseEngineSink.obj
 0002:0000b00c       __tryblocktable$?OnRequestLoadAIUser@CDataBaseEngineSink@@IAE_NKPAXGAAK@Z 0042500c     DataBaseEngineSink.obj
 0002:0000b020       __tryblocktable$?OnRequestLoadAIParameter@CDataBaseEngineSink@@IAE_NKPAXGAAK@Z 00425020     DataBaseEngineSink.obj
 0002:0000b034       __tryblocktable$?OnRequestAIParameter@CDataBaseEngineSink@@IAE_NKPAXGAAK@Z 00425034     DataBaseEngineSink.obj
 0002:0000b048       __tryblocktable$?OnDataBaseEngineStart@CDataBaseEngineSink@@UAE_NPAUIUnknownEx@@@Z 00425048     DataBaseEngineSink.obj
 0002:0000b05c       __unwindtable$?OnRequestAIParameter@CDataBaseEngineSink@@IAE_NKPAXGAAK@Z 0042505c     DataBaseEngineSink.obj
 0002:0000b07c       __ehfuncinfo$?OnRequestLoadAIUser@CDataBaseEngineSink@@IAE_NKPAXGAAK@Z 0042507c     DataBaseEngineSink.obj
 0002:0000b0a0       __ehfuncinfo$?OnRequestLoadAIParameter@CDataBaseEngineSink@@IAE_NKPAXGAAK@Z 004250a0     DataBaseEngineSink.obj
 0002:0000b0c4       __ehfuncinfo$?OnRequestAIParameter@CDataBaseEngineSink@@IAE_NKPAXGAAK@Z 004250c4     DataBaseEngineSink.obj
 0002:0000b0e8       __ehfuncinfo$?OnDataBaseEngineStart@CDataBaseEngineSink@@UAE_NPAUIUnknownEx@@@Z 004250e8     DataBaseEngineSink.obj
 0002:0000b10c       __ehfuncinfo$??1CDataBaseEngineSink@@UAE@XZ 0042510c     DataBaseEngineSink.obj
 0002:0000b130       __ehfuncinfo$??0CDataBaseEngineSink@@QAE@XZ 00425130     DataBaseEngineSink.obj
 0002:0000b154       __unwindtable$??0CDataBaseEngineSink@@QAE@XZ 00425154     DataBaseEngineSink.obj
 0002:0000b17c       __unwindtable$??0CCriticalSection@@QAE@XZ 0042517c     DBCorrespondManager.obj
 0002:0000b184       __ehfuncinfo$??0CCriticalSection@@QAE@XZ 00425184     DBCorrespondManager.obj
 0002:0000b1a8       __unwindtable$?OnTimerNotify@CDBCorrespondManager@@UAA_NXZ 004251a8     DBCorrespondManager.obj
 0002:0000b1b0       __unwindtable$?OnPostRequestComplete@CDBCorrespondManager@@UAA_NK_N@Z 004251b0     DBCorrespondManager.obj
 0002:0000b1b8       __unwindtable$?PostDataBaseRequest@CDBCorrespondManager@@UAA_NKGKPAXGE@Z 004251b8     DBCorrespondManager.obj
 0002:0000b1c0       __unwindtable$?ConcludeService@CDBCorrespondManager@@UAE_NXZ 004251c0     DBCorrespondManager.obj
 0002:0000b1c8       __unwindtable$??0CDBCorrespondManager@@QAE@XZ 004251c8     DBCorrespondManager.obj
 0002:0000b1d8       __ehfuncinfo$?OnTimerNotify@CDBCorrespondManager@@UAA_NXZ 004251d8     DBCorrespondManager.obj
 0002:0000b1fc       __ehfuncinfo$?OnPostRequestComplete@CDBCorrespondManager@@UAA_NK_N@Z 004251fc     DBCorrespondManager.obj
 0002:0000b220       __ehfuncinfo$?PostDataBaseRequest@CDBCorrespondManager@@UAA_NKGKPAXGE@Z 00425220     DBCorrespondManager.obj
 0002:0000b244       __ehfuncinfo$?ConcludeService@CDBCorrespondManager@@UAE_NXZ 00425244     DBCorrespondManager.obj
 0002:0000b268       __ehfuncinfo$??1CDBCorrespondManager@@QAE@XZ 00425268     DBCorrespondManager.obj
 0002:0000b28c       __ehfuncinfo$??0CDBCorrespondManager@@QAE@XZ 0042528c     DBCorrespondManager.obj
 0002:0000b2b0       __ehfuncinfo$??1?$CMap@GGPAUtagServerItem@@PAU1@@@UAE@XZ 004252b0     AIManager.obj
 0002:0000b2b0       __ehfuncinfo$??1?$CMap@KKHH@@UAE@XZ 004252b0     AIManager.obj
 0002:0000b2b0       __ehfuncinfo$??1?$CMap@GGPAVCGameKindItem@NServerListManager@@AAPAV12@@@UAE@XZ 004252b0     ServerListManager.obj
 0002:0000b2b0       __ehfuncinfo$??1?$CMap@GGPAVCGamePageItem@NServerListManager@@AAPAV12@@@UAE@XZ 004252b0     ServerListManager.obj
 0002:0000b2b0       __ehfuncinfo$??1?$CMap@GGPAVCGameNodeItem@NServerListManager@@AAPAV12@@@UAE@XZ 004252b0     ServerListManager.obj
 0002:0000b2b0       __ehfuncinfo$??1?$CMap@KKPAV?$CMap@GGPAV?$CMap@KKPAUtagAIUserInfo@@PAU1@@@PAV1@@@PAV1@@@UAE@XZ 004252b0     AIManager.obj
 0002:0000b2b0       __ehfuncinfo$??1?$CList@PAUtagDBRequestHead@@ABQAU1@@@UAE@XZ 004252b0     DBCorrespondManager.obj
 0002:0000b2b0       __ehfuncinfo$??1?$CMap@KKPAV?$CMap@GGPAUtagGroupAIParameter@@PAU1@@@PAV1@@@UAE@XZ 004252b0     AIManager.obj
 0002:0000b2b0       __ehfuncinfo$??1?$CMap@GGPAUtagGroupAIParameter@@PAU1@@@UAE@XZ 004252b0     AIManager.obj
 0002:0000b2b0       __ehfuncinfo$??1?$CMap@GGPAV?$CMap@KKPAUtagAIUserInfo@@PAU1@@@PAV1@@@UAE@XZ 004252b0     AIManager.obj
 0002:0000b2b0       __ehfuncinfo$??1?$CMap@GGPAVCGameTypeItem@NServerListManager@@AAPAV12@@@UAE@XZ 004252b0     ServerListManager.obj
 0002:0000b2b0       __ehfuncinfo$??1?$CTempldateHelper@UIDataBase@@@@UAE@XZ 004252b0     DataBaseEngineSink.obj
 0002:0000b2b0       __ehfuncinfo$??1?$CMap@KKPAUtagAIUserInfo@@PAU1@@@UAE@XZ 004252b0     AIManager.obj
 0002:0000b2b0       __ehfuncinfo$??1?$CTempldateHelper@UIDataBaseEngine@@@@UAE@XZ 004252b0     ServiceUnits.obj
 0002:0000b2b0       __ehfuncinfo$??1?$CTempldateHelper@UIPersonalRoomServiceManager@@@@UAE@XZ 004252b0     ServiceUnits.obj
 0002:0000b2b0       __ehfuncinfo$??1?$CTempldateHelper@UIMatchServiceManager@@@@UAE@XZ 004252b0     ServiceUnits.obj
 0002:0000b2b0       __ehfuncinfo$??1?$CMap@GGPAVCGameServerItem@NServerListManager@@AAPAV12@@@UAE@XZ 004252b0     ServerListManager.obj
 0002:0000b2b0       __ehfuncinfo$??1?$CTempldateHelper@UITimerEngine@@@@UAE@XZ 004252b0     ServiceUnits.obj
 0002:0000b2b0       __ehfuncinfo$??1?$CTempldateHelper@UITCPNetworkEngine@@@@UAE@XZ 004252b0     ServiceUnits.obj
 0002:0000b2b0       __ehfuncinfo$??1?$CTempldateHelper@UITCPSocketService@@@@UAE@XZ 004252b0     ServiceUnits.obj
 0002:0000b2b0       __ehfuncinfo$??1?$CTempldateHelper@UIGameServiceManager@@@@UAE@XZ 004252b0     ServiceUnits.obj
 0002:0000b2b0       __ehfuncinfo$??1?$CTempldateHelper@UIAttemperEngine@@@@UAE@XZ 004252b0     ServiceUnits.obj
 0002:0000b2d4       __unwindtable$?CheckGroupRoomIsNull@CAIManager@@QAE_NXZ 004252d4     AIManager.obj
 0002:0000b2dc       __unwindtable$?InsertServerItem@CAIManager@@QAE_NKAAUtagGameServer@@@Z 004252dc     AIManager.obj
 0002:0000b2e4       __unwindtable$?InsertGroupParameter@CAIManager@@QAEEUtagGroupAIParameter@@@Z 004252e4     AIManager.obj
 0002:0000b2ec       __unwindtable$?InsertAIUser@CAIManager@@QAEXKGPAUtagAIUserInfo@@@Z 004252ec     AIManager.obj
 0002:0000b304       __ehfuncinfo$?CheckGroupRoomIsNull@CAIManager@@QAE_NXZ 00425304     AIManager.obj
 0002:0000b328       __ehfuncinfo$?InsertServerItem@CAIManager@@QAE_NKAAUtagGameServer@@@Z 00425328     AIManager.obj
 0002:0000b34c       __ehfuncinfo$?InsertAIUser@CAIManager@@QAEXKGPAUtagAIUserInfo@@@Z 0042534c     AIManager.obj
 0002:0000b370       __ehfuncinfo$?InsertGroupParameter@CAIManager@@QAEEUtagGroupAIParameter@@@Z 00425370     AIManager.obj
 0002:0000b394       __ehfuncinfo$??1CAIManager@@UAE@XZ 00425394     AIManager.obj
 0002:0000b3b8       __ehfuncinfo$??0CAIManager@@QAE@XZ 004253b8     AIManager.obj
 0002:0000b3dc       __unwindtable$??0CAIManager@@QAE@XZ 004253dc     AIManager.obj
 0002:0000b40c       __unwindtable$?NewAssoc@?$CMap@GGPAVCGameServerItem@NServerListManager@@AAPAV12@@@IAEPAVCAssoc@1@G@Z 0042540c     ServerListManager.obj
 0002:0000b40c       __unwindtable$?NewAssoc@?$CMap@GGPAUtagGroupAIParameter@@PAU1@@@IAEPAVCAssoc@1@G@Z 0042540c     AIManager.obj
 0002:0000b40c       __unwindtable$?NewAssoc@?$CMap@GGPAVCGamePageItem@NServerListManager@@AAPAV12@@@IAEPAVCAssoc@1@G@Z 0042540c     ServerListManager.obj
 0002:0000b40c       __unwindtable$?NewAssoc@?$CMap@KKHH@@IAEPAVCAssoc@1@K@Z 0042540c     AIManager.obj
 0002:0000b40c       __unwindtable$?NewAssoc@?$CMap@KKPAV?$CMap@GGPAV?$CMap@KKPAUtagAIUserInfo@@PAU1@@@PAV1@@@PAV1@@@IAEPAVCAssoc@1@K@Z 0042540c     AIManager.obj
 0002:0000b40c       __unwindtable$?NewAssoc@?$CMap@GGPAV?$CMap@KKPAUtagAIUserInfo@@PAU1@@@PAV1@@@IAEPAVCAssoc@1@G@Z 0042540c     AIManager.obj
 0002:0000b40c       __unwindtable$?NewAssoc@?$CMap@GGPAVCGameNodeItem@NServerListManager@@AAPAV12@@@IAEPAVCAssoc@1@G@Z 0042540c     ServerListManager.obj
 0002:0000b40c       __unwindtable$?NewAssoc@?$CMap@GGPAUtagServerItem@@PAU1@@@IAEPAVCAssoc@1@G@Z 0042540c     AIManager.obj
 0002:0000b40c       __unwindtable$?NewAssoc@?$CMap@KKPAUtagAIUserInfo@@PAU1@@@IAEPAVCAssoc@1@K@Z 0042540c     AIManager.obj
 0002:0000b40c       __unwindtable$?NewAssoc@?$CMap@GGPAVCGameTypeItem@NServerListManager@@AAPAV12@@@IAEPAVCAssoc@1@G@Z 0042540c     ServerListManager.obj
 0002:0000b40c       __unwindtable$?NewAssoc@?$CMap@KKPAV?$CMap@GGPAUtagGroupAIParameter@@PAU1@@@PAV1@@@IAEPAVCAssoc@1@K@Z 0042540c     AIManager.obj
 0002:0000b40c       __unwindtable$?NewAssoc@?$CMap@GGPAVCGameKindItem@NServerListManager@@AAPAV12@@@IAEPAVCAssoc@1@G@Z 0042540c     ServerListManager.obj
 0002:0000b414       __ehfuncinfo$?NewAssoc@?$CMap@KKHH@@IAEPAVCAssoc@1@K@Z 00425414     AIManager.obj
 0002:0000b414       __ehfuncinfo$?NewAssoc@?$CMap@GGPAVCGameNodeItem@NServerListManager@@AAPAV12@@@IAEPAVCAssoc@1@G@Z 00425414     ServerListManager.obj
 0002:0000b414       __ehfuncinfo$?NewAssoc@?$CMap@KKPAUtagAIUserInfo@@PAU1@@@IAEPAVCAssoc@1@K@Z 00425414     AIManager.obj
 0002:0000b414       __ehfuncinfo$?NewAssoc@?$CMap@GGPAUtagServerItem@@PAU1@@@IAEPAVCAssoc@1@G@Z 00425414     AIManager.obj
 0002:0000b414       __ehfuncinfo$?NewAssoc@?$CMap@GGPAVCGameKindItem@NServerListManager@@AAPAV12@@@IAEPAVCAssoc@1@G@Z 00425414     ServerListManager.obj
 0002:0000b414       __ehfuncinfo$?NewAssoc@?$CMap@GGPAV?$CMap@KKPAUtagAIUserInfo@@PAU1@@@PAV1@@@IAEPAVCAssoc@1@G@Z 00425414     AIManager.obj
 0002:0000b414       __ehfuncinfo$?NewAssoc@?$CMap@KKPAV?$CMap@GGPAV?$CMap@KKPAUtagAIUserInfo@@PAU1@@@PAV1@@@PAV1@@@IAEPAVCAssoc@1@K@Z 00425414     AIManager.obj
 0002:0000b414       __ehfuncinfo$?NewAssoc@?$CMap@GGPAUtagGroupAIParameter@@PAU1@@@IAEPAVCAssoc@1@G@Z 00425414     AIManager.obj
 0002:0000b414       __ehfuncinfo$?NewAssoc@?$CMap@GGPAVCGameTypeItem@NServerListManager@@AAPAV12@@@IAEPAVCAssoc@1@G@Z 00425414     ServerListManager.obj
 0002:0000b414       __ehfuncinfo$?NewAssoc@?$CMap@KKPAV?$CMap@GGPAUtagGroupAIParameter@@PAU1@@@PAV1@@@IAEPAVCAssoc@1@K@Z 00425414     AIManager.obj
 0002:0000b414       __ehfuncinfo$?NewAssoc@?$CMap@GGPAVCGameServerItem@NServerListManager@@AAPAV12@@@IAEPAVCAssoc@1@G@Z 00425414     ServerListManager.obj
 0002:0000b414       __ehfuncinfo$?NewAssoc@?$CMap@GGPAVCGamePageItem@NServerListManager@@AAPAV12@@@IAEPAVCAssoc@1@G@Z 00425414     ServerListManager.obj
 0002:0000b438       __unwindtable$?SetSize@?$CWHArray@UtagGroupConfigInfo@@ABU1@@@QAEXH@Z 00425438     AIManager.obj
 0002:0000b440       __ehfuncinfo$?SetSize@?$CWHArray@UtagGroupConfigInfo@@ABU1@@@QAEXH@Z 00425440     AIManager.obj
 0002:0000b464       __unwindtable$?InitInstance@CAIDistributeApp@@UAEHXZ 00425464     AIDistribute.obj
 0002:0000b46c       __ehfuncinfo$?InitInstance@CAIDistributeApp@@UAEHXZ 0042546c     AIDistribute.obj
 0002:0000b490       __unwindtable$?OnMessageProcessCmdLine@CAIDistributeDlg@@QAEJIJ@Z 00425490     AIDistributeDlg.obj
 0002:0000b498       __unwindtable$?GetPlatformDBParameter@CAIDistributeDlg@@IAE_NAAUtagDataBaseParameter@@@Z 00425498     AIDistributeDlg.obj
 0002:0000b4a0       __catchsym$?OnBnClickedStopService@CAIDistributeDlg@@IAEXXZ$2 004254a0     AIDistributeDlg.obj
 0002:0000b4b0       __unwindtable$?OnBnClickedStopService@CAIDistributeDlg@@IAEXXZ 004254b0     AIDistributeDlg.obj
 0002:0000b4c0       __catchsym$?OnBnClickedStartService@CAIDistributeDlg@@IAEXXZ$2 004254c0     AIDistributeDlg.obj
 0002:0000b4d0       __unwindtable$?OnBnClickedStartService@CAIDistributeDlg@@IAEXXZ 004254d0     AIDistributeDlg.obj
 0002:0000b4e0       __catchsym$?StartServerService@CAIDistributeDlg@@IAE_NG@Z$2 004254e0     AIDistributeDlg.obj
 0002:0000b4f0       __unwindtable$?StartServerService@CAIDistributeDlg@@IAE_NG@Z 004254f0     AIDistributeDlg.obj
 0002:0000b500       __tryblocktable$?OnBnClickedStopService@CAIDistributeDlg@@IAEXXZ 00425500     AIDistributeDlg.obj
 0002:0000b514       __tryblocktable$?OnBnClickedStartService@CAIDistributeDlg@@IAEXXZ 00425514     AIDistributeDlg.obj
 0002:0000b528       __tryblocktable$?StartServerService@CAIDistributeDlg@@IAE_NG@Z 00425528     AIDistributeDlg.obj
 0002:0000b53c       __unwindtable$??0CAIDistributeDlg@@QAE@XZ 0042553c     AIDistributeDlg.obj
 0002:0000b554       __ehfuncinfo$?OnMessageProcessCmdLine@CAIDistributeDlg@@QAEJIJ@Z 00425554     AIDistributeDlg.obj
 0002:0000b578       __ehfuncinfo$?OnBnClickedStopService@CAIDistributeDlg@@IAEXXZ 00425578     AIDistributeDlg.obj
 0002:0000b59c       __ehfuncinfo$?OnBnClickedStartService@CAIDistributeDlg@@IAEXXZ 0042559c     AIDistributeDlg.obj
 0002:0000b5c0       __ehfuncinfo$?GetPlatformDBParameter@CAIDistributeDlg@@IAE_NAAUtagDataBaseParameter@@@Z 004255c0     AIDistributeDlg.obj
 0002:0000b5e4       __ehfuncinfo$?StartServerService@CAIDistributeDlg@@IAE_NG@Z 004255e4     AIDistributeDlg.obj
 0002:0000b608       __ehfuncinfo$??0CAIDistributeDlg@@QAE@XZ 00425608     AIDistributeDlg.obj
 0002:0000b62c       __unwindtable$?LoadInitParameter@CInitParameter@@QAEXXZ 0042562c     InitParameter.obj
 0002:0000b634       __ehfuncinfo$?LoadInitParameter@CInitParameter@@QAEXXZ 00425634     InitParameter.obj
 0002:0000b658       __catchsym$?InsertGameServer@CServerListManager@NServerListManager@@QAE_NPAUtagGameServer@@@Z$3 00425658     ServerListManager.obj
 0002:0000b668       __catchsym$?InsertGamePage@CServerListManager@NServerListManager@@QAE_NPAUtagGamePage@@@Z$3 00425668     ServerListManager.obj
 0002:0000b678       __catchsym$?InsertGameNode@CServerListManager@NServerListManager@@QAE_NPAUtagGameNode@@@Z$3 00425678     ServerListManager.obj
 0002:0000b688       __catchsym$?InsertGameKind@CServerListManager@NServerListManager@@QAE_NPAUtagGameKind@@@Z$3 00425688     ServerListManager.obj
 0002:0000b698       __catchsym$?InsertGameType@CServerListManager@NServerListManager@@QAE_NPAUtagGameType@@@Z$3 00425698     ServerListManager.obj
 0002:0000b6a8       __catchsym$??1CServerListManager@NServerListManager@@UAE@XZ$39 004256a8     ServerListManager.obj
 0002:0000b6b8       __catchsym$??1CServerListManager@NServerListManager@@UAE@XZ$38 004256b8     ServerListManager.obj
 0002:0000b6c8       __catchsym$??1CServerListManager@NServerListManager@@UAE@XZ$37 004256c8     ServerListManager.obj
 0002:0000b6d8       __catchsym$??1CServerListManager@NServerListManager@@UAE@XZ$36 004256d8     ServerListManager.obj
 0002:0000b6e8       __catchsym$??1CServerListManager@NServerListManager@@UAE@XZ$35 004256e8     ServerListManager.obj
 0002:0000b6f8       __catchsym$??1CServerListManager@NServerListManager@@UAE@XZ$34 004256f8     ServerListManager.obj
 0002:0000b708       __catchsym$??1CServerListManager@NServerListManager@@UAE@XZ$33 00425708     ServerListManager.obj
 0002:0000b718       __catchsym$??1CServerListManager@NServerListManager@@UAE@XZ$32 00425718     ServerListManager.obj
 0002:0000b728       __catchsym$??1CServerListManager@NServerListManager@@UAE@XZ$31 00425728     ServerListManager.obj
 0002:0000b738       __catchsym$??1CServerListManager@NServerListManager@@UAE@XZ$30 00425738     ServerListManager.obj
 0002:0000b748       __tryblocktable$?InsertGameServer@CServerListManager@NServerListManager@@QAE_NPAUtagGameServer@@@Z 00425748     ServerListManager.obj
 0002:0000b75c       __tryblocktable$?InsertGamePage@CServerListManager@NServerListManager@@QAE_NPAUtagGamePage@@@Z 0042575c     ServerListManager.obj
 0002:0000b770       __tryblocktable$?InsertGameNode@CServerListManager@NServerListManager@@QAE_NPAUtagGameNode@@@Z 00425770     ServerListManager.obj
 0002:0000b784       __tryblocktable$?InsertGameKind@CServerListManager@NServerListManager@@QAE_NPAUtagGameKind@@@Z 00425784     ServerListManager.obj
 0002:0000b798       __tryblocktable$?InsertGameType@CServerListManager@NServerListManager@@QAE_NPAUtagGameType@@@Z 00425798     ServerListManager.obj
 0002:0000b7ac       __unwindtable$?InsertGameServer@CServerListManager@NServerListManager@@QAE_NPAUtagGameServer@@@Z 004257ac     ServerListManager.obj
 0002:0000b7c4       __unwindtable$?InsertGamePage@CServerListManager@NServerListManager@@QAE_NPAUtagGamePage@@@Z 004257c4     ServerListManager.obj
 0002:0000b7dc       __unwindtable$?InsertGameNode@CServerListManager@NServerListManager@@QAE_NPAUtagGameNode@@@Z 004257dc     ServerListManager.obj
 0002:0000b7f4       __unwindtable$?InsertGameKind@CServerListManager@NServerListManager@@QAE_NPAUtagGameKind@@@Z 004257f4     ServerListManager.obj
 0002:0000b80c       __unwindtable$?InsertGameType@CServerListManager@NServerListManager@@QAE_NPAUtagGameType@@@Z 0042580c     ServerListManager.obj
 0002:0000b824       __ehfuncinfo$?InsertGameServer@CServerListManager@NServerListManager@@QAE_NPAUtagGameServer@@@Z 00425824     ServerListManager.obj
 0002:0000b848       __ehfuncinfo$?InsertGamePage@CServerListManager@NServerListManager@@QAE_NPAUtagGamePage@@@Z 00425848     ServerListManager.obj
 0002:0000b86c       __ehfuncinfo$?InsertGameNode@CServerListManager@NServerListManager@@QAE_NPAUtagGameNode@@@Z 0042586c     ServerListManager.obj
 0002:0000b890       __ehfuncinfo$?InsertGameKind@CServerListManager@NServerListManager@@QAE_NPAUtagGameKind@@@Z 00425890     ServerListManager.obj
 0002:0000b8b4       __ehfuncinfo$?InsertGameType@CServerListManager@NServerListManager@@QAE_NPAUtagGameType@@@Z 004258b4     ServerListManager.obj
 0002:0000b8d8       __ehfuncinfo$??1CServerListManager@NServerListManager@@UAE@XZ 004258d8     ServerListManager.obj
 0002:0000b8fc       __ehfuncinfo$??0CServerListManager@NServerListManager@@QAE@XZ 004258fc     ServerListManager.obj
 0002:0000b920       __unwindtable$??0CServerListManager@NServerListManager@@QAE@XZ 00425920     ServerListManager.obj
 0002:0000b970       __tryblocktable$??1CServerListManager@NServerListManager@@UAE@XZ 00425970     ServerListManager.obj
 0002:0000ba38       __unwindtable$??1CServerListManager@NServerListManager@@UAE@XZ 00425a38     ServerListManager.obj
 0002:0000bb28       __unwindtable$?CreateInstance@?$CTempldateHelper@UITimerEngine@@@@QAE_NXZ 00425b28     ServiceUnits.obj
 0002:0000bb38       __tryblocktable$?CreateInstance@?$CTempldateHelper@UITimerEngine@@@@QAE_NXZ 00425b38     ServiceUnits.obj
 0002:0000bb4c       __catchsym$?CreateInstance@?$CTempldateHelper@UITimerEngine@@@@QAE_NXZ$3 00425b4c     ServiceUnits.obj
 0002:0000bb6c       __ehfuncinfo$?CreateInstance@?$CTempldateHelper@UITimerEngine@@@@QAE_NXZ 00425b6c     ServiceUnits.obj
 0002:0000bb90       __unwindtable$?CreateInstance@?$CTempldateHelper@UIDataBaseEngine@@@@QAE_NXZ 00425b90     ServiceUnits.obj
 0002:0000bba0       __tryblocktable$?CreateInstance@?$CTempldateHelper@UIDataBaseEngine@@@@QAE_NXZ 00425ba0     ServiceUnits.obj
 0002:0000bbb4       __catchsym$?CreateInstance@?$CTempldateHelper@UIDataBaseEngine@@@@QAE_NXZ$3 00425bb4     ServiceUnits.obj
 0002:0000bbd4       __ehfuncinfo$?CreateInstance@?$CTempldateHelper@UIDataBaseEngine@@@@QAE_NXZ 00425bd4     ServiceUnits.obj
 0002:0000bbf8       __unwindtable$?CreateInstance@?$CTempldateHelper@UIAttemperEngine@@@@QAE_NXZ 00425bf8     ServiceUnits.obj
 0002:0000bc08       __tryblocktable$?CreateInstance@?$CTempldateHelper@UIAttemperEngine@@@@QAE_NXZ 00425c08     ServiceUnits.obj
 0002:0000bc1c       __catchsym$?CreateInstance@?$CTempldateHelper@UIAttemperEngine@@@@QAE_NXZ$3 00425c1c     ServiceUnits.obj
 0002:0000bc3c       __ehfuncinfo$?CreateInstance@?$CTempldateHelper@UIAttemperEngine@@@@QAE_NXZ 00425c3c     ServiceUnits.obj
 0002:0000bc60       __unwindtable$?CreateInstance@?$CTempldateHelper@UITCPSocketService@@@@QAE_NXZ 00425c60     ServiceUnits.obj
 0002:0000bc70       __tryblocktable$?CreateInstance@?$CTempldateHelper@UITCPSocketService@@@@QAE_NXZ 00425c70     ServiceUnits.obj
 0002:0000bc84       __catchsym$?CreateInstance@?$CTempldateHelper@UITCPSocketService@@@@QAE_NXZ$3 00425c84     ServiceUnits.obj
 0002:0000bca4       __ehfuncinfo$?CreateInstance@?$CTempldateHelper@UITCPSocketService@@@@QAE_NXZ 00425ca4     ServiceUnits.obj
 0002:0000bcc8       __unwindtable$?CreateInstance@?$CTempldateHelper@UITCPNetworkEngine@@@@QAE_NXZ 00425cc8     ServiceUnits.obj
 0002:0000bcd8       __tryblocktable$?CreateInstance@?$CTempldateHelper@UITCPNetworkEngine@@@@QAE_NXZ 00425cd8     ServiceUnits.obj
 0002:0000bcec       __catchsym$?CreateInstance@?$CTempldateHelper@UITCPNetworkEngine@@@@QAE_NXZ$3 00425cec     ServiceUnits.obj
 0002:0000bd0c       __ehfuncinfo$?CreateInstance@?$CTempldateHelper@UITCPNetworkEngine@@@@QAE_NXZ 00425d0c     ServiceUnits.obj
 0002:0000bd30       __unwindtable$?OnUIControlRequest@CServiceUnits@@IAEJIJ@Z 00425d30     ServiceUnits.obj
 0002:0000bd38       __unwindtable$?PostControlRequest@CServiceUnits@@QAE_NGPAXG@Z 00425d38     ServiceUnits.obj
 0002:0000bd40       __ehfuncinfo$?OnUIControlRequest@CServiceUnits@@IAEJIJ@Z 00425d40     ServiceUnits.obj
 0002:0000bd64       __ehfuncinfo$?PostControlRequest@CServiceUnits@@QAE_NGPAXG@Z 00425d64     ServiceUnits.obj
 0002:0000bd88       __ehfuncinfo$??1CServiceUnits@@UAE@XZ 00425d88     ServiceUnits.obj
 0002:0000bdac       __ehfuncinfo$??0CServiceUnits@@QAE@XZ 00425dac     ServiceUnits.obj
 0002:0000bdd0       __unwindtable$??0CServiceUnits@@QAE@XZ 00425dd0     ServiceUnits.obj
 0002:0000be60       __sehtable$?__scrt_common_main_seh@@YAHXZ 00425e60     MSVCRT:exe_wwinmain.obj
 0002:0000be80       __sehtable$___scrt_is_nonwritable_in_current_image 00425e80     MSVCRT:utility.obj
 0002:0000bea0       __sehtable$??_L@YGXPAXIIP6EX0@Z1@Z 00425ea0     MSVCRT:ehvecctr.obj
 0002:0000bec0       __sehtable$??_M@YGXPAXIIP6EX0@Z@Z 00425ec0     MSVCRT:ehvecdtr.obj
 0002:0000bee0       __sehtable$?__ArrayUnwind@@YGXPAXIIP6EX0@Z@Z 00425ee0     MSVCRT:ehvecdtr.obj
 0002:0000c624       .idata$6                   00426624     mfc140u:mfc140u.dll
 0002:0000c870       .idata$6                   00426870     kernel32:KERNEL32.dll
 0002:0000c8d2       .idata$6                   004268d2     user32:USER32.dll
 0002:0000c8de       .idata$6                   004268de     comctl32:COMCTL32.dll
 0002:0000c8ec       .idata$6                   004268ec     oleaut32:OLEAUT32.dll
 0002:0000cb30       .idata$6                   00426b30     ServiceCore:ServiceCore.dll
 0002:0000ce9e       .idata$6                   00426e9e     KernelEngine:KernelEngine.dll
 0002:0000cec4       .idata$6                   00426ec4     DbgHelp:dbghelp.dll
 0002:0000cfa2       .idata$6                   00426fa2     vcruntime:VCRUNTIME140.dll
 0002:0000d2d4       .idata$6                   004272d4     ucrt:api-ms-win-crt-string-l1-1-0.dll
 0002:0000d2f6       .idata$6                   004272f6     ucrt:api-ms-win-crt-stdio-l1-1-0.dll
 0002:0000d316       .idata$6                   00427316     ucrt:api-ms-win-crt-filesystem-l1-1-0.dll
 0002:0000d33c       .idata$6                   0042733c     ucrt:api-ms-win-crt-locale-l1-1-0.dll
 0002:0000d35e       .idata$6                   0042735e     ucrt:api-ms-win-crt-runtime-l1-1-0.dll
 0002:0000d380       .idata$6                   00427380     ucrt:api-ms-win-crt-utility-l1-1-0.dll
 0002:0000d3a2       .idata$6                   004273a2     ucrt:api-ms-win-crt-time-l1-1-0.dll
 0002:0000d3c2       .idata$6                   004273c2     ucrt:api-ms-win-crt-convert-l1-1-0.dll
 0002:0000d3e4       .idata$6                   004273e4     ucrt:api-ms-win-crt-heap-l1-1-0.dll
 0002:0000d404       .idata$6                   00427404     ucrt:api-ms-win-crt-math-l1-1-0.dll
 0003:00000000       ?PADDING@@3PAEA            00428000     Stdafx.obj
 0003:00000d18       ?g_sResult@@3PADA          00428d18     Log.obj
 0003:00001520       ?g_wsResult@@3PA_WA        00429520     Log.obj
 0003:00001d30       ?g_wsResult@@3PA_WA        00429d30     DataBaseEngineSink.obj
 0003:00002610       ?g_sResult@@3PADA          0042a610     Stdafx.obj
 0003:00002e18       ?g_wsResult@@3PA_WA        0042ae18     Stdafx.obj
 0003:00003624       ?module_local_atexit_table@@3U_onexit_table_t@@A 0042b624     MSVCRT:utility.obj
 0003:00003630       ?module_local_at_quick_exit_table@@3U_onexit_table_t@@A 0042b630     MSVCRT:utility.obj
 0003:0000363c       ?is_initialized_as_dll@@3_NA 0042b63c     MSVCRT:utility.obj
 0003:00003640       ?_Tss_mutex@@3U_RTL_CRITICAL_SECTION@@A 0042b640     MSVCRT:thread_safe_statics.obj
 0003:00003658       ?_Tss_cv@@3U_RTL_CONDITION_VARIABLE@@A 0042b658     MSVCRT:thread_safe_statics.obj
 0003:0000365c       ?_Tss_event@@3PAXA         0042b65c     MSVCRT:thread_safe_statics.obj
 0003:00003660       ?encoded_sleep_condition_variable_cs@@3P6GHPAU_RTL_CONDITION_VARIABLE@@PAU_RTL_CRITICAL_SECTION@@K@ZA 0042b660     MSVCRT:thread_safe_statics.obj
 0003:00003664       ?encoded_wake_all_condition_variable@@3P6GXPAU_RTL_CONDITION_VARIABLE@@@ZA 0042b664     MSVCRT:thread_safe_statics.obj
 0003:00003688       _GS_ExceptionRecord        0042b688     MSVCRT:gs_report.obj
 0003:000036d8       _GS_ContextRecord          0042b6d8     MSVCRT:gs_report.obj
 0004:00000000       __guard_fids__             0042c000     MSVCRT:exe_wwinmain.obj
 0004:00000004       __guard_fids__             0042c004     MSVCRT:exe_wwinmain.obj
 0004:00000008       __guard_fids__             0042c008     MSVCRT:exe_wwinmain.obj
 0004:0000000c       __guard_fids_?pre_c_initialization@@YAHXZ 0042c00c     MSVCRT:exe_wwinmain.obj
 0004:00000014       __guard_fids__             0042c014     MSVCRT:std_type_info_static.obj
 0004:00000018       __guard_fids__             0042c018     MSVCRT:thread_safe_statics.obj
 0004:0000001c       __guard_fids_?__scrt_initialize_thread_safe_statics@@YAHXZ 0042c01c     MSVCRT:thread_safe_statics.obj
 0004:00000020       __guard_fids____scrt_set_unhandled_exception_filter 0042c020     MSVCRT:utility_desktop.obj
 0004:00000024       __guard_fids___except_handler4 0042c024     MSVCRT:_chandler4gs_.obj
 0004:00000028       __guard_fids__             0042c028     MSVCRT:throw_bad_alloc.obj
 0004:00000030       __guard_fids__             0042c030     MSVCRT:throw_bad_alloc.obj
 0004:00000038       __guard_fids__             0042c038     MSVCRT:throw_bad_alloc.obj
 0004:00000040       __guard_fids__             0042c040     MSVCRT:throw_bad_alloc.obj
 0004:00000044       __guard_fids__             0042c044     MSVCRT:throw_bad_alloc.obj
 0004:00000048       __guard_fids__             0042c048     MSVCRT:throw_bad_alloc.obj
 0004:0000004c       __guard_fids__             0042c04c     MSVCRT:throw_bad_alloc.obj
 0004:00000050       __guard_fids__             0042c050     MSVCRT:throw_bad_alloc.obj
 0004:00000054       __guard_fids__             0042c054     MSVCRT:guard_support.obj
 0004:00000058       __guard_fids__             0042c058     mfcs140u:appmodul.obj
 0004:0000005c       __guard_fids_??__E_AtlBaseModule@ATL@@YAXXZ 0042c05c     atls:atlbase.obj
 0004:00000060       __guard_fids__             0042c060     atls:atlbase.obj
 0006:00000180       $R000000                   0042e180     AIDistribute.res
 0006:00002728       $R0025A8                   00430728     AIDistribute.res
 0006:00002740       $R0025C0                   00430740     AIDistribute.res
 0006:00002a48       $R0028C8                   00430a48     AIDistribute.res
 0006:00002b08       $R002988                   00430b08     AIDistribute.res
