 GameService

 Timestamp is 651e877e (Thu Oct  5 17:53:02 2023)

 Preferred load address is 10000000

 Start         Length     Name                   Class
 0001:00000000 00000060H .text$di                CODE
 0001:00000060 000172a0H .text$mn                CODE
 0001:00017300 00000a40H .text$x                 CODE
 0001:00017d40 00000029H .text$yd                CODE
 0002:00000000 000001b0H .idata$5                DATA
 0002:000001b0 00000004H .00cfg                  DATA
 0002:000001b4 00000004H .CRT$XCA                DATA
 0002:000001b8 00000004H .CRT$XCL                DATA
 0002:000001bc 00000008H .CRT$XCU                DATA
 0002:000001c4 00000004H .CRT$XCZ                DATA
 0002:000001c8 00000004H .CRT$XIA                DATA
 0002:000001cc 00000004H .CRT$XIC                DATA
 0002:000001d0 00000004H .CRT$XIZ                DATA
 0002:000001d4 00000004H .CRT$XLA                DATA
 0002:000001d8 00000004H .CRT$XLZ                DATA
 0002:000001dc 00000004H .CRT$XPA                DATA
 0002:000001e0 00000004H .CRT$XPZ                DATA
 0002:000001e4 00000004H .CRT$XTA                DATA
 0002:000001e8 00000008H .CRT$XTZ                DATA
 0002:000001f0 00002f34H .rdata                  DATA
 0002:00003124 00000018H .rdata$T                DATA
 0002:0000313c 000008e4H .rdata$r                DATA
 0002:00003a20 000000ecH .rdata$sxdata           DATA
 0002:00003b0c 000003d4H .rdata$zzzdbg           DATA
 0002:00003ee0 00000004H .rtc$IAA                DATA
 0002:00003ee4 00000004H .rtc$IZZ                DATA
 0002:00003ee8 00000004H .rtc$TAA                DATA
 0002:00003eec 00000004H .rtc$TZZ                DATA
 0002:00003ef0 00001440H .xdata$x                DATA
 0002:0000532c 00000000H ATL$__a                 DATA
 0002:0000532c 00000000H ATL$__z                 DATA
 0002:00005330 00003adcH .edata                  DATA
 0002:00008e0c 00000118H .idata$2                DATA
 0002:00008f24 00000014H .idata$3                DATA
 0002:00008f38 000001b0H .idata$4                DATA
 0002:000090e8 00000670H .idata$6                DATA
 0003:00000000 000001a8H .data                   DATA
 0003:000001a8 00000510H .data$r                 DATA
 0003:000006b8 00000420H .bss                    DATA
 0004:00000000 00000028H .gfids$y                DATA
 0005:00000000 00000004H .tls                    DATA
 0005:00000004 00000004H .tls$                   DATA
 0005:00000008 00000001H .tls$ZZZ                DATA
 0006:00000000 000000a0H .rsrc$01                DATA
 0006:000000a0 00000528H .rsrc$02                DATA

  Address         Publics by Value              Rva+Base       Lib:Object

 0000:00000000       ___guard_fids_count        00000000     <absolute>
 0000:00000000       ___guard_iat_table         00000000     <absolute>
 0000:00000000       ___guard_iat_count         00000000     <absolute>
 0000:00000000       ___guard_longjmp_count     00000000     <absolute>
 0000:00000000       ___guard_fids_table        00000000     <absolute>
 0000:00000000       ___guard_longjmp_table     00000000     <absolute>
 0000:00000000       ___dynamic_value_reloc_table 00000000     <absolute>
 0000:0000002c       __tls_array                0000002c     <absolute>
 0000:0000003b       ___safe_se_handler_count   0000003b     <absolute>
 0000:00000100       ___guard_flags             00000100     <absolute>
 0000:00000000       ___ImageBase               10000000     <linker-defined>
 0001:00000110       ??0CAndroidUserItem@@QAE@XZ 10001110 f   AndroidUserItem.obj
 0001:000002b0       ??1CAndroidUserItem@@UAE@XZ 100012b0 f   AndroidUserItem.obj
 0001:00000500       ?QueryInterface@CAndroidUserItem@@UAEPAXABU_GUID@@K@Z 10001500 f   AndroidUserItem.obj
 0001:00000580       ?GetUserID@CAndroidUserItem@@UAEKXZ 10001580 f   AndroidUserItem.obj
 0001:000005a0       ?GetTableID@CAndroidUserItem@@UAEGXZ 100015a0 f   AndroidUserItem.obj
 0001:000005d0       ?GetChairID@CAndroidUserItem@@UAEGXZ 100015d0 f   AndroidUserItem.obj
 0001:00000600       ?SetAiHanging@CAndroidUserItem@@UAEX_N@Z 10001600 f   AndroidUserItem.obj
 0001:00000650       ?GetRandomCarryGradeIndex@CAndroidUserItem@@UAEEXZ 10001650 f   AndroidUserItem.obj
 0001:000008a0       ?GetScoreVariationTimes@CAndroidUserItem@@UAE_JXZ 100018a0 f   AndroidUserItem.obj
 0001:00000900       ?SetUserItemInitialCarryScore@CAndroidUserItem@@UAEXK_J@Z 10001900 f   AndroidUserItem.obj
 0001:00000930       ?SetUserItemGameVariationScore@CAndroidUserItem@@UAEXK_J@Z 10001930 f   AndroidUserItem.obj
 0001:000009d0       ?SetAndroidLeaveGrade@CAndroidUserItem@@UAEXG@Z 100019d0 f   AndroidUserItem.obj
 0001:00000a30       ?EfficacyAndroidFreeSameTable@CAndroidUserItem@@UAE_NG@Z 10001a30 f   AndroidUserItem.obj
 0001:00000b20       ?GetMeUserItem@CAndroidUserItem@@UAEPAUIServerUserItem@@XZ 10001b20 f   AndroidUserItem.obj
 0001:00000b40       ?GetTableUserItem@CAndroidUserItem@@UAEPAUIServerUserItem@@G@Z 10001b40 f   AndroidUserItem.obj
 0001:00000bb0       ?GetSitRealUserCount@CAndroidUserItem@@UAEGXZ 10001bb0 f   AndroidUserItem.obj
 0001:00000c90       ?PerformSaveScore@CAndroidUserItem@@UAE_N_J@Z 10001c90 f   AndroidUserItem.obj
 0001:00000d40       ?PerformTakeScore@CAndroidUserItem@@UAE_N_J@Z 10001d40 f   AndroidUserItem.obj
 0001:00000db0       ?SendSocketData@CAndroidUserItem@@UAE_NG@Z 10001db0 f   AndroidUserItem.obj
 0001:00000e30       ?SendSocketData@CAndroidUserItem@@UAE_NGPAXG@Z 10001e30 f   AndroidUserItem.obj
 0001:00000eb0       ?JudgeAndroidActionAndRemove@CAndroidUserItem@@UAE_NG@Z 10001eb0 f   AndroidUserItem.obj
 0001:00000ef0       ?JudgeAndroidGrade@CAndroidUserItem@@UAE_NG@Z 10001ef0 f   AndroidUserItem.obj
 0001:00000f30       ?KillGameTimer@CAndroidUserItem@@UAE_NI@Z 10001f30 f   AndroidUserItem.obj
 0001:00000fd0       ?SetGameTimer@CAndroidUserItem@@UAE_NII@Z 10001fd0 f   AndroidUserItem.obj
 0001:00001140       ?SendUserReady@CAndroidUserItem@@UAE_NPAXG@Z 10002140 f   AndroidUserItem.obj
 0001:000011d0       ?SendChatMessage@CAndroidUserItem@@UAE_NK@Z 100021d0 f   AndroidUserItem.obj
 0001:00001510       ?SendUserExpression@CAndroidUserItem@@UAE_NKG@Z 10002510 f   AndroidUserItem.obj
 0001:000015a0       ?SendLogData@CAndroidUserItem@@UAAXPB_WZZ 100025a0 f   AndroidUserItem.obj
 0001:00001650       ?SendLogData@CAndroidUserItem@@UAEXUtagLogUserInfo@@@Z 10002650 f   AndroidUserItem.obj
 0001:00001690       ?OnTimerPulse@CAndroidUserItem@@QAE_NKI@Z 10002690 f   AndroidUserItem.obj
 0001:00001ac0       ?OnSocketRead@CAndroidUserItem@@QAE_NGGPAXG@Z 10002ac0 f   AndroidUserItem.obj
 0001:00001ba0       ?OnSocketSubLogonFailure@CAndroidUserItem@@IAE_NPAXG@Z 10002ba0 f   AndroidUserItem.obj
 0001:00001bb0       ?OnSocketSubLogonFinish@CAndroidUserItem@@IAE_NPAXG@Z 10002bb0 f   AndroidUserItem.obj
 0001:00001ec0       ?OnSocketSubUserStatus@CAndroidUserItem@@IAE_NPAXG@Z 10002ec0 f   AndroidUserItem.obj
 0001:00002110       ?OnSocketSubSystemMessage@CAndroidUserItem@@IAE_NPAXG@Z 10003110 f   AndroidUserItem.obj
 0001:000021b0       ?OnSocketGameMessage@CAndroidUserItem@@IAE_NGGPAXG@Z 100031b0 f   AndroidUserItem.obj
 0001:00002450       ?StartGameClient@CAndroidUserItem@@IAEXXZ 10003450 f   AndroidUserItem.obj
 0001:00002500       ?CloseGameClient@CAndroidUserItem@@IAEXXZ 10003500 f   AndroidUserItem.obj
 0001:00002550       ?RepositUserItem@CAndroidUserItem@@QAEXXZ 10003550 f   AndroidUserItem.obj
 0001:000027f0       ?EfficacyFreeChatMessage@CAndroidUserItem@@QAE_NXZ 100037f0 f   AndroidUserItem.obj
 0001:00002960       ?RectifyHangingStatus@CAndroidUserItem@@QAE_NAA_N@Z 10003960 f   AndroidUserItem.obj
 0001:00002b80       ?GetCarryGradeIndex@CAndroidUserItem@@UAEEXZ 10003b80 f   AndroidUserItem.obj
 0001:00002bd0       ?GetLeaveGradeIndex@CAndroidUserItem@@QAEEXZ 10003bd0 f   AndroidUserItem.obj
 0001:00002c30       ?ModifySwitchTableRate@CAndroidUserItem@@QAEX_N@Z 10003c30 f   AndroidUserItem.obj
 0001:00002cd0       ??3@YAXPAX0@Z              10003cd0 f i AndroidUserManager.obj
 0001:00002cd0       ??$_Destroy_range1@V?$allocator@UtagPropertyBuff@@@std@@PAUtagPropertyBuff@@@std@@YAXPAUtagPropertyBuff@@0AAU?$_Wrap_alloc@V?$allocator@UtagPropertyBuff@@@std@@@0@U?$integral_constant@_N$00@0@@Z 10003cd0 f i GamePropertyManager.obj
 0001:00002cd0       ?__global_delete@@YAXPAXI@Z 10003cd0 f i AndroidUserItem.obj
 0001:00002cd0       ??$__vcrt_va_start_verify_argument_type@PB_W@@YAXXZ 10003cd0 f i AndroidUserItem.obj
 0001:00002cd0       ?__empty_global_delete@@YAXPAXI@Z 10003cd0 f i AndroidUserItem.obj
 0001:00002ce0       ??$ceil@_J@@YAN_J@Z        10003ce0 f i AndroidUserItem.obj
 0001:00002d10       ??0?$CWHArray@PAUtagTableItem@@ABQAU1@@@QAE@ABV0@@Z 10003d10 f i AndroidUserItem.obj
 0001:00002d60       ??0?$CWHArray@PAUtagTableItem@@ABQAU1@@@QAE@XZ 10003d60 f i AndroidUserItem.obj
 0001:00002da0       ??0?$CWHArray@PAUtagTimerItem@@ABQAU1@@@QAE@ABV0@@Z 10003da0 f i AndroidUserItem.obj
 0001:00002df0       ??0?$CWHArray@PAUtagTimerItem@@ABQAU1@@@QAE@XZ 10003df0 f i AndroidUserItem.obj
 0001:00002e30       ??0CAndroidUserItem@@QAE@ABV0@@Z 10003e30 f i AndroidUserItem.obj
 0001:00002fe0       ??0IAndroidUserItem@@QAE@ABU0@@Z 10003fe0 f i AndroidUserItem.obj
 0001:00003010       ??0IAndroidUserItem@@QAE@XZ 10004010 f i AndroidUserItem.obj
 0001:00003030       ??0IUnknownEx@@QAE@ABU0@@Z 10004030 f i AndroidUserItem.obj
 0001:00003050       ??0IUnknownEx@@QAE@XZ      10004050 f i AndroidUserItem.obj
 0001:00003070       ??0tagAndroidAccountsInfo@@QAE@XZ 10004070 f i AndroidUserItem.obj
 0001:00003090       ??1?$CWHArray@PAUtagTableItem@@ABQAU1@@@UAE@XZ 10004090 f i AndroidUserItem.obj
 0001:000030f0       ??1?$CWHArray@PAUtagTimerItem@@ABQAU1@@@UAE@XZ 100040f0 f i AndroidUserItem.obj
 0001:00003150       ??2@YAPAXIPAX@Z            10004150 f i AndroidUserItem.obj
 0001:00003160       ??4?$CWHArray@UtagPropertyInfo@@ABU1@@@QAEAAV0@ABV0@@Z 10004160 f i GamePropertyManager.obj
 0001:00003160       ??4?$CWHArray@PAUtagTimerItem@@ABQAU1@@@QAEAAV0@ABV0@@Z 10004160 f i AndroidUserItem.obj
 0001:00003160       ??4?$CWHArray@PAUtagTableItem@@ABQAU1@@@QAEAAV0@ABV0@@Z 10004160 f i AndroidUserItem.obj
 0001:000031a0       ??4CAndroidUserItem@@QAEAAV0@ABV0@@Z 100041a0 f i AndroidUserItem.obj
 0001:00003350       ??4IAndroidUserItem@@QAEAAU0@ABU0@@Z 10004350 f i AndroidUserItem.obj
 0001:00003370       ??_ECAndroidUserItem@@UAEPAXI@Z 10004370 f i AndroidUserItem.obj
 0001:00003420       ??_E?$CWHArray@PAUtagTableItem@@ABQAU1@@@UAEPAXI@Z 10004420 f i AndroidUserItem.obj
 0001:00003420       ??_G?$CWHArray@PAUtagTableItem@@ABQAU1@@@UAEPAXI@Z 10004420 f i AndroidUserItem.obj
 0001:00003450       ??_G?$CWHArray@PAUtagTimerItem@@ABQAU1@@@UAEPAXI@Z 10004450 f i AndroidUserItem.obj
 0001:00003450       ??_E?$CWHArray@PAUtagTimerItem@@ABQAU1@@@UAEPAXI@Z 10004450 f i AndroidUserItem.obj
 0001:00003480       ?Append@?$CWHArray@PAUtagTimerItem@@ABQAU1@@@QAEHABV1@@Z 10004480 f i AndroidUserItem.obj
 0001:00003480       ?Append@?$CWHArray@PAVCServerUserItem@@ABQAV1@@@QAEHABV1@@Z 10004480 f i ServerUserManager.obj
 0001:00003520       ?GetAndroidChatType@CAndroidUserItem@@UAEEXZ 10004520 f i AndroidUserItem.obj
 0001:00003540       ?GetBuildVer@@YAEK@Z       10004540 f i AndroidUserItem.obj
 0001:00003560       ?GetGameStatus@CAndroidUserItem@@UAEEXZ 10004560 f i AndroidUserItem.obj
 0001:00003580       ?GetLastChatMessageTickCount@CAndroidUserItem@@UAEKXZ 10004580 f i AndroidUserItem.obj
 0001:000035a0       ?GetLogonFinishTickCount@CAndroidUserItem@@UAEKXZ 100045a0 f i AndroidUserItem.obj
 0001:000035c0       ?GetMainVer@@YAEK@Z        100045c0 f i AndroidUserItem.obj
 0001:000035d0       ?GetProductVer@@YAEK@Z     100045d0 f i AndroidUserItem.obj
 0001:000035f0       ?GetRoomAIParameter@CAndroidUserItem@@UAEPAUtagRoomAIParameter@@XZ 100045f0 f i AndroidUserItem.obj
 0001:00003620       ?GetSubVer@@YAEK@Z         10004620 f i AndroidUserItem.obj
 0001:00003640       ?GetSwitchTableRate@CAndroidUserItem@@UAEGXZ 10004640 f i AndroidUserItem.obj
 0001:00003660       ?InterfaceVersionCompare@@YA_NKK@Z 10004660 f i AndroidUserItem.obj
 0001:00003710       ?IsAiHanging@CAndroidUserItem@@UAE_NXZ 10004710 f i AndroidUserItem.obj
 0001:00003730       ?Release@CAndroidUserItem@@UAEXXZ 10004730 f i AndroidUserItem.obj
 0001:00003770       ?RemoveAll@?$CWHArray@PAVCServerUserItem@@ABQAV1@@@QAEXXZ 10004770 f i ServerUserManager.obj
 0001:00003770       ?RemoveAll@?$CWHArray@PAVCAndroidUserItem@@ABQAV1@@@QAEXXZ 10004770 f i AndroidUserManager.obj
 0001:00003770       ?RemoveAll@?$CWHArray@PAUtagTaskParameter@@ABQAU1@@@QAEXXZ 10004770 f i UserTaskManager.obj
 0001:00003770       ?RemoveAll@?$CWHArray@PAUtagTimerItem@@ABQAU1@@@QAEXXZ 10004770 f i AndroidUserItem.obj
 0001:00003770       ?RemoveAll@?$CWHArray@PAUtagTableItem@@ABQAU1@@@QAEXXZ 10004770 f i AndroidUserItem.obj
 0001:00003770       ?RemoveAll@?$CWHArray@PAUtagAndroidAccountsInfo@@ABQAU1@@@QAEXXZ 10004770 f i AndroidUserManager.obj
 0001:00003770       ?RemoveAll@?$CWHArray@PAUtagAndroidLeaveInfo@@ABQAU1@@@QAEXXZ 10004770 f i AndroidUserManager.obj
 0001:00003770       ?RemoveAll@?$CWHArray@PAUtagUserTaskEntry@@ABQAU1@@@QAEXXZ 10004770 f i UserTaskManager.obj
 0001:000037d0       ?SetAndroidAction@CAndroidUserItem@@UAEXG_N@Z 100047d0 f i AndroidUserItem.obj
 0001:00003840       ?SetAndroidChatType@CAndroidUserItem@@UAEXG@Z 10004840 f i AndroidUserItem.obj
 0001:00003870       ?SetGameStatus@CAndroidUserItem@@UAEXE@Z 10004870 f i AndroidUserItem.obj
 0001:00003890       ?pow@@YAMMM@Z              10004890 f i AndroidUserItem.obj
 0001:000038c0       _==                        100048c0 f i AndroidUserItem.obj
 0001:000038f0       _IsEqualGUID               100048f0 f i AndroidUserItem.obj
 0001:00003930       ___local_stdio_printf_options 10004930 f i AndroidUserItem.obj
 0001:00003940       __vswprintf_s_l            10004940 f i AndroidUserItem.obj
 0001:00003990       _powf                      10004990 f i AndroidUserItem.obj
 0001:000039c0       _vswprintf_s               100049c0 f i AndroidUserItem.obj
 0001:00003b20       ??0CAndroidUserManager@@QAE@XZ 10004b20 f   AndroidUserManager.obj
 0001:00003d00       ??1CAndroidUserManager@@UAE@XZ 10004d00 f   AndroidUserManager.obj
 0001:00003d70       ?QueryInterface@CAndroidUserManager@@UAEPAXABU_GUID@@K@Z 10004d70 f   AndroidUserManager.obj
 0001:00003df0       ?StartService@CAndroidUserManager@@UAE_NXZ 10004df0 f   AndroidUserManager.obj
 0001:00003ea0       ?ConcludeService@CAndroidUserManager@@UAE_NXZ 10004ea0 f   AndroidUserManager.obj
 0001:00004230       ?InitAndroidUser@CAndroidUserManager@@UAE_NAAUtagAndroidUserParameter@@@Z 10005230 f   AndroidUserManager.obj
 0001:00004cc0       ?RemoveAndroidParameter@CAndroidUserManager@@UAE_NXZ 10005cc0 f   AndroidUserManager.obj
 0001:00004fc0       ?AddAndroidParameter@CAndroidUserManager@@UAE_NUtagAndroidParameter@@@Z 10005fc0 f   AndroidUserManager.obj
 0001:00005230       ?InsertAndroidInfo@CAndroidUserManager@@UAE_NQAUtagAndroidAccountsInfo@@GPAUtagGameChatInfo@@@Z 10006230 f   AndroidUserManager.obj
 0001:00005460       ?BindTableFrame@CAndroidUserManager@@UAE_NPAUITableFrame@@G@Z 10006460 f   AndroidUserManager.obj
 0001:000054c0       ?DeleteAndroidUserItem@CAndroidUserManager@@UAE_NK_N@Z 100064c0 f   AndroidUserManager.obj
 0001:000055e0       ?SearchAndroidUserItem@CAndroidUserManager@@UAEPAUIAndroidUserItem@@KK@Z 100065e0 f   AndroidUserManager.obj
 0001:00005660       ?CreateAndroidUserItem@CAndroidUserManager@@UAEPAUIAndroidUserItem@@AAUtagAndroidAccountsInfo@@@Z 10006660 f   AndroidUserManager.obj
 0001:00005a60       ?EnumAndroidUserItem@CAndroidUserManager@@UAEPAUIAndroidUserItem@@G@Z 10006a60 f   AndroidUserManager.obj
 0001:00005aa0       ?SetAndroidInitialCarryScore@CAndroidUserManager@@UAEXKK_J@Z 10006aa0 f   AndroidUserManager.obj
 0001:00005b00       ?SetAndroidGameVariationScore@CAndroidUserManager@@UAEXKK_J@Z 10006b00 f   AndroidUserManager.obj
 0001:00005b60       ?SetMainServiceFrame@CAndroidUserManager@@QAEXPAUIMainServiceFrame@@@Z 10006b60 f   AndroidUserManager.obj
 0001:00005b80       ?GetUserItem@CAndroidUserManager@@UAEPAUIServerUserItem@@GG@Z 10006b80 f   AndroidUserManager.obj
 0001:00005c10       ?OnEventTimerPulse@CAndroidUserManager@@UAE_NKI@Z 10006c10 f   AndroidUserManager.obj
 0001:00006210       ?GetAndroidHangingCount@CAndroidUserManager@@UAEGXZ 10007210 f   AndroidUserManager.obj
 0001:000062a0       ?GetAndroidLoadInfo@CAndroidUserManager@@UAE_NAAK@Z 100072a0 f   AndroidUserManager.obj
 0001:00006480       ?GetAndroidUserInfo@CAndroidUserManager@@UAEGAAUtagAndroidUserInfo@@K@Z 10007480 f   AndroidUserManager.obj
 0001:00006630       ?GetAndroidGradeCount@CAndroidUserManager@@UAEGG@Z 10007630 f   AndroidUserManager.obj
 0001:000066c0       ?SendDataToClient@CAndroidUserManager@@UAE_NGGPAXG@Z 100076c0 f   AndroidUserManager.obj
 0001:00006800       ?SendDataToClient@CAndroidUserManager@@UAE_NKGGPAXG@Z 10007800 f   AndroidUserManager.obj
 0001:00006900       ?SendDataToServer@CAndroidUserManager@@UAE_NKGGPAXG@Z 10007900 f   AndroidUserManager.obj
 0001:00006a20       ?SendLogData@CAndroidUserManager@@UAEXPA_W@Z 10007a20 f   AndroidUserManager.obj
 0001:00006a50       ?SendLogData@CAndroidUserManager@@UAEXUtagLogUserInfo@@@Z 10007a50 f   AndroidUserManager.obj
 0001:00006a90       ?FreeAndroidUserItem@CAndroidUserManager@@IAEXKG@Z 10007a90 f   AndroidUserManager.obj
 0001:00006c80       ?GetAndroidUserItem@CAndroidUserManager@@IAEPAVCAndroidUserItem@@G@Z 10007c80 f   AndroidUserManager.obj
 0001:00006d40       ?ActiveAndroidUserItem@CAndroidUserManager@@IAEPAVCAndroidUserItem@@AAUtagAndroidAccountsInfo@@@Z 10007d40 f   AndroidUserManager.obj
 0001:00007080       ?ActiveAndroidUserInfo@CAndroidUserManager@@IAEPAUtagAndroidAccountsInfo@@AAU2@@Z 10008080 f   AndroidUserManager.obj
 0001:000071e0       ?ForceAndroidUserItemStandup@CAndroidUserManager@@IAEXPAVCAndroidUserItem@@@Z 100081e0 f   AndroidUserManager.obj
 0001:00007280       ?AnalyseAndroidItemArrayLeave@CAndroidUserManager@@IAEXXZ 10008280 f   AndroidUserManager.obj
 0001:00007750       ?AnalyseLeaveGradeListValid@CAndroidUserManager@@IAE_NKV?$list@VSortTop@@V?$allocator@VSortTop@@@std@@@std@@H@Z 10008750 f   AndroidUserManager.obj
 0001:00007830       ?DynamicRectifyUserItemArrayHanging@CAndroidUserManager@@IAEXXZ 10008830 f   AndroidUserManager.obj
 0001:00007ca0       ?InitialAndroidIn@CAndroidUserManager@@IAEXXZ 10008ca0 f   AndroidUserManager.obj
 0001:00007e10       ?EfficacyAndroidInOut@CAndroidUserManager@@IAE_N_N@Z 10008e10 f   AndroidUserManager.obj
 0001:000082d0       ?EfficacyAndroidWaitLeave@CAndroidUserManager@@IAEXXZ 100092d0 f   AndroidUserManager.obj
 0001:00008440       ?GetUniqueCurrentIndex@CAndroidUserManager@@IAEGXZ 10009440 f   AndroidUserManager.obj
 0001:00008510       ??$?0U?$_Wrap_alloc@V?$allocator@U?$_List_node@VSortTop@@PAX@std@@@std@@@std@@$$V@?$_Compressed_pair@U?$_Wrap_alloc@V?$allocator@U?$_List_node@VSortTop@@PAX@std@@@std@@@std@@V?$_List_val@U?$_List_simple_types@VSortTop@@@std@@@2@$00@std@@QAE@U_One_then_variadic_args_t@1@$$QAU?$_Wrap_alloc@V?$allocator@U?$_List_node@VSortTop@@PAX@std@@@std@@@1@@Z 10009510 f i AndroidUserManager.obj
 0001:00008540       ??$?0U?$_Wrap_alloc@V?$allocator@U?$_List_node@VSortTop@@PAX@std@@@std@@@std@@X@?$_List_alloc@U?$_List_base_types@VSortTop@@V?$allocator@VSortTop@@@std@@@std@@@std@@QAE@$$QAU?$_Wrap_alloc@V?$allocator@U?$_List_node@VSortTop@@PAX@std@@@std@@@1@@Z 10009540 f i AndroidUserManager.obj
 0001:00008590       ??$?0U?$_Wrap_alloc@V?$allocator@U?$_List_node@VSortTop@@PAX@std@@@std@@@std@@X@?$_List_buy@VSortTop@@V?$allocator@VSortTop@@@std@@@std@@QAE@$$QAU?$_Wrap_alloc@V?$allocator@U?$_List_node@VSortTop@@PAX@std@@@std@@@1@@Z 10009590 f i AndroidUserManager.obj
 0001:000085c0       ??$?8U?$_List_node@VSortTop@@PAX@std@@U01@@std@@YA_NABV?$allocator@U?$_List_node@VSortTop@@PAX@std@@@0@0@Z 100095c0 f i AndroidUserManager.obj
 0001:000085d0       ??$?8V?$allocator@U?$_List_node@VSortTop@@PAX@std@@@std@@V01@@std@@YA_NABU?$_Wrap_alloc@V?$allocator@U?$_List_node@VSortTop@@PAX@std@@@std@@@0@0@Z 100095d0 f i AndroidUserManager.obj
 0001:000085f0       ??$?9V?$allocator@U?$_List_node@VSortTop@@PAX@std@@@std@@V01@@std@@YA_NABU?$_Wrap_alloc@V?$allocator@U?$_List_node@VSortTop@@PAX@std@@@std@@@0@0@Z 100095f0 f i AndroidUserManager.obj
 0001:00008630       ??$?RAAVSortTop@@AAV0@@?$less@X@std@@QBE_NAAVSortTop@@0@Z 10009630 f i AndroidUserManager.obj
 0001:00008660       ??$CompareElements@KK@@YGHPBK0@Z 10009660 f i AndroidUserManager.obj
 0001:00008660       ??$CompareElements@HH@@YGHPBH0@Z 10009660 f i ServerUserManager.obj
 0001:000086c0       ??$HashKey@H@@YGIH@Z       100096c0 f i ServerUserManager.obj
 0001:000086c0       ??$HashKey@K@@YGIK@Z       100096c0 f i AndroidUserManager.obj
 0001:00008720       ??$_Advance1@V?$_List_iterator@V?$_List_val@U?$_List_simple_types@VSortTop@@@std@@@std@@@std@@H@std@@YAXAAV?$_List_iterator@V?$_List_val@U?$_List_simple_types@VSortTop@@@std@@@std@@@0@HUbidirectional_iterator_tag@0@@Z 10009720 f i AndroidUserManager.obj
 0001:00008760       ??$_Buynode@VSortTop@@@?$_List_buy@VSortTop@@V?$allocator@VSortTop@@@std@@@std@@QAEPAU?$_List_node@VSortTop@@PAX@1@PAU21@0$$QAVSortTop@@@Z 10009760 f i AndroidUserManager.obj
 0001:00008760       ??$_Buynode@ABVSortTop@@@?$_List_buy@VSortTop@@V?$allocator@VSortTop@@@std@@@std@@QAEPAU?$_List_node@VSortTop@@PAX@1@PAU21@0ABVSortTop@@@Z 10009760 f i AndroidUserManager.obj
 0001:00008830       ??$_Insert@VSortTop@@@?$list@VSortTop@@V?$allocator@VSortTop@@@std@@@std@@QAEXV?$_List_unchecked_const_iterator@V?$_List_val@U?$_List_simple_types@VSortTop@@@std@@@std@@U_Iterator_base0@2@@1@$$QAVSortTop@@@Z 10009830 f i AndroidUserManager.obj
 0001:00008830       ??$_Insert@ABVSortTop@@@?$list@VSortTop@@V?$allocator@VSortTop@@@std@@@std@@QAEXV?$_List_unchecked_const_iterator@V?$_List_val@U?$_List_simple_types@VSortTop@@@std@@@std@@U_Iterator_base0@2@@1@ABVSortTop@@@Z 10009830 f i AndroidUserManager.obj
 0001:000088b0       ??$_Insert_range@V?$_List_const_iterator@V?$_List_val@U?$_List_simple_types@VSortTop@@@std@@@std@@@std@@@?$list@VSortTop@@V?$allocator@VSortTop@@@std@@@std@@QAEXV?$_List_unchecked_const_iterator@V?$_List_val@U?$_List_simple_types@VSortTop@@@std@@@std@@U_Iterator_base0@2@@1@V?$_List_const_iterator@V?$_List_val@U?$_List_simple_types@VSortTop@@@std@@@std@@@1@1Uforward_iterator_tag@1@@Z 100098b0 f i AndroidUserManager.obj
 0001:000089a0       ??$_Sort@U?$less@X@std@@@?$list@VSortTop@@V?$allocator@VSortTop@@@std@@@std@@QAE?AV?$_List_iterator@V?$_List_val@U?$_List_simple_types@VSortTop@@@std@@@std@@@1@V21@0AAU?$less@X@1@I@Z 100099a0 f i AndroidUserManager.obj
 0001:00008af0       ??$advance@V?$_List_iterator@V?$_List_val@U?$_List_simple_types@VSortTop@@@std@@@std@@@std@@H@std@@YAXAAV?$_List_iterator@V?$_List_val@U?$_List_simple_types@VSortTop@@@std@@@std@@@0@H@Z 10009af0 f i AndroidUserManager.obj
 0001:00008b20       ??$construct@PAU?$_Tree_node@U?$pair@$$CBKV?$vector@UtagPropertyBuff@@V?$allocator@UtagPropertyBuff@@@std@@@std@@@std@@PAX@std@@AAPAU12@@?$_Wrap_alloc@V?$allocator@U?$_Tree_node@U?$pair@$$CBKV?$vector@UtagPropertyBuff@@V?$allocator@UtagPropertyBuff@@@std@@@std@@@std@@PAX@std@@@std@@@std@@QAEXPAPAU?$_Tree_node@U?$pair@$$CBKV?$vector@UtagPropertyBuff@@V?$allocator@UtagPropertyBuff@@@std@@@std@@@std@@PAX@1@AAPAU21@@Z 10009b20 f i GamePropertyManager.obj
 0001:00008b20       ??$construct@PAU?$_List_node@VSortTop@@PAX@std@@AAPAU12@@?$_Wrap_alloc@V?$allocator@U?$_List_node@VSortTop@@PAX@std@@@std@@@std@@QAEXPAPAU?$_List_node@VSortTop@@PAX@1@AAPAU21@@Z 10009b20 f i AndroidUserManager.obj
 0001:00008b50       ??$construct@PAU?$_Tree_node@U?$pair@$$CBKV?$vector@UtagPropertyBuff@@V?$allocator@UtagPropertyBuff@@@std@@@std@@@std@@PAX@std@@AAPAU12@@?$allocator@U?$_Tree_node@U?$pair@$$CBKV?$vector@UtagPropertyBuff@@V?$allocator@UtagPropertyBuff@@@std@@@std@@@std@@PAX@std@@@std@@QAEXPAPAU?$_Tree_node@U?$pair@$$CBKV?$vector@UtagPropertyBuff@@V?$allocator@UtagPropertyBuff@@@std@@@std@@@std@@PAX@1@AAPAU21@@Z 10009b50 f i GamePropertyManager.obj
 0001:00008b50       ??$construct@PAU?$_List_node@VSortTop@@PAX@std@@AAPAU12@@?$allocator@U?$_List_node@VSortTop@@PAX@std@@@std@@QAEXPAPAU?$_List_node@VSortTop@@PAX@1@AAPAU21@@Z 10009b50 f i AndroidUserManager.obj
 0001:00008ba0       ??$construct@PAU?$_List_node@VSortTop@@PAX@std@@AAPAU12@@?$allocator_traits@V?$allocator@U?$_List_node@VSortTop@@PAX@std@@@std@@@std@@SAXAAV?$allocator@U?$_List_node@VSortTop@@PAX@std@@@1@PAPAU?$_List_node@VSortTop@@PAX@1@AAPAU31@@Z 10009ba0 f i AndroidUserManager.obj
 0001:00008ba0       ??$construct@PAU?$_Tree_node@U?$pair@$$CBKV?$vector@UtagPropertyBuff@@V?$allocator@UtagPropertyBuff@@@std@@@std@@@std@@PAX@std@@AAPAU12@@?$allocator_traits@V?$allocator@U?$_Tree_node@U?$pair@$$CBKV?$vector@UtagPropertyBuff@@V?$allocator@UtagPropertyBuff@@@std@@@std@@@std@@PAX@std@@@std@@@std@@SAXAAV?$allocator@U?$_Tree_node@U?$pair@$$CBKV?$vector@UtagPropertyBuff@@V?$allocator@UtagPropertyBuff@@@std@@@std@@@std@@PAX@std@@@1@PAPAU?$_Tree_node@U?$pair@$$CBKV?$vector@UtagPropertyBuff@@V?$allocator@UtagPropertyBuff@@@std@@@std@@@std@@PAX@1@AAPAU31@@Z 10009ba0 f i GamePropertyManager.obj
 0001:00008bc0       ??$construct@VSortTop@@V1@@?$_Wrap_alloc@V?$allocator@U?$_List_node@VSortTop@@PAX@std@@@std@@@std@@QAEXPAVSortTop@@$$QAV2@@Z 10009bc0 f i AndroidUserManager.obj
 0001:00008bc0       ??$construct@VSortTop@@ABV1@@?$_Wrap_alloc@V?$allocator@U?$_List_node@VSortTop@@PAX@std@@@std@@@std@@QAEXPAVSortTop@@ABV2@@Z 10009bc0 f i AndroidUserManager.obj
 0001:00008bf0       ??$construct@VSortTop@@ABV1@@?$allocator@U?$_List_node@VSortTop@@PAX@std@@@std@@QAEXPAVSortTop@@ABV2@@Z 10009bf0 f i AndroidUserManager.obj
 0001:00008bf0       ??$construct@VSortTop@@V1@@?$allocator@U?$_List_node@VSortTop@@PAX@std@@@std@@QAEXPAVSortTop@@$$QAV2@@Z 10009bf0 f i AndroidUserManager.obj
 0001:00008c50       ??$construct@VSortTop@@V1@@?$allocator_traits@V?$allocator@U?$_List_node@VSortTop@@PAX@std@@@std@@@std@@SAXAAV?$allocator@U?$_List_node@VSortTop@@PAX@std@@@1@PAVSortTop@@$$QAV3@@Z 10009c50 f i AndroidUserManager.obj
 0001:00008c50       ??$construct@VSortTop@@ABV1@@?$allocator_traits@V?$allocator@U?$_List_node@VSortTop@@PAX@std@@@std@@@std@@SAXAAV?$allocator@U?$_List_node@VSortTop@@PAX@std@@@1@PAVSortTop@@ABV3@@Z 10009c50 f i AndroidUserManager.obj
 0001:00008c70       ??$destroy@PAU?$_List_node@VSortTop@@PAX@std@@@?$_Wrap_alloc@V?$allocator@U?$_List_node@VSortTop@@PAX@std@@@std@@@std@@QAEXPAPAU?$_List_node@VSortTop@@PAX@1@@Z 10009c70 f i AndroidUserManager.obj
 0001:00008c70       ??$destroy@PAU?$_Tree_node@U?$pair@$$CBKV?$vector@UtagPropertyBuff@@V?$allocator@UtagPropertyBuff@@@std@@@std@@@std@@PAX@std@@@?$_Wrap_alloc@V?$allocator@U?$_Tree_node@U?$pair@$$CBKV?$vector@UtagPropertyBuff@@V?$allocator@UtagPropertyBuff@@@std@@@std@@@std@@PAX@std@@@std@@@std@@QAEXPAPAU?$_Tree_node@U?$pair@$$CBKV?$vector@UtagPropertyBuff@@V?$allocator@UtagPropertyBuff@@@std@@@std@@@std@@PAX@1@@Z 10009c70 f i GamePropertyManager.obj
 0001:00008c90       ??$destroy@PAU?$_List_node@VSortTop@@PAX@std@@@?$allocator_traits@V?$allocator@U?$_List_node@VSortTop@@PAX@std@@@std@@@std@@SAXAAV?$allocator@U?$_List_node@VSortTop@@PAX@std@@@1@PAPAU?$_List_node@VSortTop@@PAX@1@@Z 10009c90 f i AndroidUserManager.obj
 0001:00008c90       ??$destroy@PAU?$_Tree_node@U?$pair@$$CBKV?$vector@UtagPropertyBuff@@V?$allocator@UtagPropertyBuff@@@std@@@std@@@std@@PAX@std@@@?$allocator_traits@V?$allocator@U?$_Tree_node@U?$pair@$$CBKV?$vector@UtagPropertyBuff@@V?$allocator@UtagPropertyBuff@@@std@@@std@@@std@@PAX@std@@@std@@@std@@SAXAAV?$allocator@U?$_Tree_node@U?$pair@$$CBKV?$vector@UtagPropertyBuff@@V?$allocator@UtagPropertyBuff@@@std@@@std@@@std@@PAX@std@@@1@PAPAU?$_Tree_node@U?$pair@$$CBKV?$vector@UtagPropertyBuff@@V?$allocator@UtagPropertyBuff@@@std@@@std@@@std@@PAX@1@@Z 10009c90 f i GamePropertyManager.obj
 0001:00008cb0       ??$destroy@VSortTop@@@?$_Wrap_alloc@V?$allocator@U?$_List_node@VSortTop@@PAX@std@@@std@@@std@@QAEXPAVSortTop@@@Z 10009cb0 f i AndroidUserManager.obj
 0001:00008cd0       ??$destroy@VSortTop@@@?$allocator@U?$_List_node@VSortTop@@PAX@std@@@std@@QAEXPAVSortTop@@@Z 10009cd0 f i AndroidUserManager.obj
 0001:00008cf0       ??$destroy@VSortTop@@@?$allocator_traits@V?$allocator@U?$_List_node@VSortTop@@PAX@std@@@std@@@std@@SAXAAV?$allocator@U?$_List_node@VSortTop@@PAX@std@@@1@PAVSortTop@@@Z 10009cf0 f i AndroidUserManager.obj
 0001:00008d10       ??$insert@V?$_List_const_iterator@V?$_List_val@U?$_List_simple_types@VSortTop@@@std@@@std@@@std@@@?$list@VSortTop@@V?$allocator@VSortTop@@@std@@@std@@QAE?AV?$_List_iterator@V?$_List_val@U?$_List_simple_types@VSortTop@@@std@@@std@@@1@V?$_List_const_iterator@V?$_List_val@U?$_List_simple_types@VSortTop@@@std@@@std@@@1@00@Z 10009d10 f i AndroidUserManager.obj
 0001:00008de0       ??$next@V?$_List_iterator@V?$_List_val@U?$_List_simple_types@VSortTop@@@std@@@std@@@std@@@std@@YA?AV?$_List_iterator@V?$_List_val@U?$_List_simple_types@VSortTop@@@std@@@std@@@0@V10@H@Z 10009de0 f i AndroidUserManager.obj
 0001:00008e00       ??$sort@U?$less@X@std@@@?$list@VSortTop@@V?$allocator@VSortTop@@@std@@@std@@QAEXU?$less@X@1@@Z 10009e00 f i AndroidUserManager.obj
 0001:00008e50       ??0?$CMap@KKPAVCAndroidUserItem@@PAV1@@@QAE@H@Z 10009e50 f i AndroidUserManager.obj
 0001:00008eb0       ??0?$CWHArray@PAUtagAndroidAccountsInfo@@ABQAU1@@@QAE@XZ 10009eb0 f i AndroidUserManager.obj
 0001:00008ef0       ??0?$CWHArray@PAUtagAndroidLeaveInfo@@ABQAU1@@@QAE@XZ 10009ef0 f i AndroidUserManager.obj
 0001:00008f30       ??0?$CWHArray@PAVCAndroidUserItem@@ABQAV1@@@QAE@XZ 10009f30 f i AndroidUserManager.obj
 0001:00008f70       ??0?$_List_alloc@U?$_List_base_types@VSortTop@@V?$allocator@VSortTop@@@std@@@std@@@std@@QAE@XZ 10009f70 f i AndroidUserManager.obj
 0001:00008fb0       ??0?$_List_buy@VSortTop@@V?$allocator@VSortTop@@@std@@@std@@QAE@XZ 10009fb0 f i AndroidUserManager.obj
 0001:00008fd0       ??0?$_List_unchecked_iterator@V?$_List_val@U?$_List_simple_types@VSortTop@@@std@@@std@@@std@@QAE@PAU?$_List_node@VSortTop@@PAX@1@PBV?$_List_val@U?$_List_simple_types@VSortTop@@@std@@@1@@Z 10009fd0 f i AndroidUserManager.obj
 0001:00008fd0       ??0?$_List_const_iterator@V?$_List_val@U?$_List_simple_types@VSortTop@@@std@@@std@@@std@@QAE@PAU?$_List_node@VSortTop@@PAX@1@PBV?$_List_val@U?$_List_simple_types@VSortTop@@@std@@@1@@Z 10009fd0 f i AndroidUserManager.obj
 0001:00008fd0       ??0?$_Tree_const_iterator@V?$_Tree_val@U?$_Tree_simple_types@U?$pair@$$CBKV?$vector@UtagPropertyBuff@@V?$allocator@UtagPropertyBuff@@@std@@@std@@@std@@@std@@@std@@@std@@QAE@PAU?$_Tree_node@U?$pair@$$CBKV?$vector@UtagPropertyBuff@@V?$allocator@UtagPropertyBuff@@@std@@@std@@@std@@PAX@1@PBV?$_Tree_val@U?$_Tree_simple_types@U?$pair@$$CBKV?$vector@UtagPropertyBuff@@V?$allocator@UtagPropertyBuff@@@std@@@std@@@std@@@std@@@1@@Z 10009fd0 f i GamePropertyManager.obj
 0001:00008ff0       ??0?$_Tree_val@U?$_Tree_simple_types@U?$pair@$$CBKV?$vector@UtagPropertyBuff@@V?$allocator@UtagPropertyBuff@@@std@@@std@@@std@@@std@@@std@@QAE@XZ 10009ff0 f i GamePropertyManager.obj
 0001:00008ff0       ??0?$_List_val@U?$_List_simple_types@VSortTop@@@std@@@std@@QAE@XZ 10009ff0 f i AndroidUserManager.obj
 0001:00009020       ??0?$_Wrap_alloc@V?$allocator@UtagPropertyBuff@@@std@@@std@@QAE@$$QAU01@@Z 1000a020 f i GamePropertyManager.obj
 0001:00009020       ??0?$_Wrap_alloc@V?$allocator@U?$_List_node@VSortTop@@PAX@std@@@std@@@std@@QAE@$$QAU01@@Z 1000a020 f i AndroidUserManager.obj
 0001:00009020       ??$?0V?$allocator@UtagPropertyBuff@@@std@@@?$_Wrap_alloc@V?$allocator@UtagPropertyBuff@@@std@@@std@@QAE@$$QAV?$allocator@UtagPropertyBuff@@@1@@Z 1000a020 f i GamePropertyManager.obj
 0001:00009020       ??$?0V?$allocator@U?$_List_node@VSortTop@@PAX@std@@@std@@@?$_Wrap_alloc@V?$allocator@U?$_List_node@VSortTop@@PAX@std@@@std@@@std@@QAE@$$QAV?$allocator@U?$_List_node@VSortTop@@PAX@std@@@1@@Z 1000a020 f i AndroidUserManager.obj
 0001:00009050       ??0?$tuple@$$V@std@@QAE@ABV01@@Z 1000a050 f i GamePropertyManager.obj
 0001:00009050       ??4IUnknownEx@@QAEAAU0@ABU0@@Z 1000a050 f i AndroidUserItem.obj
 0001:00009050       ??0?$allocator@UtagPropertyBuff@@@std@@QAE@ABV01@@Z 1000a050 f i GamePropertyManager.obj
 0001:00009050       ??0?$allocator@U?$_List_node@VSortTop@@PAX@std@@@std@@QAE@ABV01@@Z 1000a050 f i AndroidUserManager.obj
 0001:00009050       ??$?0U_Exact_args_t@std@@$0A@@?$tuple@$$V@std@@QAE@U_Exact_args_t@1@@Z 1000a050 f i GamePropertyManager.obj
 0001:00009060       ??0?$list@VSortTop@@V?$allocator@VSortTop@@@std@@@std@@QAE@ABV01@@Z 1000a060 f i AndroidUserManager.obj
 0001:00009150       ??0?$list@VSortTop@@V?$allocator@VSortTop@@@std@@@std@@QAE@XZ 1000a150 f i AndroidUserManager.obj
 0001:00009170       ??0CPair@?$CMap@KKPAVCServerUserItem@@PAV1@@@IAE@K@Z 1000a170 f i ServerUserManager.obj
 0001:00009170       ??0CPair@?$CMap@KKPAVCAndroidUserItem@@PAV1@@@IAE@K@Z 1000a170 f i AndroidUserManager.obj
 0001:00009170       ??0CPair@?$CMap@KKPAUtagUserTaskEntry@@PAU1@@@IAE@K@Z 1000a170 f i UserTaskManager.obj
 0001:00009170       ??0CPair@?$CMap@HHPAUtagGameDataItem@@AAPAU1@@@IAE@H@Z 1000a170 f i ServerUserManager.obj
 0001:00009190       ??0IAndroidUserManager@@QAE@XZ 1000a190 f i AndroidUserManager.obj
 0001:000091b0       ??0SortTop@@QAE@K_J@Z      1000a1b0 f i AndroidUserManager.obj
 0001:000091e0       ??0tagRoomAIParameter@@QAE@XZ 1000a1e0 f i AndroidUserManager.obj
 0001:00009ad0       ??1?$CMap@KKPAVCAndroidUserItem@@PAV1@@@UAE@XZ 1000aad0 f i AndroidUserManager.obj
 0001:00009b20       ??1?$CWHArray@PAUtagAndroidAccountsInfo@@ABQAU1@@@UAE@XZ 1000ab20 f i AndroidUserManager.obj
 0001:00009b80       ??1?$CWHArray@PAUtagAndroidLeaveInfo@@ABQAU1@@@UAE@XZ 1000ab80 f i AndroidUserManager.obj
 0001:00009be0       ??1?$CWHArray@PAVCAndroidUserItem@@ABQAV1@@@UAE@XZ 1000abe0 f i AndroidUserManager.obj
 0001:00009c40       ??1?$_List_alloc@U?$_List_base_types@VSortTop@@V?$allocator@VSortTop@@@std@@@std@@@std@@QAE@XZ 1000ac40 f i AndroidUserManager.obj
 0001:00009c90       ??1?$_List_buy@VSortTop@@V?$allocator@VSortTop@@@std@@@std@@QAE@XZ 1000ac90 f i AndroidUserManager.obj
 0001:00009cb0       ??1?$list@VSortTop@@V?$allocator@VSortTop@@@std@@@std@@QAE@XZ 1000acb0 f i AndroidUserManager.obj
 0001:00009d00       ??3CObject@@SGXPAX@Z       1000ad00 f i AndroidUserManager.obj
 0001:00009d20       ??8?$_Tree_const_iterator@V?$_Tree_val@U?$_Tree_simple_types@U?$pair@$$CBKV?$vector@UtagPropertyBuff@@V?$allocator@UtagPropertyBuff@@@std@@@std@@@std@@@std@@@std@@@std@@QBE_NABV01@@Z 1000ad20 f i GamePropertyManager.obj
 0001:00009d20       ??8?$_List_const_iterator@V?$_List_val@U?$_List_simple_types@VSortTop@@@std@@@std@@@std@@QBE_NABV01@@Z 1000ad20 f i AndroidUserManager.obj
 0001:00009d50       ??A?$CMap@HHPAUtagGameDataItem@@AAPAU1@@@QAEAAPAUtagGameDataItem@@H@Z 1000ad50 f i ServerUserManager.obj
 0001:00009d50       ??A?$CMap@KKPAVCServerUserItem@@PAV1@@@QAEAAPAVCServerUserItem@@K@Z 1000ad50 f i ServerUserManager.obj
 0001:00009d50       ??A?$CMap@KKPAUtagUserTaskEntry@@PAU1@@@QAEAAPAUtagUserTaskEntry@@K@Z 1000ad50 f i UserTaskManager.obj
 0001:00009d50       ??A?$CMap@KKPAVCAndroidUserItem@@PAV1@@@QAEAAPAVCAndroidUserItem@@K@Z 1000ad50 f i AndroidUserManager.obj
 0001:00009e10       ??A?$CWHArray@PAVCServerUserItem@@ABQAV1@@@QAEAAPAVCServerUserItem@@H@Z 1000ae10 f i ServerUserManager.obj
 0001:00009e10       ??A?$CWHArray@PAUtagTimerItem@@ABQAU1@@@QAEAAPAUtagTimerItem@@H@Z 1000ae10 f i AndroidUserItem.obj
 0001:00009e10       ??A?$CWHArray@PAVCAndroidUserItem@@ABQAV1@@@QAEAAPAVCAndroidUserItem@@H@Z 1000ae10 f i AndroidUserManager.obj
 0001:00009e10       ??A?$CWHArray@PAUtagTaskParameter@@ABQAU1@@@QAEAAPAUtagTaskParameter@@H@Z 1000ae10 f i UserTaskManager.obj
 0001:00009e10       ??A?$CWHArray@PAUtagAndroidAccountsInfo@@ABQAU1@@@QAEAAPAUtagAndroidAccountsInfo@@H@Z 1000ae10 f i AndroidUserManager.obj
 0001:00009e10       ??A?$CWHArray@PAUtagAndroidLeaveInfo@@ABQAU1@@@QAEAAPAUtagAndroidLeaveInfo@@H@Z 1000ae10 f i AndroidUserManager.obj
 0001:00009e10       ??A?$CWHArray@PAUtagUserTaskEntry@@ABQAU1@@@QAEAAPAUtagUserTaskEntry@@H@Z 1000ae10 f i UserTaskManager.obj
 0001:00009e10       ??A?$CWHArray@PAUtagTableItem@@ABQAU1@@@QAEAAPAUtagTableItem@@H@Z 1000ae10 f i AndroidUserItem.obj
 0001:00009e30       ??D?$_List_const_iterator@V?$_List_val@U?$_List_simple_types@VSortTop@@@std@@@std@@@std@@QBEABVSortTop@@XZ 1000ae30 f i AndroidUserManager.obj
 0001:00009e50       ??D?$_List_iterator@V?$_List_val@U?$_List_simple_types@VSortTop@@@std@@@std@@@std@@QBEAAVSortTop@@XZ 1000ae50 f i AndroidUserManager.obj
 0001:00009e70       ??E?$_List_const_iterator@V?$_List_val@U?$_List_simple_types@VSortTop@@@std@@@std@@@std@@QAEAAV01@XZ 1000ae70 f i AndroidUserManager.obj
 0001:00009ea0       ??E?$_List_iterator@V?$_List_val@U?$_List_simple_types@VSortTop@@@std@@@std@@@std@@QAE?AV01@H@Z 1000aea0 f i AndroidUserManager.obj
 0001:00009ed0       ??E?$_List_iterator@V?$_List_val@U?$_List_simple_types@VSortTop@@@std@@@std@@@std@@QAEAAV01@XZ 1000aed0 f i AndroidUserManager.obj
 0001:00009ef0       ??F?$_List_unchecked_const_iterator@V?$_List_val@U?$_List_simple_types@VSortTop@@@std@@@std@@U_Iterator_base0@2@@std@@QAEAAV01@XZ 1000aef0 f i AndroidUserManager.obj
 0001:00009ef0       ??F?$_List_const_iterator@V?$_List_val@U?$_List_simple_types@VSortTop@@@std@@@std@@@std@@QAEAAV01@XZ 1000aef0 f i AndroidUserManager.obj
 0001:00009f20       ??F?$_List_iterator@V?$_List_val@U?$_List_simple_types@VSortTop@@@std@@@std@@@std@@QAEAAV01@XZ 1000af20 f i AndroidUserManager.obj
 0001:00009f40       ??MSortTop@@QAE_NV0@@Z     1000af40 f i AndroidUserManager.obj
 0001:00009f90       ??_ECAndroidUserManager@@UAEPAXI@Z 1000af90 f i AndroidUserManager.obj
 0001:0000a040       ??_G?$CMap@KKPAVCAndroidUserItem@@PAV1@@@UAEPAXI@Z 1000b040 f i AndroidUserManager.obj
 0001:0000a040       ??_E?$CMap@KKPAVCAndroidUserItem@@PAV1@@@UAEPAXI@Z 1000b040 f i AndroidUserManager.obj
 0001:0000a090       ??_E?$CWHArray@PAUtagAndroidAccountsInfo@@ABQAU1@@@UAEPAXI@Z 1000b090 f i AndroidUserManager.obj
 0001:0000a090       ??_G?$CWHArray@PAUtagAndroidAccountsInfo@@ABQAU1@@@UAEPAXI@Z 1000b090 f i AndroidUserManager.obj
 0001:0000a0c0       ??_E?$CWHArray@PAUtagAndroidLeaveInfo@@ABQAU1@@@UAEPAXI@Z 1000b0c0 f i AndroidUserManager.obj
 0001:0000a0c0       ??_G?$CWHArray@PAUtagAndroidLeaveInfo@@ABQAU1@@@UAEPAXI@Z 1000b0c0 f i AndroidUserManager.obj
 0001:0000a0f0       ??_G?$CWHArray@PAVCAndroidUserItem@@ABQAV1@@@UAEPAXI@Z 1000b0f0 f i AndroidUserManager.obj
 0001:0000a0f0       ??_E?$CWHArray@PAVCAndroidUserItem@@ABQAV1@@@UAEPAXI@Z 1000b0f0 f i AndroidUserManager.obj
 0001:0000a120       ??_GSortTop@@QAEPAXI@Z     1000b120 f i AndroidUserManager.obj
 0001:0000a150       ?ElementAt@?$CWHArray@PAUtagTaskParameter@@ABQAU1@@@QAEAAPAUtagTaskParameter@@H@Z 1000b150 f i UserTaskManager.obj
 0001:0000a150       ?ElementAt@?$CWHArray@PAUtagUserTaskEntry@@ABQAU1@@@QAEAAPAUtagUserTaskEntry@@H@Z 1000b150 f i UserTaskManager.obj
 0001:0000a150       ?ElementAt@?$CWHArray@PAVCServerUserItem@@ABQAV1@@@QAEAAPAVCServerUserItem@@H@Z 1000b150 f i ServerUserManager.obj
 0001:0000a150       ?ElementAt@?$CWHArray@PAUtagAndroidLeaveInfo@@ABQAU1@@@QAEAAPAUtagAndroidLeaveInfo@@H@Z 1000b150 f i AndroidUserManager.obj
 0001:0000a150       ?ElementAt@?$CWHArray@PAUtagAndroidAccountsInfo@@ABQAU1@@@QAEAAPAUtagAndroidAccountsInfo@@H@Z 1000b150 f i AndroidUserManager.obj
 0001:0000a150       ?ElementAt@?$CWHArray@PAUtagTimerItem@@ABQAU1@@@QAEAAPAUtagTimerItem@@H@Z 1000b150 f i AndroidUserItem.obj
 0001:0000a150       ?ElementAt@?$CWHArray@PAUtagTableItem@@ABQAU1@@@QAEAAPAUtagTableItem@@H@Z 1000b150 f i AndroidUserItem.obj
 0001:0000a150       ?ElementAt@?$CWHArray@PAVCAndroidUserItem@@ABQAV1@@@QAEAAPAVCAndroidUserItem@@H@Z 1000b150 f i AndroidUserManager.obj
 0001:0000a180       ?EnsureRead@CArchive@@QAEXPAXI@Z 1000b180 f i AndroidUserManager.obj
 0001:0000a1c0       ?FreeAssoc@?$CMap@KKPAUtagUserTaskEntry@@PAU1@@@IAEXPAVCAssoc@1@@Z 1000b1c0 f i UserTaskManager.obj
 0001:0000a1c0       ?FreeAssoc@?$CMap@KKPAVCAndroidUserItem@@PAV1@@@IAEXPAVCAssoc@1@@Z 1000b1c0 f i AndroidUserManager.obj
 0001:0000a1c0       ?FreeAssoc@?$CMap@KKPAVCServerUserItem@@PAV1@@@IAEXPAVCAssoc@1@@Z 1000b1c0 f i ServerUserManager.obj
 0001:0000a210       ?GetAndroidCount@CAndroidUserManager@@UAEGXZ 1000b210 f i AndroidUserManager.obj
 0001:0000a230       ?GetAndroidParameter@CAndroidUserManager@@UAEPAUtagAndroidParameter@@XZ 1000b230 f i AndroidUserManager.obj
 0001:0000a230       ?data@CPlex@@QAEPAXXZ      1000b230 f i AndroidUserManager.obj
 0001:0000a230       ?GetUserInfo@CServerUserItem@@UAEPAUtagUserInfo@@XZ 1000b230 f i ServerUserManager.obj
 0001:0000a250       ?GetAndroidStock@CAndroidUserManager@@UAEGXZ 1000b250 f i AndroidUserManager.obj
 0001:0000a270       ?GetAssocAt@?$CMap@KKPAVCAndroidUserItem@@PAV1@@@IBEPAVCAssoc@1@KAAI0@Z 1000b270 f i AndroidUserManager.obj
 0001:0000a270       ?GetAssocAt@?$CMap@HHPAUtagGameDataItem@@AAPAU1@@@IBEPAVCAssoc@1@HAAI0@Z 1000b270 f i ServerUserManager.obj
 0001:0000a270       ?GetAssocAt@?$CMap@KKPAUtagUserTaskEntry@@PAU1@@@IBEPAVCAssoc@1@KAAI0@Z 1000b270 f i UserTaskManager.obj
 0001:0000a270       ?GetAssocAt@?$CMap@KKPAVCServerUserItem@@PAV1@@@IBEPAVCAssoc@1@KAAI0@Z 1000b270 f i ServerUserManager.obj
 0001:0000a300       ?GetGameChatInfo@CAndroidUserManager@@UAEPAUtagGameChatInfo@@XZ 1000b300 f i AndroidUserManager.obj
 0001:0000a320       ?GetGameMatchOption@CAndroidUserManager@@UAEPAUtagGameMatchOption@@XZ 1000b320 f i AndroidUserManager.obj
 0001:0000a340       ?GetGameServiceAttrib@CAndroidUserManager@@UAEPAUtagGameServiceAttrib@@XZ 1000b340 f i AndroidUserManager.obj
 0001:0000a360       ?GetGameServiceOption@CAndroidUserManager@@UAEPAUtagGameServiceOption@@XZ 1000b360 f i AndroidUserManager.obj
 0001:0000a380       ?GetNextAssoc@?$CMap@KKPAVCAndroidUserItem@@PAV1@@@QBEXAAPAU__POSITION@@AAKAAPAVCAndroidUserItem@@@Z 1000b380 f i AndroidUserManager.obj
 0001:0000a380       ?GetNextAssoc@?$CMap@KKPAUtagUserTaskEntry@@PAU1@@@QBEXAAPAU__POSITION@@AAKAAPAUtagUserTaskEntry@@@Z 1000b380 f i UserTaskManager.obj
 0001:0000a380       ?GetNextAssoc@?$CMap@HHPAUtagGameDataItem@@AAPAU1@@@QBEXAAPAU__POSITION@@AAHAAPAUtagGameDataItem@@@Z 1000b380 f i ServerUserManager.obj
 0001:0000a4d0       ?GetRoomAIParameter@CAndroidUserManager@@UAEPAUtagRoomAIParameter@@XZ 1000b4d0 f i AndroidUserManager.obj
 0001:0000a4f0       ?GetStartPosition@?$CMap@KKPAUtagUserTaskEntry@@PAU1@@@QBEPAU__POSITION@@XZ 1000b4f0 f i UserTaskManager.obj
 0001:0000a4f0       ?GetStartPosition@?$CMap@HHPAUtagGameDataItem@@AAPAU1@@@QBEPAU__POSITION@@XZ 1000b4f0 f i ServerUserManager.obj
 0001:0000a4f0       ?GetStartPosition@?$CMap@KKPAVCAndroidUserItem@@PAV1@@@QBEPAU__POSITION@@XZ 1000b4f0 f i AndroidUserManager.obj
 0001:0000a4f0       ?GetStartPosition@?$CMap@GGPAUtagTaskParameter@@PAU1@@@QBEPAU__POSITION@@XZ 1000b4f0 f i UserTaskManager.obj
 0001:0000a520       ?InitHashTable@?$CMap@KKPAVCAndroidUserItem@@PAV1@@@QAEXIH@Z 1000b520 f i AndroidUserManager.obj
 0001:0000a520       ?InitHashTable@?$CMap@HHPAUtagGameDataItem@@AAPAU1@@@QAEXIH@Z 1000b520 f i ServerUserManager.obj
 0001:0000a520       ?InitHashTable@?$CMap@KKPAUtagUserTaskEntry@@PAU1@@@QAEXIH@Z 1000b520 f i UserTaskManager.obj
 0001:0000a520       ?InitHashTable@?$CMap@KKPAVCServerUserItem@@PAV1@@@QAEXIH@Z 1000b520 f i ServerUserManager.obj
 0001:0000a520       ?InitHashTable@?$CMap@GGPAUtagTaskParameter@@PAU1@@@QAEXIH@Z 1000b520 f i UserTaskManager.obj
 0001:0000a5e0       ?IsAllowAndroidAttend@CServerRule@@SA_NK@Z 1000b5e0 f i AndroidUserManager.obj
 0001:0000a610       ?IsAllowAndroidSimulate@CServerRule@@SA_NK@Z 1000b610 f i AndroidUserManager.obj
 0001:0000a640       ?IsEmpty@?$CWHArray@PAUtagAndroidAccountsInfo@@ABQAU1@@@QBE_NXZ 1000b640 f i AndroidUserManager.obj
 0001:0000a670       ?IsStoring@CArchive@@QBEHXZ 1000b670 f i AndroidUserManager.obj
 0001:0000a6a0       ?NewAssoc@?$CMap@HHPAUtagGameDataItem@@AAPAU1@@@IAEPAVCAssoc@1@H@Z 1000b6a0 f i ServerUserManager.obj
 0001:0000a6a0       ?NewAssoc@?$CMap@KKPAVCAndroidUserItem@@PAV1@@@IAEPAVCAssoc@1@K@Z 1000b6a0 f i AndroidUserManager.obj
 0001:0000a6a0       ?NewAssoc@?$CMap@KKPAUtagUserTaskEntry@@PAU1@@@IAEPAVCAssoc@1@K@Z 1000b6a0 f i UserTaskManager.obj
 0001:0000a6a0       ?NewAssoc@?$CMap@KKPAVCServerUserItem@@PAV1@@@IAEPAVCAssoc@1@K@Z 1000b6a0 f i ServerUserManager.obj
 0001:0000a820       ?SetAt@?$CMap@KKPAVCAndroidUserItem@@PAV1@@@QAEXKPAVCAndroidUserItem@@@Z 1000b820 f i AndroidUserManager.obj
 0001:0000a820       ?SetAt@?$CMap@KKPAUtagUserTaskEntry@@PAU1@@@QAEXKPAUtagUserTaskEntry@@@Z 1000b820 f i UserTaskManager.obj
 0001:0000a820       ?SetAt@?$CMap@KKPAVCServerUserItem@@PAV1@@@QAEXKPAVCServerUserItem@@@Z 1000b820 f i ServerUserManager.obj
 0001:0000a840       ?_Allocate@std@@YAPAXII_N@Z 1000b840 f i AndroidUserManager.obj
 0001:0000a900       ?_Buyheadnode@?$_List_alloc@U?$_List_base_types@VSortTop@@V?$allocator@VSortTop@@@std@@@std@@@std@@QAEPAU?$_List_node@VSortTop@@PAX@2@XZ 1000b900 f i AndroidUserManager.obj
 0001:0000a920       ?_Buynode0@?$_List_alloc@U?$_List_base_types@VSortTop@@V?$allocator@VSortTop@@@std@@@std@@@std@@QAEPAU?$_List_node@VSortTop@@PAX@2@PAU32@0@Z 1000b920 f i AndroidUserManager.obj
 0001:0000aa30       ?_Deallocate@std@@YAXPAXII@Z 1000ba30 f i AndroidUserManager.obj
 0001:0000aad0       ?_Freeheadnode@?$_List_alloc@U?$_List_base_types@VSortTop@@V?$allocator@VSortTop@@@std@@@std@@@std@@QAEXPAU?$_List_node@VSortTop@@PAX@2@@Z 1000bad0 f i AndroidUserManager.obj
 0001:0000ab40       ?_Freenode@?$_List_buy@VSortTop@@V?$allocator@VSortTop@@@std@@@std@@QAEXPAU?$_List_node@VSortTop@@PAX@2@@Z 1000bb40 f i AndroidUserManager.obj
 0001:0000abe0       ?_Getcont@_Iterator_base0@std@@QBEPBU_Container_base0@2@XZ 1000bbe0 f i AndroidUserManager.obj
 0001:0000abf0       ?_Incsize@?$list@VSortTop@@V?$allocator@VSortTop@@@std@@@std@@QAEXI@Z 1000bbf0 f i AndroidUserManager.obj
 0001:0000ac40       ?_Make_iter@?$list@VSortTop@@V?$allocator@VSortTop@@@std@@@std@@QBE?AV?$_List_iterator@V?$_List_val@U?$_List_simple_types@VSortTop@@@std@@@std@@@2@V?$_List_const_iterator@V?$_List_val@U?$_List_simple_types@VSortTop@@@std@@@std@@@2@@Z 1000bc40 f i AndroidUserManager.obj
 0001:0000ac90       ?_Unchecked@?$_Vector_const_iterator@V?$_Vector_val@U?$_Simple_types@UtagPropertyBuff@@@std@@@std@@@std@@QBEPBUtagPropertyBuff@@XZ 1000bc90 f i GamePropertyManager.obj
 0001:0000ac90       ?_Mynode@?$_Tree_unchecked_const_iterator@V?$_Tree_val@U?$_Tree_simple_types@U?$pair@$$CBKV?$vector@UtagPropertyBuff@@V?$allocator@UtagPropertyBuff@@@std@@@std@@@std@@@std@@@std@@U_Iterator_base0@2@@std@@QBEPAU?$_Tree_node@U?$pair@$$CBKV?$vector@UtagPropertyBuff@@V?$allocator@UtagPropertyBuff@@@std@@@std@@@std@@PAX@2@XZ 1000bc90 f i GamePropertyManager.obj
 0001:0000ac90       ?GetHead@CSimpleList@@QBEPAXXZ 1000bc90 f i GameService.obj
 0001:0000ac90       ?_Mynode@?$_List_unchecked_const_iterator@V?$_List_val@U?$_List_simple_types@VSortTop@@@std@@@std@@U_Iterator_base0@2@@std@@QBEPAU?$_List_node@VSortTop@@PAX@2@XZ 1000bc90 f i AndroidUserManager.obj
 0001:0000aca0       ?_Right@?$_Tree_val@U?$_Tree_simple_types@U?$pair@$$CBKV?$vector@UtagPropertyBuff@@V?$allocator@UtagPropertyBuff@@@std@@@std@@@std@@@std@@@std@@SAAAPAU?$_Tree_node@U?$pair@$$CBKV?$vector@UtagPropertyBuff@@V?$allocator@UtagPropertyBuff@@@std@@@std@@@std@@PAX@2@PAU32@@Z 1000bca0 f i GamePropertyManager.obj
 0001:0000aca0       ?_Myval@?$_List_val@U?$_List_simple_types@VSortTop@@@std@@@std@@SAAAVSortTop@@PAU?$_List_node@VSortTop@@PAX@2@@Z 1000bca0 f i AndroidUserManager.obj
 0001:0000acb0       ?_Parent@?$_Tree_val@U?$_Tree_simple_types@U?$pair@$$CBKV?$vector@UtagPropertyBuff@@V?$allocator@UtagPropertyBuff@@@std@@@std@@@std@@@std@@@std@@SAAAPAU?$_Tree_node@U?$pair@$$CBKV?$vector@UtagPropertyBuff@@V?$allocator@UtagPropertyBuff@@@std@@@std@@@std@@PAX@2@PAU32@@Z 1000bcb0 f i GamePropertyManager.obj
 0001:0000acb0       ?_Prevnode@?$_List_val@U?$_List_simple_types@VSortTop@@@std@@@std@@SAAAPAU?$_List_node@VSortTop@@PAX@2@PAU32@@Z 1000bcb0 f i AndroidUserManager.obj
 0001:0000acc0       ?_Splice@?$list@VSortTop@@V?$allocator@VSortTop@@@std@@@std@@QAEXV?$_List_const_iterator@V?$_List_val@U?$_List_simple_types@VSortTop@@@std@@@std@@@2@AAV12@00I@Z 1000bcc0 f i AndroidUserManager.obj
 0001:0000ad10       ?_Splice_same@?$list@VSortTop@@V?$allocator@VSortTop@@@std@@@std@@QAEXV?$_List_const_iterator@V?$_List_val@U?$_List_simple_types@VSortTop@@@std@@@std@@@2@AAV12@00I@Z 1000bd10 f i AndroidUserManager.obj
 0001:0000ae50       ?_Tidy@?$list@VSortTop@@V?$allocator@VSortTop@@@std@@@std@@QAEXXZ 1000be50 f i AndroidUserManager.obj
 0001:0000ae70       ?_Unchecked@?$_List_const_iterator@V?$_List_val@U?$_List_simple_types@VSortTop@@@std@@@std@@@std@@QBE?AV?$_List_unchecked_const_iterator@V?$_List_val@U?$_List_simple_types@VSortTop@@@std@@@std@@U_Iterator_base0@2@@2@XZ 1000be70 f i AndroidUserManager.obj
 0001:0000aea0       ?_Unchecked_end@?$list@VSortTop@@V?$allocator@VSortTop@@@std@@@std@@QAE?AV?$_List_unchecked_iterator@V?$_List_val@U?$_List_simple_types@VSortTop@@@std@@@std@@@2@XZ 1000bea0 f i AndroidUserManager.obj
 0001:0000aed0       ?_Unchecked_erase@?$list@VSortTop@@V?$allocator@VSortTop@@@std@@@std@@QAEXV?$_List_unchecked_const_iterator@V?$_List_val@U?$_List_simple_types@VSortTop@@@std@@@std@@U_Iterator_base0@2@@2@@Z 1000bed0 f i AndroidUserManager.obj
 0001:0000af70       ?allocate@?$_Wrap_alloc@V?$allocator@U?$_List_node@VSortTop@@PAX@std@@@std@@@std@@QAEPAU?$_List_node@VSortTop@@PAX@2@I@Z 1000bf70 f i AndroidUserManager.obj
 0001:0000af90       ?allocate@?$allocator@U?$_List_node@VSortTop@@PAX@std@@@std@@QAEPAU?$_List_node@VSortTop@@PAX@2@I@Z 1000bf90 f i AndroidUserManager.obj
 0001:0000afb0       ?begin@?$list@VSortTop@@V?$allocator@VSortTop@@@std@@@std@@QAE?AV?$_List_iterator@V?$_List_val@U?$_List_simple_types@VSortTop@@@std@@@std@@@2@XZ 1000bfb0 f i AndroidUserManager.obj
 0001:0000b020       ?begin@?$list@VSortTop@@V?$allocator@VSortTop@@@std@@@std@@QBE?AV?$_List_const_iterator@V?$_List_val@U?$_List_simple_types@VSortTop@@@std@@@std@@@2@XZ 1000c020 f i AndroidUserManager.obj
 0001:0000b090       ?clear@?$list@VSortTop@@V?$allocator@VSortTop@@@std@@@std@@QAEXXZ 1000c090 f i AndroidUserManager.obj
 0001:0000b170       ?deallocate@?$_Wrap_alloc@V?$allocator@U?$_List_node@VSortTop@@PAX@std@@@std@@@std@@QAEXPAU?$_List_node@VSortTop@@PAX@2@I@Z 1000c170 f i AndroidUserManager.obj
 0001:0000b190       ?deallocate@?$allocator@U?$_List_node@VSortTop@@PAX@std@@@std@@QAEXPAU?$_List_node@VSortTop@@PAX@2@I@Z 1000c190 f i AndroidUserManager.obj
 0001:0000b1b0       ?end@?$list@VSortTop@@V?$allocator@VSortTop@@@std@@@std@@QAE?AV?$_List_iterator@V?$_List_val@U?$_List_simple_types@VSortTop@@@std@@@std@@@2@XZ 1000c1b0 f i AndroidUserManager.obj
 0001:0000b210       ?end@?$list@VSortTop@@V?$allocator@VSortTop@@@std@@@std@@QBE?AV?$_List_const_iterator@V?$_List_val@U?$_List_simple_types@VSortTop@@@std@@@std@@@2@XZ 1000c210 f i AndroidUserManager.obj
 0001:0000b270       ?max_size@?$_Wrap_alloc@V?$allocator@U?$_List_node@VSortTop@@PAX@std@@@std@@@std@@QBEIU_Nil@2@@Z 1000c270 f i AndroidUserManager.obj
 0001:0000b290       ?max_size@?$allocator@U?$_List_node@VSortTop@@PAX@std@@@std@@QBEIXZ 1000c290 f i AndroidUserManager.obj
 0001:0000b2a0       ?max_size@?$allocator_traits@V?$allocator@U?$_List_node@VSortTop@@PAX@std@@@std@@@std@@SAIABV?$allocator@U?$_List_node@VSortTop@@PAX@std@@@2@@Z 1000c2a0 f i AndroidUserManager.obj
 0001:0000b2b0       ?max_size@?$list@VSortTop@@V?$allocator@VSortTop@@@std@@@std@@QBEIXZ 1000c2b0 f i AndroidUserManager.obj
 0001:0000b2e0       ?push_back@?$list@VSortTop@@V?$allocator@VSortTop@@@std@@@std@@QAEX$$QAVSortTop@@@Z 1000c2e0 f i AndroidUserManager.obj
 0001:0000b320       ?reverse@?$list@VSortTop@@V?$allocator@VSortTop@@@std@@@std@@QAEXXZ 1000c320 f i AndroidUserManager.obj
 0001:0000b3c0       ?select_on_container_copy_construction@?$_Wrap_alloc@V?$allocator@UtagPropertyBuff@@@std@@@std@@QBE?AU12@U_Nil@2@@Z 1000c3c0 f i GamePropertyManager.obj
 0001:0000b3c0       ?select_on_container_copy_construction@?$_Wrap_alloc@V?$allocator@U?$_List_node@VSortTop@@PAX@std@@@std@@@std@@QBE?AU12@U_Nil@2@@Z 1000c3c0 f i AndroidUserManager.obj
 0001:0000b3f0       ?select_on_container_copy_construction@?$allocator_traits@V?$allocator@UtagPropertyBuff@@@std@@@std@@SA?AV?$allocator@UtagPropertyBuff@@@2@ABV32@@Z 1000c3f0 f i GamePropertyManager.obj
 0001:0000b3f0       ?select_on_container_copy_construction@?$allocator_traits@V?$allocator@U?$_List_node@VSortTop@@PAX@std@@@std@@@std@@SA?AV?$allocator@U?$_List_node@VSortTop@@PAX@std@@@2@ABV32@@Z 1000c3f0 f i AndroidUserManager.obj
 0001:0000b410       ?sort@?$list@VSortTop@@V?$allocator@VSortTop@@@std@@@std@@QAEXXZ 1000c410 f i AndroidUserManager.obj
 0001:0000b430       ?splice@?$list@VSortTop@@V?$allocator@VSortTop@@@std@@@std@@QAEXV?$_List_const_iterator@V?$_List_val@U?$_List_simple_types@VSortTop@@@std@@@std@@@2@AAV12@0@Z 1000c430 f i AndroidUserManager.obj
 0001:0000b4c0       __snwprintf                1000c4c0 f i AndroidUserManager.obj
 0001:0000b500       __vsnwprintf_l             1000c500 f i AndroidUserManager.obj
 0001:0000b580       ??0CGamePropertyManager@@QAE@XZ 1000c580 f   GamePropertyManager.obj
 0001:0000b5b0       ??1CGamePropertyManager@@UAE@XZ 1000c5b0 f   GamePropertyManager.obj
 0001:0000b5d0       ?SetGamePropertyInfo@CGamePropertyManager@@QAE_NQAUtagPropertyInfo@@G@Z 1000c5d0 f   GamePropertyManager.obj
 0001:0000b620       ?SetGamePropertyBuff@CGamePropertyManager@@QAE_NKQBUtagPropertyBuff@@G@Z 1000c620 f   GamePropertyManager.obj
 0001:0000b680       ?ClearUserBuff@CGamePropertyManager@@QAE_NK@Z 1000c680 f   GamePropertyManager.obj
 0001:0000b6d0       ?SearchPropertyItem@CGamePropertyManager@@QAEPAUtagPropertyInfo@@G@Z 1000c6d0 f   GamePropertyManager.obj
 0001:0000b730       ?SearchValidPropertyBuff@CGamePropertyManager@@SAPAUtagPropertyBuff@@KW4PROP_KIND@@@Z 1000c730 f   GamePropertyManager.obj
 0001:0000b870       ?IsValid@@YA_NUtagPropertyBuff@@@Z 1000c870 f   GamePropertyManager.obj
 0001:0000b8d0       ??$?0$$V@?$_Compressed_pair@U?$_Wrap_alloc@V?$allocator@U?$_Tree_node@U?$pair@$$CBKV?$vector@UtagPropertyBuff@@V?$allocator@UtagPropertyBuff@@@std@@@std@@@std@@PAX@std@@@std@@@std@@V?$_Tree_val@U?$_Tree_simple_types@U?$pair@$$CBKV?$vector@UtagPropertyBuff@@V?$allocator@UtagPropertyBuff@@@std@@@std@@@std@@@std@@@2@$00@std@@QAE@U_Zero_then_variadic_args_t@1@@Z 1000c8d0 f i GamePropertyManager.obj
 0001:0000b8d0       ??$?0$$V@?$_Compressed_pair@U?$_Wrap_alloc@V?$allocator@U?$_List_node@VSortTop@@PAX@std@@@std@@@std@@V?$_List_val@U?$_List_simple_types@VSortTop@@@std@@@2@$00@std@@QAE@U_Zero_then_variadic_args_t@1@@Z 1000c8d0 f i AndroidUserManager.obj
 0001:0000b8f0       ??$?0$$V@?$_Compressed_pair@U?$_Wrap_alloc@V?$allocator@UtagPropertyBuff@@@std@@@std@@V?$_Vector_val@U?$_Simple_types@UtagPropertyBuff@@@std@@@2@$00@std@@QAE@U_Zero_then_variadic_args_t@1@@Z 1000c8f0 f i GamePropertyManager.obj
 0001:0000b910       ??$?0V?$_Tree_iterator@V?$_Tree_val@U?$_Tree_simple_types@U?$pair@$$CBKV?$vector@UtagPropertyBuff@@V?$allocator@UtagPropertyBuff@@@std@@@std@@@std@@@std@@@std@@@std@@_NX$0A@@?$pair@V?$_Tree_iterator@V?$_Tree_val@U?$_Tree_simple_types@U?$pair@$$CBKV?$vector@UtagPropertyBuff@@V?$allocator@UtagPropertyBuff@@@std@@@std@@@std@@@std@@@std@@@std@@_N@std@@QAE@$$QAV?$_Tree_iterator@V?$_Tree_val@U?$_Tree_simple_types@U?$pair@$$CBKV?$vector@UtagPropertyBuff@@V?$allocator@UtagPropertyBuff@@@std@@@std@@@std@@@std@@@std@@@1@$$QA_N@Z 1000c910 f i GamePropertyManager.obj
 0001:0000b910       ??$?0AAV?$_Tree_iterator@V?$_Tree_val@U?$_Tree_simple_types@U?$pair@$$CBKV?$vector@UtagPropertyBuff@@V?$allocator@UtagPropertyBuff@@@std@@@std@@@std@@@std@@@std@@@std@@_NX$0A@@?$pair@V?$_Tree_iterator@V?$_Tree_val@U?$_Tree_simple_types@U?$pair@$$CBKV?$vector@UtagPropertyBuff@@V?$allocator@UtagPropertyBuff@@@std@@@std@@@std@@@std@@@std@@@std@@_N@std@@QAE@AAV?$_Tree_iterator@V?$_Tree_val@U?$_Tree_simple_types@U?$pair@$$CBKV?$vector@UtagPropertyBuff@@V?$allocator@UtagPropertyBuff@@@std@@@std@@@std@@@std@@@std@@@1@$$QA_N@Z 1000c910 f i GamePropertyManager.obj
 0001:0000b950       ??$?0ABK$$Z$$V@?$pair@$$CBKV?$vector@UtagPropertyBuff@@V?$allocator@UtagPropertyBuff@@@std@@@std@@@std@@QAE@Upiecewise_construct_t@1@V?$tuple@ABK@1@V?$tuple@$$V@1@@Z 1000c950 f i GamePropertyManager.obj
 0001:0000b980       ??$?0ABK$0A@@?$tuple@ABK@std@@QAE@ABK@Z 1000c980 f i GamePropertyManager.obj
 0001:0000b9b0       ??$?0ABK@?$_Tuple_val@ABK@std@@QAE@ABK@Z 1000c9b0 f i GamePropertyManager.obj
 0001:0000b9e0       ??$?0ABU?$less@K@std@@U_Zero_then_variadic_args_t@1@@?$_Compressed_pair@U?$less@K@std@@V?$_Compressed_pair@U?$_Wrap_alloc@V?$allocator@U?$_Tree_node@U?$pair@$$CBKV?$vector@UtagPropertyBuff@@V?$allocator@UtagPropertyBuff@@@std@@@std@@@std@@PAX@std@@@std@@@std@@V?$_Tree_val@U?$_Tree_simple_types@U?$pair@$$CBKV?$vector@UtagPropertyBuff@@V?$allocator@UtagPropertyBuff@@@std@@@std@@@std@@@std@@@2@$00@2@$00@std@@QAE@U_One_then_variadic_args_t@1@ABU?$less@K@1@$$QAU_Zero_then_variadic_args_t@1@@Z 1000c9e0 f i GamePropertyManager.obj
 0001:0000ba20       ??$?0U?$_Wrap_alloc@V?$allocator@UtagPropertyBuff@@@std@@@std@@$$V@?$_Compressed_pair@U?$_Wrap_alloc@V?$allocator@UtagPropertyBuff@@@std@@@std@@V?$_Vector_val@U?$_Simple_types@UtagPropertyBuff@@@std@@@2@$00@std@@QAE@U_One_then_variadic_args_t@1@$$QAU?$_Wrap_alloc@V?$allocator@UtagPropertyBuff@@@std@@@1@@Z 1000ca20 f i GamePropertyManager.obj
 0001:0000ba50       ??$?0U?$_Wrap_alloc@V?$allocator@UtagPropertyBuff@@@std@@@std@@X@?$_Vector_alloc@U?$_Vec_base_types@UtagPropertyBuff@@V?$allocator@UtagPropertyBuff@@@std@@@std@@@std@@QAE@$$QAU?$_Wrap_alloc@V?$allocator@UtagPropertyBuff@@@std@@@1@@Z 1000ca50 f i GamePropertyManager.obj
 0001:0000ba80       ??$?0V?$tuple@ABK@std@@V?$tuple@$$V@1@$0A@$$Z$S@?$pair@$$CBKV?$vector@UtagPropertyBuff@@V?$allocator@UtagPropertyBuff@@@std@@@std@@@std@@QAE@AAV?$tuple@ABK@1@AAV?$tuple@$$V@1@U?$integer_sequence@I$0A@@1@U?$integer_sequence@I$S@1@@Z 1000ca80 f i GamePropertyManager.obj
 0001:0000bac0       ??$_Buynode@ABUpiecewise_construct_t@std@@V?$tuple@ABK@2@V?$tuple@$$V@2@@?$_Tree_comp_alloc@V?$_Tmap_traits@KV?$vector@UtagPropertyBuff@@V?$allocator@UtagPropertyBuff@@@std@@@std@@U?$less@K@2@V?$allocator@U?$pair@$$CBKV?$vector@UtagPropertyBuff@@V?$allocator@UtagPropertyBuff@@@std@@@std@@@std@@@2@$0A@@std@@@std@@QAEPAU?$_Tree_node@U?$pair@$$CBKV?$vector@UtagPropertyBuff@@V?$allocator@UtagPropertyBuff@@@std@@@std@@@std@@PAX@1@ABUpiecewise_construct_t@1@$$QAV?$tuple@ABK@1@$$QAV?$tuple@$$V@1@@Z 1000cac0 f i GamePropertyManager.obj
 0001:0000bbc0       ??$_Buynode_if_nil@AAU?$pair@$$CBKV?$vector@UtagPropertyBuff@@V?$allocator@UtagPropertyBuff@@@std@@@std@@@std@@@?$_Tree@V?$_Tmap_traits@KV?$vector@UtagPropertyBuff@@V?$allocator@UtagPropertyBuff@@@std@@@std@@U?$less@K@2@V?$allocator@U?$pair@$$CBKV?$vector@UtagPropertyBuff@@V?$allocator@UtagPropertyBuff@@@std@@@std@@@std@@@2@$0A@@std@@@std@@IAEPAU?$_Tree_node@U?$pair@$$CBKV?$vector@UtagPropertyBuff@@V?$allocator@UtagPropertyBuff@@@std@@@std@@@std@@PAX@1@PAU21@AAU?$pair@$$CBKV?$vector@UtagPropertyBuff@@V?$allocator@UtagPropertyBuff@@@std@@@std@@@1@@Z 1000cbc0 f i GamePropertyManager.obj
 0001:0000bbd0       ??$_Copy_memmove@PAUtagPropertyBuff@@PAU1@@std@@YAPAUtagPropertyBuff@@PAU1@00@Z 1000cbd0 f i GamePropertyManager.obj
 0001:0000bbd0       ??$_Copy_memmove@PBUtagPropertyBuff@@PAU1@@std@@YAPAUtagPropertyBuff@@PBU1@0PAU1@@Z 1000cbd0 f i GamePropertyManager.obj
 0001:0000bc10       ??$_Destroy_range@V?$allocator@UtagPropertyBuff@@@std@@PAUtagPropertyBuff@@@std@@YAXPAUtagPropertyBuff@@0AAU?$_Wrap_alloc@V?$allocator@UtagPropertyBuff@@@std@@@0@@Z 1000cc10 f i GamePropertyManager.obj
 0001:0000bc40       ??$_Insert_at@AAU?$pair@$$CBKV?$vector@UtagPropertyBuff@@V?$allocator@UtagPropertyBuff@@@std@@@std@@@std@@PAU?$_Tree_node@U?$pair@$$CBKV?$vector@UtagPropertyBuff@@V?$allocator@UtagPropertyBuff@@@std@@@std@@@std@@PAX@2@@?$_Tree@V?$_Tmap_traits@KV?$vector@UtagPropertyBuff@@V?$allocator@UtagPropertyBuff@@@std@@@std@@U?$less@K@2@V?$allocator@U?$pair@$$CBKV?$vector@UtagPropertyBuff@@V?$allocator@UtagPropertyBuff@@@std@@@std@@@std@@@2@$0A@@std@@@std@@IAE?AV?$_Tree_iterator@V?$_Tree_val@U?$_Tree_simple_types@U?$pair@$$CBKV?$vector@UtagPropertyBuff@@V?$allocator@UtagPropertyBuff@@@std@@@std@@@std@@@std@@@std@@@1@_NPAU?$_Tree_node@U?$pair@$$CBKV?$vector@UtagPropertyBuff@@V?$allocator@UtagPropertyBuff@@@std@@@std@@@std@@PAX@1@AAU?$pair@$$CBKV?$vector@UtagPropertyBuff@@V?$allocator@UtagPropertyBuff@@@std@@@std@@@1@1@Z 1000cc40 f i GamePropertyManager.obj
 0001:0000c080       ??$_Insert_hint@AAU?$pair@$$CBKV?$vector@UtagPropertyBuff@@V?$allocator@UtagPropertyBuff@@@std@@@std@@@std@@PAU?$_Tree_node@U?$pair@$$CBKV?$vector@UtagPropertyBuff@@V?$allocator@UtagPropertyBuff@@@std@@@std@@@std@@PAX@2@@?$_Tree@V?$_Tmap_traits@KV?$vector@UtagPropertyBuff@@V?$allocator@UtagPropertyBuff@@@std@@@std@@U?$less@K@2@V?$allocator@U?$pair@$$CBKV?$vector@UtagPropertyBuff@@V?$allocator@UtagPropertyBuff@@@std@@@std@@@std@@@2@$0A@@std@@@std@@IAE?AV?$_Tree_iterator@V?$_Tree_val@U?$_Tree_simple_types@U?$pair@$$CBKV?$vector@UtagPropertyBuff@@V?$allocator@UtagPropertyBuff@@@std@@@std@@@std@@@std@@@std@@@1@V?$_Tree_const_iterator@V?$_Tree_val@U?$_Tree_simple_types@U?$pair@$$CBKV?$vector@UtagPropertyBuff@@V?$allocator@UtagPropertyBuff@@@std@@@std@@@std@@@std@@@std@@@1@AAU?$pair@$$CBKV?$vector@UtagPropertyBuff@@V?$allocator@UtagPropertyBuff@@@std@@@std@@@1@PAU?$_Tree_node@U?$pair@$$CBKV?$vector@UtagPropertyBuff@@V?$allocator@UtagPropertyBuff@@@std@@@std@@@std@@PAX@1@@Z 1000d080 f i GamePropertyManager.obj
 0001:0000caf0       ??$_Insert_nohint@AAU?$pair@$$CBKV?$vector@UtagPropertyBuff@@V?$allocator@UtagPropertyBuff@@@std@@@std@@@std@@PAU?$_Tree_node@U?$pair@$$CBKV?$vector@UtagPropertyBuff@@V?$allocator@UtagPropertyBuff@@@std@@@std@@@std@@PAX@2@@?$_Tree@V?$_Tmap_traits@KV?$vector@UtagPropertyBuff@@V?$allocator@UtagPropertyBuff@@@std@@@std@@U?$less@K@2@V?$allocator@U?$pair@$$CBKV?$vector@UtagPropertyBuff@@V?$allocator@UtagPropertyBuff@@@std@@@std@@@std@@@2@$0A@@std@@@std@@IAE?AU?$pair@V?$_Tree_iterator@V?$_Tree_val@U?$_Tree_simple_types@U?$pair@$$CBKV?$vector@UtagPropertyBuff@@V?$allocator@UtagPropertyBuff@@@std@@@std@@@std@@@std@@@std@@@std@@_N@1@_NAAU?$pair@$$CBKV?$vector@UtagPropertyBuff@@V?$allocator@UtagPropertyBuff@@@std@@@std@@@1@PAU?$_Tree_node@U?$pair@$$CBKV?$vector@UtagPropertyBuff@@V?$allocator@UtagPropertyBuff@@@std@@@std@@@std@@PAX@1@@Z 1000daf0 f i GamePropertyManager.obj
 0001:0000ce20       ?_Left@?$_Tree_val@U?$_Tree_simple_types@U?$pair@$$CBKV?$vector@UtagPropertyBuff@@V?$allocator@UtagPropertyBuff@@@std@@@std@@@std@@@std@@@std@@SAAAPAU?$_Tree_node@U?$pair@$$CBKV?$vector@UtagPropertyBuff@@V?$allocator@UtagPropertyBuff@@@std@@@std@@@std@@PAX@2@PAU32@@Z 1000de20 f i GamePropertyManager.obj
 0001:0000ce20       ??$_Ptr_copy_cat@$$CBUtagPropertyBuff@@U1@@std@@YA?AU_Really_trivial_ptr_iterator_tag@0@ABQBUtagPropertyBuff@@ABQAU2@@Z 1000de20 f i GamePropertyManager.obj
 0001:0000ce20       ??$forward@ABK@std@@YAABKABK@Z 1000de20 f i GamePropertyManager.obj
 0001:0000ce20       ??$forward@U_Zero_then_variadic_args_t@std@@@std@@YA$$QAU_Zero_then_variadic_args_t@0@AAU10@@Z 1000de20 f i GamePropertyManager.obj
 0001:0000ce20       ??$_Ptr_move_cat@UtagPropertyBuff@@U1@@std@@YA?AU_Really_trivial_ptr_iterator_tag@0@ABQAUtagPropertyBuff@@0@Z 1000de20 f i GamePropertyManager.obj
 0001:0000ce20       ??$forward@V?$_Tree_iterator@V?$_Tree_val@U?$_Tree_simple_types@U?$pair@$$CBKV?$vector@UtagPropertyBuff@@V?$allocator@UtagPropertyBuff@@@std@@@std@@@std@@@std@@@std@@@std@@@std@@YA$$QAV?$_Tree_iterator@V?$_Tree_val@U?$_Tree_simple_types@U?$pair@$$CBKV?$vector@UtagPropertyBuff@@V?$allocator@UtagPropertyBuff@@@std@@@std@@@std@@@std@@@std@@@0@AAV10@@Z 1000de20 f i GamePropertyManager.obj
 0001:0000ce20       ??$forward@ABVSortTop@@@std@@YAABVSortTop@@ABV1@@Z 1000de20 f i AndroidUserManager.obj
 0001:0000ce20       ??$move@AAU?$_Wrap_alloc@V?$allocator@UtagPropertyBuff@@@std@@@std@@@std@@YA$$QAU?$_Wrap_alloc@V?$allocator@UtagPropertyBuff@@@std@@@0@AAU10@@Z 1000de20 f i GamePropertyManager.obj
 0001:0000ce20       ??$forward@ABU?$less@K@std@@@std@@YAABU?$less@K@0@ABU10@@Z 1000de20 f i GamePropertyManager.obj
 0001:0000ce20       ??$_Unchecked@PAUtagPropertyBuff@@@std@@YAPAUtagPropertyBuff@@PAU1@@Z 1000de20 f i GamePropertyManager.obj
 0001:0000ce20       ??$forward@U?$_Wrap_alloc@V?$allocator@UtagPropertyBuff@@@std@@@std@@@std@@YA$$QAU?$_Wrap_alloc@V?$allocator@UtagPropertyBuff@@@std@@@0@AAU10@@Z 1000de20 f i GamePropertyManager.obj
 0001:0000ce20       ??$forward@_N@std@@YA$$QA_NAA_N@Z 1000de20 f i GamePropertyManager.obj
 0001:0000ce20       ??$forward@AAPAU?$_Tree_node@U?$pair@$$CBKV?$vector@UtagPropertyBuff@@V?$allocator@UtagPropertyBuff@@@std@@@std@@@std@@PAX@std@@@std@@YAAAPAU?$_Tree_node@U?$pair@$$CBKV?$vector@UtagPropertyBuff@@V?$allocator@UtagPropertyBuff@@@std@@@std@@@std@@PAX@0@AAPAU10@@Z 1000de20 f i GamePropertyManager.obj
 0001:0000ce20       ??$forward@AAPAU?$_List_node@VSortTop@@PAX@std@@@std@@YAAAPAU?$_List_node@VSortTop@@PAX@0@AAPAU10@@Z 1000de20 f i AndroidUserManager.obj
 0001:0000ce20       ??$addressof@U?$pair@$$CBKV?$vector@UtagPropertyBuff@@V?$allocator@UtagPropertyBuff@@@std@@@std@@@std@@@std@@YAPAU?$pair@$$CBKV?$vector@UtagPropertyBuff@@V?$allocator@UtagPropertyBuff@@@std@@@std@@@0@AAU10@@Z 1000de20 f i GamePropertyManager.obj
 0001:0000ce20       ??$forward@AAU?$pair@$$CBKV?$vector@UtagPropertyBuff@@V?$allocator@UtagPropertyBuff@@@std@@@std@@@std@@@std@@YAAAU?$pair@$$CBKV?$vector@UtagPropertyBuff@@V?$allocator@UtagPropertyBuff@@@std@@@std@@@0@AAU10@@Z 1000de20 f i GamePropertyManager.obj
 0001:0000ce20       ??$addressof@PAU?$_Tree_node@U?$pair@$$CBKV?$vector@UtagPropertyBuff@@V?$allocator@UtagPropertyBuff@@@std@@@std@@@std@@PAX@std@@@std@@YAPAPAU?$_Tree_node@U?$pair@$$CBKV?$vector@UtagPropertyBuff@@V?$allocator@UtagPropertyBuff@@@std@@@std@@@std@@PAX@0@AAPAU10@@Z 1000de20 f i GamePropertyManager.obj
 0001:0000ce20       ??$forward@V?$tuple@ABK@std@@@std@@YA$$QAV?$tuple@ABK@0@AAV10@@Z 1000de20 f i GamePropertyManager.obj
 0001:0000ce20       ??$move@AAD@std@@YA$$QADAAD@Z 1000de20 f i GamePropertyManager.obj
 0001:0000ce20       ??$forward@AAV?$_Tree_iterator@V?$_Tree_val@U?$_Tree_simple_types@U?$pair@$$CBKV?$vector@UtagPropertyBuff@@V?$allocator@UtagPropertyBuff@@@std@@@std@@@std@@@std@@@std@@@std@@@std@@YAAAV?$_Tree_iterator@V?$_Tree_val@U?$_Tree_simple_types@U?$pair@$$CBKV?$vector@UtagPropertyBuff@@V?$allocator@UtagPropertyBuff@@@std@@@std@@@std@@@std@@@std@@@0@AAV10@@Z 1000de20 f i GamePropertyManager.obj
 0001:0000ce20       ??$addressof@$$CBUtagPropertyBuff@@@std@@YAPBUtagPropertyBuff@@ABU1@@Z 1000de20 f i GamePropertyManager.obj
 0001:0000ce20       ??$_Kfn@$$CBKV?$vector@UtagPropertyBuff@@V?$allocator@UtagPropertyBuff@@@std@@@std@@@?$_Tmap_traits@KV?$vector@UtagPropertyBuff@@V?$allocator@UtagPropertyBuff@@@std@@@std@@U?$less@K@2@V?$allocator@U?$pair@$$CBKV?$vector@UtagPropertyBuff@@V?$allocator@UtagPropertyBuff@@@std@@@std@@@std@@@2@$0A@@std@@SAABKABU?$pair@$$CBKV?$vector@UtagPropertyBuff@@V?$allocator@UtagPropertyBuff@@@std@@@std@@@1@@Z 1000de20 f i GamePropertyManager.obj
 0001:0000ce20       ??$addressof@PAU?$_List_node@VSortTop@@PAX@std@@@std@@YAPAPAU?$_List_node@VSortTop@@PAX@0@AAPAU10@@Z 1000de20 f i AndroidUserManager.obj
 0001:0000ce20       ??$addressof@VSortTop@@@std@@YAPAVSortTop@@AAV1@@Z 1000de20 f i AndroidUserManager.obj
 0001:0000ce20       ??$forward@U?$_Wrap_alloc@V?$allocator@U?$_List_node@VSortTop@@PAX@std@@@std@@@std@@@std@@YA$$QAU?$_Wrap_alloc@V?$allocator@U?$_List_node@VSortTop@@PAX@std@@@std@@@0@AAU10@@Z 1000de20 f i AndroidUserManager.obj
 0001:0000ce20       ??$forward@V?$allocator@UtagPropertyBuff@@@std@@@std@@YA$$QAV?$allocator@UtagPropertyBuff@@@0@AAV10@@Z 1000de20 f i GamePropertyManager.obj
 0001:0000ce20       ??$forward@VSortTop@@@std@@YA$$QAVSortTop@@AAV1@@Z 1000de20 f i AndroidUserManager.obj
 0001:0000ce20       ??$forward@V?$allocator@U?$_List_node@VSortTop@@PAX@std@@@std@@@std@@YA$$QAV?$allocator@U?$_List_node@VSortTop@@PAX@std@@@0@AAV10@@Z 1000de20 f i AndroidUserManager.obj
 0001:0000ce20       ??$forward@ABUpiecewise_construct_t@std@@@std@@YAABUpiecewise_construct_t@0@ABU10@@Z 1000de20 f i GamePropertyManager.obj
 0001:0000ce20       ??$forward@ABUtagPropertyBuff@@@std@@YAABUtagPropertyBuff@@ABU1@@Z 1000de20 f i GamePropertyManager.obj
 0001:0000ce20       ??$_Unfancy@UtagPropertyBuff@@@std@@YAPAUtagPropertyBuff@@PAU1@@Z 1000de20 f i GamePropertyManager.obj
 0001:0000ce20       ??$forward@AAUtagPropertyBuff@@@std@@YAAAUtagPropertyBuff@@AAU1@@Z 1000de20 f i GamePropertyManager.obj
 0001:0000ce20       ??$move@AAV?$tuple@ABK@std@@@std@@YA$$QAV?$tuple@ABK@0@AAV10@@Z 1000de20 f i GamePropertyManager.obj
 0001:0000ce20       ??$move@AAU?$_Wrap_alloc@V?$allocator@U?$_List_node@VSortTop@@PAX@std@@@std@@@std@@@std@@YA$$QAU?$_Wrap_alloc@V?$allocator@U?$_List_node@VSortTop@@PAX@std@@@std@@@0@AAU10@@Z 1000de20 f i AndroidUserManager.obj
 0001:0000ce20       ?_Nextnode@?$_List_val@U?$_List_simple_types@VSortTop@@@std@@@std@@SAAAPAU?$_List_node@VSortTop@@PAX@2@PAU32@@Z 1000de20 f i AndroidUserManager.obj
 0001:0000ce20       ??$forward@V?$tuple@$$V@std@@@std@@YA$$QAV?$tuple@$$V@0@AAV10@@Z 1000de20 f i GamePropertyManager.obj
 0001:0000ce30       ??$_Lbound@K@?$_Tree@V?$_Tmap_traits@KV?$vector@UtagPropertyBuff@@V?$allocator@UtagPropertyBuff@@@std@@@std@@U?$less@K@2@V?$allocator@U?$pair@$$CBKV?$vector@UtagPropertyBuff@@V?$allocator@UtagPropertyBuff@@@std@@@std@@@std@@@2@$0A@@std@@@std@@IBEPAU?$_Tree_node@U?$pair@$$CBKV?$vector@UtagPropertyBuff@@V?$allocator@UtagPropertyBuff@@@std@@@std@@@std@@PAX@1@ABK@Z 1000de30 f i GamePropertyManager.obj
 0001:0000cec0       ??$_Rechecked@PAUtagPropertyBuff@@PAU1@@std@@YAAAPAUtagPropertyBuff@@AAPAU1@PAU1@@Z 1000dec0 f i GamePropertyManager.obj
 0001:0000ced0       ??$_Try_emplace@ABK$$V@?$map@KV?$vector@UtagPropertyBuff@@V?$allocator@UtagPropertyBuff@@@std@@@std@@U?$less@K@2@V?$allocator@U?$pair@$$CBKV?$vector@UtagPropertyBuff@@V?$allocator@UtagPropertyBuff@@@std@@@std@@@std@@@2@@std@@QAE?AU?$pair@V?$_Tree_iterator@V?$_Tree_val@U?$_Tree_simple_types@U?$pair@$$CBKV?$vector@UtagPropertyBuff@@V?$allocator@UtagPropertyBuff@@@std@@@std@@@std@@@std@@@std@@@std@@_N@1@ABK@Z 1000ded0 f i GamePropertyManager.obj
 0001:0000cfb0       ??$_Ucopy@V?$_Vector_const_iterator@V?$_Vector_val@U?$_Simple_types@UtagPropertyBuff@@@std@@@std@@@std@@@?$vector@UtagPropertyBuff@@V?$allocator@UtagPropertyBuff@@@std@@@std@@IAEPAUtagPropertyBuff@@V?$_Vector_const_iterator@V?$_Vector_val@U?$_Simple_types@UtagPropertyBuff@@@std@@@std@@@1@0PAU2@@Z 1000dfb0 f i GamePropertyManager.obj
 0001:0000cfe0       ??$_Umove@PAUtagPropertyBuff@@@?$vector@UtagPropertyBuff@@V?$allocator@UtagPropertyBuff@@@std@@@std@@IAEPAUtagPropertyBuff@@PAU2@00@Z 1000dfe0 f i GamePropertyManager.obj
 0001:0000d010       ??$_Unchecked@V?$_Vector_val@U?$_Simple_types@UtagPropertyBuff@@@std@@@std@@@std@@YAPBUtagPropertyBuff@@V?$_Vector_const_iterator@V?$_Vector_val@U?$_Simple_types@UtagPropertyBuff@@@std@@@std@@@0@@Z 1000e010 f i GamePropertyManager.obj
 0001:0000d020       ??$_Uninitialized_copy@V?$_Vector_const_iterator@V?$_Vector_val@U?$_Simple_types@UtagPropertyBuff@@@std@@@std@@@std@@PAUtagPropertyBuff@@V?$allocator@UtagPropertyBuff@@@2@@std@@YAPAUtagPropertyBuff@@V?$_Vector_const_iterator@V?$_Vector_val@U?$_Simple_types@UtagPropertyBuff@@@std@@@std@@@0@0PAU1@AAU?$_Wrap_alloc@V?$allocator@UtagPropertyBuff@@@std@@@0@@Z 1000e020 f i GamePropertyManager.obj
 0001:0000d070       ??$_Uninitialized_copy_al_unchecked@PBUtagPropertyBuff@@PAU1@V?$allocator@UtagPropertyBuff@@@std@@@std@@YAPAUtagPropertyBuff@@PBU1@0PAU1@AAU?$_Wrap_alloc@V?$allocator@UtagPropertyBuff@@@std@@@0@@Z 1000e070 f i GamePropertyManager.obj
 0001:0000d070       ??$_Uninitialized_move_al_unchecked@PAUtagPropertyBuff@@PAU1@V?$allocator@UtagPropertyBuff@@@std@@@std@@YAPAUtagPropertyBuff@@PAU1@00AAU?$_Wrap_alloc@V?$allocator@UtagPropertyBuff@@@std@@@0@@Z 1000e070 f i GamePropertyManager.obj
 0001:0000d0b0       ??$_Uninitialized_move@PAUtagPropertyBuff@@PAU1@V?$allocator@UtagPropertyBuff@@@std@@@std@@YAPAUtagPropertyBuff@@PAU1@00AAU?$_Wrap_alloc@V?$allocator@UtagPropertyBuff@@@std@@@0@@Z 1000e0b0 f i GamePropertyManager.obj
 0001:0000d100       ??$_Uninitialized_copy_al_unchecked1@$$CBUtagPropertyBuff@@U1@V?$allocator@UtagPropertyBuff@@@std@@@std@@YAPAUtagPropertyBuff@@PBU1@0PAU1@AAU?$_Wrap_alloc@V?$allocator@UtagPropertyBuff@@@std@@@0@U_Really_trivial_ptr_iterator_tag@0@U?$integral_constant@_N$00@0@@Z 1000e100 f i GamePropertyManager.obj
 0001:0000d100       ??$_Uninitialized_move_al_unchecked1@UtagPropertyBuff@@U1@V?$allocator@UtagPropertyBuff@@@std@@@std@@YAPAUtagPropertyBuff@@PAU1@00AAU?$_Wrap_alloc@V?$allocator@UtagPropertyBuff@@@std@@@0@U_Really_trivial_ptr_iterator_tag@0@U?$integral_constant@_N$00@0@@Z 1000e100 f i GamePropertyManager.obj
 0001:0000d120       ??$construct@U?$pair@$$CBKV?$vector@UtagPropertyBuff@@V?$allocator@UtagPropertyBuff@@@std@@@std@@@std@@ABUpiecewise_construct_t@2@V?$tuple@ABK@2@V?$tuple@$$V@2@@?$_Wrap_alloc@V?$allocator@U?$_Tree_node@U?$pair@$$CBKV?$vector@UtagPropertyBuff@@V?$allocator@UtagPropertyBuff@@@std@@@std@@@std@@PAX@std@@@std@@@std@@QAEXPAU?$pair@$$CBKV?$vector@UtagPropertyBuff@@V?$allocator@UtagPropertyBuff@@@std@@@std@@@1@ABUpiecewise_construct_t@1@$$QAV?$tuple@ABK@1@$$QAV?$tuple@$$V@1@@Z 1000e120 f i GamePropertyManager.obj
 0001:0000d170       ??$construct@U?$pair@$$CBKV?$vector@UtagPropertyBuff@@V?$allocator@UtagPropertyBuff@@@std@@@std@@@std@@ABUpiecewise_construct_t@2@V?$tuple@ABK@2@V?$tuple@$$V@2@@?$allocator@U?$_Tree_node@U?$pair@$$CBKV?$vector@UtagPropertyBuff@@V?$allocator@UtagPropertyBuff@@@std@@@std@@@std@@PAX@std@@@std@@QAEXPAU?$pair@$$CBKV?$vector@UtagPropertyBuff@@V?$allocator@UtagPropertyBuff@@@std@@@std@@@1@ABUpiecewise_construct_t@1@$$QAV?$tuple@ABK@1@$$QAV?$tuple@$$V@1@@Z 1000e170 f i GamePropertyManager.obj
 0001:0000d230       ??$construct@U?$pair@$$CBKV?$vector@UtagPropertyBuff@@V?$allocator@UtagPropertyBuff@@@std@@@std@@@std@@ABUpiecewise_construct_t@2@V?$tuple@ABK@2@V?$tuple@$$V@2@@?$allocator_traits@V?$allocator@U?$_Tree_node@U?$pair@$$CBKV?$vector@UtagPropertyBuff@@V?$allocator@UtagPropertyBuff@@@std@@@std@@@std@@PAX@std@@@std@@@std@@SAXAAV?$allocator@U?$_Tree_node@U?$pair@$$CBKV?$vector@UtagPropertyBuff@@V?$allocator@UtagPropertyBuff@@@std@@@std@@@std@@PAX@std@@@1@PAU?$pair@$$CBKV?$vector@UtagPropertyBuff@@V?$allocator@UtagPropertyBuff@@@std@@@std@@@1@ABUpiecewise_construct_t@1@$$QAV?$tuple@ABK@1@$$QAV?$tuple@$$V@1@@Z 1000e230 f i GamePropertyManager.obj
 0001:0000d270       ??$construct@UtagPropertyBuff@@AAU1@@?$_Wrap_alloc@V?$allocator@UtagPropertyBuff@@@std@@@std@@QAEXPAUtagPropertyBuff@@AAU2@@Z 1000e270 f i GamePropertyManager.obj
 0001:0000d270       ??$construct@UtagPropertyBuff@@ABU1@@?$_Wrap_alloc@V?$allocator@UtagPropertyBuff@@@std@@@std@@QAEXPAUtagPropertyBuff@@ABU2@@Z 1000e270 f i GamePropertyManager.obj
 0001:0000d2a0       ??$construct@UtagPropertyBuff@@AAU1@@?$allocator@UtagPropertyBuff@@@std@@QAEXPAUtagPropertyBuff@@AAU2@@Z 1000e2a0 f i GamePropertyManager.obj
 0001:0000d2a0       ??$construct@UtagPropertyBuff@@ABU1@@?$allocator@UtagPropertyBuff@@@std@@QAEXPAUtagPropertyBuff@@ABU2@@Z 1000e2a0 f i GamePropertyManager.obj
 0001:0000d300       ??$construct@UtagPropertyBuff@@ABU1@@?$allocator_traits@V?$allocator@UtagPropertyBuff@@@std@@@std@@SAXAAV?$allocator@UtagPropertyBuff@@@1@PAUtagPropertyBuff@@ABU3@@Z 1000e300 f i GamePropertyManager.obj
 0001:0000d300       ??$construct@UtagPropertyBuff@@AAU1@@?$allocator_traits@V?$allocator@UtagPropertyBuff@@@std@@@std@@SAXAAV?$allocator@UtagPropertyBuff@@@1@PAUtagPropertyBuff@@AAU3@@Z 1000e300 f i GamePropertyManager.obj
 0001:0000d320       ??$destroy@PAU?$_List_node@VSortTop@@PAX@std@@@?$allocator@U?$_List_node@VSortTop@@PAX@std@@@std@@QAEXPAPAU?$_List_node@VSortTop@@PAX@1@@Z 1000e320 f i AndroidUserManager.obj
 0001:0000d320       ?_Adopt@_Iterator_base0@std@@QAEXPBX@Z 1000e320 f i AndroidUserManager.obj
 0001:0000d320       ??$destroy@PAU?$_Tree_node@U?$pair@$$CBKV?$vector@UtagPropertyBuff@@V?$allocator@UtagPropertyBuff@@@std@@@std@@@std@@PAX@std@@@?$allocator@U?$_Tree_node@U?$pair@$$CBKV?$vector@UtagPropertyBuff@@V?$allocator@UtagPropertyBuff@@@std@@@std@@@std@@PAX@std@@@std@@QAEXPAPAU?$_Tree_node@U?$pair@$$CBKV?$vector@UtagPropertyBuff@@V?$allocator@UtagPropertyBuff@@@std@@@std@@@std@@PAX@1@@Z 1000e320 f i GamePropertyManager.obj
 0001:0000d320       ?Dump@CObject@@UBEXAAVCDumpContext@@@Z 1000e320 f i AndroidUserManager.obj
 0001:0000d320       ?Serialize@CObject@@UAEXAAVCArchive@@@Z 1000e320 f i AndroidUserManager.obj
 0001:0000d330       ??$destroy@U?$pair@$$CBKV?$vector@UtagPropertyBuff@@V?$allocator@UtagPropertyBuff@@@std@@@std@@@std@@@?$_Wrap_alloc@V?$allocator@U?$_Tree_node@U?$pair@$$CBKV?$vector@UtagPropertyBuff@@V?$allocator@UtagPropertyBuff@@@std@@@std@@@std@@PAX@std@@@std@@@std@@QAEXPAU?$pair@$$CBKV?$vector@UtagPropertyBuff@@V?$allocator@UtagPropertyBuff@@@std@@@std@@@1@@Z 1000e330 f i GamePropertyManager.obj
 0001:0000d350       ??$destroy@U?$pair@$$CBKV?$vector@UtagPropertyBuff@@V?$allocator@UtagPropertyBuff@@@std@@@std@@@std@@@?$allocator@U?$_Tree_node@U?$pair@$$CBKV?$vector@UtagPropertyBuff@@V?$allocator@UtagPropertyBuff@@@std@@@std@@@std@@PAX@std@@@std@@QAEXPAU?$pair@$$CBKV?$vector@UtagPropertyBuff@@V?$allocator@UtagPropertyBuff@@@std@@@std@@@1@@Z 1000e350 f i GamePropertyManager.obj
 0001:0000d370       ??$destroy@U?$pair@$$CBKV?$vector@UtagPropertyBuff@@V?$allocator@UtagPropertyBuff@@@std@@@std@@@std@@@?$allocator_traits@V?$allocator@U?$_Tree_node@U?$pair@$$CBKV?$vector@UtagPropertyBuff@@V?$allocator@UtagPropertyBuff@@@std@@@std@@@std@@PAX@std@@@std@@@std@@SAXAAV?$allocator@U?$_Tree_node@U?$pair@$$CBKV?$vector@UtagPropertyBuff@@V?$allocator@UtagPropertyBuff@@@std@@@std@@@std@@PAX@std@@@1@PAU?$pair@$$CBKV?$vector@UtagPropertyBuff@@V?$allocator@UtagPropertyBuff@@@std@@@std@@@1@@Z 1000e370 f i GamePropertyManager.obj
 0001:0000d390       ??$emplace_hint@ABUpiecewise_construct_t@std@@V?$tuple@ABK@2@V?$tuple@$$V@2@@?$_Tree@V?$_Tmap_traits@KV?$vector@UtagPropertyBuff@@V?$allocator@UtagPropertyBuff@@@std@@@std@@U?$less@K@2@V?$allocator@U?$pair@$$CBKV?$vector@UtagPropertyBuff@@V?$allocator@UtagPropertyBuff@@@std@@@std@@@std@@@2@$0A@@std@@@std@@QAE?AV?$_Tree_iterator@V?$_Tree_val@U?$_Tree_simple_types@U?$pair@$$CBKV?$vector@UtagPropertyBuff@@V?$allocator@UtagPropertyBuff@@@std@@@std@@@std@@@std@@@std@@@1@V?$_Tree_const_iterator@V?$_Tree_val@U?$_Tree_simple_types@U?$pair@$$CBKV?$vector@UtagPropertyBuff@@V?$allocator@UtagPropertyBuff@@@std@@@std@@@std@@@std@@@std@@@1@ABUpiecewise_construct_t@1@$$QAV?$tuple@ABK@1@$$QAV?$tuple@$$V@1@@Z 1000e390 f i GamePropertyManager.obj
 0001:0000d400       ??$forward_as_tuple@$$V@std@@YA?AV?$tuple@$$V@0@XZ 1000e400 f i GamePropertyManager.obj
 0001:0000d410       ??$forward_as_tuple@ABK@std@@YA?AV?$tuple@ABK@0@ABK@Z 1000e410 f i GamePropertyManager.obj
 0001:0000d460       ??$get@$0A@ABK@std@@YAABK$$QAV?$tuple@ABK@0@@Z 1000e460 f i GamePropertyManager.obj
 0001:0000d480       ??$swap@DX@std@@YAXAAD0@Z  1000e480 f i GamePropertyManager.obj
 0001:0000d4c0       ??$try_emplace@$$V@?$map@KV?$vector@UtagPropertyBuff@@V?$allocator@UtagPropertyBuff@@@std@@@std@@U?$less@K@2@V?$allocator@U?$pair@$$CBKV?$vector@UtagPropertyBuff@@V?$allocator@UtagPropertyBuff@@@std@@@std@@@std@@@2@@std@@QAE?AU?$pair@V?$_Tree_iterator@V?$_Tree_val@U?$_Tree_simple_types@U?$pair@$$CBKV?$vector@UtagPropertyBuff@@V?$allocator@UtagPropertyBuff@@@std@@@std@@@std@@@std@@@std@@@std@@_N@1@ABK@Z 1000e4c0 f i GamePropertyManager.obj
 0001:0000d4e0       ??0?$CWHArray@UtagPropertyInfo@@ABU1@@@QAE@ABV0@@Z 1000e4e0 f i GamePropertyManager.obj
 0001:0000d530       ??0?$CWHArray@UtagPropertyInfo@@ABU1@@@QAE@XZ 1000e530 f i GamePropertyManager.obj
 0001:0000d570       ??0?$_Tree@V?$_Tmap_traits@KV?$vector@UtagPropertyBuff@@V?$allocator@UtagPropertyBuff@@@std@@@std@@U?$less@K@2@V?$allocator@U?$pair@$$CBKV?$vector@UtagPropertyBuff@@V?$allocator@UtagPropertyBuff@@@std@@@std@@@std@@@2@$0A@@std@@@std@@QAE@ABU?$less@K@1@@Z 1000e570 f i GamePropertyManager.obj
 0001:0000d590       ??0?$_Tree_comp_alloc@V?$_Tmap_traits@KV?$vector@UtagPropertyBuff@@V?$allocator@UtagPropertyBuff@@@std@@@std@@U?$less@K@2@V?$allocator@U?$pair@$$CBKV?$vector@UtagPropertyBuff@@V?$allocator@UtagPropertyBuff@@@std@@@std@@@std@@@2@$0A@@std@@@std@@QAE@ABU?$less@K@1@@Z 1000e590 f i GamePropertyManager.obj
 0001:0000d5c0       ??0?$_Tree_const_iterator@V?$_Tree_val@U?$_Tree_simple_types@U?$pair@$$CBKV?$vector@UtagPropertyBuff@@V?$allocator@UtagPropertyBuff@@@std@@@std@@@std@@@std@@@std@@@std@@QAE@XZ 1000e5c0 f i GamePropertyManager.obj
 0001:0000d5e0       ??0?$_Tree_iterator@V?$_Tree_val@U?$_Tree_simple_types@U?$pair@$$CBKV?$vector@UtagPropertyBuff@@V?$allocator@UtagPropertyBuff@@@std@@@std@@@std@@@std@@@std@@@std@@QAE@PAU?$_Tree_node@U?$pair@$$CBKV?$vector@UtagPropertyBuff@@V?$allocator@UtagPropertyBuff@@@std@@@std@@@std@@PAX@1@PBV?$_Tree_val@U?$_Tree_simple_types@U?$pair@$$CBKV?$vector@UtagPropertyBuff@@V?$allocator@UtagPropertyBuff@@@std@@@std@@@std@@@std@@@1@@Z 1000e5e0 f i GamePropertyManager.obj
 0001:0000d5e0       ??0?$_List_iterator@V?$_List_val@U?$_List_simple_types@VSortTop@@@std@@@std@@@std@@QAE@PAU?$_List_node@VSortTop@@PAX@1@PBV?$_List_val@U?$_List_simple_types@VSortTop@@@std@@@1@@Z 1000e5e0 f i AndroidUserManager.obj
 0001:0000d600       ??0?$_Tree_unchecked_const_iterator@V?$_Tree_val@U?$_Tree_simple_types@U?$pair@$$CBKV?$vector@UtagPropertyBuff@@V?$allocator@UtagPropertyBuff@@@std@@@std@@@std@@@std@@@std@@U_Iterator_base0@2@@std@@QAE@PAU?$_Tree_node@U?$pair@$$CBKV?$vector@UtagPropertyBuff@@V?$allocator@UtagPropertyBuff@@@std@@@std@@@std@@PAX@1@PBV?$_Tree_val@U?$_Tree_simple_types@U?$pair@$$CBKV?$vector@UtagPropertyBuff@@V?$allocator@UtagPropertyBuff@@@std@@@std@@@std@@@std@@@1@@Z 1000e600 f i GamePropertyManager.obj
 0001:0000d600       ??0?$_Vector_const_iterator@V?$_Vector_val@U?$_Simple_types@UtagPropertyBuff@@@std@@@std@@@std@@QAE@PAUtagPropertyBuff@@PBU_Container_base0@1@@Z 1000e600 f i GamePropertyManager.obj
 0001:0000d600       ??0?$_List_unchecked_const_iterator@V?$_List_val@U?$_List_simple_types@VSortTop@@@std@@@std@@U_Iterator_base0@2@@std@@QAE@PAU?$_List_node@VSortTop@@PAX@1@PBV?$_List_val@U?$_List_simple_types@VSortTop@@@std@@@1@@Z 1000e600 f i AndroidUserManager.obj
 0001:0000d630       ??0?$_Tree_unchecked_const_iterator@V?$_Tree_val@U?$_Tree_simple_types@U?$pair@$$CBKV?$vector@UtagPropertyBuff@@V?$allocator@UtagPropertyBuff@@@std@@@std@@@std@@@std@@@std@@U_Iterator_base0@2@@std@@QAE@XZ 1000e630 f i GamePropertyManager.obj
 0001:0000d650       ??0?$_Vector_alloc@U?$_Vec_base_types@UtagPropertyBuff@@V?$allocator@UtagPropertyBuff@@@std@@@std@@@std@@QAE@XZ 1000e650 f i GamePropertyManager.obj
 0001:0000d670       ??0?$_Vector_val@U?$_Simple_types@UtagPropertyBuff@@@std@@@std@@QAE@XZ 1000e670 f i GamePropertyManager.obj
 0001:0000d6a0       ??0?$_Wrap_alloc@V?$allocator@UtagPropertyBuff@@@std@@@std@@QAE@XZ 1000e6a0 f i GamePropertyManager.obj
 0001:0000d6a0       ??0?$_Wrap_alloc@V?$allocator@U?$_Tree_node@U?$pair@$$CBKV?$vector@UtagPropertyBuff@@V?$allocator@UtagPropertyBuff@@@std@@@std@@@std@@PAX@std@@@std@@@std@@QAE@XZ 1000e6a0 f i GamePropertyManager.obj
 0001:0000d6a0       ??0?$_Wrap_alloc@V?$allocator@U?$_List_node@VSortTop@@PAX@std@@@std@@@std@@QAE@XZ 1000e6a0 f i AndroidUserManager.obj
 0001:0000d6c0       ??0?$map@KV?$vector@UtagPropertyBuff@@V?$allocator@UtagPropertyBuff@@@std@@@std@@U?$less@K@2@V?$allocator@U?$pair@$$CBKV?$vector@UtagPropertyBuff@@V?$allocator@UtagPropertyBuff@@@std@@@std@@@std@@@2@@std@@QAE@XZ 1000e6c0 f i GamePropertyManager.obj
 0001:0000d6e0       ??0?$tuple@ABK@std@@QAE@$$QAV01@@Z 1000e6e0 f i GamePropertyManager.obj
 0001:0000d710       ??0?$vector@UtagPropertyBuff@@V?$allocator@UtagPropertyBuff@@@std@@@std@@QAE@ABV01@@Z 1000e710 f i GamePropertyManager.obj
 0001:0000d800       ??0?$vector@UtagPropertyBuff@@V?$allocator@UtagPropertyBuff@@@std@@@std@@QAE@XZ 1000e800 f i GamePropertyManager.obj
 0001:0000d840       ??0CGamePropertyManager@@QAE@ABV0@@Z 1000e840 f i GamePropertyManager.obj
 0001:0000d870       ??1?$CWHArray@UtagPropertyInfo@@ABU1@@@UAE@XZ 1000e870 f i GamePropertyManager.obj
 0001:0000d8d0       ??1?$_Tree@V?$_Tmap_traits@KV?$vector@UtagPropertyBuff@@V?$allocator@UtagPropertyBuff@@@std@@@std@@U?$less@K@2@V?$allocator@U?$pair@$$CBKV?$vector@UtagPropertyBuff@@V?$allocator@UtagPropertyBuff@@@std@@@std@@@std@@@2@$0A@@std@@@std@@QAE@XZ 1000e8d0 f i GamePropertyManager.obj
 0001:0000d920       ??1?$_Tree_comp_alloc@V?$_Tmap_traits@KV?$vector@UtagPropertyBuff@@V?$allocator@UtagPropertyBuff@@@std@@@std@@U?$less@K@2@V?$allocator@U?$pair@$$CBKV?$vector@UtagPropertyBuff@@V?$allocator@UtagPropertyBuff@@@std@@@std@@@std@@@2@$0A@@std@@@std@@QAE@XZ 1000e920 f i GamePropertyManager.obj
 0001:0000d970       ??1?$map@KV?$vector@UtagPropertyBuff@@V?$allocator@UtagPropertyBuff@@@std@@@std@@U?$less@K@2@V?$allocator@U?$pair@$$CBKV?$vector@UtagPropertyBuff@@V?$allocator@UtagPropertyBuff@@@std@@@std@@@std@@@2@@std@@QAE@XZ 1000e970 f i GamePropertyManager.obj
 0001:0000d990       ??1?$pair@$$CBKV?$vector@UtagPropertyBuff@@V?$allocator@UtagPropertyBuff@@@std@@@std@@@std@@QAE@XZ 1000e990 f i GamePropertyManager.obj
 0001:0000d9b0       ??1?$vector@UtagPropertyBuff@@V?$allocator@UtagPropertyBuff@@@std@@@std@@QAE@XZ 1000e9b0 f i GamePropertyManager.obj
 0001:0000d9f0       ??4CGamePropertyManager@@QAEAAV0@ABV0@@Z 1000e9f0 f i GamePropertyManager.obj
 0001:0000da20       ??9?$_List_const_iterator@V?$_List_val@U?$_List_simple_types@VSortTop@@@std@@@std@@@std@@QBE_NABV01@@Z 1000ea20 f i AndroidUserManager.obj
 0001:0000da20       ??9?$_Tree_const_iterator@V?$_Tree_val@U?$_Tree_simple_types@U?$pair@$$CBKV?$vector@UtagPropertyBuff@@V?$allocator@UtagPropertyBuff@@@std@@@std@@@std@@@std@@@std@@@std@@QBE_NABV01@@Z 1000ea20 f i GamePropertyManager.obj
 0001:0000da60       ??A?$CWHArray@UtagPropertyInfo@@ABU1@@@QAEAAUtagPropertyInfo@@H@Z 1000ea60 f i GamePropertyManager.obj
 0001:0000da80       ??A?$map@KV?$vector@UtagPropertyBuff@@V?$allocator@UtagPropertyBuff@@@std@@@std@@U?$less@K@2@V?$allocator@U?$pair@$$CBKV?$vector@UtagPropertyBuff@@V?$allocator@UtagPropertyBuff@@@std@@@std@@@std@@@2@@std@@QAEAAV?$vector@UtagPropertyBuff@@V?$allocator@UtagPropertyBuff@@@std@@@1@ABK@Z 1000ea80 f i GamePropertyManager.obj
 0001:0000dab0       ??A?$vector@UtagPropertyBuff@@V?$allocator@UtagPropertyBuff@@@std@@@std@@QAEAAUtagPropertyBuff@@I@Z 1000eab0 f i GamePropertyManager.obj
 0001:0000dad0       ??C?$_Tree_iterator@V?$_Tree_val@U?$_Tree_simple_types@U?$pair@$$CBKV?$vector@UtagPropertyBuff@@V?$allocator@UtagPropertyBuff@@@std@@@std@@@std@@@std@@@std@@@std@@QBEPAU?$pair@$$CBKV?$vector@UtagPropertyBuff@@V?$allocator@UtagPropertyBuff@@@std@@@std@@@1@XZ 1000ead0 f i GamePropertyManager.obj
 0001:0000daf0       ??D?$_Tree_const_iterator@V?$_Tree_val@U?$_Tree_simple_types@U?$pair@$$CBKV?$vector@UtagPropertyBuff@@V?$allocator@UtagPropertyBuff@@@std@@@std@@@std@@@std@@@std@@@std@@QBEABU?$pair@$$CBKV?$vector@UtagPropertyBuff@@V?$allocator@UtagPropertyBuff@@@std@@@std@@@1@XZ 1000eaf0 f i GamePropertyManager.obj
 0001:0000db10       ??D?$_Tree_iterator@V?$_Tree_val@U?$_Tree_simple_types@U?$pair@$$CBKV?$vector@UtagPropertyBuff@@V?$allocator@UtagPropertyBuff@@@std@@@std@@@std@@@std@@@std@@@std@@QBEAAU?$pair@$$CBKV?$vector@UtagPropertyBuff@@V?$allocator@UtagPropertyBuff@@@std@@@std@@@1@XZ 1000eb10 f i GamePropertyManager.obj
 0001:0000db30       ??E?$_Tree_const_iterator@V?$_Tree_val@U?$_Tree_simple_types@U?$pair@$$CBKV?$vector@UtagPropertyBuff@@V?$allocator@UtagPropertyBuff@@@std@@@std@@@std@@@std@@@std@@@std@@QAE?AV01@H@Z 1000eb30 f i GamePropertyManager.obj
 0001:0000db60       ??E?$_Tree_const_iterator@V?$_Tree_val@U?$_Tree_simple_types@U?$pair@$$CBKV?$vector@UtagPropertyBuff@@V?$allocator@UtagPropertyBuff@@@std@@@std@@@std@@@std@@@std@@@std@@QAEAAV01@XZ 1000eb60 f i GamePropertyManager.obj
 0001:0000db80       ??E?$_Tree_unchecked_const_iterator@V?$_Tree_val@U?$_Tree_simple_types@U?$pair@$$CBKV?$vector@UtagPropertyBuff@@V?$allocator@UtagPropertyBuff@@@std@@@std@@@std@@@std@@@std@@U_Iterator_base0@2@@std@@QAEAAV01@XZ 1000eb80 f i GamePropertyManager.obj
 0001:0000dc40       ??F?$_Tree_const_iterator@V?$_Tree_val@U?$_Tree_simple_types@U?$pair@$$CBKV?$vector@UtagPropertyBuff@@V?$allocator@UtagPropertyBuff@@@std@@@std@@@std@@@std@@@std@@@std@@QAEAAV01@XZ 1000ec40 f i GamePropertyManager.obj
 0001:0000dc60       ??F?$_Tree_iterator@V?$_Tree_val@U?$_Tree_simple_types@U?$pair@$$CBKV?$vector@UtagPropertyBuff@@V?$allocator@UtagPropertyBuff@@@std@@@std@@@std@@@std@@@std@@@std@@QAEAAV01@XZ 1000ec60 f i GamePropertyManager.obj
 0001:0000dc80       ??F?$_Tree_unchecked_const_iterator@V?$_Tree_val@U?$_Tree_simple_types@U?$pair@$$CBKV?$vector@UtagPropertyBuff@@V?$allocator@UtagPropertyBuff@@@std@@@std@@@std@@@std@@@std@@U_Iterator_base0@2@@std@@QAEAAV01@XZ 1000ec80 f i GamePropertyManager.obj
 0001:0000dd70       ??R?$less@K@std@@QBE_NABK0@Z 1000ed70 f i GamePropertyManager.obj
 0001:0000dda0       ??_ECGamePropertyManager@@UAEPAXI@Z 1000eda0 f i GamePropertyManager.obj
 0001:0000de50       ??_G?$CWHArray@UtagPropertyInfo@@ABU1@@@UAEPAXI@Z 1000ee50 f i GamePropertyManager.obj
 0001:0000de50       ??_E?$CWHArray@UtagPropertyInfo@@ABU1@@@UAEPAXI@Z 1000ee50 f i GamePropertyManager.obj
 0001:0000de80       ??_G?$pair@$$CBKV?$vector@UtagPropertyBuff@@V?$allocator@UtagPropertyBuff@@@std@@@std@@@std@@QAEPAXI@Z 1000ee80 f i GamePropertyManager.obj
 0001:0000deb0       ?AllocMemory@?$CWHArray@UtagPropertyInfo@@ABU1@@@QAEXH@Z 1000eeb0 f i GamePropertyManager.obj
 0001:0000dfc0       ?ElementAt@?$CWHArray@UtagPropertyInfo@@ABU1@@@QAEAAUtagPropertyInfo@@H@Z 1000efc0 f i GamePropertyManager.obj
 0001:0000dff0       ?GetData@?$CWHArray@UtagPropertyInfo@@ABU1@@@QAEPAUtagPropertyInfo@@XZ 1000eff0 f i GamePropertyManager.obj
 0001:0000e010       ?SetSize@?$CWHArray@UtagPropertyInfo@@ABU1@@@QAEXH@Z 1000f010 f i GamePropertyManager.obj
 0001:0000e0e0       ?_Buy@?$vector@UtagPropertyBuff@@V?$allocator@UtagPropertyBuff@@@std@@@std@@IAE_NI@Z 1000f0e0 f i GamePropertyManager.obj
 0001:0000e190       ?_Buyheadnode@?$_Tree_comp_alloc@V?$_Tmap_traits@KV?$vector@UtagPropertyBuff@@V?$allocator@UtagPropertyBuff@@@std@@@std@@U?$less@K@2@V?$allocator@U?$pair@$$CBKV?$vector@UtagPropertyBuff@@V?$allocator@UtagPropertyBuff@@@std@@@std@@@std@@@2@$0A@@std@@@std@@QAEPAU?$_Tree_node@U?$pair@$$CBKV?$vector@UtagPropertyBuff@@V?$allocator@UtagPropertyBuff@@@std@@@std@@@std@@PAX@2@XZ 1000f190 f i GamePropertyManager.obj
 0001:0000e2d0       ?_Buynode0@?$_Tree_comp_alloc@V?$_Tmap_traits@KV?$vector@UtagPropertyBuff@@V?$allocator@UtagPropertyBuff@@@std@@@std@@U?$less@K@2@V?$allocator@U?$pair@$$CBKV?$vector@UtagPropertyBuff@@V?$allocator@UtagPropertyBuff@@@std@@@std@@@std@@@2@$0A@@std@@@std@@QAEPAU?$_Tree_node@U?$pair@$$CBKV?$vector@UtagPropertyBuff@@V?$allocator@UtagPropertyBuff@@@std@@@std@@@std@@PAX@2@XZ 1000f2d0 f i GamePropertyManager.obj
 0001:0000e410       ?_Color@?$_Tree_comp_alloc@V?$_Tmap_traits@KV?$vector@UtagPropertyBuff@@V?$allocator@UtagPropertyBuff@@@std@@@std@@U?$less@K@2@V?$allocator@U?$pair@$$CBKV?$vector@UtagPropertyBuff@@V?$allocator@UtagPropertyBuff@@@std@@@std@@@std@@@2@$0A@@std@@@std@@SAAADPAU?$_Tree_node@U?$pair@$$CBKV?$vector@UtagPropertyBuff@@V?$allocator@UtagPropertyBuff@@@std@@@std@@@std@@PAX@2@@Z 1000f410 f i GamePropertyManager.obj
 0001:0000e430       ?_Color@?$_Tree_val@U?$_Tree_simple_types@U?$pair@$$CBKV?$vector@UtagPropertyBuff@@V?$allocator@UtagPropertyBuff@@@std@@@std@@@std@@@std@@@std@@SAAADPAU?$_Tree_node@U?$pair@$$CBKV?$vector@UtagPropertyBuff@@V?$allocator@UtagPropertyBuff@@@std@@@std@@@std@@PAX@2@@Z 1000f430 f i GamePropertyManager.obj
 0001:0000e440       ?_Compare@?$_Tree@V?$_Tmap_traits@KV?$vector@UtagPropertyBuff@@V?$allocator@UtagPropertyBuff@@@std@@@std@@U?$less@K@2@V?$allocator@U?$pair@$$CBKV?$vector@UtagPropertyBuff@@V?$allocator@UtagPropertyBuff@@@std@@@std@@@std@@@2@$0A@@std@@@std@@IBE_NABK0@Z 1000f440 f i GamePropertyManager.obj
 0001:0000e470       ?_Construct@?$_Tree_comp_alloc@V?$_Tmap_traits@KV?$vector@UtagPropertyBuff@@V?$allocator@UtagPropertyBuff@@@std@@@std@@U?$less@K@2@V?$allocator@U?$pair@$$CBKV?$vector@UtagPropertyBuff@@V?$allocator@UtagPropertyBuff@@@std@@@std@@@std@@@2@$0A@@std@@@std@@QAEXXZ 1000f470 f i GamePropertyManager.obj
 0001:0000e4a0       ?_Destroy@?$vector@UtagPropertyBuff@@V?$allocator@UtagPropertyBuff@@@std@@@std@@IAEXPAUtagPropertyBuff@@0@Z 1000f4a0 f i GamePropertyManager.obj
 0001:0000e4d0       ?_Destroy_if_not_nil@?$_Tree@V?$_Tmap_traits@KV?$vector@UtagPropertyBuff@@V?$allocator@UtagPropertyBuff@@@std@@@std@@U?$less@K@2@V?$allocator@U?$pair@$$CBKV?$vector@UtagPropertyBuff@@V?$allocator@UtagPropertyBuff@@@std@@@std@@@std@@@2@$0A@@std@@@std@@IAEXPAU?$_Tree_node@U?$pair@$$CBKV?$vector@UtagPropertyBuff@@V?$allocator@UtagPropertyBuff@@@std@@@std@@@std@@PAX@2@@Z 1000f4d0 f i GamePropertyManager.obj
 0001:0000e520       ?_Erase@?$_Tree@V?$_Tmap_traits@KV?$vector@UtagPropertyBuff@@V?$allocator@UtagPropertyBuff@@@std@@@std@@U?$less@K@2@V?$allocator@U?$pair@$$CBKV?$vector@UtagPropertyBuff@@V?$allocator@UtagPropertyBuff@@@std@@@std@@@std@@@2@$0A@@std@@@std@@IAEXPAU?$_Tree_node@U?$pair@$$CBKV?$vector@UtagPropertyBuff@@V?$allocator@UtagPropertyBuff@@@std@@@std@@@std@@PAX@2@@Z 1000f520 f i GamePropertyManager.obj
 0001:0000e5c0       ?_Freenode0@?$_Tree_comp_alloc@V?$_Tmap_traits@KV?$vector@UtagPropertyBuff@@V?$allocator@UtagPropertyBuff@@@std@@@std@@U?$less@K@2@V?$allocator@U?$pair@$$CBKV?$vector@UtagPropertyBuff@@V?$allocator@UtagPropertyBuff@@@std@@@std@@@std@@@2@$0A@@std@@@std@@QAEXPAU?$_Tree_node@U?$pair@$$CBKV?$vector@UtagPropertyBuff@@V?$allocator@UtagPropertyBuff@@@std@@@std@@@std@@PAX@2@@Z 1000f5c0 f i GamePropertyManager.obj
 0001:0000e5c0       ?_Freeheadnode@?$_Tree_comp_alloc@V?$_Tmap_traits@KV?$vector@UtagPropertyBuff@@V?$allocator@UtagPropertyBuff@@@std@@@std@@U?$less@K@2@V?$allocator@U?$pair@$$CBKV?$vector@UtagPropertyBuff@@V?$allocator@UtagPropertyBuff@@@std@@@std@@@std@@@2@$0A@@std@@@std@@QAEXPAU?$_Tree_node@U?$pair@$$CBKV?$vector@UtagPropertyBuff@@V?$allocator@UtagPropertyBuff@@@std@@@std@@@std@@PAX@2@@Z 1000f5c0 f i GamePropertyManager.obj
 0001:0000e660       ?_Get_second@?$_Compressed_pair@U?$_Wrap_alloc@V?$allocator@UtagPropertyBuff@@@std@@@std@@V?$_Vector_val@U?$_Simple_types@UtagPropertyBuff@@@std@@@2@$00@std@@QBEABV?$_Vector_val@U?$_Simple_types@UtagPropertyBuff@@@std@@@2@XZ 1000f660 f i GamePropertyManager.obj
 0001:0000e660       ??0?$tuple@$$V@std@@QAE@XZ 1000f660 f i GamePropertyManager.obj
 0001:0000e660       ??0?$allocator@UtagPropertyBuff@@@std@@QAE@XZ 1000f660 f i GamePropertyManager.obj
 0001:0000e660       ?_Get_second@?$_Compressed_pair@U?$_Wrap_alloc@V?$allocator@U?$_Tree_node@U?$pair@$$CBKV?$vector@UtagPropertyBuff@@V?$allocator@UtagPropertyBuff@@@std@@@std@@@std@@PAX@std@@@std@@@std@@V?$_Tree_val@U?$_Tree_simple_types@U?$pair@$$CBKV?$vector@UtagPropertyBuff@@V?$allocator@UtagPropertyBuff@@@std@@@std@@@std@@@std@@@2@$00@std@@QAEAAV?$_Tree_val@U?$_Tree_simple_types@U?$pair@$$CBKV?$vector@UtagPropertyBuff@@V?$allocator@UtagPropertyBuff@@@std@@@std@@@std@@@std@@@2@XZ 1000f660 f i GamePropertyManager.obj
 0001:0000e660       ?_Get_first@?$_Compressed_pair@U?$_Wrap_alloc@V?$allocator@U?$_Tree_node@U?$pair@$$CBKV?$vector@UtagPropertyBuff@@V?$allocator@UtagPropertyBuff@@@std@@@std@@@std@@PAX@std@@@std@@@std@@V?$_Tree_val@U?$_Tree_simple_types@U?$pair@$$CBKV?$vector@UtagPropertyBuff@@V?$allocator@UtagPropertyBuff@@@std@@@std@@@std@@@std@@@2@$00@std@@QAEAAU?$_Wrap_alloc@V?$allocator@U?$_Tree_node@U?$pair@$$CBKV?$vector@UtagPropertyBuff@@V?$allocator@UtagPropertyBuff@@@std@@@std@@@std@@PAX@std@@@std@@@2@XZ 1000f660 f i GamePropertyManager.obj
 0001:0000e660       ?_Get_second@?$_Compressed_pair@U?$_Wrap_alloc@V?$allocator@U?$_List_node@VSortTop@@PAX@std@@@std@@@std@@V?$_List_val@U?$_List_simple_types@VSortTop@@@std@@@2@$00@std@@QAEAAV?$_List_val@U?$_List_simple_types@VSortTop@@@std@@@2@XZ 1000f660 f i AndroidUserManager.obj
 0001:0000e660       ?_Get_second@?$_Compressed_pair@U?$_Wrap_alloc@V?$allocator@UtagPropertyBuff@@@std@@@std@@V?$_Vector_val@U?$_Simple_types@UtagPropertyBuff@@@std@@@2@$00@std@@QAEAAV?$_Vector_val@U?$_Simple_types@UtagPropertyBuff@@@std@@@2@XZ 1000f660 f i GamePropertyManager.obj
 0001:0000e660       ?_Get_second@?$_Compressed_pair@U?$_Wrap_alloc@V?$allocator@U?$_Tree_node@U?$pair@$$CBKV?$vector@UtagPropertyBuff@@V?$allocator@UtagPropertyBuff@@@std@@@std@@@std@@PAX@std@@@std@@@std@@V?$_Tree_val@U?$_Tree_simple_types@U?$pair@$$CBKV?$vector@UtagPropertyBuff@@V?$allocator@UtagPropertyBuff@@@std@@@std@@@std@@@std@@@2@$00@std@@QBEABV?$_Tree_val@U?$_Tree_simple_types@U?$pair@$$CBKV?$vector@UtagPropertyBuff@@V?$allocator@UtagPropertyBuff@@@std@@@std@@@std@@@std@@@2@XZ 1000f660 f i GamePropertyManager.obj
 0001:0000e660       ?_Get_first@?$_Compressed_pair@U?$_Wrap_alloc@V?$allocator@U?$_List_node@VSortTop@@PAX@std@@@std@@@std@@V?$_List_val@U?$_List_simple_types@VSortTop@@@std@@@2@$00@std@@QAEAAU?$_Wrap_alloc@V?$allocator@U?$_List_node@VSortTop@@PAX@std@@@std@@@2@XZ 1000f660 f i AndroidUserManager.obj
 0001:0000e660       ?_Get_second@?$_Compressed_pair@U?$less@K@std@@V?$_Compressed_pair@U?$_Wrap_alloc@V?$allocator@U?$_Tree_node@U?$pair@$$CBKV?$vector@UtagPropertyBuff@@V?$allocator@UtagPropertyBuff@@@std@@@std@@@std@@PAX@std@@@std@@@std@@V?$_Tree_val@U?$_Tree_simple_types@U?$pair@$$CBKV?$vector@UtagPropertyBuff@@V?$allocator@UtagPropertyBuff@@@std@@@std@@@std@@@std@@@2@$00@2@$00@std@@QBEABV?$_Compressed_pair@U?$_Wrap_alloc@V?$allocator@U?$_Tree_node@U?$pair@$$CBKV?$vector@UtagPropertyBuff@@V?$allocator@UtagPropertyBuff@@@std@@@std@@@std@@PAX@std@@@std@@@std@@V?$_Tree_val@U?$_Tree_simple_types@U?$pair@$$CBKV?$vector@UtagPropertyBuff@@V?$allocator@UtagPropertyBuff@@@std@@@std@@@std@@@std@@@2@$00@2@XZ 1000f660 f i GamePropertyManager.obj
 0001:0000e660       ?_Get_first@?$_Compressed_pair@U?$_Wrap_alloc@V?$allocator@U?$_List_node@VSortTop@@PAX@std@@@std@@@std@@V?$_List_val@U?$_List_simple_types@VSortTop@@@std@@@2@$00@std@@QBEABU?$_Wrap_alloc@V?$allocator@U?$_List_node@VSortTop@@PAX@std@@@std@@@2@XZ 1000f660 f i AndroidUserManager.obj
 0001:0000e660       ??0?$allocator@U?$_Tree_node@U?$pair@$$CBKV?$vector@UtagPropertyBuff@@V?$allocator@UtagPropertyBuff@@@std@@@std@@@std@@PAX@std@@@std@@QAE@XZ 1000f660 f i GamePropertyManager.obj
 0001:0000e660       ??0?$allocator@U?$_List_node@VSortTop@@PAX@std@@@std@@QAE@XZ 1000f660 f i AndroidUserManager.obj
 0001:0000e660       ?_Get_second@?$_Compressed_pair@U?$_Wrap_alloc@V?$allocator@U?$_List_node@VSortTop@@PAX@std@@@std@@@std@@V?$_List_val@U?$_List_simple_types@VSortTop@@@std@@@2@$00@std@@QBEABV?$_List_val@U?$_List_simple_types@VSortTop@@@std@@@2@XZ 1000f660 f i AndroidUserManager.obj
 0001:0000e660       ?_Get_first@?$_Compressed_pair@U?$_Wrap_alloc@V?$allocator@U?$_Tree_node@U?$pair@$$CBKV?$vector@UtagPropertyBuff@@V?$allocator@UtagPropertyBuff@@@std@@@std@@@std@@PAX@std@@@std@@@std@@V?$_Tree_val@U?$_Tree_simple_types@U?$pair@$$CBKV?$vector@UtagPropertyBuff@@V?$allocator@UtagPropertyBuff@@@std@@@std@@@std@@@std@@@2@$00@std@@QBEABU?$_Wrap_alloc@V?$allocator@U?$_Tree_node@U?$pair@$$CBKV?$vector@UtagPropertyBuff@@V?$allocator@UtagPropertyBuff@@@std@@@std@@@std@@PAX@std@@@std@@@2@XZ 1000f660 f i GamePropertyManager.obj
 0001:0000e660       ?_Get_second@?$_Compressed_pair@U?$less@K@std@@V?$_Compressed_pair@U?$_Wrap_alloc@V?$allocator@U?$_Tree_node@U?$pair@$$CBKV?$vector@UtagPropertyBuff@@V?$allocator@UtagPropertyBuff@@@std@@@std@@@std@@PAX@std@@@std@@@std@@V?$_Tree_val@U?$_Tree_simple_types@U?$pair@$$CBKV?$vector@UtagPropertyBuff@@V?$allocator@UtagPropertyBuff@@@std@@@std@@@std@@@std@@@2@$00@2@$00@std@@QAEAAV?$_Compressed_pair@U?$_Wrap_alloc@V?$allocator@U?$_Tree_node@U?$pair@$$CBKV?$vector@UtagPropertyBuff@@V?$allocator@UtagPropertyBuff@@@std@@@std@@@std@@PAX@std@@@std@@@std@@V?$_Tree_val@U?$_Tree_simple_types@U?$pair@$$CBKV?$vector@UtagPropertyBuff@@V?$allocator@UtagPropertyBuff@@@std@@@std@@@std@@@std@@@2@$00@2@XZ 1000f660 f i GamePropertyManager.obj
 0001:0000e660       ??0CObject@@IAE@XZ         1000f660 f i AndroidUserManager.obj
 0001:0000e660       ?_Get_first@?$_Compressed_pair@U?$_Wrap_alloc@V?$allocator@UtagPropertyBuff@@@std@@@std@@V?$_Vector_val@U?$_Simple_types@UtagPropertyBuff@@@std@@@2@$00@std@@QAEAAU?$_Wrap_alloc@V?$allocator@UtagPropertyBuff@@@std@@@2@XZ 1000f660 f i GamePropertyManager.obj
 0001:0000e660       ?_Get_first@?$_Compressed_pair@U?$_Wrap_alloc@V?$allocator@UtagPropertyBuff@@@std@@@std@@V?$_Vector_val@U?$_Simple_types@UtagPropertyBuff@@@std@@@2@$00@std@@QBEABU?$_Wrap_alloc@V?$allocator@UtagPropertyBuff@@@std@@@2@XZ 1000f660 f i GamePropertyManager.obj
 0001:0000e660       ?_Get_first@?$_Compressed_pair@U?$less@K@std@@V?$_Compressed_pair@U?$_Wrap_alloc@V?$allocator@U?$_Tree_node@U?$pair@$$CBKV?$vector@UtagPropertyBuff@@V?$allocator@UtagPropertyBuff@@@std@@@std@@@std@@PAX@std@@@std@@@std@@V?$_Tree_val@U?$_Tree_simple_types@U?$pair@$$CBKV?$vector@UtagPropertyBuff@@V?$allocator@UtagPropertyBuff@@@std@@@std@@@std@@@std@@@2@$00@2@$00@std@@QAEAAU?$less@K@2@XZ 1000f660 f i GamePropertyManager.obj
 0001:0000e660       ?_Get_first@?$_Compressed_pair@U?$less@K@std@@V?$_Compressed_pair@U?$_Wrap_alloc@V?$allocator@U?$_Tree_node@U?$pair@$$CBKV?$vector@UtagPropertyBuff@@V?$allocator@UtagPropertyBuff@@@std@@@std@@@std@@PAX@std@@@std@@@std@@V?$_Tree_val@U?$_Tree_simple_types@U?$pair@$$CBKV?$vector@UtagPropertyBuff@@V?$allocator@UtagPropertyBuff@@@std@@@std@@@std@@@std@@@2@$00@2@$00@std@@QBEABU?$less@K@2@XZ 1000f660 f i GamePropertyManager.obj
 0001:0000e670       ?_Get_data@?$_Tree_comp_alloc@V?$_Tmap_traits@KV?$vector@UtagPropertyBuff@@V?$allocator@UtagPropertyBuff@@@std@@@std@@U?$less@K@2@V?$allocator@U?$pair@$$CBKV?$vector@UtagPropertyBuff@@V?$allocator@UtagPropertyBuff@@@std@@@std@@@std@@@2@$0A@@std@@@std@@QAEAAV?$_Tree_val@U?$_Tree_simple_types@U?$pair@$$CBKV?$vector@UtagPropertyBuff@@V?$allocator@UtagPropertyBuff@@@std@@@std@@@std@@@std@@@2@XZ 1000f670 f i GamePropertyManager.obj
 0001:0000e670       ?_Getal@?$_Tree_comp_alloc@V?$_Tmap_traits@KV?$vector@UtagPropertyBuff@@V?$allocator@UtagPropertyBuff@@@std@@@std@@U?$less@K@2@V?$allocator@U?$pair@$$CBKV?$vector@UtagPropertyBuff@@V?$allocator@UtagPropertyBuff@@@std@@@std@@@std@@@2@$0A@@std@@@std@@QBEABU?$_Wrap_alloc@V?$allocator@U?$_Tree_node@U?$pair@$$CBKV?$vector@UtagPropertyBuff@@V?$allocator@UtagPropertyBuff@@@std@@@std@@@std@@PAX@std@@@std@@@2@XZ 1000f670 f i GamePropertyManager.obj
 0001:0000e670       ?_Get_data@?$_Tree_comp_alloc@V?$_Tmap_traits@KV?$vector@UtagPropertyBuff@@V?$allocator@UtagPropertyBuff@@@std@@@std@@U?$less@K@2@V?$allocator@U?$pair@$$CBKV?$vector@UtagPropertyBuff@@V?$allocator@UtagPropertyBuff@@@std@@@std@@@std@@@2@$0A@@std@@@std@@QBEABV?$_Tree_val@U?$_Tree_simple_types@U?$pair@$$CBKV?$vector@UtagPropertyBuff@@V?$allocator@UtagPropertyBuff@@@std@@@std@@@std@@@std@@@2@XZ 1000f670 f i GamePropertyManager.obj
 0001:0000e670       ?_Getal@?$_Tree_comp_alloc@V?$_Tmap_traits@KV?$vector@UtagPropertyBuff@@V?$allocator@UtagPropertyBuff@@@std@@@std@@U?$less@K@2@V?$allocator@U?$pair@$$CBKV?$vector@UtagPropertyBuff@@V?$allocator@UtagPropertyBuff@@@std@@@std@@@std@@@2@$0A@@std@@@std@@QAEAAU?$_Wrap_alloc@V?$allocator@U?$_Tree_node@U?$pair@$$CBKV?$vector@UtagPropertyBuff@@V?$allocator@UtagPropertyBuff@@@std@@@std@@@std@@PAX@std@@@std@@@2@XZ 1000f670 f i GamePropertyManager.obj
 0001:0000e690       ?_Get_data@?$_Vector_alloc@U?$_Vec_base_types@UtagPropertyBuff@@V?$allocator@UtagPropertyBuff@@@std@@@std@@@std@@QBEABV?$_Vector_val@U?$_Simple_types@UtagPropertyBuff@@@std@@@2@XZ 1000f690 f i GamePropertyManager.obj
 0001:0000e690       ?_Getal@?$_List_alloc@U?$_List_base_types@VSortTop@@V?$allocator@VSortTop@@@std@@@std@@@std@@QBEABU?$_Wrap_alloc@V?$allocator@U?$_List_node@VSortTop@@PAX@std@@@std@@@2@XZ 1000f690 f i AndroidUserManager.obj
 0001:0000e690       ?_Get_data@?$_Vector_alloc@U?$_Vec_base_types@UtagPropertyBuff@@V?$allocator@UtagPropertyBuff@@@std@@@std@@@std@@QAEAAV?$_Vector_val@U?$_Simple_types@UtagPropertyBuff@@@std@@@2@XZ 1000f690 f i GamePropertyManager.obj
 0001:0000e690       ?_Getal@?$_Vector_alloc@U?$_Vec_base_types@UtagPropertyBuff@@V?$allocator@UtagPropertyBuff@@@std@@@std@@@std@@QBEABU?$_Wrap_alloc@V?$allocator@UtagPropertyBuff@@@std@@@2@XZ 1000f690 f i GamePropertyManager.obj
 0001:0000e690       ?_Getcomp@?$_Tree_comp_alloc@V?$_Tmap_traits@KV?$vector@UtagPropertyBuff@@V?$allocator@UtagPropertyBuff@@@std@@@std@@U?$less@K@2@V?$allocator@U?$pair@$$CBKV?$vector@UtagPropertyBuff@@V?$allocator@UtagPropertyBuff@@@std@@@std@@@std@@@2@$0A@@std@@@std@@QBEABU?$less@K@2@XZ 1000f690 f i GamePropertyManager.obj
 0001:0000e690       ?_Get_data@?$_List_alloc@U?$_List_base_types@VSortTop@@V?$allocator@VSortTop@@@std@@@std@@@std@@QBEABV?$_List_val@U?$_List_simple_types@VSortTop@@@std@@@2@XZ 1000f690 f i AndroidUserManager.obj
 0001:0000e690       ?_Get_data@?$_List_alloc@U?$_List_base_types@VSortTop@@V?$allocator@VSortTop@@@std@@@std@@@std@@QAEAAV?$_List_val@U?$_List_simple_types@VSortTop@@@std@@@2@XZ 1000f690 f i AndroidUserManager.obj
 0001:0000e690       ?_Getal@?$_List_alloc@U?$_List_base_types@VSortTop@@V?$allocator@VSortTop@@@std@@@std@@@std@@QAEAAU?$_Wrap_alloc@V?$allocator@U?$_List_node@VSortTop@@PAX@std@@@std@@@2@XZ 1000f690 f i AndroidUserManager.obj
 0001:0000e690       ?_Getcomp@?$_Tree_comp_alloc@V?$_Tmap_traits@KV?$vector@UtagPropertyBuff@@V?$allocator@UtagPropertyBuff@@@std@@@std@@U?$less@K@2@V?$allocator@U?$pair@$$CBKV?$vector@UtagPropertyBuff@@V?$allocator@UtagPropertyBuff@@@std@@@std@@@std@@@2@$0A@@std@@@std@@QAEAAU?$less@K@2@XZ 1000f690 f i GamePropertyManager.obj
 0001:0000e690       ?_Getal@?$_Vector_alloc@U?$_Vec_base_types@UtagPropertyBuff@@V?$allocator@UtagPropertyBuff@@@std@@@std@@@std@@QAEAAU?$_Wrap_alloc@V?$allocator@UtagPropertyBuff@@@std@@@2@XZ 1000f690 f i GamePropertyManager.obj
 0001:0000e6b0       ?_Grow_to@?$vector@UtagPropertyBuff@@V?$allocator@UtagPropertyBuff@@@std@@@std@@IBEII@Z 1000f6b0 f i GamePropertyManager.obj
 0001:0000e710       ?_Inside@?$vector@UtagPropertyBuff@@V?$allocator@UtagPropertyBuff@@@std@@@std@@IBE_NPBUtagPropertyBuff@@@Z 1000f710 f i GamePropertyManager.obj
 0001:0000e770       ?_Isnil@?$_Tree_comp_alloc@V?$_Tmap_traits@KV?$vector@UtagPropertyBuff@@V?$allocator@UtagPropertyBuff@@@std@@@std@@U?$less@K@2@V?$allocator@U?$pair@$$CBKV?$vector@UtagPropertyBuff@@V?$allocator@UtagPropertyBuff@@@std@@@std@@@std@@@2@$0A@@std@@@std@@SAAADPAU?$_Tree_node@U?$pair@$$CBKV?$vector@UtagPropertyBuff@@V?$allocator@UtagPropertyBuff@@@std@@@std@@@std@@PAX@2@@Z 1000f770 f i GamePropertyManager.obj
 0001:0000e790       ?_Isnil@?$_Tree_val@U?$_Tree_simple_types@U?$pair@$$CBKV?$vector@UtagPropertyBuff@@V?$allocator@UtagPropertyBuff@@@std@@@std@@@std@@@std@@@std@@SAAADPAU?$_Tree_node@U?$pair@$$CBKV?$vector@UtagPropertyBuff@@V?$allocator@UtagPropertyBuff@@@std@@@std@@@std@@PAX@2@@Z 1000f790 f i GamePropertyManager.obj
 0001:0000e7a0       ?_Key@?$_Tree@V?$_Tmap_traits@KV?$vector@UtagPropertyBuff@@V?$allocator@UtagPropertyBuff@@@std@@@std@@U?$less@K@2@V?$allocator@U?$pair@$$CBKV?$vector@UtagPropertyBuff@@V?$allocator@UtagPropertyBuff@@@std@@@std@@@std@@@2@$0A@@std@@@std@@IBEABKPAU?$_Tree_node@U?$pair@$$CBKV?$vector@UtagPropertyBuff@@V?$allocator@UtagPropertyBuff@@@std@@@std@@@std@@PAX@2@@Z 1000f7a0 f i GamePropertyManager.obj
 0001:0000e7d0       ?_Kfn@?$_Tree@V?$_Tmap_traits@KV?$vector@UtagPropertyBuff@@V?$allocator@UtagPropertyBuff@@@std@@@std@@U?$less@K@2@V?$allocator@U?$pair@$$CBKV?$vector@UtagPropertyBuff@@V?$allocator@UtagPropertyBuff@@@std@@@std@@@std@@@2@$0A@@std@@@std@@IBEABKABU?$pair@$$CBKV?$vector@UtagPropertyBuff@@V?$allocator@UtagPropertyBuff@@@std@@@std@@@2@@Z 1000f7d0 f i GamePropertyManager.obj
 0001:0000e7f0       ?_Nextnode@?$_List_alloc@U?$_List_base_types@VSortTop@@V?$allocator@VSortTop@@@std@@@std@@@std@@SAAAPAU?$_List_node@VSortTop@@PAX@2@PAU32@@Z 1000f7f0 f i AndroidUserManager.obj
 0001:0000e7f0       ?_Left@?$_Tree_comp_alloc@V?$_Tmap_traits@KV?$vector@UtagPropertyBuff@@V?$allocator@UtagPropertyBuff@@@std@@@std@@U?$less@K@2@V?$allocator@U?$pair@$$CBKV?$vector@UtagPropertyBuff@@V?$allocator@UtagPropertyBuff@@@std@@@std@@@std@@@2@$0A@@std@@@std@@SAAAPAU?$_Tree_node@U?$pair@$$CBKV?$vector@UtagPropertyBuff@@V?$allocator@UtagPropertyBuff@@@std@@@std@@@std@@PAX@2@PAU32@@Z 1000f7f0 f i GamePropertyManager.obj
 0001:0000e7f0       ?pointer_to@?$pointer_traits@PAU?$pair@$$CBKV?$vector@UtagPropertyBuff@@V?$allocator@UtagPropertyBuff@@@std@@@std@@@std@@@std@@SAPAU?$pair@$$CBKV?$vector@UtagPropertyBuff@@V?$allocator@UtagPropertyBuff@@@std@@@std@@@2@AAU32@@Z 1000f7f0 f i GamePropertyManager.obj
 0001:0000e810       ?_Lmost@?$_Tree@V?$_Tmap_traits@KV?$vector@UtagPropertyBuff@@V?$allocator@UtagPropertyBuff@@@std@@@std@@U?$less@K@2@V?$allocator@U?$pair@$$CBKV?$vector@UtagPropertyBuff@@V?$allocator@UtagPropertyBuff@@@std@@@std@@@std@@@2@$0A@@std@@@std@@IBEAAPAU?$_Tree_node@U?$pair@$$CBKV?$vector@UtagPropertyBuff@@V?$allocator@UtagPropertyBuff@@@std@@@std@@@std@@PAX@2@XZ 1000f810 f i GamePropertyManager.obj
 0001:0000e830       ?_Lrotate@?$_Tree@V?$_Tmap_traits@KV?$vector@UtagPropertyBuff@@V?$allocator@UtagPropertyBuff@@@std@@@std@@U?$less@K@2@V?$allocator@U?$pair@$$CBKV?$vector@UtagPropertyBuff@@V?$allocator@UtagPropertyBuff@@@std@@@std@@@std@@@2@$0A@@std@@@std@@IAEXPAU?$_Tree_node@U?$pair@$$CBKV?$vector@UtagPropertyBuff@@V?$allocator@UtagPropertyBuff@@@std@@@std@@@std@@PAX@2@@Z 1000f830 f i GamePropertyManager.obj
 0001:0000e960       ?_Max@?$_Tree_comp_alloc@V?$_Tmap_traits@KV?$vector@UtagPropertyBuff@@V?$allocator@UtagPropertyBuff@@@std@@@std@@U?$less@K@2@V?$allocator@U?$pair@$$CBKV?$vector@UtagPropertyBuff@@V?$allocator@UtagPropertyBuff@@@std@@@std@@@std@@@2@$0A@@std@@@std@@SAPAU?$_Tree_node@U?$pair@$$CBKV?$vector@UtagPropertyBuff@@V?$allocator@UtagPropertyBuff@@@std@@@std@@@std@@PAX@2@PAU32@@Z 1000f960 f i GamePropertyManager.obj
 0001:0000e980       ?_Max@?$_Tree_val@U?$_Tree_simple_types@U?$pair@$$CBKV?$vector@UtagPropertyBuff@@V?$allocator@UtagPropertyBuff@@@std@@@std@@@std@@@std@@@std@@SAPAU?$_Tree_node@U?$pair@$$CBKV?$vector@UtagPropertyBuff@@V?$allocator@UtagPropertyBuff@@@std@@@std@@@std@@PAX@2@PAU32@@Z 1000f980 f i GamePropertyManager.obj
 0001:0000e9c0       ?_Min@?$_Tree_comp_alloc@V?$_Tmap_traits@KV?$vector@UtagPropertyBuff@@V?$allocator@UtagPropertyBuff@@@std@@@std@@U?$less@K@2@V?$allocator@U?$pair@$$CBKV?$vector@UtagPropertyBuff@@V?$allocator@UtagPropertyBuff@@@std@@@std@@@std@@@2@$0A@@std@@@std@@SAPAU?$_Tree_node@U?$pair@$$CBKV?$vector@UtagPropertyBuff@@V?$allocator@UtagPropertyBuff@@@std@@@std@@@std@@PAX@2@PAU32@@Z 1000f9c0 f i GamePropertyManager.obj
 0001:0000e9e0       ?_Min@?$_Tree_val@U?$_Tree_simple_types@U?$pair@$$CBKV?$vector@UtagPropertyBuff@@V?$allocator@UtagPropertyBuff@@@std@@@std@@@std@@@std@@@std@@SAPAU?$_Tree_node@U?$pair@$$CBKV?$vector@UtagPropertyBuff@@V?$allocator@UtagPropertyBuff@@@std@@@std@@@std@@PAX@2@PAU32@@Z 1000f9e0 f i GamePropertyManager.obj
 0001:0000ea20       ?_Myend@?$_Vector_alloc@U?$_Vec_base_types@UtagPropertyBuff@@V?$allocator@UtagPropertyBuff@@@std@@@std@@@std@@QBEABQAUtagPropertyBuff@@XZ 1000fa20 f i GamePropertyManager.obj
 0001:0000ea20       ?_Myend@?$_Vector_alloc@U?$_Vec_base_types@UtagPropertyBuff@@V?$allocator@UtagPropertyBuff@@@std@@@std@@@std@@QAEAAPAUtagPropertyBuff@@XZ 1000fa20 f i GamePropertyManager.obj
 0001:0000ea40       ?_Myhead@?$_List_alloc@U?$_List_base_types@VSortTop@@V?$allocator@VSortTop@@@std@@@std@@@std@@QAEAAPAU?$_List_node@VSortTop@@PAX@2@XZ 1000fa40 f i AndroidUserManager.obj
 0001:0000ea40       ?_Myfirst@?$_Vector_alloc@U?$_Vec_base_types@UtagPropertyBuff@@V?$allocator@UtagPropertyBuff@@@std@@@std@@@std@@QBEABQAUtagPropertyBuff@@XZ 1000fa40 f i GamePropertyManager.obj
 0001:0000ea40       ?_Myhead@?$_List_alloc@U?$_List_base_types@VSortTop@@V?$allocator@VSortTop@@@std@@@std@@@std@@QBEABQAU?$_List_node@VSortTop@@PAX@2@XZ 1000fa40 f i AndroidUserManager.obj
 0001:0000ea40       ?_Myfirst@?$_Vector_alloc@U?$_Vec_base_types@UtagPropertyBuff@@V?$allocator@UtagPropertyBuff@@@std@@@std@@@std@@QAEAAPAUtagPropertyBuff@@XZ 1000fa40 f i GamePropertyManager.obj
 0001:0000ea60       ?_Myhead@?$_Tree_comp_alloc@V?$_Tmap_traits@KV?$vector@UtagPropertyBuff@@V?$allocator@UtagPropertyBuff@@@std@@@std@@U?$less@K@2@V?$allocator@U?$pair@$$CBKV?$vector@UtagPropertyBuff@@V?$allocator@UtagPropertyBuff@@@std@@@std@@@std@@@2@$0A@@std@@@std@@QBEABQAU?$_Tree_node@U?$pair@$$CBKV?$vector@UtagPropertyBuff@@V?$allocator@UtagPropertyBuff@@@std@@@std@@@std@@PAX@2@XZ 1000fa60 f i GamePropertyManager.obj
 0001:0000ea60       ?_Myhead@?$_Tree_comp_alloc@V?$_Tmap_traits@KV?$vector@UtagPropertyBuff@@V?$allocator@UtagPropertyBuff@@@std@@@std@@U?$less@K@2@V?$allocator@U?$pair@$$CBKV?$vector@UtagPropertyBuff@@V?$allocator@UtagPropertyBuff@@@std@@@std@@@std@@@2@$0A@@std@@@std@@QAEAAPAU?$_Tree_node@U?$pair@$$CBKV?$vector@UtagPropertyBuff@@V?$allocator@UtagPropertyBuff@@@std@@@std@@@std@@PAX@2@XZ 1000fa60 f i GamePropertyManager.obj
 0001:0000ea80       ?_Mylast@?$_Vector_alloc@U?$_Vec_base_types@UtagPropertyBuff@@V?$allocator@UtagPropertyBuff@@@std@@@std@@@std@@QAEAAPAUtagPropertyBuff@@XZ 1000fa80 f i GamePropertyManager.obj
 0001:0000ea80       ?_Mylast@?$_Vector_alloc@U?$_Vec_base_types@UtagPropertyBuff@@V?$allocator@UtagPropertyBuff@@@std@@@std@@@std@@QBEABQAUtagPropertyBuff@@XZ 1000fa80 f i GamePropertyManager.obj
 0001:0000ea80       ?_Mysize@?$_List_alloc@U?$_List_base_types@VSortTop@@V?$allocator@VSortTop@@@std@@@std@@@std@@QAEAAIXZ 1000fa80 f i AndroidUserManager.obj
 0001:0000eaa0       ?_Mysize@?$_Tree_comp_alloc@V?$_Tmap_traits@KV?$vector@UtagPropertyBuff@@V?$allocator@UtagPropertyBuff@@@std@@@std@@U?$less@K@2@V?$allocator@U?$pair@$$CBKV?$vector@UtagPropertyBuff@@V?$allocator@UtagPropertyBuff@@@std@@@std@@@std@@@2@$0A@@std@@@std@@QAEAAIXZ 1000faa0 f i GamePropertyManager.obj
 0001:0000eaa0       ?_Mysize@?$_Tree_comp_alloc@V?$_Tmap_traits@KV?$vector@UtagPropertyBuff@@V?$allocator@UtagPropertyBuff@@@std@@@std@@U?$less@K@2@V?$allocator@U?$pair@$$CBKV?$vector@UtagPropertyBuff@@V?$allocator@UtagPropertyBuff@@@std@@@std@@@std@@@2@$0A@@std@@@std@@QBEABIXZ 1000faa0 f i GamePropertyManager.obj
 0001:0000eac0       ?_Myval@?$_Tree_comp_alloc@V?$_Tmap_traits@KV?$vector@UtagPropertyBuff@@V?$allocator@UtagPropertyBuff@@@std@@@std@@U?$less@K@2@V?$allocator@U?$pair@$$CBKV?$vector@UtagPropertyBuff@@V?$allocator@UtagPropertyBuff@@@std@@@std@@@std@@@2@$0A@@std@@@std@@SAAAU?$pair@$$CBKV?$vector@UtagPropertyBuff@@V?$allocator@UtagPropertyBuff@@@std@@@std@@@2@PAU?$_Tree_node@U?$pair@$$CBKV?$vector@UtagPropertyBuff@@V?$allocator@UtagPropertyBuff@@@std@@@std@@@std@@PAX@2@@Z 1000fac0 f i GamePropertyManager.obj
 0001:0000eae0       ?_Myval@?$_Tree_val@U?$_Tree_simple_types@U?$pair@$$CBKV?$vector@UtagPropertyBuff@@V?$allocator@UtagPropertyBuff@@@std@@@std@@@std@@@std@@@std@@SAAAU?$pair@$$CBKV?$vector@UtagPropertyBuff@@V?$allocator@UtagPropertyBuff@@@std@@@std@@@2@PAU?$_Tree_node@U?$pair@$$CBKV?$vector@UtagPropertyBuff@@V?$allocator@UtagPropertyBuff@@@std@@@std@@@std@@PAX@2@@Z 1000fae0 f i GamePropertyManager.obj
 0001:0000eaf0       ?_Orphan_all@?$_Vector_alloc@U?$_Vec_base_types@UtagPropertyBuff@@V?$allocator@UtagPropertyBuff@@@std@@@std@@@std@@QAEXXZ 1000faf0 f i GamePropertyManager.obj
 0001:0000eb10       ?_Orphan_range@?$vector@UtagPropertyBuff@@V?$allocator@UtagPropertyBuff@@@std@@@std@@IBEXPAUtagPropertyBuff@@0@Z 1000fb10 f i GamePropertyManager.obj
 0001:0000eb20       ?_Parent@?$_Tree_comp_alloc@V?$_Tmap_traits@KV?$vector@UtagPropertyBuff@@V?$allocator@UtagPropertyBuff@@@std@@@std@@U?$less@K@2@V?$allocator@U?$pair@$$CBKV?$vector@UtagPropertyBuff@@V?$allocator@UtagPropertyBuff@@@std@@@std@@@std@@@2@$0A@@std@@@std@@SAAAPAU?$_Tree_node@U?$pair@$$CBKV?$vector@UtagPropertyBuff@@V?$allocator@UtagPropertyBuff@@@std@@@std@@@std@@PAX@2@PAU32@@Z 1000fb20 f i GamePropertyManager.obj
 0001:0000eb20       ?_Prevnode@?$_List_alloc@U?$_List_base_types@VSortTop@@V?$allocator@VSortTop@@@std@@@std@@@std@@SAAAPAU?$_List_node@VSortTop@@PAX@2@PAU32@@Z 1000fb20 f i AndroidUserManager.obj
 0001:0000eb40       ?_Reallocate@?$vector@UtagPropertyBuff@@V?$allocator@UtagPropertyBuff@@@std@@@std@@IAEXI@Z 1000fb40 f i GamePropertyManager.obj
 0001:0000eca0       ?_Reserve@?$vector@UtagPropertyBuff@@V?$allocator@UtagPropertyBuff@@@std@@@std@@IAEXI@Z 1000fca0 f i GamePropertyManager.obj
 0001:0000ed00       ?_Myval@?$_List_alloc@U?$_List_base_types@VSortTop@@V?$allocator@VSortTop@@@std@@@std@@@std@@SAAAVSortTop@@PAU?$_List_node@VSortTop@@PAX@2@@Z 1000fd00 f i AndroidUserManager.obj
 0001:0000ed00       ?_Right@?$_Tree_comp_alloc@V?$_Tmap_traits@KV?$vector@UtagPropertyBuff@@V?$allocator@UtagPropertyBuff@@@std@@@std@@U?$less@K@2@V?$allocator@U?$pair@$$CBKV?$vector@UtagPropertyBuff@@V?$allocator@UtagPropertyBuff@@@std@@@std@@@std@@@2@$0A@@std@@@std@@SAAAPAU?$_Tree_node@U?$pair@$$CBKV?$vector@UtagPropertyBuff@@V?$allocator@UtagPropertyBuff@@@std@@@std@@@std@@PAX@2@PAU32@@Z 1000fd00 f i GamePropertyManager.obj
 0001:0000ed20       ?_Rmost@?$_Tree@V?$_Tmap_traits@KV?$vector@UtagPropertyBuff@@V?$allocator@UtagPropertyBuff@@@std@@@std@@U?$less@K@2@V?$allocator@U?$pair@$$CBKV?$vector@UtagPropertyBuff@@V?$allocator@UtagPropertyBuff@@@std@@@std@@@std@@@2@$0A@@std@@@std@@IBEAAPAU?$_Tree_node@U?$pair@$$CBKV?$vector@UtagPropertyBuff@@V?$allocator@UtagPropertyBuff@@@std@@@std@@@std@@PAX@2@XZ 1000fd20 f i GamePropertyManager.obj
 0001:0000ed40       ?_Root@?$_Tree@V?$_Tmap_traits@KV?$vector@UtagPropertyBuff@@V?$allocator@UtagPropertyBuff@@@std@@@std@@U?$less@K@2@V?$allocator@U?$pair@$$CBKV?$vector@UtagPropertyBuff@@V?$allocator@UtagPropertyBuff@@@std@@@std@@@std@@@2@$0A@@std@@@std@@IBEAAPAU?$_Tree_node@U?$pair@$$CBKV?$vector@UtagPropertyBuff@@V?$allocator@UtagPropertyBuff@@@std@@@std@@@std@@PAX@2@XZ 1000fd40 f i GamePropertyManager.obj
 0001:0000ed60       ?_Rrotate@?$_Tree@V?$_Tmap_traits@KV?$vector@UtagPropertyBuff@@V?$allocator@UtagPropertyBuff@@@std@@@std@@U?$less@K@2@V?$allocator@U?$pair@$$CBKV?$vector@UtagPropertyBuff@@V?$allocator@UtagPropertyBuff@@@std@@@std@@@std@@@2@$0A@@std@@@std@@IAEXPAU?$_Tree_node@U?$pair@$$CBKV?$vector@UtagPropertyBuff@@V?$allocator@UtagPropertyBuff@@@std@@@std@@@std@@PAX@2@@Z 1000fd60 f i GamePropertyManager.obj
 0001:0000ee90       ?_Tidy@?$_Tree@V?$_Tmap_traits@KV?$vector@UtagPropertyBuff@@V?$allocator@UtagPropertyBuff@@@std@@@std@@U?$less@K@2@V?$allocator@U?$pair@$$CBKV?$vector@UtagPropertyBuff@@V?$allocator@UtagPropertyBuff@@@std@@@std@@@std@@@2@$0A@@std@@@std@@IAEXXZ 1000fe90 f i GamePropertyManager.obj
 0001:0000eee0       ?_Tidy@?$vector@UtagPropertyBuff@@V?$allocator@UtagPropertyBuff@@@std@@@std@@IAEXXZ 1000fee0 f i GamePropertyManager.obj
 0001:0000ef90       ?_Unused_capacity@?$vector@UtagPropertyBuff@@V?$allocator@UtagPropertyBuff@@@std@@@std@@QBEIXZ 1000ff90 f i GamePropertyManager.obj
 0001:0000efc0       ?_Xlen@?$vector@UtagPropertyBuff@@V?$allocator@UtagPropertyBuff@@@std@@@std@@IBEXXZ 1000ffc0 f i GamePropertyManager.obj
 0001:0000efe0       ?allocate@?$_Wrap_alloc@V?$allocator@U?$_Tree_node@U?$pair@$$CBKV?$vector@UtagPropertyBuff@@V?$allocator@UtagPropertyBuff@@@std@@@std@@@std@@PAX@std@@@std@@@std@@QAEPAU?$_Tree_node@U?$pair@$$CBKV?$vector@UtagPropertyBuff@@V?$allocator@UtagPropertyBuff@@@std@@@std@@@std@@PAX@2@I@Z 1000ffe0 f i GamePropertyManager.obj
 0001:0000f000       ?allocate@?$_Wrap_alloc@V?$allocator@UtagPropertyBuff@@@std@@@std@@QAEPAUtagPropertyBuff@@I@Z 10010000 f i GamePropertyManager.obj
 0001:0000f020       ?allocate@?$allocator@U?$_Tree_node@U?$pair@$$CBKV?$vector@UtagPropertyBuff@@V?$allocator@UtagPropertyBuff@@@std@@@std@@@std@@PAX@std@@@std@@QAEPAU?$_Tree_node@U?$pair@$$CBKV?$vector@UtagPropertyBuff@@V?$allocator@UtagPropertyBuff@@@std@@@std@@@std@@PAX@2@I@Z 10010020 f i GamePropertyManager.obj
 0001:0000f040       ?allocate@?$allocator@UtagPropertyBuff@@@std@@QAEPAUtagPropertyBuff@@I@Z 10010040 f i GamePropertyManager.obj
 0001:0000f060       ?begin@?$_Tree@V?$_Tmap_traits@KV?$vector@UtagPropertyBuff@@V?$allocator@UtagPropertyBuff@@@std@@@std@@U?$less@K@2@V?$allocator@U?$pair@$$CBKV?$vector@UtagPropertyBuff@@V?$allocator@UtagPropertyBuff@@@std@@@std@@@std@@@2@$0A@@std@@@std@@QAE?AV?$_Tree_iterator@V?$_Tree_val@U?$_Tree_simple_types@U?$pair@$$CBKV?$vector@UtagPropertyBuff@@V?$allocator@UtagPropertyBuff@@@std@@@std@@@std@@@std@@@std@@@2@XZ 10010060 f i GamePropertyManager.obj
 0001:0000f0c0       ?begin@?$vector@UtagPropertyBuff@@V?$allocator@UtagPropertyBuff@@@std@@@std@@QBE?AV?$_Vector_const_iterator@V?$_Vector_val@U?$_Simple_types@UtagPropertyBuff@@@std@@@std@@@2@XZ 100100c0 f i GamePropertyManager.obj
 0001:0000f120       ?capacity@?$vector@UtagPropertyBuff@@V?$allocator@UtagPropertyBuff@@@std@@@std@@QBEIXZ 10010120 f i GamePropertyManager.obj
 0001:0000f150       ?clear@?$_Tree@V?$_Tmap_traits@KV?$vector@UtagPropertyBuff@@V?$allocator@UtagPropertyBuff@@@std@@@std@@U?$less@K@2@V?$allocator@U?$pair@$$CBKV?$vector@UtagPropertyBuff@@V?$allocator@UtagPropertyBuff@@@std@@@std@@@std@@@2@$0A@@std@@@std@@QAEXXZ 10010150 f i GamePropertyManager.obj
 0001:0000f1f0       ?clear@?$vector@UtagPropertyBuff@@V?$allocator@UtagPropertyBuff@@@std@@@std@@QAEXXZ 100101f0 f i GamePropertyManager.obj
 0001:0000f270       ?deallocate@?$_Wrap_alloc@V?$allocator@U?$_Tree_node@U?$pair@$$CBKV?$vector@UtagPropertyBuff@@V?$allocator@UtagPropertyBuff@@@std@@@std@@@std@@PAX@std@@@std@@@std@@QAEXPAU?$_Tree_node@U?$pair@$$CBKV?$vector@UtagPropertyBuff@@V?$allocator@UtagPropertyBuff@@@std@@@std@@@std@@PAX@2@I@Z 10010270 f i GamePropertyManager.obj
 0001:0000f290       ?deallocate@?$_Wrap_alloc@V?$allocator@UtagPropertyBuff@@@std@@@std@@QAEXPAUtagPropertyBuff@@I@Z 10010290 f i GamePropertyManager.obj
 0001:0000f2b0       ?deallocate@?$allocator@U?$_Tree_node@U?$pair@$$CBKV?$vector@UtagPropertyBuff@@V?$allocator@UtagPropertyBuff@@@std@@@std@@@std@@PAX@std@@@std@@QAEXPAU?$_Tree_node@U?$pair@$$CBKV?$vector@UtagPropertyBuff@@V?$allocator@UtagPropertyBuff@@@std@@@std@@@std@@PAX@2@I@Z 100102b0 f i GamePropertyManager.obj
 0001:0000f2d0       ?deallocate@?$allocator@UtagPropertyBuff@@@std@@QAEXPAUtagPropertyBuff@@I@Z 100102d0 f i GamePropertyManager.obj
 0001:0000f2f0       ?empty@?$vector@UtagPropertyBuff@@V?$allocator@UtagPropertyBuff@@@std@@@std@@QBE_NXZ 100102f0 f i GamePropertyManager.obj
 0001:0000f330       ?end@?$_Tree@V?$_Tmap_traits@KV?$vector@UtagPropertyBuff@@V?$allocator@UtagPropertyBuff@@@std@@@std@@U?$less@K@2@V?$allocator@U?$pair@$$CBKV?$vector@UtagPropertyBuff@@V?$allocator@UtagPropertyBuff@@@std@@@std@@@std@@@2@$0A@@std@@@std@@QAE?AV?$_Tree_iterator@V?$_Tree_val@U?$_Tree_simple_types@U?$pair@$$CBKV?$vector@UtagPropertyBuff@@V?$allocator@UtagPropertyBuff@@@std@@@std@@@std@@@std@@@std@@@2@XZ 10010330 f i GamePropertyManager.obj
 0001:0000f390       ?end@?$vector@UtagPropertyBuff@@V?$allocator@UtagPropertyBuff@@@std@@@std@@QBE?AV?$_Vector_const_iterator@V?$_Vector_val@U?$_Simple_types@UtagPropertyBuff@@@std@@@std@@@2@XZ 10010390 f i GamePropertyManager.obj
 0001:0000f3f0       ?erase@?$_Tree@V?$_Tmap_traits@KV?$vector@UtagPropertyBuff@@V?$allocator@UtagPropertyBuff@@@std@@@std@@U?$less@K@2@V?$allocator@U?$pair@$$CBKV?$vector@UtagPropertyBuff@@V?$allocator@UtagPropertyBuff@@@std@@@std@@@std@@@2@$0A@@std@@@std@@QAE?AV?$_Tree_iterator@V?$_Tree_val@U?$_Tree_simple_types@U?$pair@$$CBKV?$vector@UtagPropertyBuff@@V?$allocator@UtagPropertyBuff@@@std@@@std@@@std@@@std@@@std@@@2@V?$_Tree_const_iterator@V?$_Tree_val@U?$_Tree_simple_types@U?$pair@$$CBKV?$vector@UtagPropertyBuff@@V?$allocator@UtagPropertyBuff@@@std@@@std@@@std@@@std@@@std@@@2@0@Z 100103f0 f i GamePropertyManager.obj
 0001:0000f4a0       ?erase@?$_Tree@V?$_Tmap_traits@KV?$vector@UtagPropertyBuff@@V?$allocator@UtagPropertyBuff@@@std@@@std@@U?$less@K@2@V?$allocator@U?$pair@$$CBKV?$vector@UtagPropertyBuff@@V?$allocator@UtagPropertyBuff@@@std@@@std@@@std@@@2@$0A@@std@@@std@@QAE?AV?$_Tree_iterator@V?$_Tree_val@U?$_Tree_simple_types@U?$pair@$$CBKV?$vector@UtagPropertyBuff@@V?$allocator@UtagPropertyBuff@@@std@@@std@@@std@@@std@@@std@@@2@V?$_Tree_const_iterator@V?$_Tree_val@U?$_Tree_simple_types@U?$pair@$$CBKV?$vector@UtagPropertyBuff@@V?$allocator@UtagPropertyBuff@@@std@@@std@@@std@@@std@@@std@@@2@@Z 100104a0 f i GamePropertyManager.obj
 0001:0000fc20       ?lower_bound@?$_Tree@V?$_Tmap_traits@KV?$vector@UtagPropertyBuff@@V?$allocator@UtagPropertyBuff@@@std@@@std@@U?$less@K@2@V?$allocator@U?$pair@$$CBKV?$vector@UtagPropertyBuff@@V?$allocator@UtagPropertyBuff@@@std@@@std@@@std@@@2@$0A@@std@@@std@@QAE?AV?$_Tree_iterator@V?$_Tree_val@U?$_Tree_simple_types@U?$pair@$$CBKV?$vector@UtagPropertyBuff@@V?$allocator@UtagPropertyBuff@@@std@@@std@@@std@@@std@@@std@@@2@ABK@Z 10010c20 f i GamePropertyManager.obj
 0001:0000fc50       ?max_size@?$_Tree@V?$_Tmap_traits@KV?$vector@UtagPropertyBuff@@V?$allocator@UtagPropertyBuff@@@std@@@std@@U?$less@K@2@V?$allocator@U?$pair@$$CBKV?$vector@UtagPropertyBuff@@V?$allocator@UtagPropertyBuff@@@std@@@std@@@std@@@2@$0A@@std@@@std@@QBEIXZ 10010c50 f i GamePropertyManager.obj
 0001:0000fc80       ?max_size@?$_Wrap_alloc@V?$allocator@U?$_Tree_node@U?$pair@$$CBKV?$vector@UtagPropertyBuff@@V?$allocator@UtagPropertyBuff@@@std@@@std@@@std@@PAX@std@@@std@@@std@@QBEIU_Nil@2@@Z 10010c80 f i GamePropertyManager.obj
 0001:0000fca0       ?max_size@?$_Wrap_alloc@V?$allocator@UtagPropertyBuff@@@std@@@std@@QBEIU_Nil@2@@Z 10010ca0 f i GamePropertyManager.obj
 0001:0000fcc0       ?max_size@?$allocator@U?$_Tree_node@U?$pair@$$CBKV?$vector@UtagPropertyBuff@@V?$allocator@UtagPropertyBuff@@@std@@@std@@@std@@PAX@std@@@std@@QBEIXZ 10010cc0 f i GamePropertyManager.obj
 0001:0000fcd0       ?max_size@?$allocator@UtagPropertyBuff@@@std@@QBEIXZ 10010cd0 f i GamePropertyManager.obj
 0001:0000fce0       ?max_size@?$allocator_traits@V?$allocator@U?$_Tree_node@U?$pair@$$CBKV?$vector@UtagPropertyBuff@@V?$allocator@UtagPropertyBuff@@@std@@@std@@@std@@PAX@std@@@std@@@std@@SAIABV?$allocator@U?$_Tree_node@U?$pair@$$CBKV?$vector@UtagPropertyBuff@@V?$allocator@UtagPropertyBuff@@@std@@@std@@@std@@PAX@std@@@2@@Z 10010ce0 f i GamePropertyManager.obj
 0001:0000fcf0       ?max_size@?$allocator_traits@V?$allocator@UtagPropertyBuff@@@std@@@std@@SAIABV?$allocator@UtagPropertyBuff@@@2@@Z 10010cf0 f i GamePropertyManager.obj
 0001:0000fd00       ?max_size@?$vector@UtagPropertyBuff@@V?$allocator@UtagPropertyBuff@@@std@@@std@@QBEIXZ 10010d00 f i GamePropertyManager.obj
 0001:0000fd30       ?push_back@?$vector@UtagPropertyBuff@@V?$allocator@UtagPropertyBuff@@@std@@@std@@QAEXABUtagPropertyBuff@@@Z 10010d30 f i GamePropertyManager.obj
 0001:0000fea0       ?size@?$_Tree@V?$_Tmap_traits@KV?$vector@UtagPropertyBuff@@V?$allocator@UtagPropertyBuff@@@std@@@std@@U?$less@K@2@V?$allocator@U?$pair@$$CBKV?$vector@UtagPropertyBuff@@V?$allocator@UtagPropertyBuff@@@std@@@std@@@std@@@2@$0A@@std@@@std@@QBEIXZ 10010ea0 f i GamePropertyManager.obj
 0001:0000fec0       ?size@?$vector@UtagPropertyBuff@@V?$allocator@UtagPropertyBuff@@@std@@@std@@QBEIXZ 10010ec0 f i GamePropertyManager.obj
 0001:0000fef0       _ExtRawDllMain@12          10010ef0 f   GameService.obj
 0001:0000ff50       _DllMain@12                10010f50 f   GameService.obj
 0001:0000ffd0       ??2CObject@@SGPAXI@Z       10010fd0 f i GameService.obj
 0001:0000fff0       ??B?$CTypedSimpleList@PAUCRuntimeClass@@@@QAEPAUCRuntimeClass@@XZ 10010ff0 f i GameService.obj
 0001:0000fff0       ??B?$CTypedSimpleList@PAVCOleObjectFactory@@@@QAEPAVCOleObjectFactory@@XZ 10010ff0 f i GameService.obj
 0001:00010030       ??0CServerUserItem@@IAE@XZ 10011030 f   ServerUserManager.obj
 0001:00010390       ??1CServerUserItem@@MAE@XZ 10011390 f   ServerUserManager.obj
 0001:00010490       ?QueryInterface@CServerUserItem@@UAEPAXABU_GUID@@K@Z 10011490 f   ServerUserManager.obj
 0001:00010560       ?GetDayPlayTime@CServerUserItem@@UAEKXZ 10011560 f   ServerUserManager.obj
 0001:00010620       ?GetUserGameData@CServerUserItem@@UAEPB_WXZ 10011620 f   ServerUserManager.obj
 0001:00010720       ?GetUserGameData@CServerUserItem@@UAEXHPA_WH@Z 10011720 f   ServerUserManager.obj
 0001:00010770       ?SetUserGameData@CServerUserItem@@UAEXPB_WH@Z 10011770 f   ServerUserManager.obj
 0001:00010840       ?SetUserGameData@CServerUserItem@@UAEXHPB_WH@Z 10011840 f   ServerUserManager.obj
 0001:00010950       ?WriteUserGameData@CServerUserItem@@UAEXXZ 10011950 f   ServerUserManager.obj
 0001:00010990       ?SetVideoNumber@CServerUserItem@@UAEXPAD@Z 10011990 f   ServerUserManager.obj
 0001:000109c0       ?SetGameoverData@CServerUserItem@@UAEXPAE@Z 100119c0 f   ServerUserManager.obj
 0001:000109f0       ?GetUserWinRate@CServerUserItem@@UAEGXZ 100119f0 f   ServerUserManager.obj
 0001:00010a30       ?GetUserLostRate@CServerUserItem@@UAEGXZ 10011a30 f   ServerUserManager.obj
 0001:00010a70       ?GetUserDrawRate@CServerUserItem@@UAEGXZ 10011a70 f   ServerUserManager.obj
 0001:00010ab0       ?GetUserFleeRate@CServerUserItem@@UAEGXZ 10011ab0 f   ServerUserManager.obj
 0001:00010af0       ?ContrastNickName@CServerUserItem@@UAE_NPB_W@Z 10011af0 f   ServerUserManager.obj
 0001:00010b60       ?ContrastLogonPass@CServerUserItem@@UAE_NPB_W@Z 10011b60 f   ServerUserManager.obj
 0001:00010be0       ?SetAndroidUserHanging@CServerUserItem@@UAEX_N@Z 10011be0 f   ServerUserManager.obj
 0001:00010c40       ?SetAndroidGrade@CServerUserItem@@UAEXG@Z 10011c40 f   ServerUserManager.obj
 0001:00010cb0       ?SetUserMatchStatus@CServerUserItem@@UAEXE@Z 10011cb0 f   ServerUserManager.obj
 0001:00010ce0       ?QueryRecordInfo@CServerUserItem@@UAE_NAAUtagVariationInfo@@@Z 10011ce0 f   ServerUserManager.obj
 0001:00010d20       ?DistillVariation@CServerUserItem@@UAE_NAAUtagVariationInfo@@@Z 10011d20 f   ServerUserManager.obj
 0001:00010da0       ?SetUserStatus@CServerUserItem@@UAE_NEGG@Z 10011da0 f   ServerUserManager.obj
 0001:00010e50       ?WriteUserScore@CServerUserItem@@UAE_N_J0000EKKK@Z 10011e50 f   ServerUserManager.obj
 0001:00011450       ?SetUserTaskReward@CServerUserItem@@UAE_N_J0@Z 10012450 f   ServerUserManager.obj
 0001:00011490       ?FrozenedUserScore@CServerUserItem@@UAE_N_J@Z 10012490 f   ServerUserManager.obj
 0001:000115c0       ?UnFrozenedUserScore@CServerUserItem@@UAE_N_J@Z 100125c0 f   ServerUserManager.obj
 0001:00011750       ?ModifyUserProperty@CServerUserItem@@UAE_N_JJ@Z 10012750 f   ServerUserManager.obj
 0001:00011920       ?DetachBindStatus@CServerUserItem@@UAE_NXZ 10012920 f   ServerUserManager.obj
 0001:00011960       ?ModifyUserInsure@CServerUserItem@@UAE_N_J00@Z 10012960 f   ServerUserManager.obj
 0001:00011b30       ?SetUserParameter@CServerUserItem@@UAE_NKGQA_W_N1@Z 10012b30 f   ServerUserManager.obj
 0001:00011ba0       ?ModifyUserRight@CServerUserItem@@UAEXKKE@Z 10012ba0 f   ServerUserManager.obj
 0001:00011c10       ?ResetUserItem@CServerUserItem@@AAEXXZ 10012c10 f   ServerUserManager.obj
 0001:00011f70       ?InitUserGameDataMap@CServerUserItem@@AAEXXZ 10012f70 f   ServerUserManager.obj
 0001:00012240       ?SplitString@CServerUserItem@@AAEXV?$CStringT@_WV?$StrTraitMFC_DLL@_WV?$ChTraitsCRT@_W@ATL@@@@@ATL@@0AAVCStringArray@@@Z 10013240 f   ServerUserManager.obj
 0001:00012310       ?IsPureDigitString@CServerUserItem@@AAE_NV?$CStringT@_WV?$StrTraitMFC_DLL@_WV?$ChTraitsCRT@_W@ATL@@@@@ATL@@@Z 10013310 f   ServerUserManager.obj
 0001:000123d0       ?IsValidGameData@CServerUserItem@@AAE_NV?$CStringT@_WV?$StrTraitMFC_DLL@_WV?$ChTraitsCRT@_W@ATL@@@@@ATL@@0@Z 100133d0 f   ServerUserManager.obj
 0001:00012680       ?SetUserGroup@CServerUserItem@@UAEXPA_W@Z 10013680 f   ServerUserManager.obj
 0001:000126f0       ??0CServerUserManager@@QAE@XZ 100136f0 f   ServerUserManager.obj
 0001:000127a0       ??1CServerUserManager@@UAE@XZ 100137a0 f   ServerUserManager.obj
 0001:000128b0       ?QueryInterface@CServerUserManager@@UAEPAXABU_GUID@@K@Z 100138b0 f   ServerUserManager.obj
 0001:00012930       ?SetServerUserItemSink@CServerUserManager@@UAE_NPAUIUnknownEx@@@Z 10013930 f   ServerUserManager.obj
 0001:000129a0       ?SetMatchUserItemSink@CServerUserManager@@UAE_NPAUIUnknownEx@@@Z 100139a0 f   ServerUserManager.obj
 0001:00012a10       ?EnumUserItem@CServerUserManager@@UAEPAUIServerUserItem@@G@Z 10013a10 f   ServerUserManager.obj
 0001:00012a50       ?SearchUserItem@CServerUserManager@@UAEPAUIServerUserItem@@K@Z 10013a50 f   ServerUserManager.obj
 0001:00012a70       ?SearchUserItem@CServerUserManager@@UAEPAUIServerUserItem@@PB_W@Z 10013a70 f   ServerUserManager.obj
 0001:00012af0       ?GetAndroidCount@CServerUserManager@@UAEKXZ 10013af0 f   ServerUserManager.obj
 0001:00012b70       ?DeleteUserItem@CServerUserManager@@UAE_NXZ 10013b70 f   ServerUserManager.obj
 0001:00012bb0       ?DeleteUserItem@CServerUserManager@@UAE_NPAUIServerUserItem@@@Z 10013bb0 f   ServerUserManager.obj
 0001:00012c80       ?InsertUserItem@CServerUserManager@@UAE_NPAPAUIServerUserItem@@AAUtagUserInfo@@AAUtagUserInfoPlus@@@Z 10013c80 f   ServerUserManager.obj
 0001:00013100       ??$_snwprintf_s@$0CA@@@YAHAAY0CA@_WIPB_WZZ 10014100 f i ServerUserManager.obj
 0001:00013130       ??$_snwprintf_s@$0EA@@@YAHAAY0EA@_WIPB_WZZ 10014130 f i ServerUserManager.obj
 0001:00013160       ??0?$CMap@HHPAUtagGameDataItem@@AAPAU1@@@QAE@H@Z 10014160 f i ServerUserManager.obj
 0001:000131c0       ??0?$CMap@KKPAVCServerUserItem@@PAV1@@@QAE@H@Z 100141c0 f i ServerUserManager.obj
 0001:00013220       ??0?$CWHArray@PAVCServerUserItem@@ABQAV1@@@QAE@XZ 10014220 f i ServerUserManager.obj
 0001:00013260       ??0CAssoc@?$CMap@KKPAVCAndroidUserItem@@PAV1@@@QAE@K@Z 10014260 f i AndroidUserManager.obj
 0001:00013260       ??0CAssoc@?$CMap@HHPAUtagGameDataItem@@AAPAU1@@@QAE@H@Z 10014260 f i ServerUserManager.obj
 0001:00013260       ??0CAssoc@?$CMap@KKPAVCServerUserItem@@PAV1@@@QAE@K@Z 10014260 f i ServerUserManager.obj
 0001:00013260       ??0CAssoc@?$CMap@KKPAUtagUserTaskEntry@@PAU1@@@QAE@K@Z 10014260 f i UserTaskManager.obj
 0001:00013280       ??0IServerUserItem@@QAE@XZ 10014280 f i ServerUserManager.obj
 0001:000132a0       ??0IServerUserManager@@QAE@XZ 100142a0 f i ServerUserManager.obj
 0001:000132c0       ??0IServerUserService@@QAE@XZ 100142c0 f i ServerUserManager.obj
 0001:000132e0       ??1?$CMap@HHPAUtagGameDataItem@@AAPAU1@@@UAE@XZ 100142e0 f i ServerUserManager.obj
 0001:00013330       ??1?$CMap@KKPAVCServerUserItem@@PAV1@@@UAE@XZ 10014330 f i ServerUserManager.obj
 0001:00013380       ??1?$CWHArray@PAVCServerUserItem@@ABQAV1@@@UAE@XZ 10014380 f i ServerUserManager.obj
 0001:000133e0       ??_ECServerUserItem@@MAEPAXI@Z 100143e0 f i ServerUserManager.obj
 0001:00013490       ??_ECServerUserManager@@UAEPAXI@Z 10014490 f i ServerUserManager.obj
 0001:00013540       ??_E?$CMap@HHPAUtagGameDataItem@@AAPAU1@@@UAEPAXI@Z 10014540 f i ServerUserManager.obj
 0001:00013540       ??_G?$CMap@HHPAUtagGameDataItem@@AAPAU1@@@UAEPAXI@Z 10014540 f i ServerUserManager.obj
 0001:00013590       ??_E?$CMap@KKPAVCServerUserItem@@PAV1@@@UAEPAXI@Z 10014590 f i ServerUserManager.obj
 0001:00013590       ??_G?$CMap@KKPAVCServerUserItem@@PAV1@@@UAEPAXI@Z 10014590 f i ServerUserManager.obj
 0001:000135e0       ??_E?$CWHArray@PAVCServerUserItem@@ABQAV1@@@UAEPAXI@Z 100145e0 f i ServerUserManager.obj
 0001:000135e0       ??_G?$CWHArray@PAVCServerUserItem@@ABQAV1@@@UAEPAXI@Z 100145e0 f i ServerUserManager.obj
 0001:00013610       ?Add@CStringArray@@QAEHABV?$CStringT@_WV?$StrTraitMFC_DLL@_WV?$ChTraitsCRT@_W@ATL@@@@@ATL@@@Z 10014610 f i ServerUserManager.obj
 0001:00013640       ?GetAndroidGrade@CServerUserItem@@UAEGXZ 10014640 f i ServerUserManager.obj
 0001:00013660       ?GetAt@CStringArray@@QBEABV?$CStringT@_WV?$StrTraitMFC_DLL@_WV?$ChTraitsCRT@_W@ATL@@@@@ATL@@H@Z 10014660 f i ServerUserManager.obj
 0001:00013690       ?GetBindIndex@CServerUserItem@@UAEGXZ 10014690 f i ServerUserManager.obj
 0001:000136b0       ?GetChairID@CServerUserItem@@UAEGXZ 100146b0 f i ServerUserManager.obj
 0001:000136d0       ?GetClientAddr@CServerUserItem@@UAEKXZ 100146d0 f i ServerUserManager.obj
 0001:000136f0       ?GetCount@?$CWHArray@PAVCServerUserItem@@ABQAV1@@@QBEHXZ 100146f0 f i ServerUserManager.obj
 0001:000136f0       ?GetCount@?$CWHArray@PAUtagUserTaskEntry@@ABQAU1@@@QBEHXZ 100146f0 f i UserTaskManager.obj
 0001:000136f0       ?GetCount@?$CWHArray@PAUtagTaskParameter@@ABQAU1@@@QBEHXZ 100146f0 f i UserTaskManager.obj
 0001:000136f0       ?GetCount@?$CWHArray@PAUtagAndroidAccountsInfo@@ABQAU1@@@QBEHXZ 100146f0 f i AndroidUserManager.obj
 0001:000136f0       ?GetCount@?$CWHArray@PAUtagTableItem@@ABQAU1@@@QBEHXZ 100146f0 f i AndroidUserItem.obj
 0001:000136f0       ?GetCount@?$CWHArray@PAUtagAndroidLeaveInfo@@ABQAU1@@@QBEHXZ 100146f0 f i AndroidUserManager.obj
 0001:000136f0       ?GetCount@?$CWHArray@PAUtagTimerItem@@ABQAU1@@@QBEHXZ 100146f0 f i AndroidUserItem.obj
 0001:000136f0       ?GetCount@?$CWHArray@UtagPropertyInfo@@ABU1@@@QBEHXZ 100146f0 f i GamePropertyManager.obj
 0001:000136f0       ?GetCount@?$CWHArray@PAVCAndroidUserItem@@ABQAV1@@@QBEHXZ 100146f0 f i AndroidUserManager.obj
 0001:00013710       ?GetCount@CStringArray@@QBEHXZ 10014710 f i ServerUserManager.obj
 0001:00013710       ?GetUserID@CServerUserItem@@UAEKXZ 10014710 f i ServerUserManager.obj
 0001:00013730       ?GetDBQuestID@CServerUserItem@@UAEKXZ 10014730 f i ServerUserManager.obj
 0001:00013770       ?GetDayWinLostScore@CServerUserItem@@UAE_JXZ 10014770 f i ServerUserManager.obj
 0001:00013790       ?GetFormerScore@CServerUserItem@@UAEPAUtagUserScore@@XZ 10014790 f i ServerUserManager.obj
 0001:000137b0       ?GetFrozenedScore@CServerUserItem@@UAE_JXZ 100147b0 f i ServerUserManager.obj
 0001:000137d0       ?GetGameID@CServerUserItem@@UAEKXZ 100147d0 f i ServerUserManager.obj
 0001:000137d0       ?GetCount@?$CMap@KKPAVCAndroidUserItem@@PAV1@@@QBEHXZ 100147d0 f i AndroidUserManager.obj
 0001:000137d0       ?GetCount@?$CMap@GGPAUtagTaskParameter@@PAU1@@@QBEHXZ 100147d0 f i UserTaskManager.obj
 0001:000137f0       ?GetGameoverData@CServerUserItem@@UAEPAEXZ 100147f0 f i ServerUserManager.obj
 0001:00013810       ?GetGender@CServerUserItem@@UAEEXZ 10014810 f i ServerUserManager.obj
 0001:00013830       ?GetGroupIDInfo@CServerUserItem@@UAEPA_WXZ 10014830 f i ServerUserManager.obj
 0001:00013850       ?GetInoutIndex@CServerUserItem@@UAEKXZ 10014850 f i ServerUserManager.obj
 0001:00013870       ?GetLastTableID@CServerUserItem@@UAEGXZ 10014870 f i ServerUserManager.obj
 0001:00013890       ?GetLogonTime@CServerUserItem@@UAEKXZ 10014890 f i ServerUserManager.obj
 0001:000138b0       ?GetMachineID@CServerUserItem@@UAEPB_WXZ 100148b0 f i ServerUserManager.obj
 0001:000138d0       ?GetMasterOrder@CServerUserItem@@UAEEXZ 100148d0 f i ServerUserManager.obj
 0001:000138f0       ?GetMasterRight@CServerUserItem@@UAEKXZ 100148f0 f i ServerUserManager.obj
 0001:00013910       ?GetMatchData@CServerUserItem@@UAEPAXXZ 10014910 f i ServerUserManager.obj
 0001:00013930       ?GetMemberOrder@CServerUserItem@@UAEEXZ 10014930 f i ServerUserManager.obj
 0001:00013950       ?GetMobileUserDeskPos@CServerUserItem@@UAEGXZ 10014950 f i ServerUserManager.obj
 0001:00013970       ?GetMobileUserRule@CServerUserItem@@UAEGXZ 10014970 f i ServerUserManager.obj
 0001:00013990       ?GetNickName@CServerUserItem@@UAEPB_WXZ 10014990 f i ServerUserManager.obj
 0001:000139b0       ?GetSignUpTime@CServerUserItem@@UAEKXZ 100149b0 f i ServerUserManager.obj
 0001:000139d0       ?GetTableID@CServerUserItem@@UAEGXZ 100149d0 f i ServerUserManager.obj
 0001:000139f0       ?GetTimeInfo@CServerUserItem@@UAEPAUtagTimeInfo@@XZ 100149f0 f i ServerUserManager.obj
 0001:00013a10       ?GetTrusteeScore@CServerUserItem@@UAE_JXZ 10014a10 f i ServerUserManager.obj
 0001:00013a30       ?GetUserGrade@CServerUserItem@@UAE_JXZ 10014a30 f i ServerUserManager.obj
 0001:00013a50       ?GetUserInsure@CServerUserItem@@UAE_JXZ 10014a50 f i ServerUserManager.obj
 0001:00013a70       ?GetUserItemCount@CServerUserManager@@UAEKXZ 10014a70 f i ServerUserManager.obj
 0001:00013a90       ?GetUserMatchRank@CServerUserItem@@UAEEXZ 10014a90 f i ServerUserManager.obj
 0001:00013ab0       ?GetUserMatchStatus@CServerUserItem@@UAEEXZ 10014ab0 f i ServerUserManager.obj
 0001:00013ad0       ?GetUserPlayCount@CServerUserItem@@UAEKXZ 10014ad0 f i ServerUserManager.obj
 0001:00013b00       ?GetUserProperty@CServerUserItem@@UAEPAUtagUserProperty@@XZ 10014b00 f i ServerUserManager.obj
 0001:00013b20       ?GetUserRight@CServerUserItem@@UAEKXZ 10014b20 f i ServerUserManager.obj
 0001:00013b40       ?GetUserRule@CServerUserItem@@UAEPAUtagUserRule@@XZ 10014b40 f i ServerUserManager.obj
 0001:00013b60       ?GetUserScore@CServerUserItem@@UAE_JXZ 10014b60 f i ServerUserManager.obj
 0001:00013b80       ?GetUserStatus@CServerUserItem@@UAEEXZ 10014b80 f i ServerUserManager.obj
 0001:00013ba0       ?GetVideoNumber@CServerUserItem@@UAEPADXZ 10014ba0 f i ServerUserManager.obj
 0001:00013bc0       ?IsAndroidUser@CServerUserItem@@UAE_NXZ 10014bc0 f i ServerUserManager.obj
 0001:00013be0       ?IsAndroidUserHanging@CServerUserItem@@UAE_NXZ 10014be0 f i ServerUserManager.obj
 0001:00013c00       ?IsClientReady@CServerUserItem@@UAE_NXZ 10014c00 f i ServerUserManager.obj
 0001:00013c20       ?IsMobileUser@CServerUserItem@@UAE_NXZ 10014c20 f i ServerUserManager.obj
 0001:00013c40       ?IsTrusteeUser@CServerUserItem@@UAE_NXZ 10014c40 f i ServerUserManager.obj
 0001:00013c60       ?IsVariation@CServerUserItem@@UAE_NXZ 10014c60 f i ServerUserManager.obj
 0001:00013c74       ?QueryInterface@CServerUserItem@@W3AEPAXABU_GUID@@K@Z 10014c74 f i ServerUserManager.obj
 0001:00013c80       ?Release@CServerUserItem@@UAEXXZ 10014c80 f i ServerUserManager.obj
 0001:00013cbd       ?Release@CServerUserItem@@W3AEXXZ 10014cbd f i ServerUserManager.obj
 0001:00013cd0       ?RemoveAll@?$CMap@KKPAVCAndroidUserItem@@PAV1@@@QAEXXZ 10014cd0 f i AndroidUserManager.obj
 0001:00013cd0       ?RemoveAll@?$CMap@GGPAUtagTaskParameter@@PAU1@@@QAEXXZ 10014cd0 f i UserTaskManager.obj
 0001:00013cd0       ?RemoveAll@?$CMap@HHPAUtagGameDataItem@@AAPAU1@@@QAEXXZ 10014cd0 f i ServerUserManager.obj
 0001:00013cd0       ?RemoveAll@?$CMap@KKPAVCServerUserItem@@PAV1@@@QAEXXZ 10014cd0 f i ServerUserManager.obj
 0001:00013cd0       ?RemoveAll@?$CMap@KKPAUtagUserTaskEntry@@PAU1@@@QAEXXZ 10014cd0 f i UserTaskManager.obj
 0001:00013d70       ?RemoveAll@CStringArray@@QAEXXZ 10014d70 f i ServerUserManager.obj
 0001:00013d90       ?RemoveKey@?$CMap@KKPAVCAndroidUserItem@@PAV1@@@QAEHK@Z 10014d90 f i AndroidUserManager.obj
 0001:00013d90       ?RemoveKey@?$CMap@KKPAVCServerUserItem@@PAV1@@@QAEHK@Z 10014d90 f i ServerUserManager.obj
 0001:00013d90       ?RemoveKey@?$CMap@KKPAUtagUserTaskEntry@@PAU1@@@QAEHK@Z 10014d90 f i UserTaskManager.obj
 0001:00013e40       ?Serialize@?$CMap@HHPAUtagGameDataItem@@AAPAU1@@@UAEXAAVCArchive@@@Z 10014e40 f i ServerUserManager.obj
 0001:00013f70       ?SetAndroidUser@CServerUserItem@@UAEX_N@Z 10014f70 f i ServerUserManager.obj
 0001:00013f90       ?SetAt@?$CMap@HHPAUtagGameDataItem@@AAPAU1@@@QAEXHAAPAUtagGameDataItem@@@Z 10014f90 f i ServerUserManager.obj
 0001:00013fb0       ?SetClientReady@CServerUserItem@@UAEX_N@Z 10014fb0 f i ServerUserManager.obj
 0001:00013fd0       ?SetMatchData@CServerUserItem@@UAEXPAX@Z 10014fd0 f i ServerUserManager.obj
 0001:00013ff0       ?SetMobileUser@CServerUserItem@@UAEX_N@Z 10014ff0 f i ServerUserManager.obj
 0001:00014010       ?SetMobileUserDeskPos@CServerUserItem@@UAEXG@Z 10015010 f i ServerUserManager.obj
 0001:00014030       ?SetMobileUserRule@CServerUserItem@@UAEXG@Z 10015030 f i ServerUserManager.obj
 0001:00014050       ?SetSignUpTime@CServerUserItem@@UAEXK@Z 10015050 f i ServerUserManager.obj
 0001:00014070       ?SetTrusteeUser@CServerUserItem@@UAEX_N@Z 10015070 f i ServerUserManager.obj
 0001:00014090       ?SetUserMatchRank@CServerUserItem@@UAEXE@Z 10015090 f i ServerUserManager.obj
 0001:000140b0       __vsnwprintf_s             100150b0 f i ServerUserManager.obj
 0001:000140e0       __vsnwprintf_s_l           100150e0 f i ServerUserManager.obj
 0001:00014140       ?Init@CComCriticalSection@ATL@@QAEJXZ 10015140 f i Stdafx.obj
 0001:00014180       ?_AtlInitializeCriticalSectionEx@ATL@@YAHPAU_RTL_CRITICAL_SECTION@@KK@Z 10015180 f i Stdafx.obj
 0001:000141a0       _HRESULT_FROM_WIN32        100151a0 f i Stdafx.obj
 0001:000141e0       ??0CUserTaskManager@@QAE@XZ 100151e0 f   UserTaskManager.obj
 0001:00014290       ??1CUserTaskManager@@UAE@XZ 10015290 f   UserTaskManager.obj
 0001:00014540       ?QueryInterface@CUserTaskManager@@UAEPAXABU_GUID@@K@Z 10015540 f   UserTaskManager.obj
 0001:000145c0       ?RemoveTaskParameter@CUserTaskManager@@UAEXXZ 100155c0 f   UserTaskManager.obj
 0001:00014630       ?SearchTaskParameter@CUserTaskManager@@UAEPAUtagTaskParameter@@G@Z 10015630 f   UserTaskManager.obj
 0001:00014660       ?EnumTaskParameter@CUserTaskManager@@UAEPAUtagTaskParameter@@AAPAU__POSITION@@@Z 10015660 f   UserTaskManager.obj
 0001:000146c0       ?AddTaskParameter@CUserTaskManager@@UAE_NQAUtagTaskParameter@@G@Z 100156c0 f   UserTaskManager.obj
 0001:00014870       ?GetTaskParameterCount@CUserTaskManager@@UAEGXZ 10015870 f   UserTaskManager.obj
 0001:00014890       ?RemoveUserTask@CUserTaskManager@@UAEXK@Z 10015890 f   UserTaskManager.obj
 0001:000148f0       ?GetUserTaskEntry@CUserTaskManager@@UAEPAUtagUserTaskEntry@@K@Z 100158f0 f   UserTaskManager.obj
 0001:00014920       ?GetUserTaskEntry@CUserTaskManager@@UAEPAUtagUserTaskEntry@@KE@Z 10015920 f   UserTaskManager.obj
 0001:000149c0       ?SetUserTaskInfo@CUserTaskManager@@UAEXKQAUtagUserTaskInfo@@G@Z 100159c0 f   UserTaskManager.obj
 0001:00014b10       ?CreateUserTaskEntry@CUserTaskManager@@IAEPAUtagUserTaskEntry@@XZ 10015b10 f   UserTaskManager.obj
 0001:00014c40       ?ResetTaskManager@CUserTaskManager@@QAEXXZ 10015c40 f   UserTaskManager.obj
 0001:00014cd0       ??$CompareElements@GG@@YGHPBG0@Z 10015cd0 f i UserTaskManager.obj
 0001:00014d30       ??$HashKey@G@@YGIG@Z       10015d30 f i UserTaskManager.obj
 0001:00014d90       ??$SerializeElements@G@@YGXAAVCArchive@@PAGH@Z 10015d90 f i UserTaskManager.obj
 0001:00014e90       ??$SerializeElements@PAUtagGameDataItem@@@@YGXAAVCArchive@@PAPAUtagGameDataItem@@H@Z 10015e90 f i ServerUserManager.obj
 0001:00014e90       ??$SerializeElements@PAUtagUserTaskEntry@@@@YGXAAVCArchive@@PAPAUtagUserTaskEntry@@H@Z 10015e90 f i UserTaskManager.obj
 0001:00014e90       ??$SerializeElements@PAUtagTaskParameter@@@@YGXAAVCArchive@@PAPAUtagTaskParameter@@H@Z 10015e90 f i UserTaskManager.obj
 0001:00014e90       ??$SerializeElements@H@@YGXAAVCArchive@@PAHH@Z 10015e90 f i ServerUserManager.obj
 0001:00014e90       ??$SerializeElements@PAVCAndroidUserItem@@@@YGXAAVCArchive@@PAPAVCAndroidUserItem@@H@Z 10015e90 f i AndroidUserManager.obj
 0001:00014e90       ??$SerializeElements@K@@YGXAAVCArchive@@PAKH@Z 10015e90 f i AndroidUserManager.obj
 0001:00014e90       ??$SerializeElements@PAVCServerUserItem@@@@YGXAAVCArchive@@PAPAVCServerUserItem@@H@Z 10015e90 f i ServerUserManager.obj
 0001:00014f90       ??0?$CMap@GGPAUtagTaskParameter@@PAU1@@@QAE@H@Z 10015f90 f i UserTaskManager.obj
 0001:00014ff0       ??0?$CMap@KKPAUtagUserTaskEntry@@PAU1@@@QAE@H@Z 10015ff0 f i UserTaskManager.obj
 0001:00015050       ??0?$CWHArray@PAUtagTaskParameter@@ABQAU1@@@QAE@XZ 10016050 f i UserTaskManager.obj
 0001:00015090       ??0?$CWHArray@PAUtagUserTaskEntry@@ABQAU1@@@QAE@XZ 10016090 f i UserTaskManager.obj
 0001:000150d0       ??0CAssoc@?$CMap@GGPAUtagTaskParameter@@PAU1@@@QAE@G@Z 100160d0 f i UserTaskManager.obj
 0001:000150f0       ??0CPair@?$CMap@GGPAUtagTaskParameter@@PAU1@@@IAE@G@Z 100160f0 f i UserTaskManager.obj
 0001:00015110       ??0IUserTaskManagerSink@@QAE@XZ 10016110 f i UserTaskManager.obj
 0001:00015130       ??1?$CMap@GGPAUtagTaskParameter@@PAU1@@@UAE@XZ 10016130 f i UserTaskManager.obj
 0001:00015180       ??1?$CMap@KKPAUtagUserTaskEntry@@PAU1@@@UAE@XZ 10016180 f i UserTaskManager.obj
 0001:000151d0       ??1?$CWHArray@PAUtagTaskParameter@@ABQAU1@@@UAE@XZ 100161d0 f i UserTaskManager.obj
 0001:00015230       ??1?$CWHArray@PAUtagUserTaskEntry@@ABQAU1@@@UAE@XZ 10016230 f i UserTaskManager.obj
 0001:00015290       ??A?$CMap@GGPAUtagTaskParameter@@PAU1@@@QAEAAPAUtagTaskParameter@@G@Z 10016290 f i UserTaskManager.obj
 0001:00015350       ??_ECUserTaskManager@@UAEPAXI@Z 10016350 f i UserTaskManager.obj
 0001:00015400       ??_E?$CMap@GGPAUtagTaskParameter@@PAU1@@@UAEPAXI@Z 10016400 f i UserTaskManager.obj
 0001:00015400       ??_G?$CMap@GGPAUtagTaskParameter@@PAU1@@@UAEPAXI@Z 10016400 f i UserTaskManager.obj
 0001:00015450       ??_G?$CMap@KKPAUtagUserTaskEntry@@PAU1@@@UAEPAXI@Z 10016450 f i UserTaskManager.obj
 0001:00015450       ??_E?$CMap@KKPAUtagUserTaskEntry@@PAU1@@@UAEPAXI@Z 10016450 f i UserTaskManager.obj
 0001:000154a0       ??_E?$CWHArray@PAUtagTaskParameter@@ABQAU1@@@UAEPAXI@Z 100164a0 f i UserTaskManager.obj
 0001:000154a0       ??_G?$CWHArray@PAUtagTaskParameter@@ABQAU1@@@UAEPAXI@Z 100164a0 f i UserTaskManager.obj
 0001:000154d0       ??_G?$CWHArray@PAUtagUserTaskEntry@@ABQAU1@@@UAEPAXI@Z 100164d0 f i UserTaskManager.obj
 0001:000154d0       ??_E?$CWHArray@PAUtagUserTaskEntry@@ABQAU1@@@UAEPAXI@Z 100164d0 f i UserTaskManager.obj
 0001:00015500       ?Add@?$CWHArray@PAUtagTableItem@@ABQAU1@@@QAEHABQAUtagTableItem@@@Z 10016500 f i AndroidUserItem.obj
 0001:00015500       ?Add@?$CWHArray@PAUtagAndroidAccountsInfo@@ABQAU1@@@QAEHABQAUtagAndroidAccountsInfo@@@Z 10016500 f i AndroidUserManager.obj
 0001:00015500       ?Add@?$CWHArray@PAUtagAndroidLeaveInfo@@ABQAU1@@@QAEHABQAUtagAndroidLeaveInfo@@@Z 10016500 f i AndroidUserManager.obj
 0001:00015500       ?Add@?$CWHArray@PAUtagTaskParameter@@ABQAU1@@@QAEHABQAUtagTaskParameter@@@Z 10016500 f i UserTaskManager.obj
 0001:00015500       ?Add@?$CWHArray@PAUtagTimerItem@@ABQAU1@@@QAEHABQAUtagTimerItem@@@Z 10016500 f i AndroidUserItem.obj
 0001:00015500       ?Add@?$CWHArray@PAUtagUserTaskEntry@@ABQAU1@@@QAEHABQAUtagUserTaskEntry@@@Z 10016500 f i UserTaskManager.obj
 0001:00015500       ?Add@?$CWHArray@PAVCAndroidUserItem@@ABQAV1@@@QAEHABQAVCAndroidUserItem@@@Z 10016500 f i AndroidUserManager.obj
 0001:00015500       ?Add@?$CWHArray@PAVCServerUserItem@@ABQAV1@@@QAEHABQAVCServerUserItem@@@Z 10016500 f i ServerUserManager.obj
 0001:00015530       ?AllocMemory@?$CWHArray@PAUtagTaskParameter@@ABQAU1@@@QAEXH@Z 10016530 f i UserTaskManager.obj
 0001:00015530       ?AllocMemory@?$CWHArray@PAUtagTableItem@@ABQAU1@@@QAEXH@Z 10016530 f i AndroidUserItem.obj
 0001:00015530       ?AllocMemory@?$CWHArray@PAVCServerUserItem@@ABQAV1@@@QAEXH@Z 10016530 f i ServerUserManager.obj
 0001:00015530       ?AllocMemory@?$CWHArray@PAVCAndroidUserItem@@ABQAV1@@@QAEXH@Z 10016530 f i AndroidUserManager.obj
 0001:00015530       ?AllocMemory@?$CWHArray@PAUtagUserTaskEntry@@ABQAU1@@@QAEXH@Z 10016530 f i UserTaskManager.obj
 0001:00015530       ?AllocMemory@?$CWHArray@PAUtagTimerItem@@ABQAU1@@@QAEXH@Z 10016530 f i AndroidUserItem.obj
 0001:00015530       ?AllocMemory@?$CWHArray@PAUtagAndroidAccountsInfo@@ABQAU1@@@QAEXH@Z 10016530 f i AndroidUserManager.obj
 0001:00015530       ?AllocMemory@?$CWHArray@PAUtagAndroidLeaveInfo@@ABQAU1@@@QAEXH@Z 10016530 f i AndroidUserManager.obj
 0001:00015630       ?GetAssocAt@?$CMap@GGPAUtagTaskParameter@@PAU1@@@IBEPAVCAssoc@1@GAAI0@Z 10016630 f i UserTaskManager.obj
 0001:000156c0       ?GetNextAssoc@?$CMap@GGPAUtagTaskParameter@@PAU1@@@QBEXAAPAU__POSITION@@AAGAAPAUtagTaskParameter@@@Z 100166c0 f i UserTaskManager.obj
 0001:00015810       ?Lookup@?$CMap@GGPAUtagTaskParameter@@PAU1@@@QBEHGAAPAUtagTaskParameter@@@Z 10016810 f i UserTaskManager.obj
 0001:00015860       ?Lookup@?$CMap@HHPAUtagGameDataItem@@AAPAU1@@@QBEHHAAPAUtagGameDataItem@@@Z 10016860 f i ServerUserManager.obj
 0001:00015860       ?Lookup@?$CMap@KKPAUtagUserTaskEntry@@PAU1@@@QBEHKAAPAUtagUserTaskEntry@@@Z 10016860 f i UserTaskManager.obj
 0001:00015860       ?Lookup@?$CMap@KKPAVCAndroidUserItem@@PAV1@@@QBEHKAAPAVCAndroidUserItem@@@Z 10016860 f i AndroidUserManager.obj
 0001:000158a0       ?NewAssoc@?$CMap@GGPAUtagTaskParameter@@PAU1@@@IAEPAVCAssoc@1@G@Z 100168a0 f i UserTaskManager.obj
 0001:00015a20       ?Release@CServerUserManager@@UAEXXZ 10016a20 f i ServerUserManager.obj
 0001:00015a20       ??1SortTop@@QAE@XZ         10016a20 f i AndroidUserManager.obj
 0001:00015a20       ?_Orphan_all@_Container_base0@std@@QAEXXZ 10016a20 f i GamePropertyManager.obj
 0001:00015a20       ?Release@CUserTaskManager@@UAEXXZ 10016a20 f i UserTaskManager.obj
 0001:00015a20       ?AssertValid@CObject@@UBEXXZ 10016a20 f i AndroidUserManager.obj
 0001:00015a20       ??1CObject@@UAE@XZ         10016a20 f i AndroidUserManager.obj
 0001:00015a20       ?Release@CAndroidUserManager@@UAEXXZ 10016a20 f i AndroidUserManager.obj
 0001:00015a30       ?RemoveAt@?$CWHArray@PAUtagTaskParameter@@ABQAU1@@@QAEXHH@Z 10016a30 f i UserTaskManager.obj
 0001:00015a30       ?RemoveAt@?$CWHArray@PAUtagAndroidAccountsInfo@@ABQAU1@@@QAEXHH@Z 10016a30 f i AndroidUserManager.obj
 0001:00015a30       ?RemoveAt@?$CWHArray@PAVCAndroidUserItem@@ABQAV1@@@QAEXHH@Z 10016a30 f i AndroidUserManager.obj
 0001:00015a30       ?RemoveAt@?$CWHArray@PAUtagUserTaskEntry@@ABQAU1@@@QAEXHH@Z 10016a30 f i UserTaskManager.obj
 0001:00015a30       ?RemoveAt@?$CWHArray@PAVCServerUserItem@@ABQAV1@@@QAEXHH@Z 10016a30 f i ServerUserManager.obj
 0001:00015a30       ?RemoveAt@?$CWHArray@PAUtagTimerItem@@ABQAU1@@@QAEXHH@Z 10016a30 f i AndroidUserItem.obj
 0001:00015ad0       ?Serialize@?$CMap@GGPAUtagTaskParameter@@PAU1@@@UAEXAAVCArchive@@@Z 10016ad0 f i UserTaskManager.obj
 0001:00015c00       ?Serialize@?$CMap@KKPAUtagUserTaskEntry@@PAU1@@@UAEXAAVCArchive@@@Z 10016c00 f i UserTaskManager.obj
 0001:00015c00       ?Serialize@?$CMap@KKPAVCAndroidUserItem@@PAV1@@@UAEXAAVCArchive@@@Z 10016c00 f i AndroidUserManager.obj
 0001:00015c00       ?Serialize@?$CMap@KKPAVCServerUserItem@@PAV1@@@UAEXAAVCArchive@@@Z 10016c00 f i ServerUserManager.obj
 0001:00015d30       ?SetAt@?$CMap@GGPAUtagTaskParameter@@PAU1@@@QAEXGPAUtagTaskParameter@@@Z 10016d30 f i UserTaskManager.obj
 0001:00015d50       ?SetAtGrow@?$CWHArray@PAUtagTaskParameter@@ABQAU1@@@QAEXHABQAUtagTaskParameter@@@Z 10016d50 f i UserTaskManager.obj
 0001:00015d50       ?SetAtGrow@?$CWHArray@PAUtagAndroidLeaveInfo@@ABQAU1@@@QAEXHABQAUtagAndroidLeaveInfo@@@Z 10016d50 f i AndroidUserManager.obj
 0001:00015d50       ?SetAtGrow@?$CWHArray@PAUtagUserTaskEntry@@ABQAU1@@@QAEXHABQAUtagUserTaskEntry@@@Z 10016d50 f i UserTaskManager.obj
 0001:00015d50       ?SetAtGrow@?$CWHArray@PAUtagAndroidAccountsInfo@@ABQAU1@@@QAEXHABQAUtagAndroidAccountsInfo@@@Z 10016d50 f i AndroidUserManager.obj
 0001:00015d50       ?SetAtGrow@?$CWHArray@PAUtagTableItem@@ABQAU1@@@QAEXHABQAUtagTableItem@@@Z 10016d50 f i AndroidUserItem.obj
 0001:00015d50       ?SetAtGrow@?$CWHArray@PAVCServerUserItem@@ABQAV1@@@QAEXHABQAVCServerUserItem@@@Z 10016d50 f i ServerUserManager.obj
 0001:00015d50       ?SetAtGrow@?$CWHArray@PAVCAndroidUserItem@@ABQAV1@@@QAEXHABQAVCAndroidUserItem@@@Z 10016d50 f i AndroidUserManager.obj
 0001:00015d50       ?SetAtGrow@?$CWHArray@PAUtagTimerItem@@ABQAU1@@@QAEXHABQAUtagTimerItem@@@Z 10016d50 f i AndroidUserItem.obj
 0001:00015da0       ?SetSize@?$CWHArray@PAVCServerUserItem@@ABQAV1@@@QAEXH@Z 10016da0 f i ServerUserManager.obj
 0001:00015da0       ?SetSize@?$CWHArray@PAUtagTimerItem@@ABQAU1@@@QAEXH@Z 10016da0 f i AndroidUserItem.obj
 0001:00015da0       ?SetSize@?$CWHArray@PAUtagAndroidLeaveInfo@@ABQAU1@@@QAEXH@Z 10016da0 f i AndroidUserManager.obj
 0001:00015da0       ?SetSize@?$CWHArray@PAVCAndroidUserItem@@ABQAV1@@@QAEXH@Z 10016da0 f i AndroidUserManager.obj
 0001:00015da0       ?SetSize@?$CWHArray@PAUtagTableItem@@ABQAU1@@@QAEXH@Z 10016da0 f i AndroidUserItem.obj
 0001:00015da0       ?SetSize@?$CWHArray@PAUtagTaskParameter@@ABQAU1@@@QAEXH@Z 10016da0 f i UserTaskManager.obj
 0001:00015da0       ?SetSize@?$CWHArray@PAUtagAndroidAccountsInfo@@ABQAU1@@@QAEXH@Z 10016da0 f i AndroidUserManager.obj
 0001:00015da0       ?SetSize@?$CWHArray@PAUtagUserTaskEntry@@ABQAU1@@@QAEXH@Z 10016da0 f i UserTaskManager.obj
 0001:00015e62       ??3@YAXPAX@Z               10016e62 f   mfc140u:mfc140u.dll
 0001:00015e68       ??2@YAPAXI@Z               10016e68 f   mfc140u:mfc140u.dll
 0001:00015e6e       ??_U@YAPAXI@Z              10016e6e f   mfc140u:mfc140u.dll
 0001:00015e74       ??_V@YAXPAX@Z              10016e74 f   mfc140u:mfc140u.dll
 0001:00015e7a       ?AfxThrowInvalidArgException@@YGXXZ 10016e7a f   mfc140u:mfc140u.dll
 0001:00015e80       ?AfxThrowArchiveException@@YGXHPB_W@Z 10016e80 f   mfc140u:mfc140u.dll
 0001:00015e86       ?GetRuntimeClass@CObject@@UBEPAUCRuntimeClass@@XZ 10016e86 f   mfc140u:mfc140u.dll
 0001:00015e8c       ?Read@CArchive@@QAEIPAXI@Z 10016e8c f   mfc140u:mfc140u.dll
 0001:00015e92       ?Write@CArchive@@QAEXPBXI@Z 10016e92 f   mfc140u:mfc140u.dll
 0001:00015e98       ?ReadCount@CArchive@@QAEKXZ 10016e98 f   mfc140u:mfc140u.dll
 0001:00015e9e       ?WriteCount@CArchive@@QAEXK@Z 10016e9e f   mfc140u:mfc140u.dll
 0001:00015ea4       ?Create@CPlex@@SGPAU1@AAPAU1@II@Z 10016ea4 f   mfc140u:mfc140u.dll
 0001:00015eaa       ?FreeDataChain@CPlex@@QAEXXZ 10016eaa f   mfc140u:mfc140u.dll
 0001:00015eb0       ?AfxGetModuleState@@YGPAVAFX_MODULE_STATE@@XZ 10016eb0 f   mfc140u:mfc140u.dll
 0001:00015eb6       ??0CDynLinkLibrary@@QAE@AAUAFX_EXTENSION_MODULE@@H@Z 10016eb6 f   mfc140u:mfc140u.dll
 0001:00015ebc       ?AfxInitExtensionModule@@YGHAAUAFX_EXTENSION_MODULE@@PAUHINSTANCE__@@@Z 10016ebc f   mfc140u:mfc140u.dll
 0001:00015ec2       ?AfxTermExtensionModule@@YGXAAUAFX_EXTENSION_MODULE@@H@Z 10016ec2 f   mfc140u:mfc140u.dll
 0001:00015ec8       ??0CStringArray@@QAE@XZ    10016ec8 f   mfc140u:mfc140u.dll
 0001:00015ece       ?SetSize@CStringArray@@QAEXHH@Z 10016ece f   mfc140u:mfc140u.dll
 0001:00015ed4       ?SetAtGrow@CStringArray@@QAEXHABV?$CStringT@_WV?$StrTraitMFC_DLL@_WV?$ChTraitsCRT@_W@ATL@@@@@ATL@@@Z 10016ed4 f   mfc140u:mfc140u.dll
 0001:00015eda       ??1CStringArray@@UAE@XZ    10016eda f   mfc140u:mfc140u.dll
 0001:00015ee0       ??_M@YGXPAXIIP6EX0@Z@Z     10016ee0 f   msvcrt:ehvecdtr.obj
 0001:00015f5a       ?__ArrayUnwind@@YGXPAXIIP6EX0@Z@Z 10016f5a f   msvcrt:ehvecdtr.obj
 0001:00015fc7       ??3@YAXPAXI@Z              10016fc7 f   msvcrt:delete_scalar_size.obj
 0001:00015fd5       ??_V@YAXPAXI@Z             10016fd5 f   msvcrt:delete_array_size.obj
 0001:00016027       ___scrt_acquire_startup_lock 10017027 f   msvcrt:utility.obj
 0001:0001605c       ___scrt_dllmain_after_initialize_c 1001705c f   msvcrt:utility.obj
 0001:00016087       ___scrt_dllmain_before_initialize_c 10017087 f   msvcrt:utility.obj
 0001:00016095       ___scrt_dllmain_crt_thread_attach 10017095 f   msvcrt:utility.obj
 0001:000160b4       ___scrt_dllmain_crt_thread_detach 100170b4 f   msvcrt:utility.obj
 0001:000160c1       ___scrt_dllmain_exception_filter 100170c1 f   msvcrt:utility.obj
 0001:000160f4       ___scrt_dllmain_uninitialize_c 100170f4 f   msvcrt:utility.obj
 0001:00016117       ___scrt_dllmain_uninitialize_critical 10017117 f   msvcrt:utility.obj
 0001:00016124       ___scrt_initialize_crt     10017124 f   msvcrt:utility.obj
 0001:0001615d       ___scrt_initialize_onexit_tables 1001715d f   msvcrt:utility.obj
 0001:000161f4       ___scrt_is_nonwritable_in_current_image 100171f4 f   msvcrt:utility.obj
 0001:0001627e       ___scrt_release_startup_lock 1001727e f   msvcrt:utility.obj
 0001:0001629b       ___scrt_uninitialize_crt   1001729b f   msvcrt:utility.obj
 0001:000162c3       __onexit                   100172c3 f   msvcrt:utility.obj
 0001:000162fe       _atexit                    100172fe f   msvcrt:utility.obj
 0001:00016313       @__security_check_cookie@4 10017313 f   msvcrt:_secchk_.obj
 0001:00016330       __alldiv                   10017330 f   msvcrt:lldiv.obj
 0001:000163e0       __ftoui3                   100173e0 f   msvcrt:_ftol3_.obj
 0001:000163ef       __ftoul3                   100173ef f   msvcrt:_ftol3_.obj
 0001:000163fe       __ftol3                    100173fe f   msvcrt:_ftol3_.obj
 0001:0001640b       __ftol3_NaN                1001740b f   msvcrt:_ftol3_.obj
 0001:00016423       __ftol3_work               10017423 f   msvcrt:_ftol3_.obj
 0001:000164a9       __ftol3_common             100174a9 f   msvcrt:_ftol3_.obj
 0001:0001656b       __ftol3_arg_error          1001756b f   msvcrt:_ftol3_.obj
 0001:0001657d       __ftol3_except             1001757d f   msvcrt:_ftol3_.obj
 0001:000165c1       __dtoui3                   100175c1 f   msvcrt:_ftol3_.obj
 0001:000165d0       __dtoul3                   100175d0 f   msvcrt:_ftol3_.obj
 0001:000165df       __dtol3                    100175df f   msvcrt:_ftol3_.obj
 0001:000165ec       __dtol3_NaN                100175ec f   msvcrt:_ftol3_.obj
 0001:00016609       __dtol3_work               10017609 f   msvcrt:_ftol3_.obj
 0001:000166f0       __ultod3                   100176f0 f   msvcrt:_ftol3_.obj
 0001:00016730       __ltod3                    10017730 f   msvcrt:_ftol3_.obj
 0001:00016757       ??_Gtype_info@@UAEPAXI@Z   10017757 f i msvcrt:std_type_info_static.obj
 0001:00016757       ??_Etype_info@@UAEPAXI@Z   10017757 f i msvcrt:std_type_info_static.obj
 0001:0001683a       ??$__crt_fast_encode_pointer@P6GHPAU_RTL_CONDITION_VARIABLE@@PAU_RTL_CRITICAL_SECTION@@K@Z@@YAP6GHPAU_RTL_CONDITION_VARIABLE@@PAU_RTL_CRITICAL_SECTION@@K@ZQ6GH01K@Z@Z 1001783a f i msvcrt:thread_safe_statics.obj
 0001:0001683a       ??$__crt_fast_encode_pointer@P6GXPAU_RTL_CONDITION_VARIABLE@@@Z@@YAP6GXPAU_RTL_CONDITION_VARIABLE@@@ZQ6GX0@Z@Z 1001783a f i msvcrt:thread_safe_statics.obj
 0001:00016b7b       __DllMainCRTStartup@12     10017b7b f   msvcrt:dll_dllmain.obj
 0001:00016b9e       @_guard_check_icall@4      10017b9e f i msvcrt:checkcfg.obj
 0001:00016bb0       __SEH_prolog4              10017bb0 f   msvcrt:_sehprolg4_.obj
 0001:00016bf6       __SEH_epilog4              10017bf6 f   msvcrt:_sehprolg4_.obj
 0001:00016c10       __SEH_prolog4_GS           10017c10 f   msvcrt:_sehprolg4gs_.obj
 0001:00016c59       __SEH_epilog4_GS           10017c59 f   msvcrt:_sehprolg4gs_.obj
 0001:00016c6a       __except_handler4          10017c6a f   msvcrt:_chandler4gs_.obj
 0001:00016c8d       ___isa_available_init      10017c8d f   msvcrt:_cpu_disp_.obj
 0001:00016e31       __get_startup_argv_mode    10017e31 f   msvcrt:argv_mode.obj
 0001:00016e35       ___scrt_is_ucrt_dll_in_use 10017e35 f   msvcrt:ucrt_detection.obj
 0001:00016e41       ___scrt_fastfail           10017e41 f   msvcrt:utility_desktop.obj
 0001:00016f5c       ___raise_securityfailure   10017f5c f   msvcrt:gs_report.obj
 0001:00016f87       ___report_gsfailure        10017f87 f   msvcrt:gs_report.obj
 0001:00017082       ___security_init_cookie    10018082 f   msvcrt:gs_support.obj
 0001:0001711e       ?__scrt_initialize_type_info@@YAXXZ 1001811e f   msvcrt:tncleanup.obj
 0001:0001712a       ?__scrt_uninitialize_type_info@@YAXXZ 1001812a f   msvcrt:tncleanup.obj
 0001:00017136       ___local_stdio_scanf_options 10018136 f i msvcrt:default_local_stdio_options.obj
 0001:0001713c       ___scrt_initialize_default_local_stdio_options 1001813c f   msvcrt:default_local_stdio_options.obj
 0001:00017159       ___scrt_get_dyn_tls_init_callback 10018159 f   msvcrt:dyn_tls_init.obj
 0001:0001715f       __RTC_Initialize           1001815f f   msvcrt:_initsect_.obj
 0001:0001718a       __RTC_Terminate            1001818a f   msvcrt:_initsect_.obj
 0001:000171b5       @_guard_check_icall_nop@4  100181b5 f i msvcrt:guard_support.obj
 0001:000171b6       _IsProcessorFeaturePresent@4 100181b6 f   kernel32:KERNEL32.dll
 0001:000171bc       ??0CAtlBaseModule@ATL@@QAE@XZ 100181bc f   atls:atlbase.obj
 0001:0001720f       ??0_ATL_BASE_MODULE70@ATL@@QAE@XZ 1001820f f i atls:atlbase.obj
 0001:00017232       ??1CAtlBaseModule@ATL@@QAE@XZ 10018232 f   atls:atlbase.obj
 0001:00017248       ?RemoveAll@?$CSimpleArray@PAUHINSTANCE__@@V?$CSimpleArrayEqualHelper@PAUHINSTANCE__@@@ATL@@@ATL@@QAEXXZ 10018248 f i atls:atlbase.obj
 0001:00017266       __purecall                 10018266 f   vcruntime:VCRUNTIME140.dll
 0001:0001726c       _memcmp                    1001826c f   vcruntime:VCRUNTIME140.dll
 0001:00017272       _memcpy                    10018272 f   vcruntime:VCRUNTIME140.dll
 0001:00017278       _memset                    10018278 f   vcruntime:VCRUNTIME140.dll
 0001:0001727e       ___CxxFrameHandler3        1001827e f   vcruntime:VCRUNTIME140.dll
 0001:00017284       __CxxThrowException@8      10018284 f   vcruntime:VCRUNTIME140.dll
 0001:0001728a       ___vcrt_InitializeCriticalSectionEx 1001828a f   vcruntime:VCRUNTIME140.dll
 0001:00017290       __except_handler4_common   10018290 f   vcruntime:VCRUNTIME140.dll
 0001:00017296       ___std_type_info_destroy_list 10018296 f   vcruntime:VCRUNTIME140.dll
 0001:0001729c       _pow                       1001829c f   ucrt:api-ms-win-crt-math-l1-1-0.dll
 0001:000172a2       _terminate                 100182a2 f   ucrt:api-ms-win-crt-runtime-l1-1-0.dll
 0001:000172a8       _free                      100182a8 f   ucrt:api-ms-win-crt-heap-l1-1-0.dll
 0001:000172ae       __seh_filter_dll           100182ae f   ucrt:api-ms-win-crt-runtime-l1-1-0.dll
 0001:000172b4       __configure_narrow_argv    100182b4 f   ucrt:api-ms-win-crt-runtime-l1-1-0.dll
 0001:000172ba       __initialize_narrow_environment 100182ba f   ucrt:api-ms-win-crt-runtime-l1-1-0.dll
 0001:000172c0       __initialize_onexit_table  100182c0 f   ucrt:api-ms-win-crt-runtime-l1-1-0.dll
 0001:000172c6       __register_onexit_function 100182c6 f   ucrt:api-ms-win-crt-runtime-l1-1-0.dll
 0001:000172cc       __execute_onexit_table     100182cc f   ucrt:api-ms-win-crt-runtime-l1-1-0.dll
 0001:000172d2       __crt_atexit               100182d2 f   ucrt:api-ms-win-crt-runtime-l1-1-0.dll
 0001:000172d8       __cexit                    100182d8 f   ucrt:api-ms-win-crt-runtime-l1-1-0.dll
 0001:000172de       __except1                  100182de f   ucrt:api-ms-win-crt-math-l1-1-0.dll
 0001:000172e4       __initterm                 100182e4 f   ucrt:api-ms-win-crt-runtime-l1-1-0.dll
 0001:000172ea       __initterm_e               100182ea f   ucrt:api-ms-win-crt-runtime-l1-1-0.dll
 0001:000172f0       ___vcrt_uninitialize_critical 100182f0 f   msvcrt:ucrt_stubs.obj
 0001:000172f0       ___scrt_stub_for_acrt_thread_attach 100182f0 f   msvcrt:ucrt_stubs.obj
 0001:000172f0       ___vcrt_thread_detach      100182f0 f   msvcrt:ucrt_stubs.obj
 0001:000172f0       ___vcrt_initialize         100182f0 f   msvcrt:ucrt_stubs.obj
 0001:000172f0       ___scrt_stub_for_acrt_thread_detach 100182f0 f   msvcrt:ucrt_stubs.obj
 0001:000172f0       ___acrt_thread_detach      100182f0 f   msvcrt:ucrt_stubs.obj
 0001:000172f0       ___scrt_stub_for_acrt_uninitialize 100182f0 f   msvcrt:ucrt_stubs.obj
 0001:000172f0       ___vcrt_thread_attach      100182f0 f   msvcrt:ucrt_stubs.obj
 0001:000172f0       ___scrt_stub_for_acrt_initialize 100182f0 f   msvcrt:ucrt_stubs.obj
 0001:000172f0       ___scrt_stub_for_acrt_uninitialize_critical 100182f0 f   msvcrt:ucrt_stubs.obj
 0001:000172f0       ___acrt_uninitialize       100182f0 f   msvcrt:ucrt_stubs.obj
 0001:000172f0       ___vcrt_uninitialize       100182f0 f   msvcrt:ucrt_stubs.obj
 0001:000172f0       ___acrt_initialize         100182f0 f   msvcrt:ucrt_stubs.obj
 0001:000172f0       ___acrt_uninitialize_critical 100182f0 f   msvcrt:ucrt_stubs.obj
 0001:000172f0       ___acrt_thread_attach      100182f0 f   msvcrt:ucrt_stubs.obj
 0001:000172f3       __is_c_termination_complete 100182f3 f   msvcrt:ucrt_stubs.obj
 0001:000172f3       ___scrt_stub_for_is_c_termination_complete 100182f3 f   msvcrt:ucrt_stubs.obj
 0002:00000000       __imp__GetCurrentProcess@0 10019000     kernel32:KERNEL32.dll
 0002:00000004       __imp__InitializeSListHead@4 10019004     kernel32:KERNEL32.dll
 0002:00000008       __imp__GetSystemTimeAsFileTime@4 10019008     kernel32:KERNEL32.dll
 0002:0000000c       __imp__GetCurrentThreadId@0 1001900c     kernel32:KERNEL32.dll
 0002:00000010       __imp__GetCurrentProcessId@0 10019010     kernel32:KERNEL32.dll
 0002:00000014       __imp__QueryPerformanceCounter@4 10019014     kernel32:KERNEL32.dll
 0002:00000018       __imp__TerminateProcess@8  10019018     kernel32:KERNEL32.dll
 0002:0000001c       __imp__OutputDebugStringW@4 1001901c     kernel32:KERNEL32.dll
 0002:00000020       __imp__SetUnhandledExceptionFilter@4 10019020     kernel32:KERNEL32.dll
 0002:00000024       __imp__UnhandledExceptionFilter@4 10019024     kernel32:KERNEL32.dll
 0002:00000028       __imp__IsDebuggerPresent@0 10019028     kernel32:KERNEL32.dll
 0002:0000002c       __imp__IsProcessorFeaturePresent@4 1001902c     kernel32:KERNEL32.dll
 0002:00000030       __imp__CreateEventW@16     10019030     kernel32:KERNEL32.dll
 0002:00000034       __imp__CloseHandle@4       10019034     kernel32:KERNEL32.dll
 0002:00000038       __imp__GetProcAddress@8    10019038     kernel32:KERNEL32.dll
 0002:0000003c       __imp__GetModuleHandleW@4  1001903c     kernel32:KERNEL32.dll
 0002:00000040       __imp__DeleteCriticalSection@4 10019040     kernel32:KERNEL32.dll
 0002:00000044       __imp__InitializeCriticalSectionAndSpinCount@8 10019044     kernel32:KERNEL32.dll
 0002:00000048       __imp__lstrcpynW@12        10019048     kernel32:KERNEL32.dll
 0002:0000004c       __imp__lstrlenW@4          1001904c     kernel32:KERNEL32.dll
 0002:00000050       __imp__GetLocalTime@4      10019050     kernel32:KERNEL32.dll
 0002:00000054       __imp__GetPrivateProfileIntW@16 10019054     kernel32:KERNEL32.dll
 0002:00000058       __imp__CompareStringW@24   10019058     kernel32:KERNEL32.dll
 0002:0000005c       __imp__GetLastError@0      1001905c     kernel32:KERNEL32.dll
 0002:00000060       \177KERNEL32_NULL_THUNK_DATA 10019060     kernel32:KERNEL32.dll
 0002:00000064       __imp_?TraceString@CTraceService@@SA_NPB_WW4enTraceLevel@@@Z 10019064     KernelEngine:KernelEngine.dll
 0002:00000068       \177KernelEngine_NULL_THUNK_DATA 10019068     KernelEngine:KernelEngine.dll
 0002:0000006c       __imp_?_Xbad_alloc@std@@YAXXZ 1001906c     msvcprt:MSVCP140.dll
 0002:00000070       __imp_?_Xlength_error@std@@YAXPBD@Z 10019070     msvcprt:MSVCP140.dll
 0002:00000074       \177MSVCP140_NULL_THUNK_DATA 10019074     msvcprt:MSVCP140.dll
 0002:00000078       __imp_?GetWorkDirectory@CWHService@@SA_NQA_WG@Z 10019078     ServiceCore:ServiceCore.dll
 0002:0000007c       \177ServiceCore_NULL_THUNK_DATA 1001907c     ServiceCore:ServiceCore.dll
 0002:00000080       __imp__memcmp              10019080     vcruntime:VCRUNTIME140.dll
 0002:00000084       __imp__memcpy              10019084     vcruntime:VCRUNTIME140.dll
 0002:00000088       __imp__memset              10019088     vcruntime:VCRUNTIME140.dll
 0002:0000008c       __imp____CxxFrameHandler3  1001908c     vcruntime:VCRUNTIME140.dll
 0002:00000090       __imp___CxxThrowException@8 10019090     vcruntime:VCRUNTIME140.dll
 0002:00000094       __imp____vcrt_InitializeCriticalSectionEx 10019094     vcruntime:VCRUNTIME140.dll
 0002:00000098       __imp___except_handler4_common 10019098     vcruntime:VCRUNTIME140.dll
 0002:0000009c       __imp____std_type_info_destroy_list 1001909c     vcruntime:VCRUNTIME140.dll
 0002:000000a0       __imp___purecall           100190a0     vcruntime:VCRUNTIME140.dll
 0002:000000a4       __imp__memmove             100190a4     vcruntime:VCRUNTIME140.dll
 0002:000000a8       \177VCRUNTIME140_NULL_THUNK_DATA 100190a8     vcruntime:VCRUNTIME140.dll
 0002:000000ac       __imp___wtoi               100190ac     ucrt:api-ms-win-crt-convert-l1-1-0.dll
 0002:000000b0       \177api-ms-win-crt-convert-l1-1-0_NULL_THUNK_DATA 100190b0     ucrt:api-ms-win-crt-convert-l1-1-0.dll
 0002:000000b4       __imp__free                100190b4     ucrt:api-ms-win-crt-heap-l1-1-0.dll
 0002:000000b8       \177api-ms-win-crt-heap-l1-1-0_NULL_THUNK_DATA 100190b8     ucrt:api-ms-win-crt-heap-l1-1-0.dll
 0002:000000bc       __imp__ceil                100190bc     ucrt:api-ms-win-crt-math-l1-1-0.dll
 0002:000000c0       __imp___except1            100190c0     ucrt:api-ms-win-crt-math-l1-1-0.dll
 0002:000000c4       __imp__pow                 100190c4     ucrt:api-ms-win-crt-math-l1-1-0.dll
 0002:000000c8       \177api-ms-win-crt-math-l1-1-0_NULL_THUNK_DATA 100190c8     ucrt:api-ms-win-crt-math-l1-1-0.dll
 0002:000000cc       __imp___initterm_e         100190cc     ucrt:api-ms-win-crt-runtime-l1-1-0.dll
 0002:000000d0       __imp___invalid_parameter_noinfo_noreturn 100190d0     ucrt:api-ms-win-crt-runtime-l1-1-0.dll
 0002:000000d4       __imp__terminate           100190d4     ucrt:api-ms-win-crt-runtime-l1-1-0.dll
 0002:000000d8       __imp___cexit              100190d8     ucrt:api-ms-win-crt-runtime-l1-1-0.dll
 0002:000000dc       __imp___crt_atexit         100190dc     ucrt:api-ms-win-crt-runtime-l1-1-0.dll
 0002:000000e0       __imp___execute_onexit_table 100190e0     ucrt:api-ms-win-crt-runtime-l1-1-0.dll
 0002:000000e4       __imp___register_onexit_function 100190e4     ucrt:api-ms-win-crt-runtime-l1-1-0.dll
 0002:000000e8       __imp___initialize_onexit_table 100190e8     ucrt:api-ms-win-crt-runtime-l1-1-0.dll
 0002:000000ec       __imp___initialize_narrow_environment 100190ec     ucrt:api-ms-win-crt-runtime-l1-1-0.dll
 0002:000000f0       __imp___configure_narrow_argv 100190f0     ucrt:api-ms-win-crt-runtime-l1-1-0.dll
 0002:000000f4       __imp___seh_filter_dll     100190f4     ucrt:api-ms-win-crt-runtime-l1-1-0.dll
 0002:000000f8       __imp___initterm           100190f8     ucrt:api-ms-win-crt-runtime-l1-1-0.dll
 0002:000000fc       \177api-ms-win-crt-runtime-l1-1-0_NULL_THUNK_DATA 100190fc     ucrt:api-ms-win-crt-runtime-l1-1-0.dll
 0002:00000100       __imp____stdio_common_vswprintf_s 10019100     ucrt:api-ms-win-crt-stdio-l1-1-0.dll
 0002:00000104       __imp____stdio_common_vswprintf 10019104     ucrt:api-ms-win-crt-stdio-l1-1-0.dll
 0002:00000108       __imp____stdio_common_vsnwprintf_s 10019108     ucrt:api-ms-win-crt-stdio-l1-1-0.dll
 0002:0000010c       \177api-ms-win-crt-stdio-l1-1-0_NULL_THUNK_DATA 1001910c     ucrt:api-ms-win-crt-stdio-l1-1-0.dll
 0002:00000110       __imp__wcslen              10019110     ucrt:api-ms-win-crt-string-l1-1-0.dll
 0002:00000114       \177api-ms-win-crt-string-l1-1-0_NULL_THUNK_DATA 10019114     ucrt:api-ms-win-crt-string-l1-1-0.dll
 0002:00000118       __imp___time64             10019118     ucrt:api-ms-win-crt-time-l1-1-0.dll
 0002:0000011c       \177api-ms-win-crt-time-l1-1-0_NULL_THUNK_DATA 1001911c     ucrt:api-ms-win-crt-time-l1-1-0.dll
 0002:00000120       __imp__rand                10019120     ucrt:api-ms-win-crt-utility-l1-1-0.dll
 0002:00000124       __imp__ldiv                10019124     ucrt:api-ms-win-crt-utility-l1-1-0.dll
 0002:00000128       \177api-ms-win-crt-utility-l1-1-0_NULL_THUNK_DATA 10019128     ucrt:api-ms-win-crt-utility-l1-1-0.dll
 0002:0000012c       __imp_??1CStringArray@@UAE@XZ 1001912c     mfc140u:mfc140u.dll
 0002:00000130       __imp_?SetAtGrow@CStringArray@@QAEXHABV?$CStringT@_WV?$StrTraitMFC_DLL@_WV?$ChTraitsCRT@_W@ATL@@@@@ATL@@@Z 10019130     mfc140u:mfc140u.dll
 0002:00000134       __imp_?SetSize@CStringArray@@QAEXHH@Z 10019134     mfc140u:mfc140u.dll
 0002:00000138       __imp_??0CStringArray@@QAE@XZ 10019138     mfc140u:mfc140u.dll
 0002:0000013c       __imp_?AppendFormat@?$CStringT@_WV?$StrTraitMFC_DLL@_WV?$ChTraitsCRT@_W@ATL@@@@@ATL@@QAAXPB_WZZ 1001913c     mfc140u:mfc140u.dll
 0002:00000140       __imp_?Tokenize@?$CStringT@_WV?$StrTraitMFC_DLL@_WV?$ChTraitsCRT@_W@ATL@@@@@ATL@@QBE?AV12@PB_WAAH@Z 10019140     mfc140u:mfc140u.dll
 0002:00000144       __imp_??0?$CStringT@_WV?$StrTraitMFC_DLL@_WV?$ChTraitsCRT@_W@ATL@@@@@ATL@@QAE@PB_W@Z 10019144     mfc140u:mfc140u.dll
 0002:00000148       __imp_??0?$CStringT@_WV?$StrTraitMFC_DLL@_WV?$ChTraitsCRT@_W@ATL@@@@@ATL@@QAE@ABV01@@Z 10019148     mfc140u:mfc140u.dll
 0002:0000014c       __imp_?IsEmpty@?$CSimpleStringT@_W$00@ATL@@QBE_NXZ 1001914c     mfc140u:mfc140u.dll
 0002:00000150       __imp_?GetLength@?$CSimpleStringT@_W$00@ATL@@QBEHXZ 10019150     mfc140u:mfc140u.dll
 0002:00000154       __imp_??A?$CSimpleStringT@_W$00@ATL@@QBE_WH@Z 10019154     mfc140u:mfc140u.dll
 0002:00000158       __imp_?AfxTermExtensionModule@@YGXAAUAFX_EXTENSION_MODULE@@H@Z 10019158     mfc140u:mfc140u.dll
 0002:0000015c       __imp_?AfxInitExtensionModule@@YGHAAUAFX_EXTENSION_MODULE@@PAUHINSTANCE__@@@Z 1001915c     mfc140u:mfc140u.dll
 0002:00000160       __imp_??0CDynLinkLibrary@@QAE@AAUAFX_EXTENSION_MODULE@@H@Z 10019160     mfc140u:mfc140u.dll
 0002:00000164       __imp_?AfxGetModuleState@@YGPAVAFX_MODULE_STATE@@XZ 10019164     mfc140u:mfc140u.dll
 0002:00000168       __imp_?FreeDataChain@CPlex@@QAEXXZ 10019168     mfc140u:mfc140u.dll
 0002:0000016c       __imp_?Create@CPlex@@SGPAU1@AAPAU1@II@Z 1001916c     mfc140u:mfc140u.dll
 0002:00000170       __imp_?WriteCount@CArchive@@QAEXK@Z 10019170     mfc140u:mfc140u.dll
 0002:00000174       __imp_?ReadCount@CArchive@@QAEKXZ 10019174     mfc140u:mfc140u.dll
 0002:00000178       __imp_?Write@CArchive@@QAEXPBXI@Z 10019178     mfc140u:mfc140u.dll
 0002:0000017c       __imp_?Read@CArchive@@QAEIPAXI@Z 1001917c     mfc140u:mfc140u.dll
 0002:00000180       __imp_?GetRuntimeClass@CObject@@UBEPAUCRuntimeClass@@XZ 10019180     mfc140u:mfc140u.dll
 0002:00000184       __imp_??2@YAPAXI@Z         10019184     mfc140u:mfc140u.dll
 0002:00000188       __imp_??_U@YAPAXI@Z        10019188     mfc140u:mfc140u.dll
 0002:0000018c       __imp_??_V@YAXPAX@Z        1001918c     mfc140u:mfc140u.dll
 0002:00000190       __imp_?AfxThrowInvalidArgException@@YGXXZ 10019190     mfc140u:mfc140u.dll
 0002:00000194       __imp_??B?$CSimpleStringT@_W$00@ATL@@QBEPB_WXZ 10019194     mfc140u:mfc140u.dll
 0002:00000198       __imp_??0?$CStringT@_WV?$StrTraitMFC_DLL@_WV?$ChTraitsCRT@_W@ATL@@@@@ATL@@QAE@XZ 10019198     mfc140u:mfc140u.dll
 0002:0000019c       __imp_??1?$CStringT@_WV?$StrTraitMFC_DLL@_WV?$ChTraitsCRT@_W@ATL@@@@@ATL@@QAE@XZ 1001919c     mfc140u:mfc140u.dll
 0002:000001a0       __imp_?Format@?$CStringT@_WV?$StrTraitMFC_DLL@_WV?$ChTraitsCRT@_W@ATL@@@@@ATL@@QAAXPB_WZZ 100191a0     mfc140u:mfc140u.dll
 0002:000001a4       __imp_?AfxThrowArchiveException@@YGXHPB_W@Z 100191a4     mfc140u:mfc140u.dll
 0002:000001a8       __imp_??3@YAXPAX@Z         100191a8     mfc140u:mfc140u.dll
 0002:000001ac       \177mfc140u_NULL_THUNK_DATA 100191ac     mfc140u:mfc140u.dll
 0002:000001b0       ___guard_check_icall_fptr  100191b0     msvcrt:guard_support.obj
 0002:000001b4       ___xc_a                    100191b4     msvcrt:initializers.obj
 0002:000001c4       ___xc_z                    100191c4     msvcrt:initializers.obj
 0002:000001c8       ___xi_a                    100191c8     msvcrt:initializers.obj
 0002:000001d0       ___xi_z                    100191d0     msvcrt:initializers.obj
 0002:000001d4       ___xl_a                    100191d4     msvcrt:tlssup.obj
 0002:000001d8       ___xl_z                    100191d8     msvcrt:tlssup.obj
 0002:000001dc       ___xp_a                    100191dc     msvcrt:initializers.obj
 0002:000001e0       ___xp_z                    100191e0     msvcrt:initializers.obj
 0002:000001e4       ___xt_a                    100191e4     msvcrt:initializers.obj
 0002:000001e8       ___xt_z                    100191e8     msvcrt:initializers.obj
 0002:0000035c       ??_7IUnknownEx@@6B@        1001935c     AndroidUserItem.obj
 0002:00000368       ??_7IAndroidUserItem@@6B@  10019368     AndroidUserItem.obj
 0002:00000408       ??_7?$CWHArray@PAUtagTableItem@@ABQAU1@@@6B@ 10019408     AndroidUserItem.obj
 0002:00000410       ??_7?$CWHArray@PAUtagTimerItem@@ABQAU1@@@6B@ 10019410     AndroidUserItem.obj
 0002:00000418       ??_7CAndroidUserItem@@6B@  10019418     AndroidUserItem.obj
 0002:000004b8       __real@00000000            100194b8     AndroidUserItem.obj
 0002:000004bc       __real@3f800000            100194bc     AndroidUserItem.obj
 0002:00000c48       ??_7IAndroidUserManager@@6B@ 10019c48     AndroidUserManager.obj
 0002:00000cd0       ??_7?$CMap@KKPAVCAndroidUserItem@@PAV1@@@6B@ 10019cd0     AndroidUserManager.obj
 0002:00000ce8       ??_7?$CWHArray@PAVCAndroidUserItem@@ABQAV1@@@6B@ 10019ce8     AndroidUserManager.obj
 0002:00000cf0       ??_7?$CWHArray@PAUtagAndroidAccountsInfo@@ABQAU1@@@6B@ 10019cf0     AndroidUserManager.obj
 0002:00000cf8       ??_7?$CWHArray@PAUtagAndroidLeaveInfo@@ABQAU1@@@6B@ 10019cf8     AndroidUserManager.obj
 0002:00000d00       ??_7CAndroidUserManager@@6B@ 10019d00     AndroidUserManager.obj
 0002:00000d8c       ??_C@_0BB@MOGOBHAF@list?$DMT?$DO?5too?5long?$AA@ 10019d8c     AndroidUserManager.obj
 0002:00000e68       ??_7?$CWHArray@UtagPropertyInfo@@ABU1@@@6B@ 10019e68     GamePropertyManager.obj
 0002:00000e70       ??_7CGamePropertyManager@@6B@ 10019e70     GamePropertyManager.obj
 0002:00000e74       ??_C@_0BD@OLBABOEK@vector?$DMT?$DO?5too?5long?$AA@ 10019e74     GamePropertyManager.obj
 0002:00000e88       ??_C@_0BE@JONHPENG@map?1set?$DMT?$DO?5too?5long?$AA@ 10019e88     GamePropertyManager.obj
 0002:00000f2c       __pRawDllMain              10019f2c     GameService.obj
 0002:000010b8       ??_7IServerUserItem@@6B@   1001a0b8     ServerUserManager.obj
 0002:00001214       ??_7IServerUserService@@6B@ 1001a214     ServerUserManager.obj
 0002:00001220       ??_7IServerUserManager@@6B@ 1001a220     ServerUserManager.obj
 0002:00001254       ??_7?$CMap@HHPAUtagGameDataItem@@AAPAU1@@@6B@ 1001a254     ServerUserManager.obj
 0002:0000126c       ??_7CServerUserItem@@6BIServerUserItem@@@ 1001a26c     ServerUserManager.obj
 0002:000013d0       ??_7CServerUserItem@@6BIServerUserService@@@ 1001a3d0     ServerUserManager.obj
 0002:000013dc       ??_7?$CMap@KKPAVCServerUserItem@@PAV1@@@6B@ 1001a3dc     ServerUserManager.obj
 0002:000013f4       ??_7?$CWHArray@PAVCServerUserItem@@ABQAV1@@@6B@ 1001a3f4     ServerUserManager.obj
 0002:000013fc       ??_7CServerUserManager@@6B@ 1001a3fc     ServerUserManager.obj
 0002:00002e24       ??_7IUserTaskManagerSink@@6B@ 1001be24     UserTaskManager.obj
 0002:00002e54       ??_7?$CMap@GGPAUtagTaskParameter@@PAU1@@@6B@ 1001be54     UserTaskManager.obj
 0002:00002e6c       ??_7?$CMap@KKPAUtagUserTaskEntry@@PAU1@@@6B@ 1001be6c     UserTaskManager.obj
 0002:00002e84       ??_7?$CWHArray@PAUtagTaskParameter@@ABQAU1@@@6B@ 1001be84     UserTaskManager.obj
 0002:00002e8c       ??_7?$CWHArray@PAUtagUserTaskEntry@@ABQAU1@@@6B@ 1001be8c     UserTaskManager.obj
 0002:00002e94       ??_7CUserTaskManager@@6B@  1001be94     UserTaskManager.obj
 0002:00002f58       ??_7type_info@@6B@         1001bf58     msvcrt:std_type_info_static.obj
 0002:00002f5c       ??_C@_1BK@MGMFAEKH@?$AAk?$AAe?$AAr?$AAn?$AAe?$AAl?$AA3?$AA2?$AA?4?$AAd?$AAl?$AAl?$AA?$AA@ 1001bf5c     msvcrt:thread_safe_statics.obj
 0002:00002f78       ??_C@_0BM@HLJJNPAH@InitializeConditionVariable?$AA@ 1001bf78     msvcrt:thread_safe_statics.obj
 0002:00002f94       ??_C@_0BJ@JEBJOJFJ@SleepConditionVariableCS?$AA@ 1001bf94     msvcrt:thread_safe_statics.obj
 0002:00002fb0       ??_C@_0BJ@PGPPEPCC@WakeAllConditionVariable?$AA@ 1001bfb0     msvcrt:thread_safe_statics.obj
 0002:00002fcc       __pDefaultRawDllMain       1001bfcc     msvcrt:dll_dllmain.obj
 0002:00002fd8       _GUID_ATLVer110            1001bfd8     atls:atlbase.obj
 0002:00002fe8       ??_C@_1IC@ONKHOIDK@?$AAE?$AAR?$AAR?$AAO?$AAR?$AA?5?$AA?3?$AA?5?$AAU?$AAn?$AAa?$AAb?$AAl?$AAe?$AA?5?$AAt?$AAo?$AA?5?$AAi?$AAn?$AAi?$AAt?$AAi?$AAa?$AAl?$AAi?$AAz?$AAe?$AA?5?$AAc?$AAr?$AAi@ 1001bfe8     atls:atlbase.obj
 0002:000030c8       __load_config_used         1001c0c8     msvcrt:loadcfg.obj
 0002:00003124       __tls_used                 1001c124     msvcrt:tlssup.obj
 0002:0000313c       ??_R4IUnknownEx@@6B@       1001c13c     AndroidUserItem.obj
 0002:00003150       ??_R3IUnknownEx@@8         1001c150     AndroidUserItem.obj
 0002:00003160       ??_R2IUnknownEx@@8         1001c160     AndroidUserItem.obj
 0002:00003168       ??_R1A@?0A@EA@IUnknownEx@@8 1001c168     AndroidUserItem.obj
 0002:00003184       ??_R4IAndroidUserItem@@6B@ 1001c184     AndroidUserItem.obj
 0002:00003198       ??_R3IAndroidUserItem@@8   1001c198     AndroidUserItem.obj
 0002:000031a8       ??_R2IAndroidUserItem@@8   1001c1a8     AndroidUserItem.obj
 0002:000031b4       ??_R1A@?0A@EA@IAndroidUserItem@@8 1001c1b4     AndroidUserItem.obj
 0002:000031d0       ??_R4?$CWHArray@PAUtagTimerItem@@ABQAU1@@@6B@ 1001c1d0     AndroidUserItem.obj
 0002:000031e4       ??_R3?$CWHArray@PAUtagTimerItem@@ABQAU1@@@8 1001c1e4     AndroidUserItem.obj
 0002:000031f4       ??_R2?$CWHArray@PAUtagTimerItem@@ABQAU1@@@8 1001c1f4     AndroidUserItem.obj
 0002:000031fc       ??_R1A@?0A@EA@?$CWHArray@PAUtagTimerItem@@ABQAU1@@@8 1001c1fc     AndroidUserItem.obj
 0002:00003218       ??_R4?$CWHArray@PAUtagTableItem@@ABQAU1@@@6B@ 1001c218     AndroidUserItem.obj
 0002:0000322c       ??_R3?$CWHArray@PAUtagTableItem@@ABQAU1@@@8 1001c22c     AndroidUserItem.obj
 0002:0000323c       ??_R2?$CWHArray@PAUtagTableItem@@ABQAU1@@@8 1001c23c     AndroidUserItem.obj
 0002:00003244       ??_R1A@?0A@EA@?$CWHArray@PAUtagTableItem@@ABQAU1@@@8 1001c244     AndroidUserItem.obj
 0002:00003260       ??_R4CAndroidUserItem@@6B@ 1001c260     AndroidUserItem.obj
 0002:00003274       ??_R3CAndroidUserItem@@8   1001c274     AndroidUserItem.obj
 0002:00003284       ??_R2CAndroidUserItem@@8   1001c284     AndroidUserItem.obj
 0002:00003294       ??_R1A@?0A@EA@CAndroidUserItem@@8 1001c294     AndroidUserItem.obj
 0002:000032b0       ??_R3CObject@@8            1001c2b0     AndroidUserManager.obj
 0002:000032c0       ??_R2CObject@@8            1001c2c0     AndroidUserManager.obj
 0002:000032c8       ??_R1A@?0A@EA@CObject@@8   1001c2c8     AndroidUserManager.obj
 0002:000032e4       ??_R4IAndroidUserManager@@6B@ 1001c2e4     AndroidUserManager.obj
 0002:000032f8       ??_R3IAndroidUserManager@@8 1001c2f8     AndroidUserManager.obj
 0002:00003308       ??_R2IAndroidUserManager@@8 1001c308     AndroidUserManager.obj
 0002:00003314       ??_R1A@?0A@EA@IAndroidUserManager@@8 1001c314     AndroidUserManager.obj
 0002:00003330       ??_R4CAndroidUserManager@@6B@ 1001c330     AndroidUserManager.obj
 0002:00003344       ??_R3CAndroidUserManager@@8 1001c344     AndroidUserManager.obj
 0002:00003354       ??_R2CAndroidUserManager@@8 1001c354     AndroidUserManager.obj
 0002:00003364       ??_R1A@?0A@EA@CAndroidUserManager@@8 1001c364     AndroidUserManager.obj
 0002:00003380       ??_R4?$CWHArray@PAVCAndroidUserItem@@ABQAV1@@@6B@ 1001c380     AndroidUserManager.obj
 0002:00003394       ??_R3?$CWHArray@PAVCAndroidUserItem@@ABQAV1@@@8 1001c394     AndroidUserManager.obj
 0002:000033a4       ??_R2?$CWHArray@PAVCAndroidUserItem@@ABQAV1@@@8 1001c3a4     AndroidUserManager.obj
 0002:000033ac       ??_R1A@?0A@EA@?$CWHArray@PAVCAndroidUserItem@@ABQAV1@@@8 1001c3ac     AndroidUserManager.obj
 0002:000033c8       ??_R4?$CWHArray@PAUtagAndroidAccountsInfo@@ABQAU1@@@6B@ 1001c3c8     AndroidUserManager.obj
 0002:000033dc       ??_R3?$CWHArray@PAUtagAndroidAccountsInfo@@ABQAU1@@@8 1001c3dc     AndroidUserManager.obj
 0002:000033ec       ??_R2?$CWHArray@PAUtagAndroidAccountsInfo@@ABQAU1@@@8 1001c3ec     AndroidUserManager.obj
 0002:000033f4       ??_R1A@?0A@EA@?$CWHArray@PAUtagAndroidAccountsInfo@@ABQAU1@@@8 1001c3f4     AndroidUserManager.obj
 0002:00003410       ??_R4?$CMap@KKPAVCAndroidUserItem@@PAV1@@@6B@ 1001c410     AndroidUserManager.obj
 0002:00003424       ??_R3?$CMap@KKPAVCAndroidUserItem@@PAV1@@@8 1001c424     AndroidUserManager.obj
 0002:00003434       ??_R2?$CMap@KKPAVCAndroidUserItem@@PAV1@@@8 1001c434     AndroidUserManager.obj
 0002:00003440       ??_R1A@?0A@EA@?$CMap@KKPAVCAndroidUserItem@@PAV1@@@8 1001c440     AndroidUserManager.obj
 0002:0000345c       ??_R4?$CWHArray@PAUtagAndroidLeaveInfo@@ABQAU1@@@6B@ 1001c45c     AndroidUserManager.obj
 0002:00003470       ??_R3?$CWHArray@PAUtagAndroidLeaveInfo@@ABQAU1@@@8 1001c470     AndroidUserManager.obj
 0002:00003480       ??_R2?$CWHArray@PAUtagAndroidLeaveInfo@@ABQAU1@@@8 1001c480     AndroidUserManager.obj
 0002:00003488       ??_R1A@?0A@EA@?$CWHArray@PAUtagAndroidLeaveInfo@@ABQAU1@@@8 1001c488     AndroidUserManager.obj
 0002:000034a4       ??_R4?$CWHArray@UtagPropertyInfo@@ABU1@@@6B@ 1001c4a4     GamePropertyManager.obj
 0002:000034b8       ??_R3?$CWHArray@UtagPropertyInfo@@ABU1@@@8 1001c4b8     GamePropertyManager.obj
 0002:000034c8       ??_R2?$CWHArray@UtagPropertyInfo@@ABU1@@@8 1001c4c8     GamePropertyManager.obj
 0002:000034d0       ??_R1A@?0A@EA@?$CWHArray@UtagPropertyInfo@@ABU1@@@8 1001c4d0     GamePropertyManager.obj
 0002:000034ec       ??_R4CGamePropertyManager@@6B@ 1001c4ec     GamePropertyManager.obj
 0002:00003500       ??_R3CGamePropertyManager@@8 1001c500     GamePropertyManager.obj
 0002:00003510       ??_R2CGamePropertyManager@@8 1001c510     GamePropertyManager.obj
 0002:00003518       ??_R1A@?0A@EA@CGamePropertyManager@@8 1001c518     GamePropertyManager.obj
 0002:00003534       ??_R4IServerUserItem@@6B@  1001c534     ServerUserManager.obj
 0002:00003548       ??_R3IServerUserItem@@8    1001c548     ServerUserManager.obj
 0002:00003558       ??_R2IServerUserItem@@8    1001c558     ServerUserManager.obj
 0002:00003564       ??_R1A@?0A@EA@IServerUserItem@@8 1001c564     ServerUserManager.obj
 0002:00003580       ??_R4IServerUserManager@@6B@ 1001c580     ServerUserManager.obj
 0002:00003594       ??_R3IServerUserManager@@8 1001c594     ServerUserManager.obj
 0002:000035a4       ??_R2IServerUserManager@@8 1001c5a4     ServerUserManager.obj
 0002:000035b0       ??_R1A@?0A@EA@IServerUserManager@@8 1001c5b0     ServerUserManager.obj
 0002:000035cc       ??_R4IServerUserService@@6B@ 1001c5cc     ServerUserManager.obj
 0002:000035e0       ??_R3IServerUserService@@8 1001c5e0     ServerUserManager.obj
 0002:000035f0       ??_R2IServerUserService@@8 1001c5f0     ServerUserManager.obj
 0002:000035fc       ??_R1A@?0A@EA@IServerUserService@@8 1001c5fc     ServerUserManager.obj
 0002:00003618       ??_R4?$CMap@HHPAUtagGameDataItem@@AAPAU1@@@6B@ 1001c618     ServerUserManager.obj
 0002:0000362c       ??_R3?$CMap@HHPAUtagGameDataItem@@AAPAU1@@@8 1001c62c     ServerUserManager.obj
 0002:0000363c       ??_R2?$CMap@HHPAUtagGameDataItem@@AAPAU1@@@8 1001c63c     ServerUserManager.obj
 0002:00003648       ??_R1A@?0A@EA@?$CMap@HHPAUtagGameDataItem@@AAPAU1@@@8 1001c648     ServerUserManager.obj
 0002:00003664       ??_R4CServerUserItem@@6BIServerUserItem@@@ 1001c664     ServerUserManager.obj
 0002:00003678       ??_R3CServerUserItem@@8    1001c678     ServerUserManager.obj
 0002:00003688       ??_R2CServerUserItem@@8    1001c688     ServerUserManager.obj
 0002:000036a0       ??_R1A@?0A@EA@CServerUserItem@@8 1001c6a0     ServerUserManager.obj
 0002:000036bc       ??_R1A@?0A@EC@IUnknownEx@@8 1001c6bc     ServerUserManager.obj
 0002:000036d8       ??_R13?0A@EA@IServerUserService@@8 1001c6d8     ServerUserManager.obj
 0002:000036f4       ??_R13?0A@EC@IUnknownEx@@8 1001c6f4     ServerUserManager.obj
 0002:00003710       ??_R4CServerUserItem@@6BIServerUserService@@@ 1001c710     ServerUserManager.obj
 0002:00003724       ??_R4CServerUserManager@@6B@ 1001c724     ServerUserManager.obj
 0002:00003738       ??_R3CServerUserManager@@8 1001c738     ServerUserManager.obj
 0002:00003748       ??_R2CServerUserManager@@8 1001c748     ServerUserManager.obj
 0002:00003758       ??_R1A@?0A@EA@CServerUserManager@@8 1001c758     ServerUserManager.obj
 0002:00003774       ??_R4?$CWHArray@PAVCServerUserItem@@ABQAV1@@@6B@ 1001c774     ServerUserManager.obj
 0002:00003788       ??_R3?$CWHArray@PAVCServerUserItem@@ABQAV1@@@8 1001c788     ServerUserManager.obj
 0002:00003798       ??_R2?$CWHArray@PAVCServerUserItem@@ABQAV1@@@8 1001c798     ServerUserManager.obj
 0002:000037a0       ??_R1A@?0A@EA@?$CWHArray@PAVCServerUserItem@@ABQAV1@@@8 1001c7a0     ServerUserManager.obj
 0002:000037bc       ??_R4?$CMap@KKPAVCServerUserItem@@PAV1@@@6B@ 1001c7bc     ServerUserManager.obj
 0002:000037d0       ??_R3?$CMap@KKPAVCServerUserItem@@PAV1@@@8 1001c7d0     ServerUserManager.obj
 0002:000037e0       ??_R2?$CMap@KKPAVCServerUserItem@@PAV1@@@8 1001c7e0     ServerUserManager.obj
 0002:000037ec       ??_R1A@?0A@EA@?$CMap@KKPAVCServerUserItem@@PAV1@@@8 1001c7ec     ServerUserManager.obj
 0002:00003808       ??_R4IUserTaskManagerSink@@6B@ 1001c808     UserTaskManager.obj
 0002:0000381c       ??_R3IUserTaskManagerSink@@8 1001c81c     UserTaskManager.obj
 0002:0000382c       ??_R2IUserTaskManagerSink@@8 1001c82c     UserTaskManager.obj
 0002:00003838       ??_R1A@?0A@EA@IUserTaskManagerSink@@8 1001c838     UserTaskManager.obj
 0002:00003854       ??_R4?$CWHArray@PAUtagUserTaskEntry@@ABQAU1@@@6B@ 1001c854     UserTaskManager.obj
 0002:00003868       ??_R3?$CWHArray@PAUtagUserTaskEntry@@ABQAU1@@@8 1001c868     UserTaskManager.obj
 0002:00003878       ??_R2?$CWHArray@PAUtagUserTaskEntry@@ABQAU1@@@8 1001c878     UserTaskManager.obj
 0002:00003880       ??_R1A@?0A@EA@?$CWHArray@PAUtagUserTaskEntry@@ABQAU1@@@8 1001c880     UserTaskManager.obj
 0002:0000389c       ??_R4?$CWHArray@PAUtagTaskParameter@@ABQAU1@@@6B@ 1001c89c     UserTaskManager.obj
 0002:000038b0       ??_R3?$CWHArray@PAUtagTaskParameter@@ABQAU1@@@8 1001c8b0     UserTaskManager.obj
 0002:000038c0       ??_R2?$CWHArray@PAUtagTaskParameter@@ABQAU1@@@8 1001c8c0     UserTaskManager.obj
 0002:000038c8       ??_R1A@?0A@EA@?$CWHArray@PAUtagTaskParameter@@ABQAU1@@@8 1001c8c8     UserTaskManager.obj
 0002:000038e4       ??_R4?$CMap@GGPAUtagTaskParameter@@PAU1@@@6B@ 1001c8e4     UserTaskManager.obj
 0002:000038f8       ??_R3?$CMap@GGPAUtagTaskParameter@@PAU1@@@8 1001c8f8     UserTaskManager.obj
 0002:00003908       ??_R2?$CMap@GGPAUtagTaskParameter@@PAU1@@@8 1001c908     UserTaskManager.obj
 0002:00003914       ??_R1A@?0A@EA@?$CMap@GGPAUtagTaskParameter@@PAU1@@@8 1001c914     UserTaskManager.obj
 0002:00003930       ??_R4?$CMap@KKPAUtagUserTaskEntry@@PAU1@@@6B@ 1001c930     UserTaskManager.obj
 0002:00003944       ??_R3?$CMap@KKPAUtagUserTaskEntry@@PAU1@@@8 1001c944     UserTaskManager.obj
 0002:00003954       ??_R2?$CMap@KKPAUtagUserTaskEntry@@PAU1@@@8 1001c954     UserTaskManager.obj
 0002:00003960       ??_R1A@?0A@EA@?$CMap@KKPAUtagUserTaskEntry@@PAU1@@@8 1001c960     UserTaskManager.obj
 0002:0000397c       ??_R4CUserTaskManager@@6B@ 1001c97c     UserTaskManager.obj
 0002:00003990       ??_R3CUserTaskManager@@8   1001c990     UserTaskManager.obj
 0002:000039a0       ??_R2CUserTaskManager@@8   1001c9a0     UserTaskManager.obj
 0002:000039b0       ??_R1A@?0A@EA@CUserTaskManager@@8 1001c9b0     UserTaskManager.obj
 0002:000039cc       ??_R4type_info@@6B@        1001c9cc     msvcrt:std_type_info_static.obj
 0002:000039e0       ??_R3type_info@@8          1001c9e0     msvcrt:std_type_info_static.obj
 0002:000039f0       ??_R2type_info@@8          1001c9f0     msvcrt:std_type_info_static.obj
 0002:000039f8       ??_R1A@?0A@EA@type_info@@8 1001c9f8     msvcrt:std_type_info_static.obj
 0002:00003a20       ___safe_se_handler_table   1001ca20     <linker-defined>
 0002:00003ee0       ___rtc_iaa                 1001cee0     msvcrt:_initsect_.obj
 0002:00003ee4       ___rtc_izz                 1001cee4     msvcrt:_initsect_.obj
 0002:00003ee8       ___rtc_taa                 1001cee8     msvcrt:_initsect_.obj
 0002:00003eec       ___rtc_tzz                 1001ceec     msvcrt:_initsect_.obj
 0002:00004948       __TI1H                     1001d948     AndroidUserManager.obj
 0002:00004958       __CTA1H                    1001d958     AndroidUserManager.obj
 0002:00004960       __CT??_R0H@84              1001d960     AndroidUserManager.obj
 0002:0000521c       __TI2PA_W                  1001e21c     UserTaskManager.obj
 0002:0000522c       __CTA2PA_W                 1001e22c     UserTaskManager.obj
 0002:00005238       __CT??_R0PA_W@84           1001e238     UserTaskManager.obj
 0002:00005254       __CT??_R0PAX@84            1001e254     UserTaskManager.obj
 0002:00008e0c       __IMPORT_DESCRIPTOR_mfc140u 10021e0c     mfc140u:mfc140u.dll
 0002:00008e20       __IMPORT_DESCRIPTOR_KERNEL32 10021e20     kernel32:KERNEL32.dll
 0002:00008e34       __IMPORT_DESCRIPTOR_MSVCP140 10021e34     msvcprt:MSVCP140.dll
 0002:00008e48       __IMPORT_DESCRIPTOR_ServiceCore 10021e48     ServiceCore:ServiceCore.dll
 0002:00008e5c       __IMPORT_DESCRIPTOR_KernelEngine 10021e5c     KernelEngine:KernelEngine.dll
 0002:00008e70       __IMPORT_DESCRIPTOR_VCRUNTIME140 10021e70     vcruntime:VCRUNTIME140.dll
 0002:00008e84       __IMPORT_DESCRIPTOR_api-ms-win-crt-string-l1-1-0 10021e84     ucrt:api-ms-win-crt-string-l1-1-0.dll
 0002:00008e98       __IMPORT_DESCRIPTOR_api-ms-win-crt-stdio-l1-1-0 10021e98     ucrt:api-ms-win-crt-stdio-l1-1-0.dll
 0002:00008eac       __IMPORT_DESCRIPTOR_api-ms-win-crt-utility-l1-1-0 10021eac     ucrt:api-ms-win-crt-utility-l1-1-0.dll
 0002:00008ec0       __IMPORT_DESCRIPTOR_api-ms-win-crt-time-l1-1-0 10021ec0     ucrt:api-ms-win-crt-time-l1-1-0.dll
 0002:00008ed4       __IMPORT_DESCRIPTOR_api-ms-win-crt-math-l1-1-0 10021ed4     ucrt:api-ms-win-crt-math-l1-1-0.dll
 0002:00008ee8       __IMPORT_DESCRIPTOR_api-ms-win-crt-runtime-l1-1-0 10021ee8     ucrt:api-ms-win-crt-runtime-l1-1-0.dll
 0002:00008efc       __IMPORT_DESCRIPTOR_api-ms-win-crt-convert-l1-1-0 10021efc     ucrt:api-ms-win-crt-convert-l1-1-0.dll
 0002:00008f10       __IMPORT_DESCRIPTOR_api-ms-win-crt-heap-l1-1-0 10021f10     ucrt:api-ms-win-crt-heap-l1-1-0.dll
 0002:00008f24       __NULL_IMPORT_DESCRIPTOR   10021f24     mfc140u:mfc140u.dll
 0003:00000180       ___scrt_native_dllmain_reason 10023180     msvcrt:utility.obj
 0003:00000190       ___security_cookie_complement 10023190     msvcrt:gs_cookie.obj
 0003:00000194       ___security_cookie         10023194     msvcrt:gs_cookie.obj
 0003:00000198       __fltused                  10023198     msvcrt:fltused.obj
 0003:0000019c       __Init_global_epoch        1002319c     msvcrt:thread_safe_statics.obj
 0003:000001a0       ___isa_enabled             100231a0     msvcrt:_cpu_disp_.obj
 0003:000001a4       ___scrt_ucrt_dll_is_in_use 100231a4     msvcrt:ucrt_stubs.obj
 0003:000001a8       ??_R0?AUIUnknownEx@@@8     100231a8     AndroidUserItem.obj
 0003:000001c4       ??_R0?AUIAndroidUserItem@@@8 100231c4     AndroidUserItem.obj
 0003:000001e4       ??_R0?AV?$CWHArray@PAUtagTimerItem@@ABQAU1@@@@8 100231e4     AndroidUserItem.obj
 0003:00000218       ??_R0?AV?$CWHArray@PAUtagTableItem@@ABQAU1@@@@8 10023218     AndroidUserItem.obj
 0003:0000024c       ??_R0?AVCAndroidUserItem@@@8 1002324c     AndroidUserItem.obj
 0003:0000026c       ??_R0?AVCObject@@@8        1002326c     AndroidUserManager.obj
 0003:00000284       ??_R0H@8                   10023284     AndroidUserManager.obj
 0003:00000290       ??_R0?AUIAndroidUserManager@@@8 10023290     AndroidUserManager.obj
 0003:000002b4       ??_R0?AVCAndroidUserManager@@@8 100232b4     AndroidUserManager.obj
 0003:000002d8       ??_R0?AV?$CWHArray@PAVCAndroidUserItem@@ABQAV1@@@@8 100232d8     AndroidUserManager.obj
 0003:00000310       ??_R0?AV?$CWHArray@PAUtagAndroidAccountsInfo@@ABQAU1@@@@8 10023310     AndroidUserManager.obj
 0003:0000034c       ??_R0?AV?$CMap@KKPAVCAndroidUserItem@@PAV1@@@@8 1002334c     AndroidUserManager.obj
 0003:00000380       ??_R0?AV?$CWHArray@PAUtagAndroidLeaveInfo@@ABQAU1@@@@8 10023380     AndroidUserManager.obj
 0003:000003bc       ??_R0?AV?$CWHArray@UtagPropertyInfo@@ABU1@@@@8 100233bc     GamePropertyManager.obj
 0003:000003f0       ??_R0?AVCGamePropertyManager@@@8 100233f0     GamePropertyManager.obj
 0003:00000414       ??_R0?AUIServerUserItem@@@8 10023414     ServerUserManager.obj
 0003:00000434       ??_R0?AUIServerUserManager@@@8 10023434     ServerUserManager.obj
 0003:00000458       ??_R0?AUIServerUserService@@@8 10023458     ServerUserManager.obj
 0003:0000047c       ??_R0?AV?$CMap@HHPAUtagGameDataItem@@AAPAU1@@@@8 1002347c     ServerUserManager.obj
 0003:000004b0       ??_R0?AVCServerUserItem@@@8 100234b0     ServerUserManager.obj
 0003:000004d0       ??_R0?AVCServerUserManager@@@8 100234d0     ServerUserManager.obj
 0003:000004f4       ??_R0?AV?$CWHArray@PAVCServerUserItem@@ABQAV1@@@@8 100234f4     ServerUserManager.obj
 0003:0000052c       ??_R0?AV?$CMap@KKPAVCServerUserItem@@PAV1@@@@8 1002352c     ServerUserManager.obj
 0003:00000560       ??_R0PA_W@8                10023560     UserTaskManager.obj
 0003:00000570       ??_R0PAX@8                 10023570     UserTaskManager.obj
 0003:00000580       ??_R0?AUIUserTaskManagerSink@@@8 10023580     UserTaskManager.obj
 0003:000005a4       ??_R0?AV?$CWHArray@PAUtagUserTaskEntry@@ABQAU1@@@@8 100235a4     UserTaskManager.obj
 0003:000005dc       ??_R0?AV?$CWHArray@PAUtagTaskParameter@@ABQAU1@@@@8 100235dc     UserTaskManager.obj
 0003:00000614       ??_R0?AV?$CMap@GGPAUtagTaskParameter@@PAU1@@@@8 10023614     UserTaskManager.obj
 0003:00000648       ??_R0?AV?$CMap@KKPAUtagUserTaskEntry@@PAU1@@@@8 10023648     UserTaskManager.obj
 0003:0000067c       ??_R0?AVCUserTaskManager@@@8 1002367c     UserTaskManager.obj
 0003:0000069c       ??_R0?AVtype_info@@@8      1002369c     msvcrt:std_type_info_static.obj
 0003:000006b8       ?_OptionsStorage@?1??__local_stdio_printf_options@@9@4_KA 100236b8     AndroidUserItem.obj
 0003:000006c0       ?m_TimerItemBuffer@CAndroidUserItem@@1V?$CWHArray@PAUtagTimerItem@@ABQAU1@@@A 100236c0     AndroidUserItem.obj
 0003:000006d4       ?m_PropertyBuffMap@CGamePropertyManager@@1V?$map@KV?$vector@UtagPropertyBuff@@V?$allocator@UtagPropertyBuff@@@std@@@std@@U?$less@K@2@V?$allocator@U?$pair@$$CBKV?$vector@UtagPropertyBuff@@V?$allocator@UtagPropertyBuff@@@std@@@std@@@std@@@2@@std@@A 100236d4     GamePropertyManager.obj
 0003:000006f0       __afxForceEXTDLL           100236f0     GameService.obj
 0003:000006f4       ___@@_PchSym_@00@UhkzxvUtrgsfyUdswonUdswonUKlsKowKooKlsKooKqkKltKprKpyKluKqmKqsUKlvKorKpmKlqKqsKovKlsKqoKplKluKomKquUKltKorKorKltKrrKrkKltKqnKrmKluKrpKpyUivovzhvPfmrxlwvUhgwzucOlyq@ED793068BD83DC8D 100236f4     Stdafx.obj
 0003:000006f8       ?m_bInitFailed@CAtlBaseModule@ATL@@2_NA 100236f8     Stdafx.obj
 0003:000006fc       __afxForceEXCLUDE          100236fc     mfcs140u:nolib.obj
 0003:00000700       __afxForceSTDAFX           10023700     mfcs140u:stdafx.obj
 0003:00000704       ___scrt_current_native_startup_state 10023704     msvcrt:utility.obj
 0003:00000708       ___scrt_native_startup_lock 10023708     msvcrt:utility.obj
 0003:00000750       __tls_index                10023750     msvcrt:tlssup.obj
 0003:00000758       ___isa_available           10023758     msvcrt:_cpu_disp_.obj
 0003:0000075c       ___favor                   1002375c     msvcrt:_cpu_disp_.obj
 0003:00000760       ___scrt_debugger_hook_flag 10023760     msvcrt:utility_desktop.obj
 0003:00000a88       ?__type_info_root_node@@3U__type_info_node@@A 10023a88     msvcrt:tncleanup.obj
 0003:00000a90       ?_OptionsStorage@?1??__local_stdio_scanf_options@@9@4_KA 10023a90     msvcrt:default_local_stdio_options.obj
 0003:00000a98       ?_AtlBaseModule@ATL@@3VCAtlBaseModule@1@A 10023a98     atls:atlbase.obj
 0003:00000ad0       ___@@_PchSym_@00@UyrmzirvhUrmgvinvwrzgvUexgllohUzgohOmzgrevkilqPBACIAJCBDBUlyqiUcIGUhgwzucOlyq@400B0995F36844BC 10023ad0     atls:stdafx.obj
 0003:00000ad4       ___dyn_tls_init_callback   10023ad4     <common>
 0005:00000000       __tls_start                10025000     msvcrt:tlssup.obj
 0005:00000004       __Init_thread_epoch        10025004     msvcrt:thread_safe_statics.obj
 0005:00000008       __tls_end                  10025008     msvcrt:tlssup.obj

 entry point at        0001:00016b7b

 Static symbols

 0000:fffd7000       .debug$S                   10000000     ucrt:api-ms-win-crt-string-l1-1-0.dll
 0000:fffd7000       .debug$S                   10000000     ucrt:api-ms-win-crt-convert-l1-1-0.dll
 0000:fffd7000       .debug$S                   10000000     ucrt:api-ms-win-crt-time-l1-1-0.dll
 0000:fffd7000       .debug$S                   10000000     GameService.exp
 0000:fffd7000       .debug$S                   10000000     ucrt:api-ms-win-crt-utility-l1-1-0.dll
 0000:fffd7000       .debug$S                   10000000     ucrt:api-ms-win-crt-utility-l1-1-0.dll
 0000:fffd7000       .debug$S                   10000000     vcruntime:VCRUNTIME140.dll
 0000:fffd7000       .debug$S                   10000000     vcruntime:VCRUNTIME140.dll
 0000:fffd7000       .debug$S                   10000000     vcruntime:VCRUNTIME140.dll
 0000:fffd7000       .debug$S                   10000000     vcruntime:VCRUNTIME140.dll
 0000:fffd7000       .debug$S                   10000000     vcruntime:VCRUNTIME140.dll
 0000:fffd7000       .debug$S                   10000000     vcruntime:VCRUNTIME140.dll
 0000:fffd7000       .debug$S                   10000000     vcruntime:VCRUNTIME140.dll
 0000:fffd7000       .debug$S                   10000000     vcruntime:VCRUNTIME140.dll
 0000:fffd7000       .debug$S                   10000000     vcruntime:VCRUNTIME140.dll
 0000:fffd7000       .debug$S                   10000000     vcruntime:VCRUNTIME140.dll
 0000:fffd7000       .debug$S                   10000000     vcruntime:VCRUNTIME140.dll
 0000:fffd7000       .debug$S                   10000000     KernelEngine:KernelEngine.dll
 0000:fffd7000       .debug$S                   10000000     ServiceCore:ServiceCore.dll
 0000:fffd7000       .debug$S                   10000000     msvcprt:MSVCP140.dll
 0000:fffd7000       .debug$S                   10000000     msvcprt:MSVCP140.dll
 0002:fffe7000       .idata$6                   10000000     oleaut32:OLEAUT32.dll
 0000:fffd7000       .debug$S                   10000000     oleaut32:OLEAUT32.dll
 0000:fffd7000       .debug$S                   10000000     ucrt:api-ms-win-crt-heap-l1-1-0.dll
 0000:fffd7000       .debug$S                   10000000     ucrt:api-ms-win-crt-stdio-l1-1-0.dll
 0000:fffd7000       .debug$S                   10000000     ucrt:api-ms-win-crt-math-l1-1-0.dll
 0000:fffd7000       .debug$S                   10000000     ucrt:api-ms-win-crt-math-l1-1-0.dll
 0002:fffe7000       .idata$6                   10000000     user32:USER32.dll
 0000:fffd7000       .debug$S                   10000000     user32:USER32.dll
 0000:fffd7000       .debug$S                   10000000     kernel32:KERNEL32.dll
 0000:fffd7000       .debug$S                   10000000     kernel32:KERNEL32.dll
 0000:fffd7000       .debug$S                   10000000     kernel32:KERNEL32.dll
 0000:fffd7000       .debug$S                   10000000     kernel32:KERNEL32.dll
 0000:fffd7000       .debug$S                   10000000     kernel32:KERNEL32.dll
 0000:fffd7000       .debug$S                   10000000     kernel32:KERNEL32.dll
 0000:fffd7000       .debug$S                   10000000     kernel32:KERNEL32.dll
 0000:fffd7000       .debug$S                   10000000     kernel32:KERNEL32.dll
 0000:fffd7000       .debug$S                   10000000     kernel32:KERNEL32.dll
 0000:fffd7000       .debug$S                   10000000     kernel32:KERNEL32.dll
 0000:fffd7000       .debug$S                   10000000     kernel32:KERNEL32.dll
 0000:fffd7000       .debug$S                   10000000     kernel32:KERNEL32.dll
 0000:fffd7000       .debug$S                   10000000     kernel32:KERNEL32.dll
 0000:fffd7000       .debug$S                   10000000     kernel32:KERNEL32.dll
 0000:fffd7000       .debug$S                   10000000     kernel32:KERNEL32.dll
 0000:fffd7000       .debug$S                   10000000     kernel32:KERNEL32.dll
 0000:fffd7000       .debug$S                   10000000     kernel32:KERNEL32.dll
 0000:fffd7000       .debug$S                   10000000     kernel32:KERNEL32.dll
 0000:fffd7000       .debug$S                   10000000     kernel32:KERNEL32.dll
 0000:fffd7000       .debug$S                   10000000     kernel32:KERNEL32.dll
 0000:fffd7000       .debug$S                   10000000     kernel32:KERNEL32.dll
 0000:fffd7000       .debug$S                   10000000     kernel32:KERNEL32.dll
 0000:fffd7000       .debug$S                   10000000     kernel32:KERNEL32.dll
 0000:fffd7000       .debug$S                   10000000     kernel32:KERNEL32.dll
 0000:fffd7000       .debug$S                   10000000     kernel32:KERNEL32.dll
 0000:fffd7000       .debug$S                   10000000     kernel32:KERNEL32.dll
 0000:fffd7000       .debug$S                   10000000     kernel32:KERNEL32.dll
 0000:fffd7000       .debug$S                   10000000     kernel32:KERNEL32.dll
 0000:fffd7000       .debug$S                   10000000     kernel32:KERNEL32.dll
 0000:fffd7000       .debug$S                   10000000     kernel32:KERNEL32.dll
 0000:fffd7000       .debug$S                   10000000     kernel32:KERNEL32.dll
 0000:fffd7000       .debug$S                   10000000     kernel32:KERNEL32.dll
 0000:fffd7000       .debug$S                   10000000     kernel32:KERNEL32.dll
 0000:fffd7000       .debug$S                   10000000     kernel32:KERNEL32.dll
 0000:fffd7000       .debug$S                   10000000     kernel32:KERNEL32.dll
 0000:fffd7000       .debug$S                   10000000     kernel32:KERNEL32.dll
 0000:fffd7000       .debug$S                   10000000     kernel32:KERNEL32.dll
 0000:fffd7000       .debug$S                   10000000     kernel32:KERNEL32.dll
 0000:fffd7000       .debug$S                   10000000     kernel32:KERNEL32.dll
 0000:fffd7000       .debug$S                   10000000     kernel32:KERNEL32.dll
 0000:fffd7000       .debug$S                   10000000     kernel32:KERNEL32.dll
 0000:fffd7000       .debug$S                   10000000     kernel32:KERNEL32.dll
 0000:fffd7000       .debug$S                   10000000     kernel32:KERNEL32.dll
 0000:fffd7000       .debug$S                   10000000     ucrt:api-ms-win-crt-stdio-l1-1-0.dll
 0000:fffd7000       .debug$S                   10000000     ucrt:api-ms-win-crt-math-l1-1-0.dll
 0000:fffd7000       .debug$S                   10000000     ucrt:api-ms-win-crt-stdio-l1-1-0.dll
 0000:fffd7000       .debug$S                   10000000     ucrt:api-ms-win-crt-runtime-l1-1-0.dll
 0000:fffd7000       .debug$S                   10000000     ucrt:api-ms-win-crt-runtime-l1-1-0.dll
 0000:fffd7000       .debug$S                   10000000     ucrt:api-ms-win-crt-heap-l1-1-0.dll
 0000:fffd7000       .debug$S                   10000000     mfc140u:mfc140u.dll
 0000:fffd7000       .debug$S                   10000000     mfc140u:mfc140u.dll
 0000:fffd7000       .debug$S                   10000000     mfc140u:mfc140u.dll
 0000:fffd7000       .debug$S                   10000000     mfc140u:mfc140u.dll
 0000:fffd7000       .debug$S                   10000000     ucrt:api-ms-win-crt-runtime-l1-1-0.dll
 0000:fffd7000       .debug$S                   10000000     ucrt:api-ms-win-crt-runtime-l1-1-0.dll
 0000:fffd7000       .debug$S                   10000000     ucrt:api-ms-win-crt-runtime-l1-1-0.dll
 0000:fffd7000       .debug$S                   10000000     ucrt:api-ms-win-crt-runtime-l1-1-0.dll
 0000:fffd7000       .debug$S                   10000000     ucrt:api-ms-win-crt-runtime-l1-1-0.dll
 0000:fffd7000       .debug$S                   10000000     ucrt:api-ms-win-crt-runtime-l1-1-0.dll
 0000:fffd7000       .debug$S                   10000000     ucrt:api-ms-win-crt-runtime-l1-1-0.dll
 0000:fffd7000       .debug$S                   10000000     mfc140u:mfc140u.dll
 0000:fffd7000       .debug$S                   10000000     ucrt:api-ms-win-crt-runtime-l1-1-0.dll
 0000:fffd7000       .debug$S                   10000000     mfc140u:mfc140u.dll
 0000:fffd7000       .debug$S                   10000000     mfc140u:mfc140u.dll
 0000:fffd7000       .debug$S                   10000000     ucrt:api-ms-win-crt-runtime-l1-1-0.dll
 0000:fffd7000       .debug$S                   10000000     ucrt:api-ms-win-crt-runtime-l1-1-0.dll
 0000:fffd7000       .debug$S                   10000000     ucrt:api-ms-win-crt-runtime-l1-1-0.dll
 0000:fffd7000       .debug$S                   10000000     ucrt:api-ms-win-crt-runtime-l1-1-0.dll
 0000:fffd7000       .debug$S                   10000000     mfc140u:mfc140u.dll
 0000:fffd7000       .debug$S                   10000000     ucrt:api-ms-win-crt-runtime-l1-1-0.dll
 0000:fffd7000       .debug$S                   10000000     mfc140u:mfc140u.dll
 0000:fffd7000       .debug$S                   10000000     mfc140u:mfc140u.dll
 0000:fffd7000       .debug$S                   10000000     mfc140u:mfc140u.dll
 0000:fffd7000       .debug$S                   10000000     mfc140u:mfc140u.dll
 0000:fffd7000       .debug$S                   10000000     mfc140u:mfc140u.dll
 0000:fffd7000       .debug$S                   10000000     mfc140u:mfc140u.dll
 0000:fffd7000       .debug$S                   10000000     mfc140u:mfc140u.dll
 0000:fffd7000       .debug$S                   10000000     mfc140u:mfc140u.dll
 0000:fffd7000       .debug$S                   10000000     mfc140u:mfc140u.dll
 0000:fffd7000       .debug$S                   10000000     mfc140u:mfc140u.dll
 0000:fffd7000       .debug$S                   10000000     mfc140u:mfc140u.dll
 0000:fffd7000       .debug$S                   10000000     mfc140u:mfc140u.dll
 0000:fffd7000       .debug$S                   10000000     mfc140u:mfc140u.dll
 0000:fffd7000       .debug$S                   10000000     mfc140u:mfc140u.dll
 0000:fffd7000       .debug$S                   10000000     mfc140u:mfc140u.dll
 0000:fffd7000       .debug$S                   10000000     mfc140u:mfc140u.dll
 0000:fffd7000       .debug$S                   10000000     mfc140u:mfc140u.dll
 0000:fffd7000       .debug$S                   10000000     mfc140u:mfc140u.dll
 0000:fffd7000       .debug$S                   10000000     mfc140u:mfc140u.dll
 0000:fffd7000       .debug$S                   10000000     mfc140u:mfc140u.dll
 0000:fffd7000       .debug$S                   10000000     mfc140u:mfc140u.dll
 0000:fffd7000       .debug$S                   10000000     mfc140u:mfc140u.dll
 0000:fffd7000       .debug$S                   10000000     mfc140u:mfc140u.dll
 0000:fffd7000       .debug$S                   10000000     mfc140u:mfc140u.dll
 0001:00000000       ??__E?m_TimerItemBuffer@CAndroidUserItem@@1V?$CWHArray@PAUtagTimerItem@@ABQAU1@@@A@@YAXXZ 10001000 f   AndroidUserItem.obj
 0001:00000020       ??__E?m_PropertyBuffMap@CGamePropertyManager@@1V?$map@KV?$vector@UtagPropertyBuff@@V?$allocator@UtagPropertyBuff@@@std@@@std@@U?$less@K@2@V?$allocator@U?$pair@$$CBKV?$vector@UtagPropertyBuff@@V?$allocator@UtagPropertyBuff@@@std@@@std@@@std@@@2@@std@@A@@YAXXZ 10001020 f   GamePropertyManager.obj
 0001:0000003c       ??__E_AtlBaseModule@ATL@@YAXXZ 1000103c f   atls:atlbase.obj
 0001:00000060       _time                      10001060 f   AndroidUserItem.obj
 0001:00000080       ?sqrtEx@@YAEMM@Z           10001080 f   AndroidUserItem.obj
 0001:0000037a       __catch$??1CAndroidUserItem@@UAE@XZ$0 1000137a f   AndroidUserItem.obj
 0001:000003f7       __catch$??1CAndroidUserItem@@UAE@XZ$2 100013f7 f   AndroidUserItem.obj
 0001:00000472       __catch$??1CAndroidUserItem@@UAE@XZ$4 10001472 f   AndroidUserItem.obj
 0001:000010e9       __catch$?SetGameTimer@CAndroidUserItem@@UAE_NII@Z$0 100020e9 f   AndroidUserItem.obj
 0001:00001a36       __catch$?OnTimerPulse@CAndroidUserItem@@QAE_NKI@Z$0 10002a36 f   AndroidUserItem.obj
 0001:000023cb       __catch$?OnSocketGameMessage@CAndroidUserItem@@IAE_NGGPAXG@Z$0 100033cb f   AndroidUserItem.obj
 0001:000026d3       __catch$?RepositUserItem@CAndroidUserItem@@QAEXXZ$0 100036d3 f   AndroidUserItem.obj
 0001:000039e0       _time                      100049e0 f   AndroidUserManager.obj
 0001:00003a00       ?GetServerTimeSlotIndex@@YAEUtagRoomAIParameter@@@Z 10004a00 f   AndroidUserManager.obj
 0001:00003ef0       __catch$?ConcludeService@CAndroidUserManager@@UAE_NXZ$0 10004ef0 f   AndroidUserManager.obj
 0001:0000405e       __catch$?ConcludeService@CAndroidUserManager@@UAE_NXZ$2 1000505e f   AndroidUserManager.obj
 0001:000040e7       __catch$?ConcludeService@CAndroidUserManager@@UAE_NXZ$4 100050e7 f   AndroidUserManager.obj
 0001:00004170       __catch$?ConcludeService@CAndroidUserManager@@UAE_NXZ$6 10005170 f   AndroidUserManager.obj
 0001:0000555c       __catch$?DeleteAndroidUserItem@CAndroidUserManager@@UAE_NK_N@Z$0 1000655c f   AndroidUserManager.obj
 0001:00005769       __catch$?CreateAndroidUserItem@CAndroidUserManager@@UAEPAUIAndroidUserItem@@AAUtagAndroidAccountsInfo@@@Z$0 10006769 f   AndroidUserManager.obj
 0001:000059c7       __catch$?CreateAndroidUserItem@CAndroidUserManager@@UAEPAUIAndroidUserItem@@AAUtagAndroidAccountsInfo@@@Z$2 100069c7 f   AndroidUserManager.obj
 0001:00006167       __catch$?OnEventTimerPulse@CAndroidUserManager@@UAE_NKI@Z$0 10007167 f   AndroidUserManager.obj
 0001:0000660c       $LN20                      1000760c     AndroidUserManager.obj
 0001:00006789       __catch$?SendDataToClient@CAndroidUserManager@@UAE_NGGPAXG@Z$0 10007789 f   AndroidUserManager.obj
 0001:000068b3       __catch$?SendDataToClient@CAndroidUserManager@@UAE_NKGGPAXG@Z$0 100078b3 f   AndroidUserManager.obj
 0001:00006992       __catch$?SendDataToServer@CAndroidUserManager@@UAE_NKGGPAXG@Z$0 10007992 f   AndroidUserManager.obj
 0001:00006e92       __catch$?ActiveAndroidUserItem@CAndroidUserManager@@IAEPAVCAndroidUserItem@@AAUtagAndroidAccountsInfo@@@Z$0 10007e92 f   AndroidUserManager.obj
 0001:00006fdc       __catch$?ActiveAndroidUserItem@CAndroidUserManager@@IAEPAVCAndroidUserItem@@AAUtagAndroidAccountsInfo@@@Z$2 10007fdc f   AndroidUserManager.obj
 0001:0000715b       __catch$?ActiveAndroidUserInfo@CAndroidUserManager@@IAEPAUtagAndroidAccountsInfo@@AAU2@@Z$0 1000815b f   AndroidUserManager.obj
 0001:000087e3       __catch$??$_Buynode@ABVSortTop@@@?$_List_buy@VSortTop@@V?$allocator@VSortTop@@@std@@@std@@QAEPAU?$_List_node@VSortTop@@PAX@1@PAU21@0ABVSortTop@@@Z$0 100097e3 f i AndroidUserManager.obj
 0001:000087e3       __catch$??$_Buynode@VSortTop@@@?$_List_buy@VSortTop@@V?$allocator@VSortTop@@@std@@@std@@QAEPAU?$_List_node@VSortTop@@PAX@1@PAU21@0$$QAVSortTop@@@Z$0 100097e3 f i AndroidUserManager.obj
 0001:0000892c       __catch$??$_Insert_range@V?$_List_const_iterator@V?$_List_val@U?$_List_simple_types@VSortTop@@@std@@@std@@@std@@@?$list@VSortTop@@V?$allocator@VSortTop@@@std@@@std@@QAEXV?$_List_unchecked_const_iterator@V?$_List_val@U?$_List_simple_types@VSortTop@@@std@@@std@@U_Iterator_base0@2@@1@V?$_List_const_iterator@V?$_List_val@U?$_List_simple_types@VSortTop@@@std@@@std@@@1@1Uforward_iterator_tag@1@@Z$0 1000992c f i AndroidUserManager.obj
 0001:000090fc       __catch$??0?$list@VSortTop@@V?$allocator@VSortTop@@@std@@@std@@QAE@ABV01@@Z$0 1000a0fc f i AndroidUserManager.obj
 0001:0000a9dc       __catch$?_Buynode0@?$_List_alloc@U?$_List_base_types@VSortTop@@V?$allocator@VSortTop@@@std@@@std@@@std@@QAEPAU?$_List_node@VSortTop@@PAX@2@PAU32@0@Z$0 1000b9dc f i AndroidUserManager.obj
 0001:0000b560       _time                      1000c560 f   GamePropertyManager.obj
 0001:0000bb73       __catch$??$_Buynode@ABUpiecewise_construct_t@std@@V?$tuple@ABK@2@V?$tuple@$$V@2@@?$_Tree_comp_alloc@V?$_Tmap_traits@KV?$vector@UtagPropertyBuff@@V?$allocator@UtagPropertyBuff@@@std@@@std@@U?$less@K@2@V?$allocator@U?$pair@$$CBKV?$vector@UtagPropertyBuff@@V?$allocator@UtagPropertyBuff@@@std@@@std@@@std@@@2@$0A@@std@@@std@@QAEPAU?$_Tree_node@U?$pair@$$CBKV?$vector@UtagPropertyBuff@@V?$allocator@UtagPropertyBuff@@@std@@@std@@@std@@PAX@1@ABUpiecewise_construct_t@1@$$QAV?$tuple@ABK@1@$$QAV?$tuple@$$V@1@@Z$0 1000cb73 f i GamePropertyManager.obj
 0001:0000ca74       __catch$??$_Insert_hint@AAU?$pair@$$CBKV?$vector@UtagPropertyBuff@@V?$allocator@UtagPropertyBuff@@@std@@@std@@@std@@PAU?$_Tree_node@U?$pair@$$CBKV?$vector@UtagPropertyBuff@@V?$allocator@UtagPropertyBuff@@@std@@@std@@@std@@PAX@2@@?$_Tree@V?$_Tmap_traits@KV?$vector@UtagPropertyBuff@@V?$allocator@UtagPropertyBuff@@@std@@@std@@U?$less@K@2@V?$allocator@U?$pair@$$CBKV?$vector@UtagPropertyBuff@@V?$allocator@UtagPropertyBuff@@@std@@@std@@@std@@@2@$0A@@std@@@std@@IAE?AV?$_Tree_iterator@V?$_Tree_val@U?$_Tree_simple_types@U?$pair@$$CBKV?$vector@UtagPropertyBuff@@V?$allocator@UtagPropertyBuff@@@std@@@std@@@std@@@std@@@std@@@1@V?$_Tree_const_iterator@V?$_Tree_val@U?$_Tree_simple_types@U?$pair@$$CBKV?$vector@UtagPropertyBuff@@V?$allocator@UtagPropertyBuff@@@std@@@std@@@std@@@std@@@std@@@1@AAU?$pair@$$CBKV?$vector@UtagPropertyBuff@@V?$allocator@UtagPropertyBuff@@@std@@@std@@@1@PAU?$_Tree_node@U?$pair@$$CBKV?$vector@UtagPropertyBuff@@V?$allocator@UtagPropertyBuff@@@std@@@std@@@std@@PAX@1@@Z$0 1000da74 f i GamePropertyManager.obj
 0001:0000cddd       __catch$??$_Insert_nohint@AAU?$pair@$$CBKV?$vector@UtagPropertyBuff@@V?$allocator@UtagPropertyBuff@@@std@@@std@@@std@@PAU?$_Tree_node@U?$pair@$$CBKV?$vector@UtagPropertyBuff@@V?$allocator@UtagPropertyBuff@@@std@@@std@@@std@@PAX@2@@?$_Tree@V?$_Tmap_traits@KV?$vector@UtagPropertyBuff@@V?$allocator@UtagPropertyBuff@@@std@@@std@@U?$less@K@2@V?$allocator@U?$pair@$$CBKV?$vector@UtagPropertyBuff@@V?$allocator@UtagPropertyBuff@@@std@@@std@@@std@@@2@$0A@@std@@@std@@IAE?AU?$pair@V?$_Tree_iterator@V?$_Tree_val@U?$_Tree_simple_types@U?$pair@$$CBKV?$vector@UtagPropertyBuff@@V?$allocator@UtagPropertyBuff@@@std@@@std@@@std@@@std@@@std@@@std@@_N@1@_NAAU?$pair@$$CBKV?$vector@UtagPropertyBuff@@V?$allocator@UtagPropertyBuff@@@std@@@std@@@1@PAU?$_Tree_node@U?$pair@$$CBKV?$vector@UtagPropertyBuff@@V?$allocator@UtagPropertyBuff@@@std@@@std@@@std@@PAX@1@@Z$0 1000dddd f i GamePropertyManager.obj
 0001:0000d7c2       __catch$??0?$vector@UtagPropertyBuff@@V?$allocator@UtagPropertyBuff@@@std@@@std@@QAE@ABV01@@Z$0 1000e7c2 f i GamePropertyManager.obj
 0001:0000e269       __catch$?_Buyheadnode@?$_Tree_comp_alloc@V?$_Tmap_traits@KV?$vector@UtagPropertyBuff@@V?$allocator@UtagPropertyBuff@@@std@@@std@@U?$less@K@2@V?$allocator@U?$pair@$$CBKV?$vector@UtagPropertyBuff@@V?$allocator@UtagPropertyBuff@@@std@@@std@@@std@@@2@$0A@@std@@@std@@QAEPAU?$_Tree_node@U?$pair@$$CBKV?$vector@UtagPropertyBuff@@V?$allocator@UtagPropertyBuff@@@std@@@std@@@std@@PAX@2@XZ$0 1000f269 f i GamePropertyManager.obj
 0001:0000e3b8       __catch$?_Buynode0@?$_Tree_comp_alloc@V?$_Tmap_traits@KV?$vector@UtagPropertyBuff@@V?$allocator@UtagPropertyBuff@@@std@@@std@@U?$less@K@2@V?$allocator@U?$pair@$$CBKV?$vector@UtagPropertyBuff@@V?$allocator@UtagPropertyBuff@@@std@@@std@@@std@@@2@$0A@@std@@@std@@QAEPAU?$_Tree_node@U?$pair@$$CBKV?$vector@UtagPropertyBuff@@V?$allocator@UtagPropertyBuff@@@std@@@std@@@std@@PAX@2@XZ$0 1000f3b8 f i GamePropertyManager.obj
 0001:0000ebb0       __catch$?_Reallocate@?$vector@UtagPropertyBuff@@V?$allocator@UtagPropertyBuff@@@std@@@std@@IAEXI@Z$0 1000fbb0 f i GamePropertyManager.obj
 0001:00010010       _time                      10011010 f   ServerUserManager.obj
 0001:00010435       __catch$??1CServerUserItem@@MAE@XZ$0 10011435 f   ServerUserManager.obj
 0001:00010913       __catch$?SetUserGameData@CServerUserItem@@UAEXHPB_WH@Z$0 10011913 f   ServerUserManager.obj
 0001:00011438       $LN18                      10012438     ServerUserManager.obj
 0001:00011f24       __catch$?ResetUserItem@CServerUserItem@@AAEXXZ$0 10012f24 f   ServerUserManager.obj
 0001:00012004       __catch$?InitUserGameDataMap@CServerUserItem@@AAEXXZ$0 10013004 f   ServerUserManager.obj
 0001:00012d58       __catch$?InsertUserItem@CServerUserManager@@UAE_NPAPAUIServerUserItem@@AAUtagUserInfo@@AAUtagUserInfoPlus@@@Z$0 10013d58 f   ServerUserManager.obj
 0001:0001431f       __catch$??1CUserTaskManager@@UAE@XZ$0 1001531f f   UserTaskManager.obj
 0001:0001439f       __catch$??1CUserTaskManager@@UAE@XZ$2 1001539f f   UserTaskManager.obj
 0001:0001442f       __catch$??1CUserTaskManager@@UAE@XZ$4 1001542f f   UserTaskManager.obj
 0001:0001449a       __catch$??1CUserTaskManager@@UAE@XZ$6 1001549a f   UserTaskManager.obj
 0001:000147f8       __catch$?AddTaskParameter@CUserTaskManager@@UAE_NQAUtagTaskParameter@@G@Z$0 100157f8 f   UserTaskManager.obj
 0001:00014bbd       __catch$?CreateUserTaskEntry@CUserTaskManager@@IAEPAUtagUserTaskEntry@@XZ$0 10015bbd f   UserTaskManager.obj
 0001:00014bda       __catch$?CreateUserTaskEntry@CUserTaskManager@@IAEPAUtagUserTaskEntry@@XZ$1 10015bda f   UserTaskManager.obj
 0001:00015fe3       ?find_pe_section@@YAPAU_IMAGE_SECTION_HEADER@@QAEI@Z 10016fe3 f   msvcrt:utility.obj
 0001:00016330       $$000000                   10017330     msvcrt:lldiv.obj
 0001:000163e0       $$000000                   100173e0     msvcrt:_ftol3_.obj
 0001:0001677a       ?__scrt_initialize_thread_safe_statics@@YAHXZ 1001777a f   msvcrt:thread_safe_statics.obj
 0001:00016857       ?__scrt_uninitialize_thread_safe_statics@@YAXXZ 10017857 f   msvcrt:thread_safe_statics.obj
 0001:00016873       ?dllmain_crt_dispatch@@YGHQAUHINSTANCE__@@KQAX@Z 10017873 f   msvcrt:dll_dllmain.obj
 0001:000168c6       ?dllmain_crt_process_attach@@YAHQAUHINSTANCE__@@QAX@Z 100178c6 f   msvcrt:dll_dllmain.obj
 0001:000169d8       ?dllmain_crt_process_detach@@YAH_N@Z 100179d8 f   msvcrt:dll_dllmain.obj
 0001:00016a55       ?dllmain_dispatch@@YAHQAUHINSTANCE__@@KQAX@Z 10017a55 f   msvcrt:dll_dllmain.obj
 0001:00016b51       ?dllmain_raw@@YGHQAUHINSTANCE__@@KQAX@Z 10017b51 f   msvcrt:dll_dllmain.obj
 0001:00016bb0       $$000000                   10017bb0     msvcrt:_sehprolg4_.obj
 0001:00016c10       $$000000                   10017c10     msvcrt:_sehprolg4gs_.obj
 0001:00017300       __unwindfunclet$??0CAndroidUserItem@@QAE@XZ$0 10018300 f   AndroidUserItem.obj
 0001:0001730b       __unwindfunclet$??0CAndroidUserItem@@QAE@XZ$1 1001830b f   AndroidUserItem.obj
 0001:00017316       __ehhandler$??0CAndroidUserItem@@QAE@XZ 10018316 f   AndroidUserItem.obj
 0001:00017331       __unwindfunclet$??1CAndroidUserItem@@UAE@XZ$6 10018331 f   AndroidUserItem.obj
 0001:0001733c       __unwindfunclet$??1CAndroidUserItem@@UAE@XZ$7 1001833c f   AndroidUserItem.obj
 0001:00017347       __ehhandler$??1CAndroidUserItem@@UAE@XZ 10018347 f   AndroidUserItem.obj
 0001:00017362       __ehhandler$?SetGameTimer@CAndroidUserItem@@UAE_NII@Z 10018362 f   AndroidUserItem.obj
 0001:0001737d       __unwindfunclet$?OnTimerPulse@CAndroidUserItem@@QAE_NKI@Z$2 1001837d f   AndroidUserItem.obj
 0001:00017386       __ehhandler$?OnTimerPulse@CAndroidUserItem@@QAE_NKI@Z 10018386 f   AndroidUserItem.obj
 0001:000173a1       __unwindfunclet$?OnSocketGameMessage@CAndroidUserItem@@IAE_NGGPAXG@Z$2 100183a1 f   AndroidUserItem.obj
 0001:000173aa       __ehhandler$?OnSocketGameMessage@CAndroidUserItem@@IAE_NGGPAXG@Z 100183aa f   AndroidUserItem.obj
 0001:000173c5       __ehhandler$?RepositUserItem@CAndroidUserItem@@QAEXXZ 100183c5 f   AndroidUserItem.obj
 0001:000173e0       __unwindfunclet$??0CAndroidUserManager@@QAE@XZ$0 100183e0 f   AndroidUserManager.obj
 0001:000173ee       __unwindfunclet$??0CAndroidUserManager@@QAE@XZ$1 100183ee f   AndroidUserManager.obj
 0001:000173fc       __unwindfunclet$??0CAndroidUserManager@@QAE@XZ$2 100183fc f   AndroidUserManager.obj
 0001:0001740a       __unwindfunclet$??0CAndroidUserManager@@QAE@XZ$3 1001840a f   AndroidUserManager.obj
 0001:00017418       __unwindfunclet$??0CAndroidUserManager@@QAE@XZ$4 10018418 f   AndroidUserManager.obj
 0001:00017426       __unwindfunclet$??0CAndroidUserManager@@QAE@XZ$5 10018426 f   AndroidUserManager.obj
 0001:00017434       __ehhandler$??0CAndroidUserManager@@QAE@XZ 10018434 f   AndroidUserManager.obj
 0001:0001744f       __ehhandler$?ConcludeService@CAndroidUserManager@@UAE_NXZ 1001844f f   AndroidUserManager.obj
 0001:0001746a       __unwindfunclet$?InitAndroidUser@CAndroidUserManager@@UAE_NAAUtagAndroidUserParameter@@@Z$0 1001846a f   AndroidUserManager.obj
 0001:00017476       __unwindfunclet$?InitAndroidUser@CAndroidUserManager@@UAE_NAAUtagAndroidUserParameter@@@Z$1 10018476 f   AndroidUserManager.obj
 0001:00017482       __unwindfunclet$?InitAndroidUser@CAndroidUserManager@@UAE_NAAUtagAndroidUserParameter@@@Z$2 10018482 f   AndroidUserManager.obj
 0001:0001748e       __unwindfunclet$?InitAndroidUser@CAndroidUserManager@@UAE_NAAUtagAndroidUserParameter@@@Z$3 1001848e f   AndroidUserManager.obj
 0001:0001749a       __unwindfunclet$?InitAndroidUser@CAndroidUserManager@@UAE_NAAUtagAndroidUserParameter@@@Z$4 1001849a f   AndroidUserManager.obj
 0001:000174a6       __unwindfunclet$?InitAndroidUser@CAndroidUserManager@@UAE_NAAUtagAndroidUserParameter@@@Z$5 100184a6 f   AndroidUserManager.obj
 0001:000174b2       __unwindfunclet$?InitAndroidUser@CAndroidUserManager@@UAE_NAAUtagAndroidUserParameter@@@Z$6 100184b2 f   AndroidUserManager.obj
 0001:000174be       __unwindfunclet$?InitAndroidUser@CAndroidUserManager@@UAE_NAAUtagAndroidUserParameter@@@Z$7 100184be f   AndroidUserManager.obj
 0001:000174ca       __unwindfunclet$?InitAndroidUser@CAndroidUserManager@@UAE_NAAUtagAndroidUserParameter@@@Z$8 100184ca f   AndroidUserManager.obj
 0001:000174d6       __unwindfunclet$?InitAndroidUser@CAndroidUserManager@@UAE_NAAUtagAndroidUserParameter@@@Z$9 100184d6 f   AndroidUserManager.obj
 0001:000174e2       __unwindfunclet$?InitAndroidUser@CAndroidUserManager@@UAE_NAAUtagAndroidUserParameter@@@Z$10 100184e2 f   AndroidUserManager.obj
 0001:000174ee       __unwindfunclet$?InitAndroidUser@CAndroidUserManager@@UAE_NAAUtagAndroidUserParameter@@@Z$11 100184ee f   AndroidUserManager.obj
 0001:000174fa       __unwindfunclet$?InitAndroidUser@CAndroidUserManager@@UAE_NAAUtagAndroidUserParameter@@@Z$12 100184fa f   AndroidUserManager.obj
 0001:00017506       __unwindfunclet$?InitAndroidUser@CAndroidUserManager@@UAE_NAAUtagAndroidUserParameter@@@Z$13 10018506 f   AndroidUserManager.obj
 0001:00017512       __unwindfunclet$?InitAndroidUser@CAndroidUserManager@@UAE_NAAUtagAndroidUserParameter@@@Z$14 10018512 f   AndroidUserManager.obj
 0001:0001751e       __ehhandler$?InitAndroidUser@CAndroidUserManager@@UAE_NAAUtagAndroidUserParameter@@@Z 1001851e f   AndroidUserManager.obj
 0001:00017546       __unwindfunclet$?RemoveAndroidParameter@CAndroidUserManager@@UAE_NXZ$0 10018546 f   AndroidUserManager.obj
 0001:0001754e       __ehhandler$?RemoveAndroidParameter@CAndroidUserManager@@UAE_NXZ 1001854e f   AndroidUserManager.obj
 0001:00017569       __ehhandler$?DeleteAndroidUserItem@CAndroidUserManager@@UAE_NK_N@Z 10018569 f   AndroidUserManager.obj
 0001:00017584       __ehhandler$?CreateAndroidUserItem@CAndroidUserManager@@UAEPAUIAndroidUserItem@@AAUtagAndroidAccountsInfo@@@Z 10018584 f   AndroidUserManager.obj
 0001:000175ac       __ehhandler$?OnEventTimerPulse@CAndroidUserManager@@UAE_NKI@Z 100185ac f   AndroidUserManager.obj
 0001:000175c7       __ehhandler$?SendDataToClient@CAndroidUserManager@@UAE_NGGPAXG@Z 100185c7 f   AndroidUserManager.obj
 0001:000175e2       __ehhandler$?SendDataToClient@CAndroidUserManager@@UAE_NKGGPAXG@Z 100185e2 f   AndroidUserManager.obj
 0001:000175fd       __unwindfunclet$?SendDataToServer@CAndroidUserManager@@UAE_NKGGPAXG@Z$2 100185fd f   AndroidUserManager.obj
 0001:00017606       __ehhandler$?SendDataToServer@CAndroidUserManager@@UAE_NKGGPAXG@Z 10018606 f   AndroidUserManager.obj
 0001:00017621       __unwindfunclet$?ActiveAndroidUserItem@CAndroidUserManager@@IAEPAVCAndroidUserItem@@AAUtagAndroidAccountsInfo@@@Z$4 10018621 f   AndroidUserManager.obj
 0001:00017633       __ehhandler$?ActiveAndroidUserItem@CAndroidUserManager@@IAEPAVCAndroidUserItem@@AAUtagAndroidAccountsInfo@@@Z 10018633 f   AndroidUserManager.obj
 0001:0001764e       __unwindfunclet$?ActiveAndroidUserInfo@CAndroidUserManager@@IAEPAUtagAndroidAccountsInfo@@AAU2@@Z$2 1001864e f   AndroidUserManager.obj
 0001:0001765d       __ehhandler$?ActiveAndroidUserInfo@CAndroidUserManager@@IAEPAUtagAndroidAccountsInfo@@AAU2@@Z 1001865d f   AndroidUserManager.obj
 0001:00017678       __unwindfunclet$?AnalyseAndroidItemArrayLeave@CAndroidUserManager@@IAEXXZ$0 10018678 f   AndroidUserManager.obj
 0001:00017680       __unwindfunclet$?AnalyseAndroidItemArrayLeave@CAndroidUserManager@@IAEXXZ$1 10018680 f   AndroidUserManager.obj
 0001:00017688       __unwindfunclet$?AnalyseAndroidItemArrayLeave@CAndroidUserManager@@IAEXXZ$2 10018688 f   AndroidUserManager.obj
 0001:00017690       __unwindfunclet$?AnalyseAndroidItemArrayLeave@CAndroidUserManager@@IAEXXZ$3 10018690 f   AndroidUserManager.obj
 0001:00017698       __unwindfunclet$?AnalyseAndroidItemArrayLeave@CAndroidUserManager@@IAEXXZ$4 10018698 f   AndroidUserManager.obj
 0001:000176a3       __unwindfunclet$?AnalyseAndroidItemArrayLeave@CAndroidUserManager@@IAEXXZ$5 100186a3 f   AndroidUserManager.obj
 0001:000176ae       __unwindfunclet$?AnalyseAndroidItemArrayLeave@CAndroidUserManager@@IAEXXZ$6 100186ae f   AndroidUserManager.obj
 0001:000176b9       __unwindfunclet$?AnalyseAndroidItemArrayLeave@CAndroidUserManager@@IAEXXZ$7 100186b9 f   AndroidUserManager.obj
 0001:000176c4       __unwindfunclet$?AnalyseAndroidItemArrayLeave@CAndroidUserManager@@IAEXXZ$8 100186c4 f   AndroidUserManager.obj
 0001:000176cf       __unwindfunclet$?AnalyseAndroidItemArrayLeave@CAndroidUserManager@@IAEXXZ$9 100186cf f   AndroidUserManager.obj
 0001:000176da       __unwindfunclet$?AnalyseAndroidItemArrayLeave@CAndroidUserManager@@IAEXXZ$10 100186da f   AndroidUserManager.obj
 0001:000176e5       __unwindfunclet$?AnalyseAndroidItemArrayLeave@CAndroidUserManager@@IAEXXZ$11 100186e5 f   AndroidUserManager.obj
 0001:000176f0       __ehhandler$?AnalyseAndroidItemArrayLeave@CAndroidUserManager@@IAEXXZ 100186f0 f   AndroidUserManager.obj
 0001:0001770e       __unwindfunclet$?AnalyseLeaveGradeListValid@CAndroidUserManager@@IAE_NKV?$list@VSortTop@@V?$allocator@VSortTop@@@std@@@std@@H@Z$0 1001870e f   AndroidUserManager.obj
 0001:00017716       __ehhandler$?AnalyseLeaveGradeListValid@CAndroidUserManager@@IAE_NKV?$list@VSortTop@@V?$allocator@VSortTop@@@std@@@std@@H@Z 10018716 f   AndroidUserManager.obj
 0001:00017731       __unwindfunclet$?EfficacyAndroidInOut@CAndroidUserManager@@IAE_N_N@Z$0 10018731 f   AndroidUserManager.obj
 0001:0001773a       __ehhandler$?EfficacyAndroidInOut@CAndroidUserManager@@IAE_N_N@Z 1001873a f   AndroidUserManager.obj
 0001:00017758       __unwindfunclet$?EfficacyAndroidWaitLeave@CAndroidUserManager@@IAEXXZ$0 10018758 f   AndroidUserManager.obj
 0001:00017760       __ehhandler$?EfficacyAndroidWaitLeave@CAndroidUserManager@@IAEXXZ 10018760 f   AndroidUserManager.obj
 0001:00017780       __ehhandler$??$_Buynode@ABVSortTop@@@?$_List_buy@VSortTop@@V?$allocator@VSortTop@@@std@@@std@@QAEPAU?$_List_node@VSortTop@@PAX@1@PAU21@0ABVSortTop@@@Z 10018780 f   AndroidUserManager.obj
 0001:00017780       __ehhandler$??$_Buynode@VSortTop@@@?$_List_buy@VSortTop@@V?$allocator@VSortTop@@@std@@@std@@QAEPAU?$_List_node@VSortTop@@PAX@1@PAU21@0$$QAVSortTop@@@Z 10018780 f   AndroidUserManager.obj
 0001:000177a0       __ehhandler$??$_Insert_range@V?$_List_const_iterator@V?$_List_val@U?$_List_simple_types@VSortTop@@@std@@@std@@@std@@@?$list@VSortTop@@V?$allocator@VSortTop@@@std@@@std@@QAEXV?$_List_unchecked_const_iterator@V?$_List_val@U?$_List_simple_types@VSortTop@@@std@@@std@@U_Iterator_base0@2@@1@V?$_List_const_iterator@V?$_List_val@U?$_List_simple_types@VSortTop@@@std@@@std@@@1@1Uforward_iterator_tag@1@@Z 100187a0 f   AndroidUserManager.obj
 0001:000177c0       __unwindfunclet$??0?$list@VSortTop@@V?$allocator@VSortTop@@@std@@@std@@QAE@ABV01@@Z$2 100187c0 f   AndroidUserManager.obj
 0001:000177c8       __ehhandler$??0?$list@VSortTop@@V?$allocator@VSortTop@@@std@@@std@@QAE@ABV01@@Z 100187c8 f   AndroidUserManager.obj
 0001:000177f0       __ehhandler$?_Buynode0@?$_List_alloc@U?$_List_base_types@VSortTop@@V?$allocator@VSortTop@@@std@@@std@@@std@@QAEPAU?$_List_node@VSortTop@@PAX@2@PAU32@0@Z 100187f0 f   AndroidUserManager.obj
 0001:00017810       __ehhandler$?clear@?$list@VSortTop@@V?$allocator@VSortTop@@@std@@@std@@QAEXXZ 10018810 f   AndroidUserManager.obj
 0001:00017830       __ehhandler$?reverse@?$list@VSortTop@@V?$allocator@VSortTop@@@std@@@std@@QAEXXZ 10018830 f   AndroidUserManager.obj
 0001:00017850       __unwindfunclet$?SearchValidPropertyBuff@CGamePropertyManager@@SAPAUtagPropertyBuff@@KW4PROP_KIND@@@Z$0 10018850 f   GamePropertyManager.obj
 0001:00017858       __ehhandler$?SearchValidPropertyBuff@CGamePropertyManager@@SAPAUtagPropertyBuff@@KW4PROP_KIND@@@Z 10018858 f   GamePropertyManager.obj
 0001:00017880       __ehhandler$??$_Buynode@ABUpiecewise_construct_t@std@@V?$tuple@ABK@2@V?$tuple@$$V@2@@?$_Tree_comp_alloc@V?$_Tmap_traits@KV?$vector@UtagPropertyBuff@@V?$allocator@UtagPropertyBuff@@@std@@@std@@U?$less@K@2@V?$allocator@U?$pair@$$CBKV?$vector@UtagPropertyBuff@@V?$allocator@UtagPropertyBuff@@@std@@@std@@@std@@@2@$0A@@std@@@std@@QAEPAU?$_Tree_node@U?$pair@$$CBKV?$vector@UtagPropertyBuff@@V?$allocator@UtagPropertyBuff@@@std@@@std@@@std@@PAX@1@ABUpiecewise_construct_t@1@$$QAV?$tuple@ABK@1@$$QAV?$tuple@$$V@1@@Z 10018880 f   GamePropertyManager.obj
 0001:000178a0       __ehhandler$??$_Insert_hint@AAU?$pair@$$CBKV?$vector@UtagPropertyBuff@@V?$allocator@UtagPropertyBuff@@@std@@@std@@@std@@PAU?$_Tree_node@U?$pair@$$CBKV?$vector@UtagPropertyBuff@@V?$allocator@UtagPropertyBuff@@@std@@@std@@@std@@PAX@2@@?$_Tree@V?$_Tmap_traits@KV?$vector@UtagPropertyBuff@@V?$allocator@UtagPropertyBuff@@@std@@@std@@U?$less@K@2@V?$allocator@U?$pair@$$CBKV?$vector@UtagPropertyBuff@@V?$allocator@UtagPropertyBuff@@@std@@@std@@@std@@@2@$0A@@std@@@std@@IAE?AV?$_Tree_iterator@V?$_Tree_val@U?$_Tree_simple_types@U?$pair@$$CBKV?$vector@UtagPropertyBuff@@V?$allocator@UtagPropertyBuff@@@std@@@std@@@std@@@std@@@std@@@1@V?$_Tree_const_iterator@V?$_Tree_val@U?$_Tree_simple_types@U?$pair@$$CBKV?$vector@UtagPropertyBuff@@V?$allocator@UtagPropertyBuff@@@std@@@std@@@std@@@std@@@std@@@1@AAU?$pair@$$CBKV?$vector@UtagPropertyBuff@@V?$allocator@UtagPropertyBuff@@@std@@@std@@@1@PAU?$_Tree_node@U?$pair@$$CBKV?$vector@UtagPropertyBuff@@V?$allocator@UtagPropertyBuff@@@std@@@std@@@std@@PAX@1@@Z 100188a0 f   GamePropertyManager.obj
 0001:000178c0       __ehhandler$??$_Insert_nohint@AAU?$pair@$$CBKV?$vector@UtagPropertyBuff@@V?$allocator@UtagPropertyBuff@@@std@@@std@@@std@@PAU?$_Tree_node@U?$pair@$$CBKV?$vector@UtagPropertyBuff@@V?$allocator@UtagPropertyBuff@@@std@@@std@@@std@@PAX@2@@?$_Tree@V?$_Tmap_traits@KV?$vector@UtagPropertyBuff@@V?$allocator@UtagPropertyBuff@@@std@@@std@@U?$less@K@2@V?$allocator@U?$pair@$$CBKV?$vector@UtagPropertyBuff@@V?$allocator@UtagPropertyBuff@@@std@@@std@@@std@@@2@$0A@@std@@@std@@IAE?AU?$pair@V?$_Tree_iterator@V?$_Tree_val@U?$_Tree_simple_types@U?$pair@$$CBKV?$vector@UtagPropertyBuff@@V?$allocator@UtagPropertyBuff@@@std@@@std@@@std@@@std@@@std@@@std@@_N@1@_NAAU?$pair@$$CBKV?$vector@UtagPropertyBuff@@V?$allocator@UtagPropertyBuff@@@std@@@std@@@1@PAU?$_Tree_node@U?$pair@$$CBKV?$vector@UtagPropertyBuff@@V?$allocator@UtagPropertyBuff@@@std@@@std@@@std@@PAX@1@@Z 100188c0 f   GamePropertyManager.obj
 0001:000178e0       __unwindfunclet$??$construct@U?$pair@$$CBKV?$vector@UtagPropertyBuff@@V?$allocator@UtagPropertyBuff@@@std@@@std@@@std@@ABUpiecewise_construct_t@2@V?$tuple@ABK@2@V?$tuple@$$V@2@@?$allocator@U?$_Tree_node@U?$pair@$$CBKV?$vector@UtagPropertyBuff@@V?$allocator@UtagPropertyBuff@@@std@@@std@@@std@@PAX@std@@@std@@QAEXPAU?$pair@$$CBKV?$vector@UtagPropertyBuff@@V?$allocator@UtagPropertyBuff@@@std@@@std@@@1@ABUpiecewise_construct_t@1@$$QAV?$tuple@ABK@1@$$QAV?$tuple@$$V@1@@Z$0 100188e0 f   GamePropertyManager.obj
 0001:000178f1       __ehhandler$??$construct@U?$pair@$$CBKV?$vector@UtagPropertyBuff@@V?$allocator@UtagPropertyBuff@@@std@@@std@@@std@@ABUpiecewise_construct_t@2@V?$tuple@ABK@2@V?$tuple@$$V@2@@?$allocator@U?$_Tree_node@U?$pair@$$CBKV?$vector@UtagPropertyBuff@@V?$allocator@UtagPropertyBuff@@@std@@@std@@@std@@PAX@std@@@std@@QAEXPAU?$pair@$$CBKV?$vector@UtagPropertyBuff@@V?$allocator@UtagPropertyBuff@@@std@@@std@@@1@ABUpiecewise_construct_t@1@$$QAV?$tuple@ABK@1@$$QAV?$tuple@$$V@1@@Z 100188f1 f   GamePropertyManager.obj
 0001:00017910       __ehhandler$??$forward_as_tuple@ABK@std@@YA?AV?$tuple@ABK@0@ABK@Z 10018910 f   GamePropertyManager.obj
 0001:00017930       __ehhandler$??0?$vector@UtagPropertyBuff@@V?$allocator@UtagPropertyBuff@@@std@@@std@@QAE@ABV01@@Z 10018930 f   GamePropertyManager.obj
 0001:00017950       __ehhandler$?_Buyheadnode@?$_Tree_comp_alloc@V?$_Tmap_traits@KV?$vector@UtagPropertyBuff@@V?$allocator@UtagPropertyBuff@@@std@@@std@@U?$less@K@2@V?$allocator@U?$pair@$$CBKV?$vector@UtagPropertyBuff@@V?$allocator@UtagPropertyBuff@@@std@@@std@@@std@@@2@$0A@@std@@@std@@QAEPAU?$_Tree_node@U?$pair@$$CBKV?$vector@UtagPropertyBuff@@V?$allocator@UtagPropertyBuff@@@std@@@std@@@std@@PAX@2@XZ 10018950 f   GamePropertyManager.obj
 0001:00017970       __ehhandler$?_Buynode0@?$_Tree_comp_alloc@V?$_Tmap_traits@KV?$vector@UtagPropertyBuff@@V?$allocator@UtagPropertyBuff@@@std@@@std@@U?$less@K@2@V?$allocator@U?$pair@$$CBKV?$vector@UtagPropertyBuff@@V?$allocator@UtagPropertyBuff@@@std@@@std@@@std@@@2@$0A@@std@@@std@@QAEPAU?$_Tree_node@U?$pair@$$CBKV?$vector@UtagPropertyBuff@@V?$allocator@UtagPropertyBuff@@@std@@@std@@@std@@PAX@2@XZ 10018970 f   GamePropertyManager.obj
 0001:00017990       __ehhandler$?_Reallocate@?$vector@UtagPropertyBuff@@V?$allocator@UtagPropertyBuff@@@std@@@std@@IAEXI@Z 10018990 f   GamePropertyManager.obj
 0001:000179b0       __ehhandler$?clear@?$vector@UtagPropertyBuff@@V?$allocator@UtagPropertyBuff@@@std@@@std@@QAEXXZ 100189b0 f   GamePropertyManager.obj
 0001:000179b0       __ehhandler$?clear@?$_Tree@V?$_Tmap_traits@KV?$vector@UtagPropertyBuff@@V?$allocator@UtagPropertyBuff@@@std@@@std@@U?$less@K@2@V?$allocator@U?$pair@$$CBKV?$vector@UtagPropertyBuff@@V?$allocator@UtagPropertyBuff@@@std@@@std@@@std@@@2@$0A@@std@@@std@@QAEXXZ 100189b0 f   GamePropertyManager.obj
 0001:000179d0       __unwindfunclet$??0CServerUserItem@@IAE@XZ$0 100189d0 f   ServerUserManager.obj
 0001:000179de       __ehhandler$??0CServerUserItem@@IAE@XZ 100189de f   ServerUserManager.obj
 0001:000179f9       __unwindfunclet$??1CServerUserItem@@MAE@XZ$2 100189f9 f   ServerUserManager.obj
 0001:00017a07       __ehhandler$??1CServerUserItem@@MAE@XZ 10018a07 f   ServerUserManager.obj
 0001:00017a22       __unwindfunclet$?GetUserGameData@CServerUserItem@@UAEPB_WXZ$0 10018a22 f   ServerUserManager.obj
 0001:00017a2b       __ehhandler$?GetUserGameData@CServerUserItem@@UAEPB_WXZ 10018a2b f   ServerUserManager.obj
 0001:00017a46       __unwindfunclet$?SetUserGameData@CServerUserItem@@UAEXPB_WH@Z$0 10018a46 f   ServerUserManager.obj
 0001:00017a4f       __ehhandler$?SetUserGameData@CServerUserItem@@UAEXPB_WH@Z 10018a4f f   ServerUserManager.obj
 0001:00017a6a       __ehhandler$?SetUserGameData@CServerUserItem@@UAEXHPB_WH@Z 10018a6a f   ServerUserManager.obj
 0001:00017a85       __ehhandler$?ResetUserItem@CServerUserItem@@AAEXXZ 10018a85 f   ServerUserManager.obj
 0001:00017aa0       __unwindfunclet$?InitUserGameDataMap@CServerUserItem@@AAEXXZ$2 10018aa0 f   ServerUserManager.obj
 0001:00017aab       __unwindfunclet$?InitUserGameDataMap@CServerUserItem@@AAEXXZ$3 10018aab f   ServerUserManager.obj
 0001:00017ab7       __unwindfunclet$?InitUserGameDataMap@CServerUserItem@@AAEXXZ$6 10018ab7 f   ServerUserManager.obj
 0001:00017ac0       __ehhandler$?InitUserGameDataMap@CServerUserItem@@AAEXXZ 10018ac0 f   ServerUserManager.obj
 0001:00017ae8       __unwindfunclet$?SplitString@CServerUserItem@@AAEXV?$CStringT@_WV?$StrTraitMFC_DLL@_WV?$ChTraitsCRT@_W@ATL@@@@@ATL@@0AAVCStringArray@@@Z$0 10018ae8 f   ServerUserManager.obj
 0001:00017af1       __unwindfunclet$?SplitString@CServerUserItem@@AAEXV?$CStringT@_WV?$StrTraitMFC_DLL@_WV?$ChTraitsCRT@_W@ATL@@@@@ATL@@0AAVCStringArray@@@Z$1 10018af1 f   ServerUserManager.obj
 0001:00017afa       __unwindfunclet$?SplitString@CServerUserItem@@AAEXV?$CStringT@_WV?$StrTraitMFC_DLL@_WV?$ChTraitsCRT@_W@ATL@@@@@ATL@@0AAVCStringArray@@@Z$2 10018afa f   ServerUserManager.obj
 0001:00017b03       __ehhandler$?SplitString@CServerUserItem@@AAEXV?$CStringT@_WV?$StrTraitMFC_DLL@_WV?$ChTraitsCRT@_W@ATL@@@@@ATL@@0AAVCStringArray@@@Z 10018b03 f   ServerUserManager.obj
 0001:00017b1e       __unwindfunclet$?IsPureDigitString@CServerUserItem@@AAE_NV?$CStringT@_WV?$StrTraitMFC_DLL@_WV?$ChTraitsCRT@_W@ATL@@@@@ATL@@@Z$0 10018b1e f   ServerUserManager.obj
 0001:00017b27       __ehhandler$?IsPureDigitString@CServerUserItem@@AAE_NV?$CStringT@_WV?$StrTraitMFC_DLL@_WV?$ChTraitsCRT@_W@ATL@@@@@ATL@@@Z 10018b27 f   ServerUserManager.obj
 0001:00017b42       __unwindfunclet$?IsValidGameData@CServerUserItem@@AAE_NV?$CStringT@_WV?$StrTraitMFC_DLL@_WV?$ChTraitsCRT@_W@ATL@@@@@ATL@@0@Z$0 10018b42 f   ServerUserManager.obj
 0001:00017b4b       __unwindfunclet$?IsValidGameData@CServerUserItem@@AAE_NV?$CStringT@_WV?$StrTraitMFC_DLL@_WV?$ChTraitsCRT@_W@ATL@@@@@ATL@@0@Z$1 10018b4b f   ServerUserManager.obj
 0001:00017b54       __unwindfunclet$?IsValidGameData@CServerUserItem@@AAE_NV?$CStringT@_WV?$StrTraitMFC_DLL@_WV?$ChTraitsCRT@_W@ATL@@@@@ATL@@0@Z$2 10018b54 f   ServerUserManager.obj
 0001:00017b5f       __unwindfunclet$?IsValidGameData@CServerUserItem@@AAE_NV?$CStringT@_WV?$StrTraitMFC_DLL@_WV?$ChTraitsCRT@_W@ATL@@@@@ATL@@0@Z$3 10018b5f f   ServerUserManager.obj
 0001:00017b6b       __ehhandler$?IsValidGameData@CServerUserItem@@AAE_NV?$CStringT@_WV?$StrTraitMFC_DLL@_WV?$ChTraitsCRT@_W@ATL@@@@@ATL@@0@Z 10018b6b f   ServerUserManager.obj
 0001:00017b93       __unwindfunclet$??0CServerUserManager@@QAE@XZ$0 10018b93 f   ServerUserManager.obj
 0001:00017b9e       __unwindfunclet$??0CServerUserManager@@QAE@XZ$1 10018b9e f   ServerUserManager.obj
 0001:00017ba9       __unwindfunclet$??0CServerUserManager@@QAE@XZ$2 10018ba9 f   ServerUserManager.obj
 0001:00017bb4       __ehhandler$??0CServerUserManager@@QAE@XZ 10018bb4 f   ServerUserManager.obj
 0001:00017bcf       __ehhandler$??1CServerUserManager@@UAE@XZ 10018bcf f   ServerUserManager.obj
 0001:00017bea       __unwindfunclet$?InsertUserItem@CServerUserManager@@UAE_NPAPAUIServerUserItem@@AAUtagUserInfo@@AAUtagUserInfoPlus@@@Z$2 10018bea f   ServerUserManager.obj
 0001:00017bfc       __unwindfunclet$?InsertUserItem@CServerUserManager@@UAE_NPAPAUIServerUserItem@@AAUtagUserInfo@@AAUtagUserInfoPlus@@@Z$3 10018bfc f   ServerUserManager.obj
 0001:00017c05       __ehhandler$?InsertUserItem@CServerUserManager@@UAE_NPAPAUIServerUserItem@@AAUtagUserInfo@@AAUtagUserInfoPlus@@@Z 10018c05 f   ServerUserManager.obj
 0001:00017c20       __ehhandler$??1?$_Tree@V?$_Tmap_traits@KV?$vector@UtagPropertyBuff@@V?$allocator@UtagPropertyBuff@@@std@@@std@@U?$less@K@2@V?$allocator@U?$pair@$$CBKV?$vector@UtagPropertyBuff@@V?$allocator@UtagPropertyBuff@@@std@@@std@@@std@@@2@$0A@@std@@@std@@QAE@XZ 10018c20 f   GamePropertyManager.obj
 0001:00017c20       __ehhandler$?begin@?$_Tree@V?$_Tmap_traits@KV?$vector@UtagPropertyBuff@@V?$allocator@UtagPropertyBuff@@@std@@@std@@U?$less@K@2@V?$allocator@U?$pair@$$CBKV?$vector@UtagPropertyBuff@@V?$allocator@UtagPropertyBuff@@@std@@@std@@@std@@@2@$0A@@std@@@std@@QAE?AV?$_Tree_iterator@V?$_Tree_val@U?$_Tree_simple_types@U?$pair@$$CBKV?$vector@UtagPropertyBuff@@V?$allocator@UtagPropertyBuff@@@std@@@std@@@std@@@std@@@std@@@2@XZ 10018c20 f   GamePropertyManager.obj
 0001:00017c20       __ehhandler$??_ECAndroidUserManager@@UAEPAXI@Z 10018c20 f   AndroidUserManager.obj
 0001:00017c20       __ehhandler$??_ECServerUserManager@@UAEPAXI@Z 10018c20 f   ServerUserManager.obj
 0001:00017c20       __ehhandler$??1?$CMap@HHPAUtagGameDataItem@@AAPAU1@@@UAE@XZ 10018c20 f   ServerUserManager.obj
 0001:00017c20       __ehhandler$??0?$vector@UtagPropertyBuff@@V?$allocator@UtagPropertyBuff@@@std@@@std@@QAE@XZ 10018c20 f   GamePropertyManager.obj
 0001:00017c20       __ehhandler$??_ECAndroidUserItem@@UAEPAXI@Z 10018c20 f   AndroidUserItem.obj
 0001:00017c20       __ehhandler$?end@?$_Tree@V?$_Tmap_traits@KV?$vector@UtagPropertyBuff@@V?$allocator@UtagPropertyBuff@@@std@@@std@@U?$less@K@2@V?$allocator@U?$pair@$$CBKV?$vector@UtagPropertyBuff@@V?$allocator@UtagPropertyBuff@@@std@@@std@@@std@@@2@$0A@@std@@@std@@QAE?AV?$_Tree_iterator@V?$_Tree_val@U?$_Tree_simple_types@U?$pair@$$CBKV?$vector@UtagPropertyBuff@@V?$allocator@UtagPropertyBuff@@@std@@@std@@@std@@@std@@@std@@@2@XZ 10018c20 f   GamePropertyManager.obj
 0001:00017c20       __ehhandler$??1?$vector@UtagPropertyBuff@@V?$allocator@UtagPropertyBuff@@@std@@@std@@QAE@XZ 10018c20 f   GamePropertyManager.obj
 0001:00017c20       __ehhandler$?begin@?$vector@UtagPropertyBuff@@V?$allocator@UtagPropertyBuff@@@std@@@std@@QBE?AV?$_Vector_const_iterator@V?$_Vector_val@U?$_Simple_types@UtagPropertyBuff@@@std@@@std@@@2@XZ 10018c20 f   GamePropertyManager.obj
 0001:00017c20       __ehhandler$?end@?$vector@UtagPropertyBuff@@V?$allocator@UtagPropertyBuff@@@std@@@std@@QBE?AV?$_Vector_const_iterator@V?$_Vector_val@U?$_Simple_types@UtagPropertyBuff@@@std@@@std@@@2@XZ 10018c20 f   GamePropertyManager.obj
 0001:00017c20       __ehhandler$??1?$CMap@KKPAUtagUserTaskEntry@@PAU1@@@UAE@XZ 10018c20 f   UserTaskManager.obj
 0001:00017c20       __ehhandler$??1?$_Tree_comp_alloc@V?$_Tmap_traits@KV?$vector@UtagPropertyBuff@@V?$allocator@UtagPropertyBuff@@@std@@@std@@U?$less@K@2@V?$allocator@U?$pair@$$CBKV?$vector@UtagPropertyBuff@@V?$allocator@UtagPropertyBuff@@@std@@@std@@@std@@@2@$0A@@std@@@std@@QAE@XZ 10018c20 f   GamePropertyManager.obj
 0001:00017c20       __ehhandler$??_ECGamePropertyManager@@UAEPAXI@Z 10018c20 f   GamePropertyManager.obj
 0001:00017c20       __ehhandler$??1?$CMap@GGPAUtagTaskParameter@@PAU1@@@UAE@XZ 10018c20 f   UserTaskManager.obj
 0001:00017c20       __ehhandler$??1?$CMap@KKPAVCServerUserItem@@PAV1@@@UAE@XZ 10018c20 f   ServerUserManager.obj
 0001:00017c20       __ehhandler$??_ECServerUserItem@@MAEPAXI@Z 10018c20 f   ServerUserManager.obj
 0001:00017c20       __ehhandler$?_Make_iter@?$list@VSortTop@@V?$allocator@VSortTop@@@std@@@std@@QBE?AV?$_List_iterator@V?$_List_val@U?$_List_simple_types@VSortTop@@@std@@@std@@@2@V?$_List_const_iterator@V?$_List_val@U?$_List_simple_types@VSortTop@@@std@@@std@@@2@@Z 10018c20 f   AndroidUserManager.obj
 0001:00017c20       __ehhandler$??1?$_List_alloc@U?$_List_base_types@VSortTop@@V?$allocator@VSortTop@@@std@@@std@@@std@@QAE@XZ 10018c20 f   AndroidUserManager.obj
 0001:00017c20       __ehhandler$?end@?$list@VSortTop@@V?$allocator@VSortTop@@@std@@@std@@QBE?AV?$_List_const_iterator@V?$_List_val@U?$_List_simple_types@VSortTop@@@std@@@std@@@2@XZ 10018c20 f   AndroidUserManager.obj
 0001:00017c20       __ehhandler$?end@?$list@VSortTop@@V?$allocator@VSortTop@@@std@@@std@@QAE?AV?$_List_iterator@V?$_List_val@U?$_List_simple_types@VSortTop@@@std@@@std@@@2@XZ 10018c20 f   AndroidUserManager.obj
 0001:00017c20       __ehhandler$?begin@?$list@VSortTop@@V?$allocator@VSortTop@@@std@@@std@@QBE?AV?$_List_const_iterator@V?$_List_val@U?$_List_simple_types@VSortTop@@@std@@@std@@@2@XZ 10018c20 f   AndroidUserManager.obj
 0001:00017c20       __ehhandler$??1?$list@VSortTop@@V?$allocator@VSortTop@@@std@@@std@@QAE@XZ 10018c20 f   AndroidUserManager.obj
 0001:00017c20       __ehhandler$??1?$CMap@KKPAVCAndroidUserItem@@PAV1@@@UAE@XZ 10018c20 f   AndroidUserManager.obj
 0001:00017c20       __ehhandler$??_ECUserTaskManager@@UAEPAXI@Z 10018c20 f   UserTaskManager.obj
 0001:00017c20       __ehhandler$?begin@?$list@VSortTop@@V?$allocator@VSortTop@@@std@@@std@@QAE?AV?$_List_iterator@V?$_List_val@U?$_List_simple_types@VSortTop@@@std@@@std@@@2@XZ 10018c20 f   AndroidUserManager.obj
 0001:00017c40       __unwindfunclet$?NewAssoc@?$CMap@KKPAVCServerUserItem@@PAV1@@@IAEPAVCAssoc@1@K@Z$0 10018c40 f   ServerUserManager.obj
 0001:00017c40       __unwindfunclet$?NewAssoc@?$CMap@GGPAUtagTaskParameter@@PAU1@@@IAEPAVCAssoc@1@G@Z$0 10018c40 f   UserTaskManager.obj
 0001:00017c40       __unwindfunclet$?NewAssoc@?$CMap@KKPAUtagUserTaskEntry@@PAU1@@@IAEPAVCAssoc@1@K@Z$0 10018c40 f   UserTaskManager.obj
 0001:00017c40       __unwindfunclet$?NewAssoc@?$CMap@HHPAUtagGameDataItem@@AAPAU1@@@IAEPAVCAssoc@1@H@Z$0 10018c40 f   ServerUserManager.obj
 0001:00017c40       __unwindfunclet$?NewAssoc@?$CMap@KKPAVCAndroidUserItem@@PAV1@@@IAEPAVCAssoc@1@K@Z$0 10018c40 f   AndroidUserManager.obj
 0001:00017c51       __ehhandler$?NewAssoc@?$CMap@KKPAUtagUserTaskEntry@@PAU1@@@IAEPAVCAssoc@1@K@Z 10018c51 f   UserTaskManager.obj
 0001:00017c51       __ehhandler$?NewAssoc@?$CMap@KKPAVCServerUserItem@@PAV1@@@IAEPAVCAssoc@1@K@Z 10018c51 f   ServerUserManager.obj
 0001:00017c51       __ehhandler$?NewAssoc@?$CMap@KKPAVCAndroidUserItem@@PAV1@@@IAEPAVCAssoc@1@K@Z 10018c51 f   AndroidUserManager.obj
 0001:00017c51       __ehhandler$?NewAssoc@?$CMap@GGPAUtagTaskParameter@@PAU1@@@IAEPAVCAssoc@1@G@Z 10018c51 f   UserTaskManager.obj
 0001:00017c51       __ehhandler$?NewAssoc@?$CMap@HHPAUtagGameDataItem@@AAPAU1@@@IAEPAVCAssoc@1@H@Z 10018c51 f   ServerUserManager.obj
 0001:00017c70       __unwindfunclet$??0CUserTaskManager@@QAE@XZ$0 10018c70 f   UserTaskManager.obj
 0001:00017c7b       __unwindfunclet$??0CUserTaskManager@@QAE@XZ$1 10018c7b f   UserTaskManager.obj
 0001:00017c86       __unwindfunclet$??0CUserTaskManager@@QAE@XZ$2 10018c86 f   UserTaskManager.obj
 0001:00017c91       __unwindfunclet$??0CUserTaskManager@@QAE@XZ$3 10018c91 f   UserTaskManager.obj
 0001:00017c9c       __ehhandler$??0CUserTaskManager@@QAE@XZ 10018c9c f   UserTaskManager.obj
 0001:00017cb7       __unwindfunclet$??1CUserTaskManager@@UAE@XZ$8 10018cb7 f   UserTaskManager.obj
 0001:00017cc2       __unwindfunclet$??1CUserTaskManager@@UAE@XZ$9 10018cc2 f   UserTaskManager.obj
 0001:00017ccd       __unwindfunclet$??1CUserTaskManager@@UAE@XZ$10 10018ccd f   UserTaskManager.obj
 0001:00017cd8       __unwindfunclet$??1CUserTaskManager@@UAE@XZ$11 10018cd8 f   UserTaskManager.obj
 0001:00017ce3       __ehhandler$??1CUserTaskManager@@UAE@XZ 10018ce3 f   UserTaskManager.obj
 0001:00017cfe       __ehhandler$?AddTaskParameter@CUserTaskManager@@UAE_NQAUtagTaskParameter@@G@Z 10018cfe f   UserTaskManager.obj
 0001:00017d19       __ehhandler$?CreateUserTaskEntry@CUserTaskManager@@IAEPAUtagUserTaskEntry@@XZ 10018d19 f   UserTaskManager.obj
 0001:00017d40       ??__F?m_TimerItemBuffer@CAndroidUserItem@@1V?$CWHArray@PAUtagTimerItem@@ABQAU1@@@A@@YAXXZ 10018d40 f   AndroidUserItem.obj
 0001:00017d50       ??__F?m_PropertyBuffMap@CGamePropertyManager@@1V?$map@KV?$vector@UtagPropertyBuff@@V?$allocator@UtagPropertyBuff@@@std@@@std@@U?$less@K@2@V?$allocator@U?$pair@$$CBKV?$vector@UtagPropertyBuff@@V?$allocator@UtagPropertyBuff@@@std@@@std@@@std@@@2@@std@@A@@YAXXZ 10018d50 f   GamePropertyManager.obj
 0001:00017d5f       ??__F_AtlBaseModule@ATL@@YAXXZ 10018d5f f   atls:atlbase.obj
 0002:000001b8       ?_AtlBaseModule$initializer$@ATL@@3P6AXXZA 100191b8     atls:atlbase.obj
 0002:000001bc       ??m_TimerItemBuffer$initializer$@CAndroidUserItem@@1P6AXXZA@@3P6AXXZA 100191bc     AndroidUserItem.obj
 0002:000001c0       ??m_PropertyBuffMap$initializer$@CGamePropertyManager@@1P6AXXZA@@3P6AXXZA 100191c0     GamePropertyManager.obj
 0002:000001cc       ?__scrt_initialize_tss_var@@3P6AHXZA 100191cc     msvcrt:thread_safe_statics.obj
 0002:000001f0       ?IID_IAndroidUserItemSink@@3U_GUID@@B 100191f0     AndroidUserItem.obj
 0002:00000200       ?IID_ITraceServiceManager@@3U_GUID@@B 10019200     AndroidUserItem.obj
 0002:00000210       ?IID_IGameServiceManager@@3U_GUID@@B 10019210     AndroidUserItem.obj
 0002:00000220       ?IID_IAsynchronismEngine@@3U_GUID@@B 10019220     AndroidUserItem.obj
 0002:00000230       ?IID_IDataBase@@3U_GUID@@B 10019230     AndroidUserItem.obj
 0002:00000240       ?IID_IUnknownEx@@3U_GUID@@B 10019240     AndroidUserItem.obj
 0002:00000250       $SG223431                  10019250     AndroidUserItem.obj
 0002:00000288       $SG223473                  10019288     AndroidUserItem.obj
 0002:000002d8       ?IID_IDataBaseEngine@@3U_GUID@@B 100192d8     AndroidUserItem.obj
 0002:000002e8       ?IID_IUDPNetworkEngine@@3U_GUID@@B 100192e8     AndroidUserItem.obj
 0002:000002f8       ?IID_ITCPNetworkEngine@@3U_GUID@@B 100192f8     AndroidUserItem.obj
 0002:00000308       ?IID_ITCPSocketService@@3U_GUID@@B 10019308     AndroidUserItem.obj
 0002:00000318       ?IID_IWEBSocketService@@3U_GUID@@B 10019318     AndroidUserItem.obj
 0002:00000328       ?IID_ITimerEngine@@3U_GUID@@B 10019328     AndroidUserItem.obj
 0002:00000338       ?IID_IAttemperEngine@@3U_GUID@@B 10019338     AndroidUserItem.obj
 0002:00000348       ?IID_IAndroidUserItem@@3U_GUID@@B 10019348     AndroidUserItem.obj
 0002:000004c0       ?IID_IAndroidUserItemSink@@3U_GUID@@B 100194c0     AndroidUserManager.obj
 0002:000004d0       ?IID_ITraceServiceManager@@3U_GUID@@B 100194d0     AndroidUserManager.obj
 0002:000004e0       ?IID_IGameServiceManager@@3U_GUID@@B 100194e0     AndroidUserManager.obj
 0002:000004f0       ?IID_IAndroidUserManager@@3U_GUID@@B 100194f0     AndroidUserManager.obj
 0002:00000500       ?IID_IAsynchronismEngine@@3U_GUID@@B 10019500     AndroidUserManager.obj
 0002:00000510       ?IID_IDataBase@@3U_GUID@@B 10019510     AndroidUserManager.obj
 0002:00000520       ?IID_IUnknownEx@@3U_GUID@@B 10019520     AndroidUserManager.obj
 0002:00000530       ?IID_IDataBaseEngine@@3U_GUID@@B 10019530     AndroidUserManager.obj
 0002:00000540       $SG224508                  10019540     AndroidUserManager.obj
 0002:00000594       ?IID_IUDPNetworkEngine@@3U_GUID@@B 10019594     AndroidUserManager.obj
 0002:000005a4       $SG223559                  100195a4     AndroidUserManager.obj
 0002:000005a8       $SG223560                  100195a8     AndroidUserManager.obj
 0002:000005ac       $SG223562                  100195ac     AndroidUserManager.obj
 0002:000005d0       $SG223561                  100195d0     AndroidUserManager.obj
 0002:00000614       $SG223563                  10019614     AndroidUserManager.obj
 0002:00000634       $SG223565                  10019634     AndroidUserManager.obj
 0002:00000650       $SG223566                  10019650     AndroidUserManager.obj
 0002:00000670       $SG223567                  10019670     AndroidUserManager.obj
 0002:00000698       $SG223568                  10019698     AndroidUserManager.obj
 0002:000006c4       $SG223569                  100196c4     AndroidUserManager.obj
 0002:000006e8       $SG223570                  100196e8     AndroidUserManager.obj
 0002:0000070c       $SG223571                  1001970c     AndroidUserManager.obj
 0002:00000730       $SG223572                  10019730     AndroidUserManager.obj
 0002:00000754       $SG223573                  10019754     AndroidUserManager.obj
 0002:00000774       $SG223574                  10019774     AndroidUserManager.obj
 0002:00000794       $SG223575                  10019794     AndroidUserManager.obj
 0002:000007b4       ?IID_ITCPNetworkEngine@@3U_GUID@@B 100197b4     AndroidUserManager.obj
 0002:000007c4       $SG223576                  100197c4     AndroidUserManager.obj
 0002:000007e4       $SG223577                  100197e4     AndroidUserManager.obj
 0002:00000804       $SG223578                  10019804     AndroidUserManager.obj
 0002:00000824       $SG223579                  10019824     AndroidUserManager.obj
 0002:0000085c       $SG223580                  1001985c     AndroidUserManager.obj
 0002:00000894       $SG223581                  10019894     AndroidUserManager.obj
 0002:000008bc       $SG223582                  100198bc     AndroidUserManager.obj
 0002:000008ec       $SG223583                  100198ec     AndroidUserManager.obj
 0002:0000091c       $SG223584                  1001991c     AndroidUserManager.obj
 0002:0000093c       $SG223585                  1001993c     AndroidUserManager.obj
 0002:0000095c       $SG223586                  1001995c     AndroidUserManager.obj
 0002:0000097c       $SG223587                  1001997c     AndroidUserManager.obj
 0002:0000099c       $SG223588                  1001999c     AndroidUserManager.obj
 0002:000009bc       $SG223589                  100199bc     AndroidUserManager.obj
 0002:000009dc       $SG223590                  100199dc     AndroidUserManager.obj
 0002:000009fc       $SG223591                  100199fc     AndroidUserManager.obj
 0002:00000a20       $SG223592                  10019a20     AndroidUserManager.obj
 0002:00000a40       $SG223593                  10019a40     AndroidUserManager.obj
 0002:00000a64       $SG223594                  10019a64     AndroidUserManager.obj
 0002:00000a84       $SG223595                  10019a84     AndroidUserManager.obj
 0002:00000aa8       $SG223596                  10019aa8     AndroidUserManager.obj
 0002:00000ad8       $SG223597                  10019ad8     AndroidUserManager.obj
 0002:00000b08       $SG223598                  10019b08     AndroidUserManager.obj
 0002:00000b28       $SG223599                  10019b28     AndroidUserManager.obj
 0002:00000b48       $SG223600                  10019b48     AndroidUserManager.obj
 0002:00000b68       $SG223601                  10019b68     AndroidUserManager.obj
 0002:00000b90       $SG223602                  10019b90     AndroidUserManager.obj
 0002:00000bb0       ?IID_ITCPSocketService@@3U_GUID@@B 10019bb0     AndroidUserManager.obj
 0002:00000bc0       ?IID_IWEBSocketService@@3U_GUID@@B 10019bc0     AndroidUserManager.obj
 0002:00000bd0       ?IID_ITimerEngine@@3U_GUID@@B 10019bd0     AndroidUserManager.obj
 0002:00000be0       $SG223808                  10019be0     AndroidUserManager.obj
 0002:00000be4       ?IID_IAttemperEngine@@3U_GUID@@B 10019be4     AndroidUserManager.obj
 0002:00000bf8       $SG224122                  10019bf8     AndroidUserManager.obj
 0002:00000da0       ?piecewise_construct@std@@3Upiecewise_construct_t@1@B 10019da0     GamePropertyManager.obj
 0002:00000da4       ?IID_IAndroidUserItemSink@@3U_GUID@@B 10019da4     GamePropertyManager.obj
 0002:00000db4       ?IID_ITraceServiceManager@@3U_GUID@@B 10019db4     GamePropertyManager.obj
 0002:00000dc4       ?IID_IGameServiceManager@@3U_GUID@@B 10019dc4     GamePropertyManager.obj
 0002:00000dd4       ?IID_IAsynchronismEngine@@3U_GUID@@B 10019dd4     GamePropertyManager.obj
 0002:00000de4       ?IID_IDataBase@@3U_GUID@@B 10019de4     GamePropertyManager.obj
 0002:00000df4       ?IID_IDataBaseEngine@@3U_GUID@@B 10019df4     GamePropertyManager.obj
 0002:00000e04       ?IID_IUDPNetworkEngine@@3U_GUID@@B 10019e04     GamePropertyManager.obj
 0002:00000e14       ?IID_ITCPNetworkEngine@@3U_GUID@@B 10019e14     GamePropertyManager.obj
 0002:00000e24       ?IID_ITCPSocketService@@3U_GUID@@B 10019e24     GamePropertyManager.obj
 0002:00000e34       ?IID_IWEBSocketService@@3U_GUID@@B 10019e34     GamePropertyManager.obj
 0002:00000e44       ?IID_ITimerEngine@@3U_GUID@@B 10019e44     GamePropertyManager.obj
 0002:00000e54       ?IID_IAttemperEngine@@3U_GUID@@B 10019e54     GamePropertyManager.obj
 0002:00000e9c       ?IID_IAndroidUserItemSink@@3U_GUID@@B 10019e9c     GameService.obj
 0002:00000eac       ?IID_ITraceServiceManager@@3U_GUID@@B 10019eac     GameService.obj
 0002:00000ebc       ?IID_IGameServiceManager@@3U_GUID@@B 10019ebc     GameService.obj
 0002:00000ecc       ?IID_IAsynchronismEngine@@3U_GUID@@B 10019ecc     GameService.obj
 0002:00000edc       ?IID_IDataBase@@3U_GUID@@B 10019edc     GameService.obj
 0002:00000eec       ?IID_IDataBaseEngine@@3U_GUID@@B 10019eec     GameService.obj
 0002:00000efc       ?IID_IUDPNetworkEngine@@3U_GUID@@B 10019efc     GameService.obj
 0002:00000f0c       ?IID_ITCPNetworkEngine@@3U_GUID@@B 10019f0c     GameService.obj
 0002:00000f1c       ?IID_ITCPSocketService@@3U_GUID@@B 10019f1c     GameService.obj
 0002:00000f30       ?IID_IWEBSocketService@@3U_GUID@@B 10019f30     GameService.obj
 0002:00000f40       ?IID_ITimerEngine@@3U_GUID@@B 10019f40     GameService.obj
 0002:00000f50       ?IID_IAttemperEngine@@3U_GUID@@B 10019f50     GameService.obj
 0002:00000f60       ?IID_IAndroidUserItemSink@@3U_GUID@@B 10019f60     ServerUserManager.obj
 0002:00000f70       $SG223280                  10019f70     ServerUserManager.obj
 0002:00000f74       $SG223282                  10019f74     ServerUserManager.obj
 0002:00000f84       ?IID_ITraceServiceManager@@3U_GUID@@B 10019f84     ServerUserManager.obj
 0002:00000f94       ?IID_IGameServiceManager@@3U_GUID@@B 10019f94     ServerUserManager.obj
 0002:00000fa4       ?IID_IAsynchronismEngine@@3U_GUID@@B 10019fa4     ServerUserManager.obj
 0002:00000fb4       ?IID_IDataBase@@3U_GUID@@B 10019fb4     ServerUserManager.obj
 0002:00000fc4       ?IID_IUnknownEx@@3U_GUID@@B 10019fc4     ServerUserManager.obj
 0002:00000fd4       ?IID_IDataBaseEngine@@3U_GUID@@B 10019fd4     ServerUserManager.obj
 0002:00000fe4       ?IID_IServerUserItem@@3U_GUID@@B 10019fe4     ServerUserManager.obj
 0002:00000ff4       ?IID_IUDPNetworkEngine@@3U_GUID@@B 10019ff4     ServerUserManager.obj
 0002:00001004       $SG223542                  1001a004     ServerUserManager.obj
 0002:00001008       $SG223543                  1001a008     ServerUserManager.obj
 0002:00001010       ?IID_ITCPNetworkEngine@@3U_GUID@@B 1001a010     ServerUserManager.obj
 0002:00001020       $SG223596                  1001a020     ServerUserManager.obj
 0002:00001024       $SG223597                  1001a024     ServerUserManager.obj
 0002:0000102c       ?IID_ITCPSocketService@@3U_GUID@@B 1001a02c     ServerUserManager.obj
 0002:0000103c       ?IID_IServerUserService@@3U_GUID@@B 1001a03c     ServerUserManager.obj
 0002:0000104c       ?IID_IMatchUserItemSink@@3U_GUID@@B 1001a04c     ServerUserManager.obj
 0002:0000105c       ?IID_IWEBSocketService@@3U_GUID@@B 1001a05c     ServerUserManager.obj
 0002:0000106c       ?IID_IServerUserItemSink@@3U_GUID@@B 1001a06c     ServerUserManager.obj
 0002:0000107c       ?IID_ITimerEngine@@3U_GUID@@B 1001a07c     ServerUserManager.obj
 0002:0000108c       ?IID_IServerUserManager@@3U_GUID@@B 1001a08c     ServerUserManager.obj
 0002:0000109c       ?IID_IAttemperEngine@@3U_GUID@@B 1001a09c     ServerUserManager.obj
 0002:000010ac       ?g_szGameDataSpe@@3QB_WB   1001a0ac     ServerUserManager.obj
 0002:00001430       $SG64512                   1001a430     Stdafx.obj
 0002:0000143c       $SG64513                   1001a43c     Stdafx.obj
 0002:00001448       $SG64514                   1001a448     Stdafx.obj
 0002:00001454       $SG64515                   1001a454     Stdafx.obj
 0002:00001460       $SG64516                   1001a460     Stdafx.obj
 0002:0000146c       $SG64517                   1001a46c     Stdafx.obj
 0002:00001478       $SG64518                   1001a478     Stdafx.obj
 0002:00001484       $SG64519                   1001a484     Stdafx.obj
 0002:00001490       $SG64520                   1001a490     Stdafx.obj
 0002:0000149c       $SG64521                   1001a49c     Stdafx.obj
 0002:000014a8       $SG64522                   1001a4a8     Stdafx.obj
 0002:000014b4       $SG64523                   1001a4b4     Stdafx.obj
 0002:000014c0       $SG64524                   1001a4c0     Stdafx.obj
 0002:000014cc       $SG64525                   1001a4cc     Stdafx.obj
 0002:000014d8       $SG64526                   1001a4d8     Stdafx.obj
 0002:000014e4       $SG64527                   1001a4e4     Stdafx.obj
 0002:000014f0       $SG64528                   1001a4f0     Stdafx.obj
 0002:000014fc       $SG64529                   1001a4fc     Stdafx.obj
 0002:00001508       $SG64530                   1001a508     Stdafx.obj
 0002:00001514       $SG64531                   1001a514     Stdafx.obj
 0002:00001520       $SG64532                   1001a520     Stdafx.obj
 0002:0000152c       $SG64533                   1001a52c     Stdafx.obj
 0002:00001538       $SG64534                   1001a538     Stdafx.obj
 0002:00001544       $SG64535                   1001a544     Stdafx.obj
 0002:00001550       $SG64536                   1001a550     Stdafx.obj
 0002:0000155c       $SG64537                   1001a55c     Stdafx.obj
 0002:00001568       $SG64538                   1001a568     Stdafx.obj
 0002:00001574       $SG64539                   1001a574     Stdafx.obj
 0002:00001580       $SG64540                   1001a580     Stdafx.obj
 0002:0000158c       $SG64541                   1001a58c     Stdafx.obj
 0002:00001598       $SG64542                   1001a598     Stdafx.obj
 0002:000015b0       $SG64543                   1001a5b0     Stdafx.obj
 0002:000015bc       $SG64544                   1001a5bc     Stdafx.obj
 0002:000015c8       $SG64545                   1001a5c8     Stdafx.obj
 0002:000015d4       $SG64546                   1001a5d4     Stdafx.obj
 0002:000015e0       $SG64547                   1001a5e0     Stdafx.obj
 0002:000015ec       $SG63523                   1001a5ec     Stdafx.obj
 0002:0000160c       $SG64548                   1001a60c     Stdafx.obj
 0002:00001618       $SG64549                   1001a618     Stdafx.obj
 0002:00001624       $SG64550                   1001a624     Stdafx.obj
 0002:00001630       $SG64551                   1001a630     Stdafx.obj
 0002:0000163c       $SG64552                   1001a63c     Stdafx.obj
 0002:00001648       $SG64553                   1001a648     Stdafx.obj
 0002:00001654       $SG64554                   1001a654     Stdafx.obj
 0002:00001660       $SG64555                   1001a660     Stdafx.obj
 0002:0000166c       $SG64556                   1001a66c     Stdafx.obj
 0002:00001678       $SG64557                   1001a678     Stdafx.obj
 0002:00001684       $SG64558                   1001a684     Stdafx.obj
 0002:0000169c       $SG64559                   1001a69c     Stdafx.obj
 0002:000016a8       $SG64560                   1001a6a8     Stdafx.obj
 0002:000016b4       $SG113713                  1001a6b4     Stdafx.obj
 0002:000016c0       $SG64561                   1001a6c0     Stdafx.obj
 0002:000016cc       $SG113714                  1001a6cc     Stdafx.obj
 0002:000016d8       $SG64562                   1001a6d8     Stdafx.obj
 0002:000016e4       $SG113715                  1001a6e4     Stdafx.obj
 0002:00001710       $SG64563                   1001a710     Stdafx.obj
 0002:0000171c       $SG113716                  1001a71c     Stdafx.obj
 0002:00001730       $SG64564                   1001a730     Stdafx.obj
 0002:0000173c       $SG113717                  1001a73c     Stdafx.obj
 0002:00001750       $SG64565                   1001a750     Stdafx.obj
 0002:0000175c       $SG113718                  1001a75c     Stdafx.obj
 0002:00001770       $SG64566                   1001a770     Stdafx.obj
 0002:0000177c       $SG113719                  1001a77c     Stdafx.obj
 0002:00001788       $SG64567                   1001a788     Stdafx.obj
 0002:00001794       $SG113720                  1001a794     Stdafx.obj
 0002:0000179c       $SG64568                   1001a79c     Stdafx.obj
 0002:000017a8       $SG113721                  1001a7a8     Stdafx.obj
 0002:000017bc       $SG64569                   1001a7bc     Stdafx.obj
 0002:000017c8       $SG113722                  1001a7c8     Stdafx.obj
 0002:000017d8       $SG64570                   1001a7d8     Stdafx.obj
 0002:000017e4       $SG113723                  1001a7e4     Stdafx.obj
 0002:000017f8       $SG64571                   1001a7f8     Stdafx.obj
 0002:00001804       $SG113724                  1001a804     Stdafx.obj
 0002:00001814       $SG64572                   1001a814     Stdafx.obj
 0002:00001824       $SG64573                   1001a824     Stdafx.obj
 0002:00001834       $SG64574                   1001a834     Stdafx.obj
 0002:00001844       $SG64575                   1001a844     Stdafx.obj
 0002:00001854       $SG64576                   1001a854     Stdafx.obj
 0002:00001860       $SG64577                   1001a860     Stdafx.obj
 0002:0000186c       $SG64578                   1001a86c     Stdafx.obj
 0002:00001878       $SG64579                   1001a878     Stdafx.obj
 0002:00001884       $SG64580                   1001a884     Stdafx.obj
 0002:00001890       $SG64581                   1001a890     Stdafx.obj
 0002:0000189c       $SG64582                   1001a89c     Stdafx.obj
 0002:000018a8       $SG64583                   1001a8a8     Stdafx.obj
 0002:000018b4       $SG64584                   1001a8b4     Stdafx.obj
 0002:000018c0       $SG64585                   1001a8c0     Stdafx.obj
 0002:000018cc       $SG64586                   1001a8cc     Stdafx.obj
 0002:000018d8       $SG64587                   1001a8d8     Stdafx.obj
 0002:000018e4       $SG64588                   1001a8e4     Stdafx.obj
 0002:000018fc       $SG64589                   1001a8fc     Stdafx.obj
 0002:00001908       $SG64590                   1001a908     Stdafx.obj
 0002:00001920       $SG64591                   1001a920     Stdafx.obj
 0002:0000192c       $SG64592                   1001a92c     Stdafx.obj
 0002:00001938       $SG64593                   1001a938     Stdafx.obj
 0002:00001950       $SG64594                   1001a950     Stdafx.obj
 0002:00001960       $SG63570                   1001a960     Stdafx.obj
 0002:00001988       $SG64595                   1001a988     Stdafx.obj
 0002:00001994       $SG64596                   1001a994     Stdafx.obj
 0002:000019a0       $SG64597                   1001a9a0     Stdafx.obj
 0002:000019ac       $SG64598                   1001a9ac     Stdafx.obj
 0002:000019b8       $SG64599                   1001a9b8     Stdafx.obj
 0002:000019c4       $SG64600                   1001a9c4     Stdafx.obj
 0002:000019d0       $SG64601                   1001a9d0     Stdafx.obj
 0002:000019e8       $SG64602                   1001a9e8     Stdafx.obj
 0002:000019f4       $SG64603                   1001a9f4     Stdafx.obj
 0002:00001a04       $SG64604                   1001aa04     Stdafx.obj
 0002:00001a10       $SG64605                   1001aa10     Stdafx.obj
 0002:00001a1c       $SG64606                   1001aa1c     Stdafx.obj
 0002:00001a28       $SG64607                   1001aa28     Stdafx.obj
 0002:00001a34       $SG64608                   1001aa34     Stdafx.obj
 0002:00001a40       $SG64609                   1001aa40     Stdafx.obj
 0002:00001a4c       $SG64610                   1001aa4c     Stdafx.obj
 0002:00001a58       $SG64611                   1001aa58     Stdafx.obj
 0002:00001a68       $SG64612                   1001aa68     Stdafx.obj
 0002:00001a74       $SG64613                   1001aa74     Stdafx.obj
 0002:00001a80       $SG64614                   1001aa80     Stdafx.obj
 0002:00001a8c       $SG64615                   1001aa8c     Stdafx.obj
 0002:00001a98       $SG64616                   1001aa98     Stdafx.obj
 0002:00001aa4       $SG64617                   1001aaa4     Stdafx.obj
 0002:00001ab0       $SG64618                   1001aab0     Stdafx.obj
 0002:00001ac8       $SG64619                   1001aac8     Stdafx.obj
 0002:00001ad8       $SG64620                   1001aad8     Stdafx.obj
 0002:00001ae4       $SG64621                   1001aae4     Stdafx.obj
 0002:00001af0       $SG64622                   1001aaf0     Stdafx.obj
 0002:00001afc       $SG64623                   1001aafc     Stdafx.obj
 0002:00001b08       $SG64624                   1001ab08     Stdafx.obj
 0002:00001b20       $SG64625                   1001ab20     Stdafx.obj
 0002:00001b30       $SG64626                   1001ab30     Stdafx.obj
 0002:00001b3c       $SG64627                   1001ab3c     Stdafx.obj
 0002:00001b48       $SG64628                   1001ab48     Stdafx.obj
 0002:00001b54       $SG64629                   1001ab54     Stdafx.obj
 0002:00001b6c       $SG64630                   1001ab6c     Stdafx.obj
 0002:00001b7c       $SG64631                   1001ab7c     Stdafx.obj
 0002:00001b88       $SG64632                   1001ab88     Stdafx.obj
 0002:00001b94       $SG64633                   1001ab94     Stdafx.obj
 0002:00001ba0       $SG64634                   1001aba0     Stdafx.obj
 0002:00001bb0       $SG64635                   1001abb0     Stdafx.obj
 0002:00001bbc       $SG64636                   1001abbc     Stdafx.obj
 0002:00001bc8       $SG64637                   1001abc8     Stdafx.obj
 0002:00001bd4       $SG64638                   1001abd4     Stdafx.obj
 0002:00001be4       $SG64639                   1001abe4     Stdafx.obj
 0002:00001bf0       $SG64640                   1001abf0     Stdafx.obj
 0002:00001bfc       $SG64641                   1001abfc     Stdafx.obj
 0002:00001c08       $SG63617                   1001ac08     Stdafx.obj
 0002:00001c2c       $SG64642                   1001ac2c     Stdafx.obj
 0002:00001c38       $SG64643                   1001ac38     Stdafx.obj
 0002:00001c44       $SG64644                   1001ac44     Stdafx.obj
 0002:00001c50       $SG64645                   1001ac50     Stdafx.obj
 0002:00001c5c       $SG64646                   1001ac5c     Stdafx.obj
 0002:00001c68       $SG64647                   1001ac68     Stdafx.obj
 0002:00001c74       $SG64648                   1001ac74     Stdafx.obj
 0002:00001c80       $SG64649                   1001ac80     Stdafx.obj
 0002:00001c8c       $SG64650                   1001ac8c     Stdafx.obj
 0002:00001c98       $SG64651                   1001ac98     Stdafx.obj
 0002:00001ca4       $SG64652                   1001aca4     Stdafx.obj
 0002:00001cb0       $SG64653                   1001acb0     Stdafx.obj
 0002:00001cbc       $SG64654                   1001acbc     Stdafx.obj
 0002:00001cc8       $SG64655                   1001acc8     Stdafx.obj
 0002:00001cd4       $SG64656                   1001acd4     Stdafx.obj
 0002:00001ce0       $SG64657                   1001ace0     Stdafx.obj
 0002:00001cec       $SG64658                   1001acec     Stdafx.obj
 0002:00001cf8       $SG64659                   1001acf8     Stdafx.obj
 0002:00001d04       $SG64660                   1001ad04     Stdafx.obj
 0002:00001d10       $SG64661                   1001ad10     Stdafx.obj
 0002:00001d20       $SG64662                   1001ad20     Stdafx.obj
 0002:00001d28       $SG64664                   1001ad28     Stdafx.obj
 0002:00001d2c       $SG64665                   1001ad2c     Stdafx.obj
 0002:00001d34       $SG64666                   1001ad34     Stdafx.obj
 0002:00001d40       $SG64667                   1001ad40     Stdafx.obj
 0002:00001d48       $SG64668                   1001ad48     Stdafx.obj
 0002:00001d54       $SG64669                   1001ad54     Stdafx.obj
 0002:00001d60       $SG64670                   1001ad60     Stdafx.obj
 0002:00001d6c       $SG64671                   1001ad6c     Stdafx.obj
 0002:00001d78       $SG64672                   1001ad78     Stdafx.obj
 0002:00001d84       $SG64673                   1001ad84     Stdafx.obj
 0002:00001d90       $SG64674                   1001ad90     Stdafx.obj
 0002:00001d9c       $SG64675                   1001ad9c     Stdafx.obj
 0002:00001da8       $SG64676                   1001ada8     Stdafx.obj
 0002:00001db4       $SG64677                   1001adb4     Stdafx.obj
 0002:00001dc0       $SG64678                   1001adc0     Stdafx.obj
 0002:00001dcc       $SG64679                   1001adcc     Stdafx.obj
 0002:00001dd8       $SG64680                   1001add8     Stdafx.obj
 0002:00001de4       $SG64681                   1001ade4     Stdafx.obj
 0002:00001df0       $SG64682                   1001adf0     Stdafx.obj
 0002:00001dfc       $SG64683                   1001adfc     Stdafx.obj
 0002:00001e08       $SG64684                   1001ae08     Stdafx.obj
 0002:00001e10       $SG64685                   1001ae10     Stdafx.obj
 0002:00001e28       $SG64686                   1001ae28     Stdafx.obj
 0002:00001e40       $SG64687                   1001ae40     Stdafx.obj
 0002:00001e48       $SG64688                   1001ae48     Stdafx.obj
 0002:00001e54       $SG63664                   1001ae54     Stdafx.obj
 0002:00001e70       $SG64689                   1001ae70     Stdafx.obj
 0002:00001e78       $SG64690                   1001ae78     Stdafx.obj
 0002:00001e84       $SG64691                   1001ae84     Stdafx.obj
 0002:00001e90       $SG64692                   1001ae90     Stdafx.obj
 0002:00001ea8       $SG64693                   1001aea8     Stdafx.obj
 0002:00001eb0       $SG64694                   1001aeb0     Stdafx.obj
 0002:00001ebc       $SG64695                   1001aebc     Stdafx.obj
 0002:00001ec4       $SG64696                   1001aec4     Stdafx.obj
 0002:00001ed0       $SG64697                   1001aed0     Stdafx.obj
 0002:00001edc       $SG64698                   1001aedc     Stdafx.obj
 0002:00001ee4       $SG64699                   1001aee4     Stdafx.obj
 0002:00001ef0       $SG64700                   1001aef0     Stdafx.obj
 0002:00001ef8       $SG64701                   1001aef8     Stdafx.obj
 0002:00001f04       $SG64702                   1001af04     Stdafx.obj
 0002:00001f10       $SG64703                   1001af10     Stdafx.obj
 0002:00001f1c       $SG64704                   1001af1c     Stdafx.obj
 0002:00001f28       $SG64705                   1001af28     Stdafx.obj
 0002:00001f34       $SG64706                   1001af34     Stdafx.obj
 0002:00001f3c       $SG64707                   1001af3c     Stdafx.obj
 0002:00001f4c       $SG64708                   1001af4c     Stdafx.obj
 0002:00001f54       $SG64709                   1001af54     Stdafx.obj
 0002:00001f60       $SG64710                   1001af60     Stdafx.obj
 0002:00001f68       $SG64711                   1001af68     Stdafx.obj
 0002:00001f74       $SG64712                   1001af74     Stdafx.obj
 0002:00001f80       $SG64713                   1001af80     Stdafx.obj
 0002:00001f8c       $SG64714                   1001af8c     Stdafx.obj
 0002:00001f98       $SG64715                   1001af98     Stdafx.obj
 0002:00001fa4       $SG64716                   1001afa4     Stdafx.obj
 0002:00001fb0       $SG64717                   1001afb0     Stdafx.obj
 0002:00001fbc       $SG64718                   1001afbc     Stdafx.obj
 0002:00001fc8       $SG64719                   1001afc8     Stdafx.obj
 0002:00001fd4       $SG64720                   1001afd4     Stdafx.obj
 0002:00001fe0       $SG64721                   1001afe0     Stdafx.obj
 0002:00001fec       $SG64722                   1001afec     Stdafx.obj
 0002:00001ff8       $SG64723                   1001aff8     Stdafx.obj
 0002:00002004       $SG64724                   1001b004     Stdafx.obj
 0002:0000200c       $SG64725                   1001b00c     Stdafx.obj
 0002:00002018       $SG64726                   1001b018     Stdafx.obj
 0002:00002024       $SG64727                   1001b024     Stdafx.obj
 0002:00002030       $SG64728                   1001b030     Stdafx.obj
 0002:0000203c       $SG64729                   1001b03c     Stdafx.obj
 0002:00002048       $SG64730                   1001b048     Stdafx.obj
 0002:00002054       $SG64731                   1001b054     Stdafx.obj
 0002:00002060       $SG64732                   1001b060     Stdafx.obj
 0002:0000206c       $SG64733                   1001b06c     Stdafx.obj
 0002:00002078       $SG64734                   1001b078     Stdafx.obj
 0002:00002084       $SG64735                   1001b084     Stdafx.obj
 0002:00002090       $SG63711                   1001b090     Stdafx.obj
 0002:000020ac       $SG64736                   1001b0ac     Stdafx.obj
 0002:000020b8       $SG64737                   1001b0b8     Stdafx.obj
 0002:000020c4       $SG64738                   1001b0c4     Stdafx.obj
 0002:000020d0       $SG64739                   1001b0d0     Stdafx.obj
 0002:000020dc       $SG64740                   1001b0dc     Stdafx.obj
 0002:000020e8       $SG64741                   1001b0e8     Stdafx.obj
 0002:000020f4       $SG64742                   1001b0f4     Stdafx.obj
 0002:00002100       $SG64743                   1001b100     Stdafx.obj
 0002:0000210c       $SG64744                   1001b10c     Stdafx.obj
 0002:00002114       $SG64745                   1001b114     Stdafx.obj
 0002:00002120       $SG64746                   1001b120     Stdafx.obj
 0002:00002128       $SG64747                   1001b128     Stdafx.obj
 0002:00002134       $SG64748                   1001b134     Stdafx.obj
 0002:0000213c       $SG64749                   1001b13c     Stdafx.obj
 0002:00002148       $SG64750                   1001b148     Stdafx.obj
 0002:00002150       $SG64751                   1001b150     Stdafx.obj
 0002:0000215c       $SG64752                   1001b15c     Stdafx.obj
 0002:00002164       $SG64753                   1001b164     Stdafx.obj
 0002:00002170       $SG64754                   1001b170     Stdafx.obj
 0002:00002178       $SG64755                   1001b178     Stdafx.obj
 0002:00002184       $SG64756                   1001b184     Stdafx.obj
 0002:00002190       $SG64757                   1001b190     Stdafx.obj
 0002:0000219c       $SG64758                   1001b19c     Stdafx.obj
 0002:000021a8       $SG64759                   1001b1a8     Stdafx.obj
 0002:000021b4       $SG64760                   1001b1b4     Stdafx.obj
 0002:000021c0       $SG64761                   1001b1c0     Stdafx.obj
 0002:000021c8       $SG64762                   1001b1c8     Stdafx.obj
 0002:000021d4       $SG64763                   1001b1d4     Stdafx.obj
 0002:000021dc       $SG64764                   1001b1dc     Stdafx.obj
 0002:000021e8       $SG64765                   1001b1e8     Stdafx.obj
 0002:000021f0       $SG64766                   1001b1f0     Stdafx.obj
 0002:000021fc       $SG64767                   1001b1fc     Stdafx.obj
 0002:00002204       $SG64768                   1001b204     Stdafx.obj
 0002:00002210       $SG64769                   1001b210     Stdafx.obj
 0002:00002218       $SG64770                   1001b218     Stdafx.obj
 0002:00002224       $SG64771                   1001b224     Stdafx.obj
 0002:00002230       $SG64772                   1001b230     Stdafx.obj
 0002:00002238       $SG64773                   1001b238     Stdafx.obj
 0002:00002244       $SG64774                   1001b244     Stdafx.obj
 0002:0000224c       $SG64775                   1001b24c     Stdafx.obj
 0002:00002258       $SG64776                   1001b258     Stdafx.obj
 0002:00002260       $SG64777                   1001b260     Stdafx.obj
 0002:0000226c       $SG64778                   1001b26c     Stdafx.obj
 0002:00002274       $SG64779                   1001b274     Stdafx.obj
 0002:00002280       $SG64780                   1001b280     Stdafx.obj
 0002:00002288       $SG64781                   1001b288     Stdafx.obj
 0002:00002294       $SG64782                   1001b294     Stdafx.obj
 0002:000022a0       $SG63758                   1001b2a0     Stdafx.obj
 0002:000022c0       $SG64783                   1001b2c0     Stdafx.obj
 0002:000022c8       $SG64784                   1001b2c8     Stdafx.obj
 0002:000022d4       $SG64785                   1001b2d4     Stdafx.obj
 0002:000022dc       $SG64786                   1001b2dc     Stdafx.obj
 0002:000022e8       $SG64787                   1001b2e8     Stdafx.obj
 0002:000022f0       $SG64788                   1001b2f0     Stdafx.obj
 0002:000022fc       $SG64789                   1001b2fc     Stdafx.obj
 0002:00002304       $SG64790                   1001b304     Stdafx.obj
 0002:00002310       $SG64791                   1001b310     Stdafx.obj
 0002:00002318       $SG64792                   1001b318     Stdafx.obj
 0002:00002320       $SG64793                   1001b320     Stdafx.obj
 0002:00002330       $SG64794                   1001b330     Stdafx.obj
 0002:0000233c       $SG64795                   1001b33c     Stdafx.obj
 0002:00002344       $SG64796                   1001b344     Stdafx.obj
 0002:00002350       $SG64797                   1001b350     Stdafx.obj
 0002:00002358       $SG64798                   1001b358     Stdafx.obj
 0002:00002364       $SG64799                   1001b364     Stdafx.obj
 0002:0000236c       $SG64800                   1001b36c     Stdafx.obj
 0002:00002378       $SG64801                   1001b378     Stdafx.obj
 0002:00002384       $SG64802                   1001b384     Stdafx.obj
 0002:0000238c       $SG64803                   1001b38c     Stdafx.obj
 0002:00002398       $SG64804                   1001b398     Stdafx.obj
 0002:000023a4       $SG64805                   1001b3a4     Stdafx.obj
 0002:000023ac       $SG64806                   1001b3ac     Stdafx.obj
 0002:000023b8       $SG64807                   1001b3b8     Stdafx.obj
 0002:000023c0       $SG64808                   1001b3c0     Stdafx.obj
 0002:000023cc       $SG64809                   1001b3cc     Stdafx.obj
 0002:000023d4       $SG64810                   1001b3d4     Stdafx.obj
 0002:000023e0       $SG64811                   1001b3e0     Stdafx.obj
 0002:000023ec       $SG64812                   1001b3ec     Stdafx.obj
 0002:000023f8       $SG64813                   1001b3f8     Stdafx.obj
 0002:00002404       $SG64814                   1001b404     Stdafx.obj
 0002:0000240c       $SG64815                   1001b40c     Stdafx.obj
 0002:00002418       $SG64816                   1001b418     Stdafx.obj
 0002:00002424       $SG64817                   1001b424     Stdafx.obj
 0002:00002430       $SG64818                   1001b430     Stdafx.obj
 0002:00002438       $SG64819                   1001b438     Stdafx.obj
 0002:00002444       $SG64820                   1001b444     Stdafx.obj
 0002:0000244c       $SG64821                   1001b44c     Stdafx.obj
 0002:00002458       $SG64822                   1001b458     Stdafx.obj
 0002:00002460       $SG64823                   1001b460     Stdafx.obj
 0002:0000246c       $SG64824                   1001b46c     Stdafx.obj
 0002:00002474       $SG64825                   1001b474     Stdafx.obj
 0002:00002480       $SG64826                   1001b480     Stdafx.obj
 0002:0000248c       $SG64827                   1001b48c     Stdafx.obj
 0002:0000249c       $SG64828                   1001b49c     Stdafx.obj
 0002:000024ac       $SG64829                   1001b4ac     Stdafx.obj
 0002:000024bc       $SG63805                   1001b4bc     Stdafx.obj
 0002:000024dc       $SG64830                   1001b4dc     Stdafx.obj
 0002:000024e4       $SG64831                   1001b4e4     Stdafx.obj
 0002:000024f0       $SG64832                   1001b4f0     Stdafx.obj
 0002:000024f8       $SG64833                   1001b4f8     Stdafx.obj
 0002:00002504       $SG64834                   1001b504     Stdafx.obj
 0002:0000250c       $SG64835                   1001b50c     Stdafx.obj
 0002:00002518       $SG64836                   1001b518     Stdafx.obj
 0002:00002524       $SG64837                   1001b524     Stdafx.obj
 0002:00002530       $SG64838                   1001b530     Stdafx.obj
 0002:0000253c       $SG64839                   1001b53c     Stdafx.obj
 0002:00002544       $SG64840                   1001b544     Stdafx.obj
 0002:00002550       $SG64841                   1001b550     Stdafx.obj
 0002:00002558       $SG64842                   1001b558     Stdafx.obj
 0002:00002564       $SG64843                   1001b564     Stdafx.obj
 0002:00002574       $SG64844                   1001b574     Stdafx.obj
 0002:00002584       $SG64845                   1001b584     Stdafx.obj
 0002:00002594       $SG64846                   1001b594     Stdafx.obj
 0002:000025a4       $SG64847                   1001b5a4     Stdafx.obj
 0002:000025b4       $SG64848                   1001b5b4     Stdafx.obj
 0002:000025c4       $SG64849                   1001b5c4     Stdafx.obj
 0002:000025cc       $SG64850                   1001b5cc     Stdafx.obj
 0002:000025d8       $SG64851                   1001b5d8     Stdafx.obj
 0002:000025e0       $SG64852                   1001b5e0     Stdafx.obj
 0002:000025f8       $SG64853                   1001b5f8     Stdafx.obj
 0002:00002610       $SG64854                   1001b610     Stdafx.obj
 0002:00002628       $SG64855                   1001b628     Stdafx.obj
 0002:00002640       $SG64856                   1001b640     Stdafx.obj
 0002:00002648       $SG64857                   1001b648     Stdafx.obj
 0002:00002654       $SG64858                   1001b654     Stdafx.obj
 0002:00002660       $SG64859                   1001b660     Stdafx.obj
 0002:00002668       $SG64860                   1001b668     Stdafx.obj
 0002:00002674       $SG64861                   1001b674     Stdafx.obj
 0002:0000267c       $SG64862                   1001b67c     Stdafx.obj
 0002:0000268c       $SG64863                   1001b68c     Stdafx.obj
 0002:00002694       $SG64864                   1001b694     Stdafx.obj
 0002:000026a0       $SG64865                   1001b6a0     Stdafx.obj
 0002:000026a8       $SG64866                   1001b6a8     Stdafx.obj
 0002:000026b4       $SG64867                   1001b6b4     Stdafx.obj
 0002:000026bc       $SG64868                   1001b6bc     Stdafx.obj
 0002:000026c8       $SG64869                   1001b6c8     Stdafx.obj
 0002:000026d4       $SG64870                   1001b6d4     Stdafx.obj
 0002:000026dc       $SG64871                   1001b6dc     Stdafx.obj
 0002:000026e8       $SG64872                   1001b6e8     Stdafx.obj
 0002:000026f0       $SG64873                   1001b6f0     Stdafx.obj
 0002:000026fc       $SG64874                   1001b6fc     Stdafx.obj
 0002:00002704       $SG64875                   1001b704     Stdafx.obj
 0002:00002710       $SG64876                   1001b710     Stdafx.obj
 0002:00002718       $SG63852                   1001b718     Stdafx.obj
 0002:00002730       $SG64877                   1001b730     Stdafx.obj
 0002:0000273c       $SG64878                   1001b73c     Stdafx.obj
 0002:00002744       $SG64879                   1001b744     Stdafx.obj
 0002:0000275c       $SG64880                   1001b75c     Stdafx.obj
 0002:00002774       $SG64881                   1001b774     Stdafx.obj
 0002:0000277c       $SG63857                   1001b77c     Stdafx.obj
 0002:00002798       $SG64882                   1001b798     Stdafx.obj
 0002:000027a4       $SG64883                   1001b7a4     Stdafx.obj
 0002:000027b0       $SG64884                   1001b7b0     Stdafx.obj
 0002:000027c0       $SG64885                   1001b7c0     Stdafx.obj
 0002:000027d0       $SG64886                   1001b7d0     Stdafx.obj
 0002:000027dc       $SG64887                   1001b7dc     Stdafx.obj
 0002:000027e8       $SG64888                   1001b7e8     Stdafx.obj
 0002:000027f4       $SG64889                   1001b7f4     Stdafx.obj
 0002:00002800       $SG64890                   1001b800     Stdafx.obj
 0002:0000280c       $SG64891                   1001b80c     Stdafx.obj
 0002:00002818       $SG113024                  1001b818     Stdafx.obj
 0002:0000281c       $SG113026                  1001b81c     Stdafx.obj
 0002:00002820       $SG113028                  1001b820     Stdafx.obj
 0002:00002824       $SG113030                  1001b824     Stdafx.obj
 0002:00002828       $SG113032                  1001b828     Stdafx.obj
 0002:00002830       $SG113034                  1001b830     Stdafx.obj
 0002:00002848       $SG113036                  1001b848     Stdafx.obj
 0002:0000285c       $SG113038                  1001b85c     Stdafx.obj
 0002:0000286c       $SG63904                   1001b86c     Stdafx.obj
 0002:00002890       $SG63951                   1001b890     Stdafx.obj
 0002:000028ac       $SG63998                   1001b8ac     Stdafx.obj
 0002:000028c8       $SG62982                   1001b8c8     Stdafx.obj
 0002:000028e8       $SG63053                   1001b8e8     Stdafx.obj
 0002:00002900       $SG63100                   1001b900     Stdafx.obj
 0002:00002918       $SG63147                   1001b918     Stdafx.obj
 0002:0000293c       $SG63194                   1001b93c     Stdafx.obj
 0002:00002960       $SG85739                   1001b960     Stdafx.obj
 0002:00002984       $SG85741                   1001b984     Stdafx.obj
 0002:000029b0       $SG63241                   1001b9b0     Stdafx.obj
 0002:000029d4       $SG63288                   1001b9d4     Stdafx.obj
 0002:000029f8       $SG63335                   1001b9f8     Stdafx.obj
 0002:00002a18       $SG63382                   1001ba18     Stdafx.obj
 0002:00002a3c       $SG64435                   1001ba3c     Stdafx.obj
 0002:00002a44       $SG64436                   1001ba44     Stdafx.obj
 0002:00002a4c       $SG64437                   1001ba4c     Stdafx.obj
 0002:00002a54       $SG64438                   1001ba54     Stdafx.obj
 0002:00002a64       $SG64439                   1001ba64     Stdafx.obj
 0002:00002a6c       $SG64440                   1001ba6c     Stdafx.obj
 0002:00002a74       $SG64441                   1001ba74     Stdafx.obj
 0002:00002a7c       $SG64442                   1001ba7c     Stdafx.obj
 0002:00002a84       $SG64443                   1001ba84     Stdafx.obj
 0002:00002a8c       $SG64444                   1001ba8c     Stdafx.obj
 0002:00002a94       $SG64445                   1001ba94     Stdafx.obj
 0002:00002a9c       $SG64446                   1001ba9c     Stdafx.obj
 0002:00002aa4       $SG64447                   1001baa4     Stdafx.obj
 0002:00002aac       $SG64448                   1001baac     Stdafx.obj
 0002:00002ab4       $SG64449                   1001bab4     Stdafx.obj
 0002:00002abc       $SG64450                   1001babc     Stdafx.obj
 0002:00002ac4       $SG64451                   1001bac4     Stdafx.obj
 0002:00002acc       $SG64452                   1001bacc     Stdafx.obj
 0002:00002ad4       $SG64453                   1001bad4     Stdafx.obj
 0002:00002adc       $SG63429                   1001badc     Stdafx.obj
 0002:00002b04       $SG64454                   1001bb04     Stdafx.obj
 0002:00002b0c       $SG64455                   1001bb0c     Stdafx.obj
 0002:00002b14       $SG64456                   1001bb14     Stdafx.obj
 0002:00002b1c       $SG64457                   1001bb1c     Stdafx.obj
 0002:00002b24       $SG64458                   1001bb24     Stdafx.obj
 0002:00002b2c       $SG64459                   1001bb2c     Stdafx.obj
 0002:00002b34       $SG64460                   1001bb34     Stdafx.obj
 0002:00002b3c       $SG64461                   1001bb3c     Stdafx.obj
 0002:00002b44       $SG64462                   1001bb44     Stdafx.obj
 0002:00002b4c       $SG64463                   1001bb4c     Stdafx.obj
 0002:00002b54       $SG64464                   1001bb54     Stdafx.obj
 0002:00002b5c       $SG64465                   1001bb5c     Stdafx.obj
 0002:00002b64       $SG64466                   1001bb64     Stdafx.obj
 0002:00002b6c       $SG64467                   1001bb6c     Stdafx.obj
 0002:00002b74       $SG64468                   1001bb74     Stdafx.obj
 0002:00002b7c       $SG64469                   1001bb7c     Stdafx.obj
 0002:00002b84       $SG64470                   1001bb84     Stdafx.obj
 0002:00002b8c       $SG64471                   1001bb8c     Stdafx.obj
 0002:00002b94       $SG64472                   1001bb94     Stdafx.obj
 0002:00002b9c       $SG64473                   1001bb9c     Stdafx.obj
 0002:00002ba4       $SG64474                   1001bba4     Stdafx.obj
 0002:00002bac       $SG64475                   1001bbac     Stdafx.obj
 0002:00002bb4       $SG64476                   1001bbb4     Stdafx.obj
 0002:00002bbc       $SG64477                   1001bbbc     Stdafx.obj
 0002:00002bc4       $SG64478                   1001bbc4     Stdafx.obj
 0002:00002bcc       $SG64479                   1001bbcc     Stdafx.obj
 0002:00002bd4       $SG64480                   1001bbd4     Stdafx.obj
 0002:00002bdc       $SG64481                   1001bbdc     Stdafx.obj
 0002:00002be4       $SG64482                   1001bbe4     Stdafx.obj
 0002:00002bec       $SG64483                   1001bbec     Stdafx.obj
 0002:00002bf4       $SG64484                   1001bbf4     Stdafx.obj
 0002:00002bfc       $SG64485                   1001bbfc     Stdafx.obj
 0002:00002c04       $SG64486                   1001bc04     Stdafx.obj
 0002:00002c0c       $SG64487                   1001bc0c     Stdafx.obj
 0002:00002c14       $SG64488                   1001bc14     Stdafx.obj
 0002:00002c1c       $SG64489                   1001bc1c     Stdafx.obj
 0002:00002c24       $SG64490                   1001bc24     Stdafx.obj
 0002:00002c2c       $SG64491                   1001bc2c     Stdafx.obj
 0002:00002c34       $SG64492                   1001bc34     Stdafx.obj
 0002:00002c3c       $SG64493                   1001bc3c     Stdafx.obj
 0002:00002c44       $SG64494                   1001bc44     Stdafx.obj
 0002:00002c4c       $SG64495                   1001bc4c     Stdafx.obj
 0002:00002c54       $SG64496                   1001bc54     Stdafx.obj
 0002:00002c5c       $SG64497                   1001bc5c     Stdafx.obj
 0002:00002c64       $SG64498                   1001bc64     Stdafx.obj
 0002:00002c6c       $SG64499                   1001bc6c     Stdafx.obj
 0002:00002c74       $SG64500                   1001bc74     Stdafx.obj
 0002:00002c7c       $SG63476                   1001bc7c     Stdafx.obj
 0002:00002c9c       $SG64501                   1001bc9c     Stdafx.obj
 0002:00002ca0       $SG64502                   1001bca0     Stdafx.obj
 0002:00002cac       $SG64503                   1001bcac     Stdafx.obj
 0002:00002cb8       $SG64504                   1001bcb8     Stdafx.obj
 0002:00002cc4       $SG64505                   1001bcc4     Stdafx.obj
 0002:00002cd0       $SG64506                   1001bcd0     Stdafx.obj
 0002:00002cdc       $SG64507                   1001bcdc     Stdafx.obj
 0002:00002ce8       $SG64508                   1001bce8     Stdafx.obj
 0002:00002cf4       $SG64509                   1001bcf4     Stdafx.obj
 0002:00002d00       $SG64510                   1001bd00     Stdafx.obj
 0002:00002d0c       $SG64511                   1001bd0c     Stdafx.obj
 0002:00002d18       ?IID_IAndroidUserItemSink@@3U_GUID@@B 1001bd18     UserTaskManager.obj
 0002:00002d28       ?IID_IUserTaskManagerSink@@3U_GUID@@B 1001bd28     UserTaskManager.obj
 0002:00002d38       ?IID_ITraceServiceManager@@3U_GUID@@B 1001bd38     UserTaskManager.obj
 0002:00002d48       ?IID_IGameServiceManager@@3U_GUID@@B 1001bd48     UserTaskManager.obj
 0002:00002d58       ?IID_IAsynchronismEngine@@3U_GUID@@B 1001bd58     UserTaskManager.obj
 0002:00002d68       ?IID_IDataBase@@3U_GUID@@B 1001bd68     UserTaskManager.obj
 0002:00002d78       ?IID_IUnknownEx@@3U_GUID@@B 1001bd78     UserTaskManager.obj
 0002:00002d88       ?IID_IDataBaseEngine@@3U_GUID@@B 1001bd88     UserTaskManager.obj
 0002:00002d98       ?IID_IUDPNetworkEngine@@3U_GUID@@B 1001bd98     UserTaskManager.obj
 0002:00002da8       ?IID_ITCPNetworkEngine@@3U_GUID@@B 1001bda8     UserTaskManager.obj
 0002:00002db8       ?IID_ITCPSocketService@@3U_GUID@@B 1001bdb8     UserTaskManager.obj
 0002:00002dc8       ?IID_IWEBSocketService@@3U_GUID@@B 1001bdc8     UserTaskManager.obj
 0002:00002dd8       ?IID_ITimerEngine@@3U_GUID@@B 1001bdd8     UserTaskManager.obj
 0002:00002de8       ?IID_IAttemperEngine@@3U_GUID@@B 1001bde8     UserTaskManager.obj
 0002:00002df8       $SG223014                  1001bdf8     UserTaskManager.obj
 0002:00002e04       $SG223100                  1001be04     UserTaskManager.obj
 0002:00002ed0       _Int32ToUInt32             1001bed0     msvcrt:_ftol3_.obj
 0002:00002ed8       _DP2to32                   1001bed8     msvcrt:_ftol3_.obj
 0002:00002ee0       _MantissaMask              1001bee0     msvcrt:_ftol3_.obj
 0002:00002ee8       _IntegerBit                1001bee8     msvcrt:_ftol3_.obj
 0002:00002ef0       _SignBit64                 1001bef0     msvcrt:_ftol3_.obj
 0002:00002ef8       _MinFP64                   1001bef8     msvcrt:_ftol3_.obj
 0002:00002f00       _MinInt64                  1001bf00     msvcrt:_ftol3_.obj
 0002:00002f08       _MaxInt64                  1001bf08     msvcrt:_ftol3_.obj
 0002:00002f10       _MaxUInt64                 1001bf10     msvcrt:_ftol3_.obj
 0002:00002f18       _MaxFP32                   1001bf18     msvcrt:_ftol3_.obj
 0002:00002f20       _MinFP32                   1001bf20     msvcrt:_ftol3_.obj
 0002:00002f28       _MinSubInexact             1001bf28     msvcrt:_ftol3_.obj
 0002:00002f30       _FpExcptTable              1001bf30     msvcrt:_ftol3_.obj
 0002:00002f40       _i1075                     1001bf40     msvcrt:_ftol3_.obj
 0002:00002f44       _i1087                     1001bf44     msvcrt:_ftol3_.obj
 0002:00002f48       _x0800                     1001bf48     msvcrt:_ftol3_.obj
 0002:00002f4c       _x17FF                     1001bf4c     msvcrt:_ftol3_.obj
 0002:00002f50       _CWMask                    1001bf50     msvcrt:_ftol3_.obj
 0002:00002fd0       _GS_ExceptionPointers      1001bfd0     msvcrt:gs_report.obj
 0002:00003ef0       __catchsym$?RepositUserItem@CAndroidUserItem@@QAEXXZ$2 1001cef0     AndroidUserItem.obj
 0002:00003f00       __unwindtable$?RepositUserItem@CAndroidUserItem@@QAEXXZ 1001cf00     AndroidUserItem.obj
 0002:00003f10       __catchsym$?OnSocketGameMessage@CAndroidUserItem@@IAE_NGGPAXG@Z$3 1001cf10     AndroidUserItem.obj
 0002:00003f20       __catchsym$?OnTimerPulse@CAndroidUserItem@@QAE_NKI@Z$3 1001cf20     AndroidUserItem.obj
 0002:00003f30       __catchsym$?SetGameTimer@CAndroidUserItem@@UAE_NII@Z$2 1001cf30     AndroidUserItem.obj
 0002:00003f40       __unwindtable$?SetGameTimer@CAndroidUserItem@@UAE_NII@Z 1001cf40     AndroidUserItem.obj
 0002:00003f50       __catchsym$??1CAndroidUserItem@@UAE@XZ$10 1001cf50     AndroidUserItem.obj
 0002:00003f60       __catchsym$??1CAndroidUserItem@@UAE@XZ$9 1001cf60     AndroidUserItem.obj
 0002:00003f70       __catchsym$??1CAndroidUserItem@@UAE@XZ$8 1001cf70     AndroidUserItem.obj
 0002:00003f80       __unwindtable$??0CAndroidUserItem@@QAE@XZ 1001cf80     AndroidUserItem.obj
 0002:00003f90       __tryblocktable$?RepositUserItem@CAndroidUserItem@@QAEXXZ 1001cf90     AndroidUserItem.obj
 0002:00003fa4       __tryblocktable$?OnSocketGameMessage@CAndroidUserItem@@IAE_NGGPAXG@Z 1001cfa4     AndroidUserItem.obj
 0002:00003fb8       __tryblocktable$?OnTimerPulse@CAndroidUserItem@@QAE_NKI@Z 1001cfb8     AndroidUserItem.obj
 0002:00003fcc       __tryblocktable$?SetGameTimer@CAndroidUserItem@@UAE_NII@Z 1001cfcc     AndroidUserItem.obj
 0002:00003fe0       __unwindtable$?OnSocketGameMessage@CAndroidUserItem@@IAE_NGGPAXG@Z 1001cfe0     AndroidUserItem.obj
 0002:00003ff8       __unwindtable$?OnTimerPulse@CAndroidUserItem@@QAE_NKI@Z 1001cff8     AndroidUserItem.obj
 0002:00004010       __ehfuncinfo$?RepositUserItem@CAndroidUserItem@@QAEXXZ 1001d010     AndroidUserItem.obj
 0002:00004034       __ehfuncinfo$?OnSocketGameMessage@CAndroidUserItem@@IAE_NGGPAXG@Z 1001d034     AndroidUserItem.obj
 0002:00004058       __ehfuncinfo$?OnTimerPulse@CAndroidUserItem@@QAE_NKI@Z 1001d058     AndroidUserItem.obj
 0002:0000407c       __ehfuncinfo$?SetGameTimer@CAndroidUserItem@@UAE_NII@Z 1001d07c     AndroidUserItem.obj
 0002:000040a0       __ehfuncinfo$??1CAndroidUserItem@@UAE@XZ 1001d0a0     AndroidUserItem.obj
 0002:000040c4       __ehfuncinfo$??0CAndroidUserItem@@QAE@XZ 1001d0c4     AndroidUserItem.obj
 0002:000040e8       __tryblocktable$??1CAndroidUserItem@@UAE@XZ 1001d0e8     AndroidUserItem.obj
 0002:00004124       __unwindtable$??1CAndroidUserItem@@UAE@XZ 1001d124     AndroidUserItem.obj
 0002:00004164       __catchsym$?_Buynode0@?$_List_alloc@U?$_List_base_types@VSortTop@@V?$allocator@VSortTop@@@std@@@std@@@std@@QAEPAU?$_List_node@VSortTop@@PAX@2@PAU32@0@Z$2 1001d164     AndroidUserManager.obj
 0002:00004174       __unwindtable$?_Buynode0@?$_List_alloc@U?$_List_base_types@VSortTop@@V?$allocator@VSortTop@@@std@@@std@@@std@@QAEPAU?$_List_node@VSortTop@@PAX@2@PAU32@0@Z 1001d174     AndroidUserManager.obj
 0002:00004184       __tryblocktable$?_Buynode0@?$_List_alloc@U?$_List_base_types@VSortTop@@V?$allocator@VSortTop@@@std@@@std@@@std@@QAEPAU?$_List_node@VSortTop@@PAX@2@PAU32@0@Z 1001d184     AndroidUserManager.obj
 0002:00004198       __ehfuncinfo$?_Buynode0@?$_List_alloc@U?$_List_base_types@VSortTop@@V?$allocator@VSortTop@@@std@@@std@@@std@@QAEPAU?$_List_node@VSortTop@@PAX@2@PAU32@0@Z 1001d198     AndroidUserManager.obj
 0002:000041bc       __catchsym$??0?$list@VSortTop@@V?$allocator@VSortTop@@@std@@@std@@QAE@ABV01@@Z$3 1001d1bc     AndroidUserManager.obj
 0002:000041cc       __tryblocktable$??0?$list@VSortTop@@V?$allocator@VSortTop@@@std@@@std@@QAE@ABV01@@Z 1001d1cc     AndroidUserManager.obj
 0002:000041e0       __unwindtable$??0?$list@VSortTop@@V?$allocator@VSortTop@@@std@@@std@@QAE@ABV01@@Z 1001d1e0     AndroidUserManager.obj
 0002:000041f8       __ehfuncinfo$??0?$list@VSortTop@@V?$allocator@VSortTop@@@std@@@std@@QAE@ABV01@@Z 1001d1f8     AndroidUserManager.obj
 0002:0000421c       __ehfuncinfo$??1?$_Tree_comp_alloc@V?$_Tmap_traits@KV?$vector@UtagPropertyBuff@@V?$allocator@UtagPropertyBuff@@@std@@@std@@U?$less@K@2@V?$allocator@U?$pair@$$CBKV?$vector@UtagPropertyBuff@@V?$allocator@UtagPropertyBuff@@@std@@@std@@@std@@@2@$0A@@std@@@std@@QAE@XZ 1001d21c     GamePropertyManager.obj
 0002:0000421c       __ehfuncinfo$?end@?$list@VSortTop@@V?$allocator@VSortTop@@@std@@@std@@QBE?AV?$_List_const_iterator@V?$_List_val@U?$_List_simple_types@VSortTop@@@std@@@std@@@2@XZ 1001d21c     AndroidUserManager.obj
 0002:0000421c       __ehfuncinfo$??1?$CMap@KKPAUtagUserTaskEntry@@PAU1@@@UAE@XZ 1001d21c     UserTaskManager.obj
 0002:0000421c       __ehfuncinfo$?_Make_iter@?$list@VSortTop@@V?$allocator@VSortTop@@@std@@@std@@QBE?AV?$_List_iterator@V?$_List_val@U?$_List_simple_types@VSortTop@@@std@@@std@@@2@V?$_List_const_iterator@V?$_List_val@U?$_List_simple_types@VSortTop@@@std@@@std@@@2@@Z 1001d21c     AndroidUserManager.obj
 0002:0000421c       __ehfuncinfo$?clear@?$list@VSortTop@@V?$allocator@VSortTop@@@std@@@std@@QAEXXZ 1001d21c     AndroidUserManager.obj
 0002:0000421c       __ehfuncinfo$?reverse@?$list@VSortTop@@V?$allocator@VSortTop@@@std@@@std@@QAEXXZ 1001d21c     AndroidUserManager.obj
 0002:0000421c       __ehfuncinfo$?end@?$list@VSortTop@@V?$allocator@VSortTop@@@std@@@std@@QAE?AV?$_List_iterator@V?$_List_val@U?$_List_simple_types@VSortTop@@@std@@@std@@@2@XZ 1001d21c     AndroidUserManager.obj
 0002:0000421c       __ehfuncinfo$?clear@?$_Tree@V?$_Tmap_traits@KV?$vector@UtagPropertyBuff@@V?$allocator@UtagPropertyBuff@@@std@@@std@@U?$less@K@2@V?$allocator@U?$pair@$$CBKV?$vector@UtagPropertyBuff@@V?$allocator@UtagPropertyBuff@@@std@@@std@@@std@@@2@$0A@@std@@@std@@QAEXXZ 1001d21c     GamePropertyManager.obj
 0002:0000421c       __ehfuncinfo$??_ECAndroidUserItem@@UAEPAXI@Z 1001d21c     AndroidUserItem.obj
 0002:0000421c       __ehfuncinfo$??$forward_as_tuple@ABK@std@@YA?AV?$tuple@ABK@0@ABK@Z 1001d21c     GamePropertyManager.obj
 0002:0000421c       __ehfuncinfo$??_ECGamePropertyManager@@UAEPAXI@Z 1001d21c     GamePropertyManager.obj
 0002:0000421c       __ehfuncinfo$??1?$CMap@KKPAVCServerUserItem@@PAV1@@@UAE@XZ 1001d21c     ServerUserManager.obj
 0002:0000421c       __ehfuncinfo$??1?$_List_alloc@U?$_List_base_types@VSortTop@@V?$allocator@VSortTop@@@std@@@std@@@std@@QAE@XZ 1001d21c     AndroidUserManager.obj
 0002:0000421c       __ehfuncinfo$??_ECServerUserManager@@UAEPAXI@Z 1001d21c     ServerUserManager.obj
 0002:0000421c       __ehfuncinfo$?clear@?$vector@UtagPropertyBuff@@V?$allocator@UtagPropertyBuff@@@std@@@std@@QAEXXZ 1001d21c     GamePropertyManager.obj
 0002:0000421c       __ehfuncinfo$??1?$CMap@KKPAVCAndroidUserItem@@PAV1@@@UAE@XZ 1001d21c     AndroidUserManager.obj
 0002:0000421c       __ehfuncinfo$?begin@?$vector@UtagPropertyBuff@@V?$allocator@UtagPropertyBuff@@@std@@@std@@QBE?AV?$_Vector_const_iterator@V?$_Vector_val@U?$_Simple_types@UtagPropertyBuff@@@std@@@std@@@2@XZ 1001d21c     GamePropertyManager.obj
 0002:0000421c       __ehfuncinfo$??1?$vector@UtagPropertyBuff@@V?$allocator@UtagPropertyBuff@@@std@@@std@@QAE@XZ 1001d21c     GamePropertyManager.obj
 0002:0000421c       __ehfuncinfo$??_ECAndroidUserManager@@UAEPAXI@Z 1001d21c     AndroidUserManager.obj
 0002:0000421c       __ehfuncinfo$??1?$CMap@HHPAUtagGameDataItem@@AAPAU1@@@UAE@XZ 1001d21c     ServerUserManager.obj
 0002:0000421c       __ehfuncinfo$??_ECServerUserItem@@MAEPAXI@Z 1001d21c     ServerUserManager.obj
 0002:0000421c       __ehfuncinfo$??_ECUserTaskManager@@UAEPAXI@Z 1001d21c     UserTaskManager.obj
 0002:0000421c       __ehfuncinfo$?begin@?$list@VSortTop@@V?$allocator@VSortTop@@@std@@@std@@QBE?AV?$_List_const_iterator@V?$_List_val@U?$_List_simple_types@VSortTop@@@std@@@std@@@2@XZ 1001d21c     AndroidUserManager.obj
 0002:0000421c       __ehfuncinfo$?begin@?$list@VSortTop@@V?$allocator@VSortTop@@@std@@@std@@QAE?AV?$_List_iterator@V?$_List_val@U?$_List_simple_types@VSortTop@@@std@@@std@@@2@XZ 1001d21c     AndroidUserManager.obj
 0002:0000421c       __ehfuncinfo$??1?$list@VSortTop@@V?$allocator@VSortTop@@@std@@@std@@QAE@XZ 1001d21c     AndroidUserManager.obj
 0002:0000421c       __ehfuncinfo$??1?$_Tree@V?$_Tmap_traits@KV?$vector@UtagPropertyBuff@@V?$allocator@UtagPropertyBuff@@@std@@@std@@U?$less@K@2@V?$allocator@U?$pair@$$CBKV?$vector@UtagPropertyBuff@@V?$allocator@UtagPropertyBuff@@@std@@@std@@@std@@@2@$0A@@std@@@std@@QAE@XZ 1001d21c     GamePropertyManager.obj
 0002:0000421c       __ehfuncinfo$?begin@?$_Tree@V?$_Tmap_traits@KV?$vector@UtagPropertyBuff@@V?$allocator@UtagPropertyBuff@@@std@@@std@@U?$less@K@2@V?$allocator@U?$pair@$$CBKV?$vector@UtagPropertyBuff@@V?$allocator@UtagPropertyBuff@@@std@@@std@@@std@@@2@$0A@@std@@@std@@QAE?AV?$_Tree_iterator@V?$_Tree_val@U?$_Tree_simple_types@U?$pair@$$CBKV?$vector@UtagPropertyBuff@@V?$allocator@UtagPropertyBuff@@@std@@@std@@@std@@@std@@@std@@@2@XZ 1001d21c     GamePropertyManager.obj
 0002:0000421c       __ehfuncinfo$??0?$vector@UtagPropertyBuff@@V?$allocator@UtagPropertyBuff@@@std@@@std@@QAE@XZ 1001d21c     GamePropertyManager.obj
 0002:0000421c       __ehfuncinfo$??1?$CMap@GGPAUtagTaskParameter@@PAU1@@@UAE@XZ 1001d21c     UserTaskManager.obj
 0002:0000421c       __ehfuncinfo$?end@?$_Tree@V?$_Tmap_traits@KV?$vector@UtagPropertyBuff@@V?$allocator@UtagPropertyBuff@@@std@@@std@@U?$less@K@2@V?$allocator@U?$pair@$$CBKV?$vector@UtagPropertyBuff@@V?$allocator@UtagPropertyBuff@@@std@@@std@@@std@@@2@$0A@@std@@@std@@QAE?AV?$_Tree_iterator@V?$_Tree_val@U?$_Tree_simple_types@U?$pair@$$CBKV?$vector@UtagPropertyBuff@@V?$allocator@UtagPropertyBuff@@@std@@@std@@@std@@@std@@@std@@@2@XZ 1001d21c     GamePropertyManager.obj
 0002:0000421c       __ehfuncinfo$?end@?$vector@UtagPropertyBuff@@V?$allocator@UtagPropertyBuff@@@std@@@std@@QBE?AV?$_Vector_const_iterator@V?$_Vector_val@U?$_Simple_types@UtagPropertyBuff@@@std@@@std@@@2@XZ 1001d21c     GamePropertyManager.obj
 0002:00004240       __unwindtable$?EfficacyAndroidWaitLeave@CAndroidUserManager@@IAEXXZ 1001d240     AndroidUserManager.obj
 0002:00004248       __unwindtable$?EfficacyAndroidInOut@CAndroidUserManager@@IAE_N_N@Z 1001d248     AndroidUserManager.obj
 0002:00004250       __unwindtable$?AnalyseLeaveGradeListValid@CAndroidUserManager@@IAE_NKV?$list@VSortTop@@V?$allocator@VSortTop@@@std@@@std@@H@Z 1001d250     AndroidUserManager.obj
 0002:00004258       __unwindtable$?RemoveAndroidParameter@CAndroidUserManager@@UAE_NXZ 1001d258     AndroidUserManager.obj
 0002:00004260       __catchsym$?ActiveAndroidUserInfo@CAndroidUserManager@@IAEPAUtagAndroidAccountsInfo@@AAU2@@Z$3 1001d260     AndroidUserManager.obj
 0002:00004270       __catchsym$?ActiveAndroidUserItem@CAndroidUserManager@@IAEPAVCAndroidUserItem@@AAUtagAndroidAccountsInfo@@@Z$6 1001d270     AndroidUserManager.obj
 0002:00004280       __catchsym$?ActiveAndroidUserItem@CAndroidUserManager@@IAEPAVCAndroidUserItem@@AAUtagAndroidAccountsInfo@@@Z$5 1001d280     AndroidUserManager.obj
 0002:00004290       __catchsym$?SendDataToServer@CAndroidUserManager@@UAE_NKGGPAXG@Z$3 1001d290     AndroidUserManager.obj
 0002:000042a0       __catchsym$?SendDataToClient@CAndroidUserManager@@UAE_NKGGPAXG@Z$2 1001d2a0     AndroidUserManager.obj
 0002:000042b0       __unwindtable$?SendDataToClient@CAndroidUserManager@@UAE_NKGGPAXG@Z 1001d2b0     AndroidUserManager.obj
 0002:000042c0       __catchsym$?SendDataToClient@CAndroidUserManager@@UAE_NGGPAXG@Z$2 1001d2c0     AndroidUserManager.obj
 0002:000042d0       __unwindtable$?SendDataToClient@CAndroidUserManager@@UAE_NGGPAXG@Z 1001d2d0     AndroidUserManager.obj
 0002:000042e0       __catchsym$?OnEventTimerPulse@CAndroidUserManager@@UAE_NKI@Z$2 1001d2e0     AndroidUserManager.obj
 0002:000042f0       __unwindtable$?OnEventTimerPulse@CAndroidUserManager@@UAE_NKI@Z 1001d2f0     AndroidUserManager.obj
 0002:00004300       __catchsym$?CreateAndroidUserItem@CAndroidUserManager@@UAEPAUIAndroidUserItem@@AAUtagAndroidAccountsInfo@@@Z$5 1001d300     AndroidUserManager.obj
 0002:00004310       __catchsym$?CreateAndroidUserItem@CAndroidUserManager@@UAEPAUIAndroidUserItem@@AAUtagAndroidAccountsInfo@@@Z$4 1001d310     AndroidUserManager.obj
 0002:00004320       __catchsym$?DeleteAndroidUserItem@CAndroidUserManager@@UAE_NK_N@Z$2 1001d320     AndroidUserManager.obj
 0002:00004330       __unwindtable$?DeleteAndroidUserItem@CAndroidUserManager@@UAE_NK_N@Z 1001d330     AndroidUserManager.obj
 0002:00004340       __catchsym$?ConcludeService@CAndroidUserManager@@UAE_NXZ$11 1001d340     AndroidUserManager.obj
 0002:00004350       __catchsym$?ConcludeService@CAndroidUserManager@@UAE_NXZ$10 1001d350     AndroidUserManager.obj
 0002:00004360       __catchsym$?ConcludeService@CAndroidUserManager@@UAE_NXZ$9 1001d360     AndroidUserManager.obj
 0002:00004370       __catchsym$?ConcludeService@CAndroidUserManager@@UAE_NXZ$8 1001d370     AndroidUserManager.obj
 0002:00004380       __tryblocktable$?ActiveAndroidUserInfo@CAndroidUserManager@@IAEPAUtagAndroidAccountsInfo@@AAU2@@Z 1001d380     AndroidUserManager.obj
 0002:00004394       __tryblocktable$?SendDataToServer@CAndroidUserManager@@UAE_NKGGPAXG@Z 1001d394     AndroidUserManager.obj
 0002:000043a8       __tryblocktable$?SendDataToClient@CAndroidUserManager@@UAE_NKGGPAXG@Z 1001d3a8     AndroidUserManager.obj
 0002:000043bc       __tryblocktable$?SendDataToClient@CAndroidUserManager@@UAE_NGGPAXG@Z 1001d3bc     AndroidUserManager.obj
 0002:000043d0       __tryblocktable$?OnEventTimerPulse@CAndroidUserManager@@UAE_NKI@Z 1001d3d0     AndroidUserManager.obj
 0002:000043e4       __tryblocktable$?DeleteAndroidUserItem@CAndroidUserManager@@UAE_NK_N@Z 1001d3e4     AndroidUserManager.obj
 0002:000043f8       __unwindtable$?ActiveAndroidUserInfo@CAndroidUserManager@@IAEPAUtagAndroidAccountsInfo@@AAU2@@Z 1001d3f8     AndroidUserManager.obj
 0002:00004410       __unwindtable$?SendDataToServer@CAndroidUserManager@@UAE_NKGGPAXG@Z 1001d410     AndroidUserManager.obj
 0002:00004428       __unwindtable$?CreateAndroidUserItem@CAndroidUserManager@@UAEPAUIAndroidUserItem@@AAUtagAndroidAccountsInfo@@@Z 1001d428     AndroidUserManager.obj
 0002:00004448       __ehfuncinfo$?EfficacyAndroidWaitLeave@CAndroidUserManager@@IAEXXZ 1001d448     AndroidUserManager.obj
 0002:0000446c       __ehfuncinfo$?EfficacyAndroidInOut@CAndroidUserManager@@IAE_N_N@Z 1001d46c     AndroidUserManager.obj
 0002:00004490       __ehfuncinfo$?AnalyseLeaveGradeListValid@CAndroidUserManager@@IAE_NKV?$list@VSortTop@@V?$allocator@VSortTop@@@std@@@std@@H@Z 1001d490     AndroidUserManager.obj
 0002:000044b4       __ehfuncinfo$?AnalyseAndroidItemArrayLeave@CAndroidUserManager@@IAEXXZ 1001d4b4     AndroidUserManager.obj
 0002:000044d8       __ehfuncinfo$?ActiveAndroidUserInfo@CAndroidUserManager@@IAEPAUtagAndroidAccountsInfo@@AAU2@@Z 1001d4d8     AndroidUserManager.obj
 0002:000044fc       __ehfuncinfo$?ActiveAndroidUserItem@CAndroidUserManager@@IAEPAVCAndroidUserItem@@AAUtagAndroidAccountsInfo@@@Z 1001d4fc     AndroidUserManager.obj
 0002:00004520       __ehfuncinfo$?SendDataToServer@CAndroidUserManager@@UAE_NKGGPAXG@Z 1001d520     AndroidUserManager.obj
 0002:00004544       __ehfuncinfo$?SendDataToClient@CAndroidUserManager@@UAE_NKGGPAXG@Z 1001d544     AndroidUserManager.obj
 0002:00004568       __ehfuncinfo$?SendDataToClient@CAndroidUserManager@@UAE_NGGPAXG@Z 1001d568     AndroidUserManager.obj
 0002:0000458c       __ehfuncinfo$?OnEventTimerPulse@CAndroidUserManager@@UAE_NKI@Z 1001d58c     AndroidUserManager.obj
 0002:000045b0       __ehfuncinfo$?CreateAndroidUserItem@CAndroidUserManager@@UAEPAUIAndroidUserItem@@AAUtagAndroidAccountsInfo@@@Z 1001d5b0     AndroidUserManager.obj
 0002:000045d4       __ehfuncinfo$?DeleteAndroidUserItem@CAndroidUserManager@@UAE_NK_N@Z 1001d5d4     AndroidUserManager.obj
 0002:000045f8       __ehfuncinfo$?RemoveAndroidParameter@CAndroidUserManager@@UAE_NXZ 1001d5f8     AndroidUserManager.obj
 0002:0000461c       __ehfuncinfo$?InitAndroidUser@CAndroidUserManager@@UAE_NAAUtagAndroidUserParameter@@@Z 1001d61c     AndroidUserManager.obj
 0002:00004640       __ehfuncinfo$?ConcludeService@CAndroidUserManager@@UAE_NXZ 1001d640     AndroidUserManager.obj
 0002:00004664       __ehfuncinfo$??0CAndroidUserManager@@QAE@XZ 1001d664     AndroidUserManager.obj
 0002:00004688       __tryblocktable$?ActiveAndroidUserItem@CAndroidUserManager@@IAEPAVCAndroidUserItem@@AAUtagAndroidAccountsInfo@@@Z 1001d688     AndroidUserManager.obj
 0002:000046b0       __unwindtable$?ActiveAndroidUserItem@CAndroidUserManager@@IAEPAVCAndroidUserItem@@AAUtagAndroidAccountsInfo@@@Z 1001d6b0     AndroidUserManager.obj
 0002:000046d8       __tryblocktable$?CreateAndroidUserItem@CAndroidUserManager@@UAEPAUIAndroidUserItem@@AAUtagAndroidAccountsInfo@@@Z 1001d6d8     AndroidUserManager.obj
 0002:00004700       __unwindtable$??0CAndroidUserManager@@QAE@XZ 1001d700     AndroidUserManager.obj
 0002:00004730       __unwindtable$?ConcludeService@CAndroidUserManager@@UAE_NXZ 1001d730     AndroidUserManager.obj
 0002:00004770       __tryblocktable$?ConcludeService@CAndroidUserManager@@UAE_NXZ 1001d770     AndroidUserManager.obj
 0002:000047c0       __unwindtable$?AnalyseAndroidItemArrayLeave@CAndroidUserManager@@IAEXXZ 1001d7c0     AndroidUserManager.obj
 0002:00004820       __unwindtable$?InitAndroidUser@CAndroidUserManager@@UAE_NAAUtagAndroidUserParameter@@@Z 1001d820     AndroidUserManager.obj
 0002:00004898       __catchsym$??$_Insert_range@V?$_List_const_iterator@V?$_List_val@U?$_List_simple_types@VSortTop@@@std@@@std@@@std@@@?$list@VSortTop@@V?$allocator@VSortTop@@@std@@@std@@QAEXV?$_List_unchecked_const_iterator@V?$_List_val@U?$_List_simple_types@VSortTop@@@std@@@std@@U_Iterator_base0@2@@1@V?$_List_const_iterator@V?$_List_val@U?$_List_simple_types@VSortTop@@@std@@@std@@@1@1Uforward_iterator_tag@1@@Z$2 1001d898     AndroidUserManager.obj
 0002:000048a8       __unwindtable$??$_Insert_range@V?$_List_const_iterator@V?$_List_val@U?$_List_simple_types@VSortTop@@@std@@@std@@@std@@@?$list@VSortTop@@V?$allocator@VSortTop@@@std@@@std@@QAEXV?$_List_unchecked_const_iterator@V?$_List_val@U?$_List_simple_types@VSortTop@@@std@@@std@@U_Iterator_base0@2@@1@V?$_List_const_iterator@V?$_List_val@U?$_List_simple_types@VSortTop@@@std@@@std@@@1@1Uforward_iterator_tag@1@@Z 1001d8a8     AndroidUserManager.obj
 0002:000048b8       __tryblocktable$??$_Insert_range@V?$_List_const_iterator@V?$_List_val@U?$_List_simple_types@VSortTop@@@std@@@std@@@std@@@?$list@VSortTop@@V?$allocator@VSortTop@@@std@@@std@@QAEXV?$_List_unchecked_const_iterator@V?$_List_val@U?$_List_simple_types@VSortTop@@@std@@@std@@U_Iterator_base0@2@@1@V?$_List_const_iterator@V?$_List_val@U?$_List_simple_types@VSortTop@@@std@@@std@@@1@1Uforward_iterator_tag@1@@Z 1001d8b8     AndroidUserManager.obj
 0002:000048cc       __ehfuncinfo$??$_Insert_range@V?$_List_const_iterator@V?$_List_val@U?$_List_simple_types@VSortTop@@@std@@@std@@@std@@@?$list@VSortTop@@V?$allocator@VSortTop@@@std@@@std@@QAEXV?$_List_unchecked_const_iterator@V?$_List_val@U?$_List_simple_types@VSortTop@@@std@@@std@@U_Iterator_base0@2@@1@V?$_List_const_iterator@V?$_List_val@U?$_List_simple_types@VSortTop@@@std@@@std@@@1@1Uforward_iterator_tag@1@@Z 1001d8cc     AndroidUserManager.obj
 0002:000048f0       __catchsym$??$_Buynode@ABVSortTop@@@?$_List_buy@VSortTop@@V?$allocator@VSortTop@@@std@@@std@@QAEPAU?$_List_node@VSortTop@@PAX@1@PAU21@0ABVSortTop@@@Z$2 1001d8f0     AndroidUserManager.obj
 0002:000048f0       __catchsym$??$_Buynode@VSortTop@@@?$_List_buy@VSortTop@@V?$allocator@VSortTop@@@std@@@std@@QAEPAU?$_List_node@VSortTop@@PAX@1@PAU21@0$$QAVSortTop@@@Z$2 1001d8f0     AndroidUserManager.obj
 0002:00004900       __unwindtable$??$_Buynode@VSortTop@@@?$_List_buy@VSortTop@@V?$allocator@VSortTop@@@std@@@std@@QAEPAU?$_List_node@VSortTop@@PAX@1@PAU21@0$$QAVSortTop@@@Z 1001d900     AndroidUserManager.obj
 0002:00004900       __unwindtable$??$_Buynode@ABVSortTop@@@?$_List_buy@VSortTop@@V?$allocator@VSortTop@@@std@@@std@@QAEPAU?$_List_node@VSortTop@@PAX@1@PAU21@0ABVSortTop@@@Z 1001d900     AndroidUserManager.obj
 0002:00004910       __tryblocktable$??$_Buynode@ABVSortTop@@@?$_List_buy@VSortTop@@V?$allocator@VSortTop@@@std@@@std@@QAEPAU?$_List_node@VSortTop@@PAX@1@PAU21@0ABVSortTop@@@Z 1001d910     AndroidUserManager.obj
 0002:00004910       __tryblocktable$??$_Buynode@VSortTop@@@?$_List_buy@VSortTop@@V?$allocator@VSortTop@@@std@@@std@@QAEPAU?$_List_node@VSortTop@@PAX@1@PAU21@0$$QAVSortTop@@@Z 1001d910     AndroidUserManager.obj
 0002:00004924       __ehfuncinfo$??$_Buynode@ABVSortTop@@@?$_List_buy@VSortTop@@V?$allocator@VSortTop@@@std@@@std@@QAEPAU?$_List_node@VSortTop@@PAX@1@PAU21@0ABVSortTop@@@Z 1001d924     AndroidUserManager.obj
 0002:00004924       __ehfuncinfo$??$_Buynode@VSortTop@@@?$_List_buy@VSortTop@@V?$allocator@VSortTop@@@std@@@std@@QAEPAU?$_List_node@VSortTop@@PAX@1@PAU21@0$$QAVSortTop@@@Z 1001d924     AndroidUserManager.obj
 0002:0000497c       __unwindtable$?SearchValidPropertyBuff@CGamePropertyManager@@SAPAUtagPropertyBuff@@KW4PROP_KIND@@@Z 1001d97c     GamePropertyManager.obj
 0002:00004984       __ehfuncinfo$?SearchValidPropertyBuff@CGamePropertyManager@@SAPAUtagPropertyBuff@@KW4PROP_KIND@@@Z 1001d984     GamePropertyManager.obj
 0002:000049a8       __catchsym$?_Buyheadnode@?$_Tree_comp_alloc@V?$_Tmap_traits@KV?$vector@UtagPropertyBuff@@V?$allocator@UtagPropertyBuff@@@std@@@std@@U?$less@K@2@V?$allocator@U?$pair@$$CBKV?$vector@UtagPropertyBuff@@V?$allocator@UtagPropertyBuff@@@std@@@std@@@std@@@2@$0A@@std@@@std@@QAEPAU?$_Tree_node@U?$pair@$$CBKV?$vector@UtagPropertyBuff@@V?$allocator@UtagPropertyBuff@@@std@@@std@@@std@@PAX@2@XZ$2 1001d9a8     GamePropertyManager.obj
 0002:000049b8       __unwindtable$?_Buyheadnode@?$_Tree_comp_alloc@V?$_Tmap_traits@KV?$vector@UtagPropertyBuff@@V?$allocator@UtagPropertyBuff@@@std@@@std@@U?$less@K@2@V?$allocator@U?$pair@$$CBKV?$vector@UtagPropertyBuff@@V?$allocator@UtagPropertyBuff@@@std@@@std@@@std@@@2@$0A@@std@@@std@@QAEPAU?$_Tree_node@U?$pair@$$CBKV?$vector@UtagPropertyBuff@@V?$allocator@UtagPropertyBuff@@@std@@@std@@@std@@PAX@2@XZ 1001d9b8     GamePropertyManager.obj
 0002:000049c8       __tryblocktable$?_Buyheadnode@?$_Tree_comp_alloc@V?$_Tmap_traits@KV?$vector@UtagPropertyBuff@@V?$allocator@UtagPropertyBuff@@@std@@@std@@U?$less@K@2@V?$allocator@U?$pair@$$CBKV?$vector@UtagPropertyBuff@@V?$allocator@UtagPropertyBuff@@@std@@@std@@@std@@@2@$0A@@std@@@std@@QAEPAU?$_Tree_node@U?$pair@$$CBKV?$vector@UtagPropertyBuff@@V?$allocator@UtagPropertyBuff@@@std@@@std@@@std@@PAX@2@XZ 1001d9c8     GamePropertyManager.obj
 0002:000049dc       __ehfuncinfo$?_Buyheadnode@?$_Tree_comp_alloc@V?$_Tmap_traits@KV?$vector@UtagPropertyBuff@@V?$allocator@UtagPropertyBuff@@@std@@@std@@U?$less@K@2@V?$allocator@U?$pair@$$CBKV?$vector@UtagPropertyBuff@@V?$allocator@UtagPropertyBuff@@@std@@@std@@@std@@@2@$0A@@std@@@std@@QAEPAU?$_Tree_node@U?$pair@$$CBKV?$vector@UtagPropertyBuff@@V?$allocator@UtagPropertyBuff@@@std@@@std@@@std@@PAX@2@XZ 1001d9dc     GamePropertyManager.obj
 0002:00004a00       __catchsym$?_Buynode0@?$_Tree_comp_alloc@V?$_Tmap_traits@KV?$vector@UtagPropertyBuff@@V?$allocator@UtagPropertyBuff@@@std@@@std@@U?$less@K@2@V?$allocator@U?$pair@$$CBKV?$vector@UtagPropertyBuff@@V?$allocator@UtagPropertyBuff@@@std@@@std@@@std@@@2@$0A@@std@@@std@@QAEPAU?$_Tree_node@U?$pair@$$CBKV?$vector@UtagPropertyBuff@@V?$allocator@UtagPropertyBuff@@@std@@@std@@@std@@PAX@2@XZ$2 1001da00     GamePropertyManager.obj
 0002:00004a10       __unwindtable$?_Buynode0@?$_Tree_comp_alloc@V?$_Tmap_traits@KV?$vector@UtagPropertyBuff@@V?$allocator@UtagPropertyBuff@@@std@@@std@@U?$less@K@2@V?$allocator@U?$pair@$$CBKV?$vector@UtagPropertyBuff@@V?$allocator@UtagPropertyBuff@@@std@@@std@@@std@@@2@$0A@@std@@@std@@QAEPAU?$_Tree_node@U?$pair@$$CBKV?$vector@UtagPropertyBuff@@V?$allocator@UtagPropertyBuff@@@std@@@std@@@std@@PAX@2@XZ 1001da10     GamePropertyManager.obj
 0002:00004a20       __tryblocktable$?_Buynode0@?$_Tree_comp_alloc@V?$_Tmap_traits@KV?$vector@UtagPropertyBuff@@V?$allocator@UtagPropertyBuff@@@std@@@std@@U?$less@K@2@V?$allocator@U?$pair@$$CBKV?$vector@UtagPropertyBuff@@V?$allocator@UtagPropertyBuff@@@std@@@std@@@std@@@2@$0A@@std@@@std@@QAEPAU?$_Tree_node@U?$pair@$$CBKV?$vector@UtagPropertyBuff@@V?$allocator@UtagPropertyBuff@@@std@@@std@@@std@@PAX@2@XZ 1001da20     GamePropertyManager.obj
 0002:00004a34       __ehfuncinfo$?_Buynode0@?$_Tree_comp_alloc@V?$_Tmap_traits@KV?$vector@UtagPropertyBuff@@V?$allocator@UtagPropertyBuff@@@std@@@std@@U?$less@K@2@V?$allocator@U?$pair@$$CBKV?$vector@UtagPropertyBuff@@V?$allocator@UtagPropertyBuff@@@std@@@std@@@std@@@2@$0A@@std@@@std@@QAEPAU?$_Tree_node@U?$pair@$$CBKV?$vector@UtagPropertyBuff@@V?$allocator@UtagPropertyBuff@@@std@@@std@@@std@@PAX@2@XZ 1001da34     GamePropertyManager.obj
 0002:00004a58       __catchsym$??0?$vector@UtagPropertyBuff@@V?$allocator@UtagPropertyBuff@@@std@@@std@@QAE@ABV01@@Z$2 1001da58     GamePropertyManager.obj
 0002:00004a68       __unwindtable$??0?$vector@UtagPropertyBuff@@V?$allocator@UtagPropertyBuff@@@std@@@std@@QAE@ABV01@@Z 1001da68     GamePropertyManager.obj
 0002:00004a78       __tryblocktable$??0?$vector@UtagPropertyBuff@@V?$allocator@UtagPropertyBuff@@@std@@@std@@QAE@ABV01@@Z 1001da78     GamePropertyManager.obj
 0002:00004a8c       __ehfuncinfo$??0?$vector@UtagPropertyBuff@@V?$allocator@UtagPropertyBuff@@@std@@@std@@QAE@ABV01@@Z 1001da8c     GamePropertyManager.obj
 0002:00004ab0       __catchsym$?_Reallocate@?$vector@UtagPropertyBuff@@V?$allocator@UtagPropertyBuff@@@std@@@std@@IAEXI@Z$2 1001dab0     GamePropertyManager.obj
 0002:00004ac0       __unwindtable$?_Reallocate@?$vector@UtagPropertyBuff@@V?$allocator@UtagPropertyBuff@@@std@@@std@@IAEXI@Z 1001dac0     GamePropertyManager.obj
 0002:00004ad0       __tryblocktable$?_Reallocate@?$vector@UtagPropertyBuff@@V?$allocator@UtagPropertyBuff@@@std@@@std@@IAEXI@Z 1001dad0     GamePropertyManager.obj
 0002:00004ae4       __ehfuncinfo$?_Reallocate@?$vector@UtagPropertyBuff@@V?$allocator@UtagPropertyBuff@@@std@@@std@@IAEXI@Z 1001dae4     GamePropertyManager.obj
 0002:00004b08       __catchsym$??$_Buynode@ABUpiecewise_construct_t@std@@V?$tuple@ABK@2@V?$tuple@$$V@2@@?$_Tree_comp_alloc@V?$_Tmap_traits@KV?$vector@UtagPropertyBuff@@V?$allocator@UtagPropertyBuff@@@std@@@std@@U?$less@K@2@V?$allocator@U?$pair@$$CBKV?$vector@UtagPropertyBuff@@V?$allocator@UtagPropertyBuff@@@std@@@std@@@std@@@2@$0A@@std@@@std@@QAEPAU?$_Tree_node@U?$pair@$$CBKV?$vector@UtagPropertyBuff@@V?$allocator@UtagPropertyBuff@@@std@@@std@@@std@@PAX@1@ABUpiecewise_construct_t@1@$$QAV?$tuple@ABK@1@$$QAV?$tuple@$$V@1@@Z$2 1001db08     GamePropertyManager.obj
 0002:00004b18       __unwindtable$??$_Buynode@ABUpiecewise_construct_t@std@@V?$tuple@ABK@2@V?$tuple@$$V@2@@?$_Tree_comp_alloc@V?$_Tmap_traits@KV?$vector@UtagPropertyBuff@@V?$allocator@UtagPropertyBuff@@@std@@@std@@U?$less@K@2@V?$allocator@U?$pair@$$CBKV?$vector@UtagPropertyBuff@@V?$allocator@UtagPropertyBuff@@@std@@@std@@@std@@@2@$0A@@std@@@std@@QAEPAU?$_Tree_node@U?$pair@$$CBKV?$vector@UtagPropertyBuff@@V?$allocator@UtagPropertyBuff@@@std@@@std@@@std@@PAX@1@ABUpiecewise_construct_t@1@$$QAV?$tuple@ABK@1@$$QAV?$tuple@$$V@1@@Z 1001db18     GamePropertyManager.obj
 0002:00004b28       __tryblocktable$??$_Buynode@ABUpiecewise_construct_t@std@@V?$tuple@ABK@2@V?$tuple@$$V@2@@?$_Tree_comp_alloc@V?$_Tmap_traits@KV?$vector@UtagPropertyBuff@@V?$allocator@UtagPropertyBuff@@@std@@@std@@U?$less@K@2@V?$allocator@U?$pair@$$CBKV?$vector@UtagPropertyBuff@@V?$allocator@UtagPropertyBuff@@@std@@@std@@@std@@@2@$0A@@std@@@std@@QAEPAU?$_Tree_node@U?$pair@$$CBKV?$vector@UtagPropertyBuff@@V?$allocator@UtagPropertyBuff@@@std@@@std@@@std@@PAX@1@ABUpiecewise_construct_t@1@$$QAV?$tuple@ABK@1@$$QAV?$tuple@$$V@1@@Z 1001db28     GamePropertyManager.obj
 0002:00004b3c       __ehfuncinfo$??$_Buynode@ABUpiecewise_construct_t@std@@V?$tuple@ABK@2@V?$tuple@$$V@2@@?$_Tree_comp_alloc@V?$_Tmap_traits@KV?$vector@UtagPropertyBuff@@V?$allocator@UtagPropertyBuff@@@std@@@std@@U?$less@K@2@V?$allocator@U?$pair@$$CBKV?$vector@UtagPropertyBuff@@V?$allocator@UtagPropertyBuff@@@std@@@std@@@std@@@2@$0A@@std@@@std@@QAEPAU?$_Tree_node@U?$pair@$$CBKV?$vector@UtagPropertyBuff@@V?$allocator@UtagPropertyBuff@@@std@@@std@@@std@@PAX@1@ABUpiecewise_construct_t@1@$$QAV?$tuple@ABK@1@$$QAV?$tuple@$$V@1@@Z 1001db3c     GamePropertyManager.obj
 0002:00004b60       __catchsym$??$_Insert_hint@AAU?$pair@$$CBKV?$vector@UtagPropertyBuff@@V?$allocator@UtagPropertyBuff@@@std@@@std@@@std@@PAU?$_Tree_node@U?$pair@$$CBKV?$vector@UtagPropertyBuff@@V?$allocator@UtagPropertyBuff@@@std@@@std@@@std@@PAX@2@@?$_Tree@V?$_Tmap_traits@KV?$vector@UtagPropertyBuff@@V?$allocator@UtagPropertyBuff@@@std@@@std@@U?$less@K@2@V?$allocator@U?$pair@$$CBKV?$vector@UtagPropertyBuff@@V?$allocator@UtagPropertyBuff@@@std@@@std@@@std@@@2@$0A@@std@@@std@@IAE?AV?$_Tree_iterator@V?$_Tree_val@U?$_Tree_simple_types@U?$pair@$$CBKV?$vector@UtagPropertyBuff@@V?$allocator@UtagPropertyBuff@@@std@@@std@@@std@@@std@@@std@@@1@V?$_Tree_const_iterator@V?$_Tree_val@U?$_Tree_simple_types@U?$pair@$$CBKV?$vector@UtagPropertyBuff@@V?$allocator@UtagPropertyBuff@@@std@@@std@@@std@@@std@@@std@@@1@AAU?$pair@$$CBKV?$vector@UtagPropertyBuff@@V?$allocator@UtagPropertyBuff@@@std@@@std@@@1@PAU?$_Tree_node@U?$pair@$$CBKV?$vector@UtagPropertyBuff@@V?$allocator@UtagPropertyBuff@@@std@@@std@@@std@@PAX@1@@Z$2 1001db60     GamePropertyManager.obj
 0002:00004b70       __unwindtable$??$_Insert_hint@AAU?$pair@$$CBKV?$vector@UtagPropertyBuff@@V?$allocator@UtagPropertyBuff@@@std@@@std@@@std@@PAU?$_Tree_node@U?$pair@$$CBKV?$vector@UtagPropertyBuff@@V?$allocator@UtagPropertyBuff@@@std@@@std@@@std@@PAX@2@@?$_Tree@V?$_Tmap_traits@KV?$vector@UtagPropertyBuff@@V?$allocator@UtagPropertyBuff@@@std@@@std@@U?$less@K@2@V?$allocator@U?$pair@$$CBKV?$vector@UtagPropertyBuff@@V?$allocator@UtagPropertyBuff@@@std@@@std@@@std@@@2@$0A@@std@@@std@@IAE?AV?$_Tree_iterator@V?$_Tree_val@U?$_Tree_simple_types@U?$pair@$$CBKV?$vector@UtagPropertyBuff@@V?$allocator@UtagPropertyBuff@@@std@@@std@@@std@@@std@@@std@@@1@V?$_Tree_const_iterator@V?$_Tree_val@U?$_Tree_simple_types@U?$pair@$$CBKV?$vector@UtagPropertyBuff@@V?$allocator@UtagPropertyBuff@@@std@@@std@@@std@@@std@@@std@@@1@AAU?$pair@$$CBKV?$vector@UtagPropertyBuff@@V?$allocator@UtagPropertyBuff@@@std@@@std@@@1@PAU?$_Tree_node@U?$pair@$$CBKV?$vector@UtagPropertyBuff@@V?$allocator@UtagPropertyBuff@@@std@@@std@@@std@@PAX@1@@Z 1001db70     GamePropertyManager.obj
 0002:00004b80       __tryblocktable$??$_Insert_hint@AAU?$pair@$$CBKV?$vector@UtagPropertyBuff@@V?$allocator@UtagPropertyBuff@@@std@@@std@@@std@@PAU?$_Tree_node@U?$pair@$$CBKV?$vector@UtagPropertyBuff@@V?$allocator@UtagPropertyBuff@@@std@@@std@@@std@@PAX@2@@?$_Tree@V?$_Tmap_traits@KV?$vector@UtagPropertyBuff@@V?$allocator@UtagPropertyBuff@@@std@@@std@@U?$less@K@2@V?$allocator@U?$pair@$$CBKV?$vector@UtagPropertyBuff@@V?$allocator@UtagPropertyBuff@@@std@@@std@@@std@@@2@$0A@@std@@@std@@IAE?AV?$_Tree_iterator@V?$_Tree_val@U?$_Tree_simple_types@U?$pair@$$CBKV?$vector@UtagPropertyBuff@@V?$allocator@UtagPropertyBuff@@@std@@@std@@@std@@@std@@@std@@@1@V?$_Tree_const_iterator@V?$_Tree_val@U?$_Tree_simple_types@U?$pair@$$CBKV?$vector@UtagPropertyBuff@@V?$allocator@UtagPropertyBuff@@@std@@@std@@@std@@@std@@@std@@@1@AAU?$pair@$$CBKV?$vector@UtagPropertyBuff@@V?$allocator@UtagPropertyBuff@@@std@@@std@@@1@PAU?$_Tree_node@U?$pair@$$CBKV?$vector@UtagPropertyBuff@@V?$allocator@UtagPropertyBuff@@@std@@@std@@@std@@PAX@1@@Z 1001db80     GamePropertyManager.obj
 0002:00004b94       __ehfuncinfo$??$_Insert_hint@AAU?$pair@$$CBKV?$vector@UtagPropertyBuff@@V?$allocator@UtagPropertyBuff@@@std@@@std@@@std@@PAU?$_Tree_node@U?$pair@$$CBKV?$vector@UtagPropertyBuff@@V?$allocator@UtagPropertyBuff@@@std@@@std@@@std@@PAX@2@@?$_Tree@V?$_Tmap_traits@KV?$vector@UtagPropertyBuff@@V?$allocator@UtagPropertyBuff@@@std@@@std@@U?$less@K@2@V?$allocator@U?$pair@$$CBKV?$vector@UtagPropertyBuff@@V?$allocator@UtagPropertyBuff@@@std@@@std@@@std@@@2@$0A@@std@@@std@@IAE?AV?$_Tree_iterator@V?$_Tree_val@U?$_Tree_simple_types@U?$pair@$$CBKV?$vector@UtagPropertyBuff@@V?$allocator@UtagPropertyBuff@@@std@@@std@@@std@@@std@@@std@@@1@V?$_Tree_const_iterator@V?$_Tree_val@U?$_Tree_simple_types@U?$pair@$$CBKV?$vector@UtagPropertyBuff@@V?$allocator@UtagPropertyBuff@@@std@@@std@@@std@@@std@@@std@@@1@AAU?$pair@$$CBKV?$vector@UtagPropertyBuff@@V?$allocator@UtagPropertyBuff@@@std@@@std@@@1@PAU?$_Tree_node@U?$pair@$$CBKV?$vector@UtagPropertyBuff@@V?$allocator@UtagPropertyBuff@@@std@@@std@@@std@@PAX@1@@Z 1001db94     GamePropertyManager.obj
 0002:00004bb8       __catchsym$??$_Insert_nohint@AAU?$pair@$$CBKV?$vector@UtagPropertyBuff@@V?$allocator@UtagPropertyBuff@@@std@@@std@@@std@@PAU?$_Tree_node@U?$pair@$$CBKV?$vector@UtagPropertyBuff@@V?$allocator@UtagPropertyBuff@@@std@@@std@@@std@@PAX@2@@?$_Tree@V?$_Tmap_traits@KV?$vector@UtagPropertyBuff@@V?$allocator@UtagPropertyBuff@@@std@@@std@@U?$less@K@2@V?$allocator@U?$pair@$$CBKV?$vector@UtagPropertyBuff@@V?$allocator@UtagPropertyBuff@@@std@@@std@@@std@@@2@$0A@@std@@@std@@IAE?AU?$pair@V?$_Tree_iterator@V?$_Tree_val@U?$_Tree_simple_types@U?$pair@$$CBKV?$vector@UtagPropertyBuff@@V?$allocator@UtagPropertyBuff@@@std@@@std@@@std@@@std@@@std@@@std@@_N@1@_NAAU?$pair@$$CBKV?$vector@UtagPropertyBuff@@V?$allocator@UtagPropertyBuff@@@std@@@std@@@1@PAU?$_Tree_node@U?$pair@$$CBKV?$vector@UtagPropertyBuff@@V?$allocator@UtagPropertyBuff@@@std@@@std@@@std@@PAX@1@@Z$2 1001dbb8     GamePropertyManager.obj
 0002:00004bc8       __unwindtable$??$_Insert_nohint@AAU?$pair@$$CBKV?$vector@UtagPropertyBuff@@V?$allocator@UtagPropertyBuff@@@std@@@std@@@std@@PAU?$_Tree_node@U?$pair@$$CBKV?$vector@UtagPropertyBuff@@V?$allocator@UtagPropertyBuff@@@std@@@std@@@std@@PAX@2@@?$_Tree@V?$_Tmap_traits@KV?$vector@UtagPropertyBuff@@V?$allocator@UtagPropertyBuff@@@std@@@std@@U?$less@K@2@V?$allocator@U?$pair@$$CBKV?$vector@UtagPropertyBuff@@V?$allocator@UtagPropertyBuff@@@std@@@std@@@std@@@2@$0A@@std@@@std@@IAE?AU?$pair@V?$_Tree_iterator@V?$_Tree_val@U?$_Tree_simple_types@U?$pair@$$CBKV?$vector@UtagPropertyBuff@@V?$allocator@UtagPropertyBuff@@@std@@@std@@@std@@@std@@@std@@@std@@_N@1@_NAAU?$pair@$$CBKV?$vector@UtagPropertyBuff@@V?$allocator@UtagPropertyBuff@@@std@@@std@@@1@PAU?$_Tree_node@U?$pair@$$CBKV?$vector@UtagPropertyBuff@@V?$allocator@UtagPropertyBuff@@@std@@@std@@@std@@PAX@1@@Z 1001dbc8     GamePropertyManager.obj
 0002:00004bd8       __tryblocktable$??$_Insert_nohint@AAU?$pair@$$CBKV?$vector@UtagPropertyBuff@@V?$allocator@UtagPropertyBuff@@@std@@@std@@@std@@PAU?$_Tree_node@U?$pair@$$CBKV?$vector@UtagPropertyBuff@@V?$allocator@UtagPropertyBuff@@@std@@@std@@@std@@PAX@2@@?$_Tree@V?$_Tmap_traits@KV?$vector@UtagPropertyBuff@@V?$allocator@UtagPropertyBuff@@@std@@@std@@U?$less@K@2@V?$allocator@U?$pair@$$CBKV?$vector@UtagPropertyBuff@@V?$allocator@UtagPropertyBuff@@@std@@@std@@@std@@@2@$0A@@std@@@std@@IAE?AU?$pair@V?$_Tree_iterator@V?$_Tree_val@U?$_Tree_simple_types@U?$pair@$$CBKV?$vector@UtagPropertyBuff@@V?$allocator@UtagPropertyBuff@@@std@@@std@@@std@@@std@@@std@@@std@@_N@1@_NAAU?$pair@$$CBKV?$vector@UtagPropertyBuff@@V?$allocator@UtagPropertyBuff@@@std@@@std@@@1@PAU?$_Tree_node@U?$pair@$$CBKV?$vector@UtagPropertyBuff@@V?$allocator@UtagPropertyBuff@@@std@@@std@@@std@@PAX@1@@Z 1001dbd8     GamePropertyManager.obj
 0002:00004bec       __ehfuncinfo$??$_Insert_nohint@AAU?$pair@$$CBKV?$vector@UtagPropertyBuff@@V?$allocator@UtagPropertyBuff@@@std@@@std@@@std@@PAU?$_Tree_node@U?$pair@$$CBKV?$vector@UtagPropertyBuff@@V?$allocator@UtagPropertyBuff@@@std@@@std@@@std@@PAX@2@@?$_Tree@V?$_Tmap_traits@KV?$vector@UtagPropertyBuff@@V?$allocator@UtagPropertyBuff@@@std@@@std@@U?$less@K@2@V?$allocator@U?$pair@$$CBKV?$vector@UtagPropertyBuff@@V?$allocator@UtagPropertyBuff@@@std@@@std@@@std@@@2@$0A@@std@@@std@@IAE?AU?$pair@V?$_Tree_iterator@V?$_Tree_val@U?$_Tree_simple_types@U?$pair@$$CBKV?$vector@UtagPropertyBuff@@V?$allocator@UtagPropertyBuff@@@std@@@std@@@std@@@std@@@std@@@std@@_N@1@_NAAU?$pair@$$CBKV?$vector@UtagPropertyBuff@@V?$allocator@UtagPropertyBuff@@@std@@@std@@@1@PAU?$_Tree_node@U?$pair@$$CBKV?$vector@UtagPropertyBuff@@V?$allocator@UtagPropertyBuff@@@std@@@std@@@std@@PAX@1@@Z 1001dbec     GamePropertyManager.obj
 0002:00004c10       __unwindtable$??$construct@U?$pair@$$CBKV?$vector@UtagPropertyBuff@@V?$allocator@UtagPropertyBuff@@@std@@@std@@@std@@ABUpiecewise_construct_t@2@V?$tuple@ABK@2@V?$tuple@$$V@2@@?$allocator@U?$_Tree_node@U?$pair@$$CBKV?$vector@UtagPropertyBuff@@V?$allocator@UtagPropertyBuff@@@std@@@std@@@std@@PAX@std@@@std@@QAEXPAU?$pair@$$CBKV?$vector@UtagPropertyBuff@@V?$allocator@UtagPropertyBuff@@@std@@@std@@@1@ABUpiecewise_construct_t@1@$$QAV?$tuple@ABK@1@$$QAV?$tuple@$$V@1@@Z 1001dc10     GamePropertyManager.obj
 0002:00004c18       __ehfuncinfo$??$construct@U?$pair@$$CBKV?$vector@UtagPropertyBuff@@V?$allocator@UtagPropertyBuff@@@std@@@std@@@std@@ABUpiecewise_construct_t@2@V?$tuple@ABK@2@V?$tuple@$$V@2@@?$allocator@U?$_Tree_node@U?$pair@$$CBKV?$vector@UtagPropertyBuff@@V?$allocator@UtagPropertyBuff@@@std@@@std@@@std@@PAX@std@@@std@@QAEXPAU?$pair@$$CBKV?$vector@UtagPropertyBuff@@V?$allocator@UtagPropertyBuff@@@std@@@std@@@1@ABUpiecewise_construct_t@1@$$QAV?$tuple@ABK@1@$$QAV?$tuple@$$V@1@@Z 1001dc18     GamePropertyManager.obj
 0002:00004c3c       __unwindtable$?NewAssoc@?$CMap@KKPAUtagUserTaskEntry@@PAU1@@@IAEPAVCAssoc@1@K@Z 1001dc3c     UserTaskManager.obj
 0002:00004c3c       __unwindtable$?NewAssoc@?$CMap@GGPAUtagTaskParameter@@PAU1@@@IAEPAVCAssoc@1@G@Z 1001dc3c     UserTaskManager.obj
 0002:00004c3c       __unwindtable$?NewAssoc@?$CMap@KKPAVCAndroidUserItem@@PAV1@@@IAEPAVCAssoc@1@K@Z 1001dc3c     AndroidUserManager.obj
 0002:00004c3c       __unwindtable$?NewAssoc@?$CMap@HHPAUtagGameDataItem@@AAPAU1@@@IAEPAVCAssoc@1@H@Z 1001dc3c     ServerUserManager.obj
 0002:00004c3c       __unwindtable$?NewAssoc@?$CMap@KKPAVCServerUserItem@@PAV1@@@IAEPAVCAssoc@1@K@Z 1001dc3c     ServerUserManager.obj
 0002:00004c44       __ehfuncinfo$?NewAssoc@?$CMap@KKPAVCAndroidUserItem@@PAV1@@@IAEPAVCAssoc@1@K@Z 1001dc44     AndroidUserManager.obj
 0002:00004c44       __ehfuncinfo$?NewAssoc@?$CMap@HHPAUtagGameDataItem@@AAPAU1@@@IAEPAVCAssoc@1@H@Z 1001dc44     ServerUserManager.obj
 0002:00004c44       __ehfuncinfo$?NewAssoc@?$CMap@KKPAUtagUserTaskEntry@@PAU1@@@IAEPAVCAssoc@1@K@Z 1001dc44     UserTaskManager.obj
 0002:00004c44       __ehfuncinfo$?NewAssoc@?$CMap@GGPAUtagTaskParameter@@PAU1@@@IAEPAVCAssoc@1@G@Z 1001dc44     UserTaskManager.obj
 0002:00004c44       __ehfuncinfo$?NewAssoc@?$CMap@KKPAVCServerUserItem@@PAV1@@@IAEPAVCAssoc@1@K@Z 1001dc44     ServerUserManager.obj
 0002:00004c68       __unwindtable$?IsPureDigitString@CServerUserItem@@AAE_NV?$CStringT@_WV?$StrTraitMFC_DLL@_WV?$ChTraitsCRT@_W@ATL@@@@@ATL@@@Z 1001dc68     ServerUserManager.obj
 0002:00004c70       __unwindtable$?SetUserGameData@CServerUserItem@@UAEXPB_WH@Z 1001dc70     ServerUserManager.obj
 0002:00004c78       __unwindtable$?GetUserGameData@CServerUserItem@@UAEPB_WXZ 1001dc78     ServerUserManager.obj
 0002:00004c80       __unwindtable$??0CServerUserItem@@IAE@XZ 1001dc80     ServerUserManager.obj
 0002:00004c88       __catchsym$?InsertUserItem@CServerUserManager@@UAE_NPAPAUIServerUserItem@@AAUtagUserInfo@@AAUtagUserInfoPlus@@@Z$5 1001dc88     ServerUserManager.obj
 0002:00004c98       __catchsym$?InitUserGameDataMap@CServerUserItem@@AAEXXZ$7 1001dc98     ServerUserManager.obj
 0002:00004ca8       __catchsym$?ResetUserItem@CServerUserItem@@AAEXXZ$2 1001dca8     ServerUserManager.obj
 0002:00004cb8       __unwindtable$?ResetUserItem@CServerUserItem@@AAEXXZ 1001dcb8     ServerUserManager.obj
 0002:00004cc8       __catchsym$?SetUserGameData@CServerUserItem@@UAEXHPB_WH@Z$2 1001dcc8     ServerUserManager.obj
 0002:00004cd8       __unwindtable$?SetUserGameData@CServerUserItem@@UAEXHPB_WH@Z 1001dcd8     ServerUserManager.obj
 0002:00004ce8       __catchsym$??1CServerUserItem@@MAE@XZ$3 1001dce8     ServerUserManager.obj
 0002:00004cf8       __tryblocktable$?InsertUserItem@CServerUserManager@@UAE_NPAPAUIServerUserItem@@AAUtagUserInfo@@AAUtagUserInfoPlus@@@Z 1001dcf8     ServerUserManager.obj
 0002:00004d0c       __tryblocktable$?InitUserGameDataMap@CServerUserItem@@AAEXXZ 1001dd0c     ServerUserManager.obj
 0002:00004d20       __tryblocktable$?ResetUserItem@CServerUserItem@@AAEXXZ 1001dd20     ServerUserManager.obj
 0002:00004d34       __tryblocktable$?SetUserGameData@CServerUserItem@@UAEXHPB_WH@Z 1001dd34     ServerUserManager.obj
 0002:00004d48       __tryblocktable$??1CServerUserItem@@MAE@XZ 1001dd48     ServerUserManager.obj
 0002:00004d5c       __unwindtable$??0CServerUserManager@@QAE@XZ 1001dd5c     ServerUserManager.obj
 0002:00004d74       __unwindtable$?SplitString@CServerUserItem@@AAEXV?$CStringT@_WV?$StrTraitMFC_DLL@_WV?$ChTraitsCRT@_W@ATL@@@@@ATL@@0AAVCStringArray@@@Z 1001dd74     ServerUserManager.obj
 0002:00004d8c       __unwindtable$??1CServerUserItem@@MAE@XZ 1001dd8c     ServerUserManager.obj
 0002:00004da4       __unwindtable$?InsertUserItem@CServerUserManager@@UAE_NPAPAUIServerUserItem@@AAUtagUserInfo@@AAUtagUserInfoPlus@@@Z 1001dda4     ServerUserManager.obj
 0002:00004dc4       __unwindtable$?IsValidGameData@CServerUserItem@@AAE_NV?$CStringT@_WV?$StrTraitMFC_DLL@_WV?$ChTraitsCRT@_W@ATL@@@@@ATL@@0@Z 1001ddc4     ServerUserManager.obj
 0002:00004de4       __ehfuncinfo$?InsertUserItem@CServerUserManager@@UAE_NPAPAUIServerUserItem@@AAUtagUserInfo@@AAUtagUserInfoPlus@@@Z 1001dde4     ServerUserManager.obj
 0002:00004e08       __ehfuncinfo$??1CServerUserManager@@UAE@XZ 1001de08     ServerUserManager.obj
 0002:00004e2c       __ehfuncinfo$??0CServerUserManager@@QAE@XZ 1001de2c     ServerUserManager.obj
 0002:00004e50       __ehfuncinfo$?IsValidGameData@CServerUserItem@@AAE_NV?$CStringT@_WV?$StrTraitMFC_DLL@_WV?$ChTraitsCRT@_W@ATL@@@@@ATL@@0@Z 1001de50     ServerUserManager.obj
 0002:00004e74       __ehfuncinfo$?IsPureDigitString@CServerUserItem@@AAE_NV?$CStringT@_WV?$StrTraitMFC_DLL@_WV?$ChTraitsCRT@_W@ATL@@@@@ATL@@@Z 1001de74     ServerUserManager.obj
 0002:00004e98       __ehfuncinfo$?SplitString@CServerUserItem@@AAEXV?$CStringT@_WV?$StrTraitMFC_DLL@_WV?$ChTraitsCRT@_W@ATL@@@@@ATL@@0AAVCStringArray@@@Z 1001de98     ServerUserManager.obj
 0002:00004ebc       __ehfuncinfo$?InitUserGameDataMap@CServerUserItem@@AAEXXZ 1001debc     ServerUserManager.obj
 0002:00004ee0       __ehfuncinfo$?ResetUserItem@CServerUserItem@@AAEXXZ 1001dee0     ServerUserManager.obj
 0002:00004f04       __ehfuncinfo$?SetUserGameData@CServerUserItem@@UAEXHPB_WH@Z 1001df04     ServerUserManager.obj
 0002:00004f28       __ehfuncinfo$?SetUserGameData@CServerUserItem@@UAEXPB_WH@Z 1001df28     ServerUserManager.obj
 0002:00004f4c       __ehfuncinfo$?GetUserGameData@CServerUserItem@@UAEPB_WXZ 1001df4c     ServerUserManager.obj
 0002:00004f70       __ehfuncinfo$??1CServerUserItem@@MAE@XZ 1001df70     ServerUserManager.obj
 0002:00004f94       __ehfuncinfo$??0CServerUserItem@@IAE@XZ 1001df94     ServerUserManager.obj
 0002:00004fb8       __unwindtable$?InitUserGameDataMap@CServerUserItem@@AAEXXZ 1001dfb8     ServerUserManager.obj
 0002:00004fe0       __catchsym$?CreateUserTaskEntry@CUserTaskManager@@IAEPAUtagUserTaskEntry@@XZ$5 1001dfe0     UserTaskManager.obj
 0002:00004ff0       __catchsym$?CreateUserTaskEntry@CUserTaskManager@@IAEPAUtagUserTaskEntry@@XZ$4 1001dff0     UserTaskManager.obj
 0002:00005000       __catchsym$?AddTaskParameter@CUserTaskManager@@UAE_NQAUtagTaskParameter@@G@Z$2 1001e000     UserTaskManager.obj
 0002:00005010       __unwindtable$?AddTaskParameter@CUserTaskManager@@UAE_NQAUtagTaskParameter@@G@Z 1001e010     UserTaskManager.obj
 0002:00005020       __catchsym$??1CUserTaskManager@@UAE@XZ$15 1001e020     UserTaskManager.obj
 0002:00005030       __catchsym$??1CUserTaskManager@@UAE@XZ$14 1001e030     UserTaskManager.obj
 0002:00005040       __catchsym$??1CUserTaskManager@@UAE@XZ$13 1001e040     UserTaskManager.obj
 0002:00005050       __catchsym$??1CUserTaskManager@@UAE@XZ$12 1001e050     UserTaskManager.obj
 0002:00005060       __tryblocktable$?AddTaskParameter@CUserTaskManager@@UAE_NQAUtagTaskParameter@@G@Z 1001e060     UserTaskManager.obj
 0002:00005074       __unwindtable$?CreateUserTaskEntry@CUserTaskManager@@IAEPAUtagUserTaskEntry@@XZ 1001e074     UserTaskManager.obj
 0002:00005094       __unwindtable$??0CUserTaskManager@@QAE@XZ 1001e094     UserTaskManager.obj
 0002:000050b4       __ehfuncinfo$?CreateUserTaskEntry@CUserTaskManager@@IAEPAUtagUserTaskEntry@@XZ 1001e0b4     UserTaskManager.obj
 0002:000050d8       __ehfuncinfo$?AddTaskParameter@CUserTaskManager@@UAE_NQAUtagTaskParameter@@G@Z 1001e0d8     UserTaskManager.obj
 0002:000050fc       __ehfuncinfo$??1CUserTaskManager@@UAE@XZ 1001e0fc     UserTaskManager.obj
 0002:00005120       __ehfuncinfo$??0CUserTaskManager@@QAE@XZ 1001e120     UserTaskManager.obj
 0002:00005144       __tryblocktable$?CreateUserTaskEntry@CUserTaskManager@@IAEPAUtagUserTaskEntry@@XZ 1001e144     UserTaskManager.obj
 0002:0000516c       __tryblocktable$??1CUserTaskManager@@UAE@XZ 1001e16c     UserTaskManager.obj
 0002:000051bc       __unwindtable$??1CUserTaskManager@@UAE@XZ 1001e1bc     UserTaskManager.obj
 0002:00005270       __sehtable$??_M@YGXPAXIIP6EX0@Z@Z 1001e270     msvcrt:ehvecdtr.obj
 0002:00005290       __sehtable$?__ArrayUnwind@@YGXPAXIIP6EX0@Z@Z 1001e290     msvcrt:ehvecdtr.obj
 0002:000052b0       __sehtable$___scrt_is_nonwritable_in_current_image 1001e2b0     msvcrt:utility.obj
 0002:000052d0       __sehtable$?dllmain_crt_process_attach@@YAHQAUHINSTANCE__@@QAX@Z 1001e2d0     msvcrt:dll_dllmain.obj
 0002:000052f0       __sehtable$?dllmain_crt_process_detach@@YAH_N@Z 1001e2f0     msvcrt:dll_dllmain.obj
 0002:00005310       __sehtable$?dllmain_dispatch@@YAHQAUHINSTANCE__@@KQAX@Z 1001e310     msvcrt:dll_dllmain.obj
 0002:00005330       .edata                     1001e330     GameService.exp
 0002:00005358       rgpv                       1001e358     GameService.exp
 0002:00005734       rgszName                   1001e734     GameService.exp
 0002:00005b10       rgwOrd                     1001eb10     GameService.exp
 0002:00005cfe       szName                     1001ecfe     GameService.exp
 0002:00005d0e       $N00001                    1001ed0e     GameService.exp
 0002:00005d2f       $N00002                    1001ed2f     GameService.exp
 0002:00005d4b       $N00003                    1001ed4b     GameService.exp
 0002:00005d6a       $N00004                    1001ed6a     GameService.exp
 0002:00005d8f       $N00005                    1001ed8f     GameService.exp
 0002:00005daf       $N00006                    1001edaf     GameService.exp
 0002:00005dca       $N00007                    1001edca     GameService.exp
 0002:00005de8       $N00008                    1001ede8     GameService.exp
 0002:00005e04       $N00009                    1001ee04     GameService.exp
 0002:00005e20       $N00010                    1001ee20     GameService.exp
 0002:00005e3f       $N00011                    1001ee3f     GameService.exp
 0002:00005e5f       $N00012                    1001ee5f     GameService.exp
 0002:00005e7a       $N00013                    1001ee7a     GameService.exp
 0002:00005e98       $N00014                    1001ee98     GameService.exp
 0002:00005eb4       $N00015                    1001eeb4     GameService.exp
 0002:00005ed9       $N00016                    1001eed9     GameService.exp
 0002:00005f02       $N00017                    1001ef02     GameService.exp
 0002:00005f1c       $N00018                    1001ef1c     GameService.exp
 0002:00005f39       $N00019                    1001ef39     GameService.exp
 0002:00005f57       $N00020                    1001ef57     GameService.exp
 0002:00005f81       $N00021                    1001ef81     GameService.exp
 0002:00005fae       $N00022                    1001efae     GameService.exp
 0002:00005fca       $N00023                    1001efca     GameService.exp
 0002:00005fe4       $N00024                    1001efe4     GameService.exp
 0002:00006036       $N00025                    1001f036     GameService.exp
 0002:00006098       $N00026                    1001f098     GameService.exp
 0002:000060e0       $N00027                    1001f0e0     GameService.exp
 0002:00006122       $N00028                    1001f122     GameService.exp
 0002:0000615c       $N00029                    1001f15c     GameService.exp
 0002:000061cc       $N00030                    1001f1cc     GameService.exp
 0002:0000620a       $N00031                    1001f20a     GameService.exp
 0002:00006238       $N00032                    1001f238     GameService.exp
 0002:00006262       $N00033                    1001f262     GameService.exp
 0002:00006290       $N00034                    1001f290     GameService.exp
 0002:000062c0       $N00035                    1001f2c0     GameService.exp
 0002:000062ef       $N00036                    1001f2ef     GameService.exp
 0002:00006351       $N00037                    1001f351     GameService.exp
 0002:00006393       $N00038                    1001f393     GameService.exp
 0002:000063ca       $N00039                    1001f3ca     GameService.exp
 0002:0000640a       $N00040                    1001f40a     GameService.exp
 0002:00006436       $N00041                    1001f436     GameService.exp
 0002:00006461       $N00042                    1001f461     GameService.exp
 0002:000064a1       $N00043                    1001f4a1     GameService.exp
 0002:000064e1       $N00044                    1001f4e1     GameService.exp
 0002:0000651a       $N00045                    1001f51a     GameService.exp
 0002:0000654f       $N00046                    1001f54f     GameService.exp
 0002:00006585       $N00047                    1001f585     GameService.exp
 0002:000065b8       $N00048                    1001f5b8     GameService.exp
 0002:000065fe       $N00049                    1001f5fe     GameService.exp
 0002:0000664f       $N00050                    1001f64f     GameService.exp
 0002:0000668c       $N00051                    1001f68c     GameService.exp
 0002:000066da       $N00052                    1001f6da     GameService.exp
 0002:0000670d       $N00053                    1001f70d     GameService.exp
 0002:0000673b       $N00054                    1001f73b     GameService.exp
 0002:00006768       $N00055                    1001f768     GameService.exp
 0002:00006795       $N00056                    1001f795     GameService.exp
 0002:000067c1       $N00057                    1001f7c1     GameService.exp
 0002:000067ea       $N00058                    1001f7ea     GameService.exp
 0002:0000681d       $N00059                    1001f81d     GameService.exp
 0002:00006851       $N00060                    1001f851     GameService.exp
 0002:00006885       $N00061                    1001f885     GameService.exp
 0002:000068cd       $N00062                    1001f8cd     GameService.exp
 0002:000068fa       $N00063                    1001f8fa     GameService.exp
 0002:00006942       $N00064                    1001f942     GameService.exp
 0002:00006987       $N00065                    1001f987     GameService.exp
 0002:000069ad       $N00066                    1001f9ad     GameService.exp
 0002:000069da       $N00067                    1001f9da     GameService.exp
 0002:000069ff       $N00068                    1001f9ff     GameService.exp
 0002:00006a23       $N00069                    1001fa23     GameService.exp
 0002:00006a4a       $N00070                    1001fa4a     GameService.exp
 0002:00006a70       $N00071                    1001fa70     GameService.exp
 0002:00006a98       $N00072                    1001fa98     GameService.exp
 0002:00006ac5       $N00073                    1001fac5     GameService.exp
 0002:00006afd       $N00074                    1001fafd     GameService.exp
 0002:00006b28       $N00075                    1001fb28     GameService.exp
 0002:00006b68       $N00076                    1001fb68     GameService.exp
 0002:00006b8b       $N00077                    1001fb8b     GameService.exp
 0002:00006bd1       $N00078                    1001fbd1     GameService.exp
 0002:00006c1b       $N00079                    1001fc1b     GameService.exp
 0002:00006c65       $N00080                    1001fc65     GameService.exp
 0002:00006c8d       $N00081                    1001fc8d     GameService.exp
 0002:00006cb8       $N00082                    1001fcb8     GameService.exp
 0002:00006cdb       $N00083                    1001fcdb     GameService.exp
 0002:00006d06       $N00084                    1001fd06     GameService.exp
 0002:00006d2d       $N00085                    1001fd2d     GameService.exp
 0002:00006d63       $N00086                    1001fd63     GameService.exp
 0002:00006d8b       $N00087                    1001fd8b     GameService.exp
 0002:00006db8       $N00088                    1001fdb8     GameService.exp
 0002:00006dea       $N00089                    1001fdea     GameService.exp
 0002:00006e10       $N00090                    1001fe10     GameService.exp
 0002:00006e39       $N00091                    1001fe39     GameService.exp
 0002:00006e61       $N00092                    1001fe61     GameService.exp
 0002:00006e89       $N00093                    1001fe89     GameService.exp
 0002:00006eb1       $N00094                    1001feb1     GameService.exp
 0002:00006eec       $N00095                    1001feec     GameService.exp
 0002:00006f14       $N00096                    1001ff14     GameService.exp
 0002:00006f42       $N00097                    1001ff42     GameService.exp
 0002:00006f6d       $N00098                    1001ff6d     GameService.exp
 0002:00006f95       $N00099                    1001ff95     GameService.exp
 0002:00006fc8       $N00100                    1001ffc8     GameService.exp
 0002:0000700b       $N00101                    1002000b     GameService.exp
 0002:00007051       $N00102                    10020051     GameService.exp
 0002:00007083       $N00103                    10020083     GameService.exp
 0002:000070aa       $N00104                    100200aa     GameService.exp
 0002:000070d8       $N00105                    100200d8     GameService.exp
 0002:00007105       $N00106                    10020105     GameService.exp
 0002:0000712a       $N00107                    1002012a     GameService.exp
 0002:0000714e       $N00108                    1002014e     GameService.exp
 0002:0000718d       $N00109                    1002018d     GameService.exp
 0002:000071bd       $N00110                    100201bd     GameService.exp
 0002:000071f1       $N00111                    100201f1     GameService.exp
 0002:0000721b       $N00112                    1002021b     GameService.exp
 0002:0000724e       $N00113                    1002024e     GameService.exp
 0002:00007277       $N00114                    10020277     GameService.exp
 0002:000072a0       $N00115                    100202a0     GameService.exp
 0002:000072cc       $N00116                    100202cc     GameService.exp
 0002:000072fb       $N00117                    100202fb     GameService.exp
 0002:00007322       $N00118                    10020322     GameService.exp
 0002:00007346       $N00119                    10020346     GameService.exp
 0002:00007369       $N00120                    10020369     GameService.exp
 0002:0000739d       $N00121                    1002039d     GameService.exp
 0002:000073c5       $N00122                    100203c5     GameService.exp
 0002:00007403       $N00123                    10020403     GameService.exp
 0002:00007430       $N00124                    10020430     GameService.exp
 0002:00007459       $N00125                    10020459     GameService.exp
 0002:00007483       $N00126                    10020483     GameService.exp
 0002:000074af       $N00127                    100204af     GameService.exp
 0002:000074d9       $N00128                    100204d9     GameService.exp
 0002:00007515       $N00129                    10020515     GameService.exp
 0002:0000753b       $N00130                    1002053b     GameService.exp
 0002:0000756f       $N00131                    1002056f     GameService.exp
 0002:00007596       $N00132                    10020596     GameService.exp
 0002:000075bd       $N00133                    100205bd     GameService.exp
 0002:000075fd       $N00134                    100205fd     GameService.exp
 0002:0000763e       $N00135                    1002063e     GameService.exp
 0002:00007666       $N00136                    10020666     GameService.exp
 0002:00007690       $N00137                    10020690     GameService.exp
 0002:000076da       $N00138                    100206da     GameService.exp
 0002:00007707       $N00139                    10020707     GameService.exp
 0002:00007735       $N00140                    10020735     GameService.exp
 0002:00007795       $N00141                    10020795     GameService.exp
 0002:000077fb       $N00142                    100207fb     GameService.exp
 0002:00007822       $N00143                    10020822     GameService.exp
 0002:0000784a       $N00144                    1002084a     GameService.exp
 0002:00007879       $N00145                    10020879     GameService.exp
 0002:000078a1       $N00146                    100208a1     GameService.exp
 0002:000078c8       $N00147                    100208c8     GameService.exp
 0002:00007936       $N00148                    10020936     GameService.exp
 0002:0000795e       $N00149                    1002095e     GameService.exp
 0002:000079cb       $N00150                    100209cb     GameService.exp
 0002:000079f1       $N00151                    100209f1     GameService.exp
 0002:00007a29       $N00152                    10020a29     GameService.exp
 0002:00007a57       $N00153                    10020a57     GameService.exp
 0002:00007a81       $N00154                    10020a81     GameService.exp
 0002:00007ab3       $N00155                    10020ab3     GameService.exp
 0002:00007ae2       $N00156                    10020ae2     GameService.exp
 0002:00007b12       $N00157                    10020b12     GameService.exp
 0002:00007b3e       $N00158                    10020b3e     GameService.exp
 0002:00007b70       $N00159                    10020b70     GameService.exp
 0002:00007ba5       $N00160                    10020ba5     GameService.exp
 0002:00007bd3       $N00161                    10020bd3     GameService.exp
 0002:00007c0a       $N00162                    10020c0a     GameService.exp
 0002:00007c40       $N00163                    10020c40     GameService.exp
 0002:00007c78       $N00164                    10020c78     GameService.exp
 0002:00007cad       $N00165                    10020cad     GameService.exp
 0002:00007cd7       $N00166                    10020cd7     GameService.exp
 0002:00007d05       $N00167                    10020d05     GameService.exp
 0002:00007d33       $N00168                    10020d33     GameService.exp
 0002:00007d69       $N00169                    10020d69     GameService.exp
 0002:00007da2       $N00170                    10020da2     GameService.exp
 0002:00007dd7       $N00171                    10020dd7     GameService.exp
 0002:00007e0f       $N00172                    10020e0f     GameService.exp
 0002:00007e45       $N00173                    10020e45     GameService.exp
 0002:00007e84       $N00174                    10020e84     GameService.exp
 0002:00007eb8       $N00175                    10020eb8     GameService.exp
 0002:00007eda       $N00176                    10020eda     GameService.exp
 0002:00007eff       $N00177                    10020eff     GameService.exp
 0002:00007f20       $N00178                    10020f20     GameService.exp
 0002:00007f44       $N00179                    10020f44     GameService.exp
 0002:00007f66       $N00180                    10020f66     GameService.exp
 0002:00007f9b       $N00181                    10020f9b     GameService.exp
 0002:00007fc9       $N00182                    10020fc9     GameService.exp
 0002:00007ff3       $N00183                    10020ff3     GameService.exp
 0002:0000801d       $N00184                    1002101d     GameService.exp
 0002:00008048       $N00185                    10021048     GameService.exp
 0002:0000806f       $N00186                    1002106f     GameService.exp
 0002:000080b8       $N00187                    100210b8     GameService.exp
 0002:000080fd       $N00188                    100210fd     GameService.exp
 0002:00008140       $N00189                    10021140     GameService.exp
 0002:0000817f       $N00190                    1002117f     GameService.exp
 0002:000081c1       $N00191                    100211c1     GameService.exp
 0002:00008217       $N00192                    10021217     GameService.exp
 0002:00008243       $N00193                    10021243     GameService.exp
 0002:00008278       $N00194                    10021278     GameService.exp
 0002:000082ae       $N00195                    100212ae     GameService.exp
 0002:000082e4       $N00196                    100212e4     GameService.exp
 0002:0000830e       $N00197                    1002130e     GameService.exp
 0002:00008345       $N00198                    10021345     GameService.exp
 0002:00008372       $N00199                    10021372     GameService.exp
 0002:000083ac       $N00200                    100213ac     GameService.exp
 0002:000083d7       $N00201                    100213d7     GameService.exp
 0002:00008406       $N00202                    10021406     GameService.exp
 0002:00008436       $N00203                    10021436     GameService.exp
 0002:00008463       $N00204                    10021463     GameService.exp
 0002:0000848c       $N00205                    1002148c     GameService.exp
 0002:000084ba       $N00206                    100214ba     GameService.exp
 0002:000084e8       $N00207                    100214e8     GameService.exp
 0002:00008526       $N00208                    10021526     GameService.exp
 0002:00008550       $N00209                    10021550     GameService.exp
 0002:0000858d       $N00210                    1002158d     GameService.exp
 0002:000085bd       $N00211                    100215bd     GameService.exp
 0002:000085e7       $N00212                    100215e7     GameService.exp
 0002:00008618       $N00213                    10021618     GameService.exp
 0002:00008642       $N00214                    10021642     GameService.exp
 0002:0000868b       $N00215                    1002168b     GameService.exp
 0002:000086d3       $N00216                    100216d3     GameService.exp
 0002:000086fc       $N00217                    100216fc     GameService.exp
 0002:00008726       $N00218                    10021726     GameService.exp
 0002:00008752       $N00219                    10021752     GameService.exp
 0002:00008799       $N00220                    10021799     GameService.exp
 0002:000087c2       $N00221                    100217c2     GameService.exp
 0002:00008803       $N00222                    10021803     GameService.exp
 0002:0000882c       $N00223                    1002182c     GameService.exp
 0002:0000885b       $N00224                    1002185b     GameService.exp
 0002:00008887       $N00225                    10021887     GameService.exp
 0002:000088c9       $N00226                    100218c9     GameService.exp
 0002:000088f1       $N00227                    100218f1     GameService.exp
 0002:0000891b       $N00228                    1002191b     GameService.exp
 0002:0000894a       $N00229                    1002194a     GameService.exp
 0002:00008978       $N00230                    10021978     GameService.exp
 0002:000089a2       $N00231                    100219a2     GameService.exp
 0002:000089dd       $N00232                    100219dd     GameService.exp
 0002:00008a17       $N00233                    10021a17     GameService.exp
 0002:00008a42       $N00234                    10021a42     GameService.exp
 0002:00008a6f       $N00235                    10021a6f     GameService.exp
 0002:00008aa3       $N00236                    10021aa3     GameService.exp
 0002:00008ace       $N00237                    10021ace     GameService.exp
 0002:00008b0e       $N00238                    10021b0e     GameService.exp
 0002:00008b3d       $N00239                    10021b3d     GameService.exp
 0002:00008b68       $N00240                    10021b68     GameService.exp
 0002:00008be1       $N00241                    10021be1     GameService.exp
 0002:00008c0b       $N00242                    10021c0b     GameService.exp
 0002:00008c36       $N00243                    10021c36     GameService.exp
 0002:00008c66       $N00244                    10021c66     GameService.exp
 0002:00008c91       $N00245                    10021c91     GameService.exp
 0002:00008cc4       $N00246                    10021cc4     GameService.exp
 0002:00008dbb       $N00247                    10021dbb     GameService.exp
 0002:000090e8       .idata$6                   100220e8     mfc140u:mfc140u.dll
 0002:000092e2       .idata$6                   100222e2     kernel32:KERNEL32.dll
 0002:0000932a       .idata$6                   1002232a     msvcprt:MSVCP140.dll
 0002:00009364       .idata$6                   10022364     ServiceCore:ServiceCore.dll
 0002:000093ae       .idata$6                   100223ae     KernelEngine:KernelEngine.dll
 0002:00009480       .idata$6                   10022480     vcruntime:VCRUNTIME140.dll
 0002:0000963a       .idata$6                   1002263a     ucrt:api-ms-win-crt-string-l1-1-0.dll
 0002:0000965c       .idata$6                   1002265c     ucrt:api-ms-win-crt-stdio-l1-1-0.dll
 0002:0000967c       .idata$6                   1002267c     ucrt:api-ms-win-crt-utility-l1-1-0.dll
 0002:0000969e       .idata$6                   1002269e     ucrt:api-ms-win-crt-time-l1-1-0.dll
 0002:000096be       .idata$6                   100226be     ucrt:api-ms-win-crt-math-l1-1-0.dll
 0002:000096de       .idata$6                   100226de     ucrt:api-ms-win-crt-runtime-l1-1-0.dll
 0002:00009700       .idata$6                   10022700     ucrt:api-ms-win-crt-convert-l1-1-0.dll
 0002:00009722       .idata$6                   10022722     ucrt:api-ms-win-crt-heap-l1-1-0.dll
 0003:00000000       ?PADDING@@3PAEA            10023000     AndroidUserItem.obj
 0003:00000040       ?PADDING@@3PAEA            10023040     AndroidUserManager.obj
 0003:00000080       ?PADDING@@3PAEA            10023080     GamePropertyManager.obj
 0003:000000c0       ?PADDING@@3PAEA            100230c0     GameService.obj
 0003:00000100       ?PADDING@@3PAEA            10023100     ServerUserManager.obj
 0003:00000140       ?PADDING@@3PAEA            10023140     UserTaskManager.obj
 0003:000006dc       ?GameServiceDLL@@3UAFX_EXTENSION_MODULE@@A 100236dc     GameService.obj
 0003:0000070c       ?module_local_atexit_table@@3U_onexit_table_t@@A 1002370c     msvcrt:utility.obj
 0003:00000718       ?module_local_at_quick_exit_table@@3U_onexit_table_t@@A 10023718     msvcrt:utility.obj
 0003:00000724       ?is_initialized_as_dll@@3_NA 10023724     msvcrt:utility.obj
 0003:00000728       ?_Tss_mutex@@3U_RTL_CRITICAL_SECTION@@A 10023728     msvcrt:thread_safe_statics.obj
 0003:00000740       ?_Tss_cv@@3U_RTL_CONDITION_VARIABLE@@A 10023740     msvcrt:thread_safe_statics.obj
 0003:00000744       ?_Tss_event@@3PAXA         10023744     msvcrt:thread_safe_statics.obj
 0003:00000748       ?encoded_sleep_condition_variable_cs@@3P6GHPAU_RTL_CONDITION_VARIABLE@@PAU_RTL_CRITICAL_SECTION@@K@ZA 10023748     msvcrt:thread_safe_statics.obj
 0003:0000074c       ?encoded_wake_all_condition_variable@@3P6GXPAU_RTL_CONDITION_VARIABLE@@@ZA 1002374c     msvcrt:thread_safe_statics.obj
 0003:00000754       ?__proc_attached@@3HA      10023754     msvcrt:dll_dllmain.obj
 0003:00000768       _GS_ExceptionRecord        10023768     msvcrt:gs_report.obj
 0003:000007b8       _GS_ContextRecord          100237b8     msvcrt:gs_report.obj
 0004:00000000       __guard_fids__             10024000     msvcrt:std_type_info_static.obj
 0004:00000004       __guard_fids__             10024004     msvcrt:thread_safe_statics.obj
 0004:00000008       __guard_fids_?__scrt_initialize_thread_safe_statics@@YAHXZ 10024008     msvcrt:thread_safe_statics.obj
 0004:0000000c       __guard_fids_?dllmain_crt_process_attach@@YAHQAUHINSTANCE__@@QAX@Z 1002400c     msvcrt:dll_dllmain.obj
 0004:00000014       __guard_fids_?dllmain_dispatch@@YAHQAUHINSTANCE__@@KQAX@Z 10024014     msvcrt:dll_dllmain.obj
 0004:00000018       __guard_fids___except_handler4 10024018     msvcrt:_chandler4gs_.obj
 0004:0000001c       __guard_fids__             1002401c     msvcrt:guard_support.obj
 0004:00000020       __guard_fids_??__E_AtlBaseModule@ATL@@YAXXZ 10024020     atls:atlbase.obj
 0004:00000024       __guard_fids__             10024024     atls:atlbase.obj
 0006:000000a0       $R000000                   100260a0     GameService.res
 0006:000003a0       $R000300                   100263a0     GameService.res
