 GameServer

 Timestamp is 651e7fa5 (Thu Oct  5 17:19:33 2023)

 Preferred load address is 00400000

 Start         Length     Name                   Class
 0001:00000000 000000b0H .text$di                CODE
 0001:000000b0 00060710H .text$mn                CODE
 0001:000607c0 00002410H .text$x                 CODE
 0001:00062bd0 00000064H .text$yd                CODE
 0002:00000000 00000668H .idata$5                DATA
 0002:00000668 00000004H .00cfg                  DATA
 0002:0000066c 00000004H .CRT$XCA                DATA
 0002:00000670 00000004H .CRT$XCAA               DATA
 0002:00000674 00000008H .CRT$XCL                DATA
 0002:0000067c 0000000cH .CRT$XCU                DATA
 0002:00000688 00000004H .CRT$XCZ                DATA
 0002:0000068c 00000004H .CRT$XIA                DATA
 0002:00000690 00000004H .CRT$XIAA               DATA
 0002:00000694 00000004H .CRT$XIAC               DATA
 0002:00000698 00000004H .CRT$XIC                DATA
 0002:0000069c 00000004H .CRT$XIZ                DATA
 0002:000006a0 00000004H .CRT$XLA                DATA
 0002:000006a4 00000004H .CRT$XLZ                DATA
 0002:000006a8 00000004H .CRT$XPA                DATA
 0002:000006ac 00000004H .CRT$XPZ                DATA
 0002:000006b0 00000004H .CRT$XTA                DATA
 0002:000006b4 0000000cH .CRT$XTZ                DATA
 0002:000006c0 0000f174H .rdata                  DATA
 0002:0000f834 00000018H .rdata$T                DATA
 0002:0000f84c 00001954H .rdata$r                DATA
 0002:000111a0 00000254H .rdata$sxdata           DATA
 0002:000113f4 00000404H .rdata$zzzdbg           DATA
 0002:000117f8 00000004H .rtc$IAA                DATA
 0002:000117fc 00000004H .rtc$IZZ                DATA
 0002:00011800 00000004H .rtc$TAA                DATA
 0002:00011804 00000004H .rtc$TZZ                DATA
 0002:00011808 00003700H .xdata$x                DATA
 0002:00014f08 00000000H ATL$__a                 DATA
 0002:00014f08 00000000H ATL$__z                 DATA
 0002:00014f08 00000000H .edata                  DATA
 0002:00014f08 000001ccH .idata$2                DATA
 0002:000150d4 00000014H .idata$3                DATA
 0002:000150e8 00000668H .idata$4                DATA
 0002:00015750 00001920H .idata$6                DATA
 0003:00000000 00000078H .data                   DATA
 0003:00000078 00001000H .data$r                 DATA
 0003:00001078 00003d34H .bss                    DATA
 0004:00000000 00000074H .gfids$y                DATA
 0005:00000000 00000004H .tls                    DATA
 0005:00000004 00000004H .tls$                   DATA
 0005:00000008 00000001H .tls$ZZZ                DATA
 0006:00000000 00000370H .rsrc$01                DATA
 0006:00000370 00006ad8H .rsrc$02                DATA

  Address         Publics by Value              Rva+Base       Lib:Object

 0000:00000000       ___guard_longjmp_table     00000000     <absolute>
 0000:00000000       ___guard_iat_table         00000000     <absolute>
 0000:00000000       ___guard_iat_count         00000000     <absolute>
 0000:00000000       ___guard_fids_count        00000000     <absolute>
 0000:00000000       ___guard_fids_table        00000000     <absolute>
 0000:00000000       ___dynamic_value_reloc_table 00000000     <absolute>
 0000:00000000       ___guard_longjmp_count     00000000     <absolute>
 0000:0000002c       __tls_array                0000002c     <absolute>
 0000:00000095       ___safe_se_handler_count   00000095     <absolute>
 0000:00000100       ___guard_flags             00000100     <absolute>
 0000:00000000       ___ImageBase               00400000     <linker-defined>
 0001:000000b0       ??$__vcrt_va_start_verify_argument_type@QB_W@@YAXXZ 004010b0 f i Log.obj
 0001:000000b0       ?__global_delete@@YAXPAXI@Z 004010b0 f i AttemperEngineSink.obj
 0001:000000b0       ??3@YAXPAX0@Z              004010b0 f i AttemperEngineSink.obj
 0001:000000b0       ??$__vcrt_va_start_verify_argument_type@PBD@@YAXXZ 004010b0 f i Log.obj
 0001:000000b0       ?__empty_global_delete@@YAXPAXI@Z 004010b0 f i AttemperEngineSink.obj
 0001:000000b0       ??$__vcrt_va_start_verify_argument_type@PB_W@@YAXXZ 004010b0 f i Log.obj
 0001:000000c0       ??$sprintf_s@$0BAE@@@YAHAAY0BAE@DPBDZZ 004010c0 f i Log.obj
 0001:00000100       ??$sprintf_s@$0EAA@@@YAHAAY0EAA@DPBDZZ 00401100 f i Log.obj
 0001:00000140       ?GetLogStatus@WHLogControl@@SAEXZ 00401140 f   Log.obj
 0001:00000160       ?LogPrintf@WHLogControl@@SAXGPADPBDZZ 00401160 f   Log.obj
 0001:00000390       ?LogPrintf@WHLogControl@@SAXGPA_WPB_WZZ 00401390 f   Log.obj
 0001:000006a0       ?SetLogStatus@WHLogControl@@SAXE@Z 004016a0 f   Log.obj
 0001:000006c0       ___local_stdio_printf_options 004016c0 f i Log.obj
 0001:000006e0       __vfwprintf_s_l            004016e0 f i Log.obj
 0001:00000720       __vsnprintf                00401720 f i Log.obj
 0001:00000750       __vsnprintf_l              00401750 f i Log.obj
 0001:000007b0       __vsnwprintf               004017b0 f i Log.obj
 0001:000007e0       __vsnwprintf_l             004017e0 f i Log.obj
 0001:00000840       __vsprintf_s_l             00401840 f i Log.obj
 0001:000008a0       _fwprintf_s                004018a0 f i Log.obj
 0001:000008e0       _vsprintf_s                004018e0 f i Log.obj
 0001:00000910       ??$CompareElements@GG@@YGHPBG0@Z 00401910 f i AttemperEngineSink.obj
 0001:00000980       ??$CompareElements@KK@@YGHPBK0@Z 00401980 f i AttemperEngineSink.obj
 0001:000009f0       ??$HashKey@G@@YGIG@Z       004019f0 f i AttemperEngineSink.obj
 0001:00000a50       ??$HashKey@K@@YGIK@Z       00401a50 f i AttemperEngineSink.obj
 0001:00000ab0       ??$SerializeElements@G@@YGXAAVCArchive@@PAGH@Z 00401ab0 f i AttemperEngineSink.obj
 0001:00000bc0       ??$SerializeElements@UtagTaskConfigInfo@@@@YGXAAVCArchive@@PAUtagTaskConfigInfo@@H@Z 00401bc0 f i AttemperEngineSink.obj
 0001:00000cc0       ??$_snwprintf_s@$0BA@@@YAHAAY0BA@_WIPB_WZZ 00401cc0 f i AttemperEngineSink.obj
 0001:00000d00       ??$_snwprintf_s@$0BAA@@@YAHAAY0BAA@_WIPB_WZZ 00401d00 f i AttemperEngineSink.obj
 0001:00000d40       ??$_snwprintf_s@$0BAE@@@YAHAAY0BAE@_WIPB_WZZ 00401d40 f i AttemperEngineSink.obj
 0001:00000d80       ??$_snwprintf_s@$0CAA@@@YAHAAY0CAA@_WIPB_WZZ 00401d80 f i AttemperEngineSink.obj
 0001:00000dc0       ??$_snwprintf_s@$0EA@@@YAHAAY0EA@_WIPB_WZZ 00401dc0 f i AttemperEngineSink.obj
 0001:00000e00       ??$_snwprintf_s@$0IA@@@YAHAAY0IA@_WIPB_WZZ 00401e00 f i AttemperEngineSink.obj
 0001:00000e40       ??0?$CMap@GGUtagTaskConfigInfo@@AAU1@@@QAE@H@Z 00401e40 f i AttemperEngineSink.obj
 0001:00000eb0       ??0?$CMap@KKKAAK@@QAE@H@Z  00401eb0 f i AttemperEngineSink.obj
 0001:00000f20       ??0?$CWHArray@PAUtagPersonalTableParameter@@ABQAU1@@@QAE@XZ 00401f20 f i AttemperEngineSink.obj
 0001:00000f70       ??0?$CWHArray@PAVCTableFrame@@ABQAV1@@@QAE@XZ 00401f70 f i AttemperEngineSink.obj
 0001:00000fc0       ??0?$CWHArray@PB_WABQB_W@@QAE@XZ 00401fc0 f i AttemperEngineSink.obj
 0001:00001010       ??0?$CWHArray@UtagDistributeInfo@@ABU1@@@QAE@XZ 00402010 f i AttemperEngineSink.obj
 0001:00001060       ??0CAttemperEngineSink@@QAE@XZ 00402060 f   AttemperEngineSink.obj
 0001:000013c0       ??0CFilterTree@@QAE@XZ     004023c0 f i AttemperEngineSink.obj
 0001:000013e0       ??0CMD_CS_C_DismissTable@@QAE@XZ 004023e0 f i AttemperEngineSink.obj
 0001:00001400       ??0CMD_CS_C_UpdateGroupMaxChairBankerUserID@@QAE@XZ 00402400 f i AttemperEngineSink.obj
 0001:00001440       ??0CMD_CS_C_UpdateTablePlayerCount@@QAE@XZ 00402440 f i AttemperEngineSink.obj
 0001:000014a0       ??0CDistributeNodePool@@QAE@XZ 004024a0 f i DistributeManager.obj
 0001:000014a0       ??0CObject@@IAE@XZ         004024a0 f i AttemperEngineSink.obj
 0001:000014c0       ??0CRecvPacketHelper@@QAE@PBXG@Z 004024c0 f i AttemperEngineSink.obj
 0001:000014c0       ??0CSendPacketHelper@@QAE@PAXG@Z 004024c0 f i AttemperEngineSink.obj
 0001:00001500       ??0CSensitiveWordsFilter@@QAE@XZ 00402500 f i AttemperEngineSink.obj
 0001:00001530       ??0IAttemperEngineSink@@QAE@XZ 00402530 f i AttemperEngineSink.obj
 0001:00001560       ??0IMainServiceFrame@@QAE@XZ 00402560 f i AttemperEngineSink.obj
 0001:00001590       ??0IServerUserItemSink@@QAE@XZ 00402590 f i AttemperEngineSink.obj
 0001:000015c0       ??0IUnknownEx@@QAE@XZ      004025c0 f i AttemperEngineSink.obj
 0001:000015e0       ??0_variant_t@@QAE@XZ      004025e0 f i AttemperEngineSink.obj
 0001:00001600       ??0tagAndroidAccountsInfo@@QAE@XZ 00402600 f i AttemperEngineSink.obj
 0001:00001620       ??0tagAndroidItemConfig@@QAE@XZ 00402620 f i AttemperEngineSink.obj
 0001:00001640       ??1?$CMap@GGUtagTaskConfigInfo@@AAU1@@@UAE@XZ 00402640 f i AttemperEngineSink.obj
 0001:000016a0       ??1?$CMap@KKKAAK@@UAE@XZ   004026a0 f i AttemperEngineSink.obj
 0001:00001700       ??1?$CWHArray@PAUtagPersonalTableParameter@@ABQAU1@@@UAE@XZ 00402700 f i AttemperEngineSink.obj
 0001:00001770       ??1?$CWHArray@PAVCTableFrame@@ABQAV1@@@UAE@XZ 00402770 f i AttemperEngineSink.obj
 0001:000017e0       ??1?$CWHArray@PB_WABQB_W@@UAE@XZ 004027e0 f i AttemperEngineSink.obj
 0001:00001850       ??1?$CWHArray@UtagDistributeInfo@@ABU1@@@UAE@XZ 00402850 f i AttemperEngineSink.obj
 0001:000018c0       ??1CAttemperEngineSink@@UAE@XZ 004028c0 f   AttemperEngineSink.obj
 0001:00001b20       ??1CSensitiveWordsFilter@@UAE@XZ 00402b20 f i AttemperEngineSink.obj
 0001:00001b50       ??1_variant_t@@QAE@XZ      00402b50 f i AttemperEngineSink.obj
 0001:00001b70       ??2@YAPAXIPAX@Z            00402b70 f i AttemperEngineSink.obj
 0001:00001b90       ??3CObject@@SGXPAX@Z       00402b90 f i AttemperEngineSink.obj
 0001:00001bb0       ??A?$CMap@GGUtagTaskConfigInfo@@AAU1@@@QAEAAUtagTaskConfigInfo@@G@Z 00402bb0 f i AttemperEngineSink.obj
 0001:00001c70       ??A?$CWHArray@UtagDistributeInfo@@ABU1@@@QAEAAUtagDistributeInfo@@H@Z 00402c70 f i AttemperEngineSink.obj
 0001:00001ca0       ??B?$CW2CWEX@$0IA@@ATL@@QBEPB_WXZ 00402ca0 f i AttemperEngineSink.obj
 0001:00001cc0       ??_E?$CMap@GGUtagTaskConfigInfo@@AAU1@@@UAEPAXI@Z 00402cc0 f i AttemperEngineSink.obj
 0001:00001cc0       ??_G?$CMap@GGUtagTaskConfigInfo@@AAU1@@@UAEPAXI@Z 00402cc0 f i AttemperEngineSink.obj
 0001:00001d10       ??_G?$CMap@KKKAAK@@UAEPAXI@Z 00402d10 f i AttemperEngineSink.obj
 0001:00001d10       ??_E?$CMap@KKKAAK@@UAEPAXI@Z 00402d10 f i AttemperEngineSink.obj
 0001:00001d60       ??_G?$CWHArray@PAUtagPersonalTableParameter@@ABQAU1@@@UAEPAXI@Z 00402d60 f i AttemperEngineSink.obj
 0001:00001d60       ??_E?$CWHArray@PAUtagPersonalTableParameter@@ABQAU1@@@UAEPAXI@Z 00402d60 f i AttemperEngineSink.obj
 0001:00001da0       ??_G?$CWHArray@PAVCTableFrame@@ABQAV1@@@UAEPAXI@Z 00402da0 f i AttemperEngineSink.obj
 0001:00001da0       ??_E?$CWHArray@PAVCTableFrame@@ABQAV1@@@UAEPAXI@Z 00402da0 f i AttemperEngineSink.obj
 0001:00001de0       ??_G?$CWHArray@PB_WABQB_W@@UAEPAXI@Z 00402de0 f i AttemperEngineSink.obj
 0001:00001de0       ??_E?$CWHArray@PB_WABQB_W@@UAEPAXI@Z 00402de0 f i AttemperEngineSink.obj
 0001:00001e20       ??_G?$CWHArray@UtagDistributeInfo@@ABU1@@@UAEPAXI@Z 00402e20 f i AttemperEngineSink.obj
 0001:00001e20       ??_E?$CWHArray@UtagDistributeInfo@@ABU1@@@UAEPAXI@Z 00402e20 f i AttemperEngineSink.obj
 0001:00001e60       ??_GCAttemperEngineSink@@UAEPAXI@Z 00402e60 f i AttemperEngineSink.obj
 0001:00001e60       ??_ECAttemperEngineSink@@UAEPAXI@Z 00402e60 f i AttemperEngineSink.obj
 0001:00001ea0       ??_ECSensitiveWordsFilter@@UAEPAXI@Z 00402ea0 f i AttemperEngineSink.obj
 0001:00001ea0       ??_GCSensitiveWordsFilter@@UAEPAXI@Z 00402ea0 f i AttemperEngineSink.obj
 0001:00001ee0       ?AddPacket@CSendPacketHelper@@QAE_NPAXGG@Z 00402ee0 f i AttemperEngineSink.obj
 0001:00001f70       ?AddPacket@CSendPacketHelper@@QAE_NPB_WG@Z 00402f70 f i AttemperEngineSink.obj
 0001:00001fc0       ?AllocMemory@?$CWHArray@PAVCGameKindItem@NServerListManager@@ABQAV12@@@QAEXH@Z 00402fc0 f i ServerListManager.obj
 0001:00001fc0       ?AllocMemory@?$CWHArray@KABK@@QAEXH@Z 00402fc0 f i DBCorrespondManager.obj
 0001:00001fc0       ?AllocMemory@?$CWHArray@PAUtagGameScoreRecord@@ABQAU1@@@QAEXH@Z 00402fc0 f i TableFrame.obj
 0001:00001fc0       ?AllocMemory@?$CWHArray@PB_WABQB_W@@QAEXH@Z 00402fc0 f i SensitiveWordsFilter.obj
 0001:00001fc0       ?AllocMemory@?$CWHArray@PAVCGamePageItem@NServerListManager@@ABQAV12@@@QAEXH@Z 00402fc0 f i ServerListManager.obj
 0001:00001fc0       ?AllocMemory@?$CWHArray@PAVCGameServerItem@NServerListManager@@ABQAV12@@@QAEXH@Z 00402fc0 f i ServerListManager.obj
 0001:00001fc0       ?AllocMemory@?$CWHArray@PAVCTableFrame@@ABQAV1@@@QAEXH@Z 00402fc0 f i AttemperEngineSink.obj
 0001:00001fc0       ?AllocMemory@?$CWHArray@PAUIServerUserItem@@ABQAU1@@@QAEXH@Z 00402fc0 f i TableFrame.obj
 0001:00001fc0       ?AllocMemory@?$CWHArray@PAUtagGroupScoreRecord@@ABQAU1@@@QAEXH@Z 00402fc0 f i TableFrame.obj
 0001:00001fc0       ?AllocMemory@?$CWHArray@PAVCGameTypeItem@NServerListManager@@ABQAV12@@@QAEXH@Z 00402fc0 f i ServerListManager.obj
 0001:00001fc0       ?AllocMemory@?$CWHArray@PAVCGameNodeItem@NServerListManager@@ABQAV12@@@QAEXH@Z 00402fc0 f i ServerListManager.obj
 0001:00002140       ?CanDismissGame@CMasterRight@@SA_NK@Z 00403140 f i AttemperEngineSink.obj
 0001:00002170       ?CanIssueMessage@CMasterRight@@SA_NK@Z 00403170 f i AttemperEngineSink.obj
 0001:000021a0       ?IsAllowDynamicJoin@CServerRule@@SA_NK@Z 004031a0 f i AttemperEngineSink.obj
 0001:000021a0       ?CanLimitGameChat@CMasterRight@@SA_NK@Z 004031a0 f i AttemperEngineSink.obj
 0001:000021d0       ?IsForfendWisperOnGame@CServerRule@@SA_NK@Z 004031d0 f i AttemperEngineSink.obj
 0001:000021d0       ?CanLimitRoomChat@CMasterRight@@SA_NK@Z 004031d0 f i AttemperEngineSink.obj
 0001:00002200       ?CanRoomChat@CUserRight@@SA_NK@Z 00403200 f i AttemperEngineSink.obj
 0001:00002230       ?CanSendWarning@CMasterRight@@SA_NK@Z 00403230 f i AttemperEngineSink.obj
 0001:00002230       ?IsForfendGameLookon@CServerRule@@SA_NK@Z 00403230 f i AttemperEngineSink.obj
 0001:00002260       ?CanWisper@CUserRight@@SA_NK@Z 00403260 f i AttemperEngineSink.obj
 0001:00002290       ?CancelCreateTable@CAttemperEngineSink@@UAEXKKKKGK@Z 00403290 f   AttemperEngineSink.obj
 0001:000024e0       ?CheckUserPlaying@CAttemperEngineSink@@UAE_NXZ 004034e0 f   AttemperEngineSink.obj
 0001:00002560       ?DeleteDistribute@CAttemperEngineSink@@UAE_NPAUIServerUserItem@@@Z 00403560 f   AttemperEngineSink.obj
 0001:00002590       ?DisconnectCorrespond@CAttemperEngineSink@@UAE_NXZ 00403590 f   AttemperEngineSink.obj
 0001:00002600       ?DismissPersonalTable@CAttemperEngineSink@@UAEXGG@Z 00403600 f   AttemperEngineSink.obj
 0001:000026b0       ?ElementAt@?$CWHArray@UtagDistributeInfo@@ABU1@@@QAEAAUtagDistributeInfo@@H@Z 004036b0 f i AttemperEngineSink.obj
 0001:000026f0       ?EnsureRead@CArchive@@QAEXPAXI@Z 004036f0 f i AttemperEngineSink.obj
 0001:00002730       ?GetAssocAt@?$CMap@GGUtagTaskConfigInfo@@AAU1@@@IBEPAVCAssoc@1@GAAI0@Z 00403730 f i AttemperEngineSink.obj
 0001:000027c0       ?GetBindParameter@CAttemperEngineSink@@UAEPAUtagBindParameter@@G@Z 004037c0 f   AttemperEngineSink.obj
 0001:00002840       ?GetBindUserItem@CAttemperEngineSink@@UAEPAUIServerUserItem@@G@Z 00403840 f   AttemperEngineSink.obj
 0001:00002880       ?GetBuildVer@@YAEK@Z       00403880 f i AttemperEngineSink.obj
 0001:000028a0       ?GetCount@?$CMap@KKPAVCGamePropertyRelatItem@NGamePropertyListManager@@AAPAV12@@@QBEHXZ 004038a0 f i AttemperEngineSink.obj
 0001:000028a0       ?GetCount@?$CMap@KKPAVCGamePropertyTypeItem@NGamePropertyListManager@@AAPAV12@@@QBEHXZ 004038a0 f i AttemperEngineSink.obj
 0001:000028a0       ?GetCount@?$CList@PAUtagDBRequestHead@@ABQAU1@@@QBEHXZ 004038a0 f i DBCorrespondManager.obj
 0001:000028a0       ?GetCount@?$CMap@KKPAVCGamePropertySubItem@NGamePropertyListManager@@AAPAV12@@@QBEHXZ 004038a0 f i AttemperEngineSink.obj
 0001:000028a0       ?GetCount@?$CMap@KKPAVCGamePropertyItem@NGamePropertyListManager@@AAPAV12@@@QBEHXZ 004038a0 f i AttemperEngineSink.obj
 0001:000028c0       ?GetCount@CDistributeManager@@QAEGXZ 004038c0 f i AttemperEngineSink.obj
 0001:000028e0       ?GetData@CRecvPacketHelper@@QAEPAXAAUtagDataDescribe@@@Z 004038e0 f i AttemperEngineSink.obj
 0001:000029b0       ?GetDataSize@CSendPacketHelper@@QAEGXZ 004039b0 f i AttemperEngineSink.obj
 0001:000029d0       ?GetGamePropertyCount@CGamePropertyListManager@NGamePropertyListManager@@QAEKXZ 004039d0 f i AttemperEngineSink.obj
 0001:000029f0       ?GetGamePropertyRelatCount@CGamePropertyListManager@NGamePropertyListManager@@QAEKXZ 004039f0 f i AttemperEngineSink.obj
 0001:00002a10       ?GetGamePropertySubCount@CGamePropertyListManager@NGamePropertyListManager@@QAEKXZ 00403a10 f i AttemperEngineSink.obj
 0001:00002a30       ?GetGamePropertyTypeCount@CGamePropertyListManager@NGamePropertyListManager@@QAEKXZ 00403a30 f i AttemperEngineSink.obj
 0001:00002a50       ?GetMainVer@@YAEK@Z        00403a50 f i AttemperEngineSink.obj
 0001:00002a70       ?GetNextAssoc@?$CMap@GGUtagTaskConfigInfo@@AAU1@@@QBEXAAPAU__POSITION@@AAGAAUtagTaskConfigInfo@@@Z 00403a70 f i AttemperEngineSink.obj
 0001:00002be0       ?GetProductVer@@YAEK@Z     00403be0 f i AttemperEngineSink.obj
 0001:00002c00       ?GetServiceStatus@CServiceUnits@@QAE?AW4enServiceStatus@@XZ 00403c00 f i AttemperEngineSink.obj
 0001:00002c20       ?GetShareStorageItem@CAttemperEngineSink@@QAEPAUtagShareStorageItem@@_K@Z 00403c20 f   AttemperEngineSink.obj
 0001:00002c60       ?GetSubVer@@YAEK@Z         00403c60 f i AttemperEngineSink.obj
 0001:00002c80       ?InitAndroidUser@CAttemperEngineSink@@IAE_NXZ 00403c80 f   AttemperEngineSink.obj
 0001:00002d90       ?InitMatchServiceManager@CAttemperEngineSink@@IAE_NXZ 00403d90 f   AttemperEngineSink.obj
 0001:00002ed0       ?InitPersonalRoomServiceManager@CAttemperEngineSink@@IAE_NXZ 00403ed0 f   AttemperEngineSink.obj
 0001:00003030       ?InitTableFrameArray@CAttemperEngineSink@@IAE_NXZ 00404030 f   AttemperEngineSink.obj
 0001:00003430       ?InsertDistribute@CAttemperEngineSink@@UAE_NPAUIServerUserItem@@@Z 00404430 f   AttemperEngineSink.obj
 0001:00003610       ?InterfaceVersionCompare@@YA_NKK@Z 00404610 f i AttemperEngineSink.obj
 0001:000036c0       ?IsAllowAndroidAttend@CServerRule@@SA_NK@Z 004046c0 f i AttemperEngineSink.obj
 0001:000036f0       ?IsAllowAndroidSimulate@CServerRule@@SA_NK@Z 004046f0 f i AttemperEngineSink.obj
 0001:00003720       ?IsAllowAvertDebugMode@CServerRule@@SA_NK@Z 00404720 f i AttemperEngineSink.obj
 0001:00003750       ?IsAllowOffLineTrustee@CServerRule@@SA_NK@Z 00404750 f i AttemperEngineSink.obj
 0001:00003780       ?IsForfendGameChat@CServerRule@@SA_NK@Z 00404780 f i AttemperEngineSink.obj
 0001:000037b0       ?IsForfendGameEnter@CServerRule@@SA_NK@Z 004047b0 f i AttemperEngineSink.obj
 0001:000037e0       ?IsForfendGameRule@CServerRule@@SA_NK@Z 004047e0 f i AttemperEngineSink.obj
 0001:00003810       ?IsForfendLockTable@CServerRule@@SA_NK@Z 00404810 f i AttemperEngineSink.obj
 0001:00003840       ?IsForfendRoomChat@CServerRule@@SA_NK@Z 00404840 f i AttemperEngineSink.obj
 0001:00003870       ?IsForfendRoomEnter@CServerRule@@SA_NK@Z 00404870 f i AttemperEngineSink.obj
 0001:000038a0       ?IsForfendSaveInGame@CServerRule@@SA_NK@Z 004048a0 f i AttemperEngineSink.obj
 0001:000038d0       ?IsForfendSaveInRoom@CServerRule@@SA_NK@Z 004048d0 f i AttemperEngineSink.obj
 0001:00003900       ?IsForfendTakeInGame@CServerRule@@SA_NK@Z 00404900 f i AttemperEngineSink.obj
 0001:00003930       ?IsForfendTakeInRoom@CServerRule@@SA_NK@Z 00404930 f i AttemperEngineSink.obj
 0001:00003960       ?CanLimitWisper@CMasterRight@@SA_NK@Z 00404960 f i AttemperEngineSink.obj
 0001:00003960       ?IsForfendWisperChat@CServerRule@@SA_NK@Z 00404960 f i AttemperEngineSink.obj
 0001:00003990       ?IsGameDebugUser@CUserRight@@SA_NK@Z 00404990 f i AttemperEngineSink.obj
 0001:000039c0       ?IsGameMatchUser@CUserRight@@SA_NK@Z 004049c0 f i AttemperEngineSink.obj
 0001:000039f0       ?IsImmediateWriteScore@CServerRule@@SA_NK@Z 004049f0 f i AttemperEngineSink.obj
 0001:000039f0       ?CanLimitUserChat@CMasterRight@@SA_NK@Z 004049f0 f i AttemperEngineSink.obj
 0001:00003a20       ?CanKillUser@CMasterRight@@SA_NK@Z 00404a20 f i AttemperEngineSink.obj
 0001:00003a20       ?IsRecordGameScore@CServerRule@@SA_NK@Z 00404a20 f i AttemperEngineSink.obj
 0001:00003a50       ?CanKillOutUser@CUserRight@@SA_NK@Z 00404a50 f i AttemperEngineSink.obj
 0001:00003a50       ?IsRecordGameTrack@CServerRule@@SA_NK@Z 00404a50 f i AttemperEngineSink.obj
 0001:00003a80       ?IsStoring@CArchive@@QBEHXZ 00404a80 f i AttemperEngineSink.obj
 0001:00003ac0       ?IsSuportGroup@CServerRule@@SA_NK@Z 00404ac0 f i AttemperEngineSink.obj
 0001:00003ac0       ?CanManagerAndroid@CMasterRight@@SA_NK@Z 00404ac0 f i AttemperEngineSink.obj
 0001:00003af0       ?IsSuportPlayBack@CServerRule@@SA_NK@Z 00404af0 f i AttemperEngineSink.obj
 0001:00003b20       ?Lookup@?$CMap@KKKAAK@@QBEHKAAK@Z 00404b20 f i AttemperEngineSink.obj
 0001:00003b20       ?Lookup@?$CMap@KKPAVCGamePropertyItem@NGamePropertyListManager@@AAPAV12@@@QBEHKAAPAVCGamePropertyItem@NGamePropertyListManager@@@Z 00404b20 f i GamePropertyListManager.obj
 0001:00003b20       ?Lookup@?$CMap@KKPAVCGamePropertyTypeItem@NGamePropertyListManager@@AAPAV12@@@QBEHKAAPAVCGamePropertyTypeItem@NGamePropertyListManager@@@Z 00404b20 f i GamePropertyListManager.obj
 0001:00003b70       ?MobileUserImmediately@CAttemperEngineSink@@IAE_NPAUIServerUserItem@@@Z 00404b70 f   AttemperEngineSink.obj
 0001:00003df0       ?NewAssoc@?$CMap@GGUtagTaskConfigInfo@@AAU1@@@IAEPAVCAssoc@1@G@Z 00404df0 f i AttemperEngineSink.obj
 0001:00003f70       ?OnAttemperEngineConclude@CAttemperEngineSink@@UAE_NPAUIUnknownEx@@@Z 00404f70 f   AttemperEngineSink.obj
 0001:00004440       ?OnAttemperEngineStart@CAttemperEngineSink@@UAE_NPAUIUnknownEx@@@Z 00405440 f   AttemperEngineSink.obj
 0001:000048f0       ?OnDBAILogonSuccess@CAttemperEngineSink@@IAE_NKPAXG@Z 004058f0 f   AttemperEngineSink.obj
 0001:000052b0       ?OnDBExChangeResult@CAttemperEngineSink@@IAE_NKPAXG@Z 004062b0 f   AttemperEngineSink.obj
 0001:000054b0       ?OnDBGameAndroidInfo@CAttemperEngineSink@@IAE_NKPAXG@Z 004064b0 f   AttemperEngineSink.obj
 0001:00005540       ?OnDBGameAndroidParameter@CAttemperEngineSink@@IAE_NKPAXG@Z 00406540 f   AttemperEngineSink.obj
 0001:00005590       ?OnDBGameColumnInfo@CAttemperEngineSink@@IAE_NKPAXG@Z 00406590 f   AttemperEngineSink.obj
 0001:00005620       ?OnDBGameGameChatInfo@CAttemperEngineSink@@IAE_NKPAXG@Z 00406620 f   AttemperEngineSink.obj
 0001:000056c0       ?OnDBGameLoadTrumpet@CAttemperEngineSink@@IAE_NKPAXG@Z 004066c0 f   AttemperEngineSink.obj
 0001:00005720       ?OnDBGameMemberParameter@CAttemperEngineSink@@IAE_NKPAXG@Z 00406720 f   AttemperEngineSink.obj
 0001:00005780       ?OnDBGameParameter@CAttemperEngineSink@@IAE_NKPAXG@Z 00406780 f   AttemperEngineSink.obj
 0001:00005870       ?OnDBGamePropertyBuff@CAttemperEngineSink@@IAE_NKPAXG@Z 00406870 f   AttemperEngineSink.obj
 0001:000059b0       ?OnDBGamePropertyBuy@CAttemperEngineSink@@IAE_NKPAXG@Z 004069b0 f   AttemperEngineSink.obj
 0001:00005ac0       ?OnDBGamePropertyItem@CAttemperEngineSink@@IAE_NKPAXG@Z 00406ac0 f   AttemperEngineSink.obj
 0001:00005c80       ?OnDBGamePropertyListResult@CAttemperEngineSink@@IAE_NKPAXG@Z 00406c80 f   AttemperEngineSink.obj
 0001:00005ca0       ?OnDBGamePropertyRelatItem@CAttemperEngineSink@@IAE_NKPAXG@Z 00406ca0 f   AttemperEngineSink.obj
 0001:00005d40       ?OnDBGamePropertySubItem@CAttemperEngineSink@@IAE_NKPAXG@Z 00406d40 f   AttemperEngineSink.obj
 0001:00005e20       ?OnDBGamePropertyTypeItem@CAttemperEngineSink@@IAE_NKPAXG@Z 00406e20 f   AttemperEngineSink.obj
 0001:00005f00       ?OnDBGameSendTrumpet@CAttemperEngineSink@@IAE_NKPAXG@Z 00406f00 f   AttemperEngineSink.obj
 0001:00006060       ?OnDBLoadPersonalRoomOption@CAttemperEngineSink@@IAE_NKPAXG@Z 00407060 f   AttemperEngineSink.obj
 0001:000060b0       ?OnDBLoadShareStorageItemResult@CAttemperEngineSink@@IAE_NKPAXG@Z 004070b0 f   AttemperEngineSink.obj
 0001:00006250       ?OnDBLogonFailure@CAttemperEngineSink@@IAE_NKPAXG@Z 00407250 f   AttemperEngineSink.obj
 0001:000063e0       ?OnDBLogonSuccess@CAttemperEngineSink@@IAE_NKPAXG@Z 004073e0 f   AttemperEngineSink.obj
 0001:00007260       ?OnDBPCBaseEnsureParameter@CAttemperEngineSink@@IAE_NKPAXG@Z 00408260 f   AttemperEngineSink.obj
 0001:000072d0       ?OnDBPCBaseEnsureResult@CAttemperEngineSink@@IAE_NKPAXG@Z 004082d0 f   AttemperEngineSink.obj
 0001:00007410       ?OnDBPCCheckInReward@CAttemperEngineSink@@IAE_NKPAXG@Z 00408410 f   AttemperEngineSink.obj
 0001:00007460       ?OnDBPCGrowLevelConfig@CAttemperEngineSink@@IAE_NKPAXG@Z 00408460 f   AttemperEngineSink.obj
 0001:000074c0       ?OnDBPCGrowLevelParameter@CAttemperEngineSink@@IAE_NKPAXG@Z 004084c0 f   AttemperEngineSink.obj
 0001:000075b0       ?OnDBPCGrowLevelUpgrade@CAttemperEngineSink@@IAE_NKPAXG@Z 004085b0 f   AttemperEngineSink.obj
 0001:00007750       ?OnDBPCMemberDayGiftResult@CAttemperEngineSink@@IAE_NKPAXG@Z 00408750 f   AttemperEngineSink.obj
 0001:00007860       ?OnDBPCMemberDayPresentResult@CAttemperEngineSink@@IAE_NKPAXG@Z 00408860 f   AttemperEngineSink.obj
 0001:000079c0       ?OnDBPCMemberDayQueryInfoResult@CAttemperEngineSink@@IAE_NKPAXG@Z 004089c0 f   AttemperEngineSink.obj
 0001:00007ad0       ?OnDBPCUserCheckInInfo@CAttemperEngineSink@@IAE_NKPAXG@Z 00408ad0 f   AttemperEngineSink.obj
 0001:00007b70       ?OnDBPCUserCheckInResult@CAttemperEngineSink@@IAE_NKPAXG@Z 00408b70 f   AttemperEngineSink.obj
 0001:00007cc0       ?OnDBPropertyFailure@CAttemperEngineSink@@IAE_NKPAXG@Z 00408cc0 f   AttemperEngineSink.obj
 0001:00007d70       ?OnDBPropertySuccess@CAttemperEngineSink@@IAE_NKPAXG@Z 00408d70 f   AttemperEngineSink.obj
 0001:000080c0       ?OnDBPurchaseResult@CAttemperEngineSink@@IAE_NKPAXG@Z 004090c0 f   AttemperEngineSink.obj
 0001:00008320       ?OnDBQueryGetSendPresent@CAttemperEngineSink@@IAE_NKPAXG@Z 00409320 f   AttemperEngineSink.obj
 0001:00008400       ?OnDBQueryPropertyBackpack@CAttemperEngineSink@@IAE_NKPAXG@Z 00409400 f   AttemperEngineSink.obj
 0001:00008520       ?OnDBQueryPropertyPresent@CAttemperEngineSink@@IAE_NKPAXG@Z 00409520 f   AttemperEngineSink.obj
 0001:00008700       ?OnDBQueryPropertyUse@CAttemperEngineSink@@IAE_NKPAXG@Z 00409700 f   AttemperEngineSink.obj
 0001:00008b00       ?OnDBQuerySendPresent@CAttemperEngineSink@@IAE_NKPAXG@Z 00409b00 f   AttemperEngineSink.obj
 0001:00008be0       ?OnDBSensitiveWords@CAttemperEngineSink@@IAE_NKPAXG@Z 00409be0 f   AttemperEngineSink.obj
 0001:00008c60       ?OnDBUserInsureEnableResult@CAttemperEngineSink@@IAE_NKPAXG@Z 00409c60 f   AttemperEngineSink.obj
 0001:00008d70       ?OnDBUserInsureFailure@CAttemperEngineSink@@IAE_NKPAXG@Z 00409d70 f   AttemperEngineSink.obj
 0001:00008e50       ?OnDBUserInsureInfo@CAttemperEngineSink@@IAE_NKPAXG@Z 00409e50 f   AttemperEngineSink.obj
 0001:00009100       ?OnDBUserInsureSuccess@CAttemperEngineSink@@IAE_NKPAXG@Z 0040a100 f   AttemperEngineSink.obj
 0001:00009310       ?OnDBUserInsureUserInfo@CAttemperEngineSink@@IAE_NKPAXG@Z 0040a310 f   AttemperEngineSink.obj
 0001:000093e0       ?OnDBUserTaskList@CAttemperEngineSink@@IAE_NKPAXG@Z 0040a3e0 f   AttemperEngineSink.obj
 0001:00009460       ?OnDBUserTaskInfo@CAttemperEngineSink@@IAE_NKPAXG@Z 0040a460 f   AttemperEngineSink.obj
 0001:00009460       ?OnTCPNetworkSubTaskRewardRequest@CAttemperEngineSink@@IAE_NPAXGK@Z 0040a460 f   AttemperEngineSink.obj
 0001:00009460       ?OnTCPNetworkSubMemberQueryInfo@CAttemperEngineSink@@IAE_NPAXGK@Z 0040a460 f   AttemperEngineSink.obj
 0001:00009460       ?PostGameDataBaseResult@CDataBaseEngineSink@@UAE_NGPAXG@Z 0040a460 f   DataBaseEngineSink.obj
 0001:00009460       ?OnDBUserTaskListEnd@CAttemperEngineSink@@IAE_NKPAXG@Z 0040a460 f   AttemperEngineSink.obj
 0001:00009460       ?OnTCPNetworkSubTakeTaskRequest@CAttemperEngineSink@@IAE_NPAXGK@Z 0040a460 f   AttemperEngineSink.obj
 0001:00009460       ?OnDBUserTaskResult@CAttemperEngineSink@@IAE_NKPAXG@Z 0040a460 f   AttemperEngineSink.obj
 0001:00009460       ?OnTCPNetworkSubLoadTaskInfoRequest@CAttemperEngineSink@@IAE_NPAXGK@Z 0040a460 f   AttemperEngineSink.obj
 0001:00009460       ?OnTCPNetworkSubGiveUpTaskRequest@CAttemperEngineSink@@IAE_NPAXGK@Z 0040a460 f   AttemperEngineSink.obj
 0001:00009480       ?OnEventAndroidUserGradeNotify@CAttemperEngineSink@@UAE_NPAUIServerUserItem@@G@Z 0040a480 f   AttemperEngineSink.obj
 0001:00009670       ?OnEventAndroidUserHangingNotify@CAttemperEngineSink@@UAE_NPAUIServerUserItem@@_N@Z 0040a670 f   AttemperEngineSink.obj
 0001:00009850       ?OnEventControl@CAttemperEngineSink@@UAE_NGPAXG@Z 0040a850 f   AttemperEngineSink.obj
 0001:00009f00       ?OnEventDataBase@CAttemperEngineSink@@UAE_NGKPAXG@Z 0040af00 f   AttemperEngineSink.obj
 0001:0000aae0       ?OnEventTCPNetworkBind@CAttemperEngineSink@@UAE_NKK@Z 0040bae0 f   AttemperEngineSink.obj
 0001:0000ab50       ?OnEventTCPNetworkRead@CAttemperEngineSink@@UAE_NUTCP_Command@@PAXGK@Z 0040bb50 f   AttemperEngineSink.obj
 0001:0000afe0       ?OnEventTCPNetworkShut@CAttemperEngineSink@@UAE_NKKK@Z 0040bfe0 f   AttemperEngineSink.obj
 0001:0000b4a0       ?OnEventTCPSocketLink@CAttemperEngineSink@@UAE_NGH@Z 0040c4a0 f   AttemperEngineSink.obj
 0001:0000c150       ?OnEventTCPSocketRead@CAttemperEngineSink@@UAE_NGUTCP_Command@@PAXG@Z 0040d150 f   AttemperEngineSink.obj
 0001:0000c750       ?OnEventTCPSocketShut@CAttemperEngineSink@@UAE_NGE@Z 0040d750 f   AttemperEngineSink.obj
 0001:0000c9f0       ?OnEventTimer@CAttemperEngineSink@@UAE_NKI@Z 0040d9f0 f   AttemperEngineSink.obj
 0001:0000ee10       ?OnEventUserItemGameData@CAttemperEngineSink@@UAE_NPAUIServerUserItem@@E@Z 0040fe10 f   AttemperEngineSink.obj
 0001:0000eff0       ?OnEventUserItemRight@CAttemperEngineSink@@UAE_NPAUIServerUserItem@@KKE@Z 0040fff0 f   AttemperEngineSink.obj
 0001:0000f0b0       ?OnEventUserItemScore@CAttemperEngineSink@@UAE_NPAUIServerUserItem@@E@Z 004100b0 f   AttemperEngineSink.obj
 0001:0000f670       ?OnEventUserItemStatus@CAttemperEngineSink@@UAE_NPAUIServerUserItem@@GG@Z 00410670 f   AttemperEngineSink.obj
 0001:0000fb60       ?OnEventUserLogon@CAttemperEngineSink@@IAEXPAUIServerUserItem@@_N@Z 00410b60 f   AttemperEngineSink.obj
 0001:00010930       ?OnEventUserLogout@CAttemperEngineSink@@IAEXPAUIServerUserItem@@K@Z 00411930 f   AttemperEngineSink.obj
 0001:00010c40       ?OnRequestAICreateTable@CDataBaseEngineSink@@IAE_NKPAXGAAK@Z 00411c40 f   AttemperEngineSink.obj
 0001:00011380       ?OnTCPNetwordSubSendTrumpet@CAttemperEngineSink@@IAE_NPAXGK@Z 00412380 f   AttemperEngineSink.obj
 0001:00011550       ?OnTCPNetworkMainBaseEnsure@CAttemperEngineSink@@IAE_NGPAXGK@Z 00412550 f   AttemperEngineSink.obj
 0001:000115b0       ?OnTCPNetworkMainCheckIn@CAttemperEngineSink@@IAE_NGPAXGK@Z 004125b0 f   AttemperEngineSink.obj
 0001:00011610       ?OnTCPNetworkMainExchange@CAttemperEngineSink@@IAE_NGPAXGK@Z 00412610 f   AttemperEngineSink.obj
 0001:000116d0       ?OnTCPNetworkMainFrame@CAttemperEngineSink@@IAE_NGPAXGK@Z 004126d0 f   AttemperEngineSink.obj
 0001:00011780       ?OnTCPNetworkMainGame@CAttemperEngineSink@@IAE_NGPAXGK@Z 00412780 f   AttemperEngineSink.obj
 0001:00011830       ?OnTCPNetworkMainInsure@CAttemperEngineSink@@IAE_NGPAXGK@Z 00412830 f   AttemperEngineSink.obj
 0001:00011940       ?OnTCPNetworkMainLogon@CAttemperEngineSink@@IAE_NGPAXGK@Z 00412940 f   AttemperEngineSink.obj
 0001:000119f0       ?OnTCPNetworkMainManage@CAttemperEngineSink@@IAE_NGPAXGK@Z 004129f0 f   AttemperEngineSink.obj
 0001:00011b70       ?OnTCPNetworkMainMatch@CAttemperEngineSink@@IAE_NGPAXGK@Z 00412b70 f   AttemperEngineSink.obj
 0001:00011bf0       ?OnTCPNetworkMainMember@CAttemperEngineSink@@IAE_NGPAXGK@Z 00412bf0 f   AttemperEngineSink.obj
 0001:00011c70       ?OnTCPNetworkMainPersonalTable@CAttemperEngineSink@@IAE_NGPAXGK@Z 00412c70 f   AttemperEngineSink.obj
 0001:00011cf0       ?OnTCPNetworkMainProperty@CAttemperEngineSink@@IAE_NGPAXGK@Z 00412cf0 f   AttemperEngineSink.obj
 0001:00011ed0       ?OnTCPNetworkMainTask@CAttemperEngineSink@@IAE_NGPAXGK@Z 00412ed0 f   AttemperEngineSink.obj
 0001:00011f80       ?OnTCPNetworkMainUser@CAttemperEngineSink@@IAE_NGPAXGK@Z 00412f80 f   AttemperEngineSink.obj
 0001:00012280       ?OnTCPNetworkSubBaseEnsureQueryRequest@CAttemperEngineSink@@IAE_NPAXGK@Z 00413280 f   AttemperEngineSink.obj
 0001:00012310       ?OnTCPNetworkSubBaseEnsureTakeRequest@CAttemperEngineSink@@IAE_NPAXGK@Z 00413310 f   AttemperEngineSink.obj
 0001:00012430       ?OnTCPNetworkSubChairUserInfoReq@CAttemperEngineSink@@IAE_NPAXGK@Z 00413430 f   AttemperEngineSink.obj
 0001:000128d0       ?OnTCPNetworkSubCheckInDoneRequest@CAttemperEngineSink@@IAE_NPAXGK@Z 004138d0 f   AttemperEngineSink.obj
 0001:000129f0       ?OnTCPNetworkSubCheckInQueryRequest@CAttemperEngineSink@@IAE_NPAXGK@Z 004139f0 f   AttemperEngineSink.obj
 0001:00012ac0       ?OnTCPNetworkSubDismissGame@CAttemperEngineSink@@IAE_NPAXGK@Z 00413ac0 f   AttemperEngineSink.obj
 0001:00012bc0       ?OnTCPNetworkSubEnableInsureRequest@CAttemperEngineSink@@IAE_NPAXGK@Z 00413bc0 f   AttemperEngineSink.obj
 0001:00012d10       ?OnTCPNetworkSubExchangeScoreByBeans@CAttemperEngineSink@@IAE_NPAXGK@Z 00413d10 f   AttemperEngineSink.obj
 0001:00012e10       ?OnTCPNetworkSubExchangeScoreByIngot@CAttemperEngineSink@@IAE_NPAXGK@Z 00413e10 f   AttemperEngineSink.obj
 0001:00012f40       ?OnTCPNetworkSubGamePropertyBuy@CAttemperEngineSink@@IAE_NPAXGK@Z 00413f40 f   AttemperEngineSink.obj
 0001:00013080       ?OnTCPNetworkSubGetSendPresent@CAttemperEngineSink@@IAE_NPAXGK@Z 00414080 f   AttemperEngineSink.obj
 0001:00013170       ?OnTCPNetworkSubGrowLevelQuery@CAttemperEngineSink@@IAE_NPAXGK@Z 00414170 f   AttemperEngineSink.obj
 0001:00013280       ?OnTCPNetworkSubKickAllUser@CAttemperEngineSink@@IAE_NPAXGK@Z 00414280 f   AttemperEngineSink.obj
 0001:00013420       ?OnTCPNetworkSubLimitUserChat@CAttemperEngineSink@@IAE_NPAXGK@Z 00414420 f   AttemperEngineSink.obj
 0001:00013690       ?OnTCPNetworkSubLogonAIUser@CAttemperEngineSink@@IAE_NPAXGK@Z 00414690 f   AttemperEngineSink.obj
 0001:00013940       ?OnTCPNetworkSubLogonAccounts@CAttemperEngineSink@@IAE_NPAXGK@Z 00414940 f   AttemperEngineSink.obj
 0001:00013d30       ?OnTCPNetworkSubLogonMobile@CAttemperEngineSink@@IAE_NPAXGK@Z 00414d30 f   AttemperEngineSink.obj
 0001:000141e0       ?OnTCPNetworkSubLogonUserID@CAttemperEngineSink@@IAE_NPAXGK@Z 004151e0 f   AttemperEngineSink.obj
 0001:00014680       ?OnTCPNetworkSubManagerKickUser@CAttemperEngineSink@@IAE_NPAXGK@Z 00415680 f   AttemperEngineSink.obj
 0001:00014850       ?OnTCPNetworkSubMemberDayGift@CAttemperEngineSink@@IAE_NPAXGK@Z 00415850 f   AttemperEngineSink.obj
 0001:00014970       ?OnTCPNetworkSubMemberDayPresent@CAttemperEngineSink@@IAE_NPAXGK@Z 00415970 f   AttemperEngineSink.obj
 0001:00014a90       ?OnTCPNetworkSubMemberKickUser@CAttemperEngineSink@@IAE_NPAXGK@Z 00415a90 f   AttemperEngineSink.obj
 0001:00014df0       ?OnTCPNetworkSubOptionServer@CAttemperEngineSink@@IAE_NPAXGK@Z 00415df0 f   AttemperEngineSink.obj
 0001:000155c0       ?OnTCPNetworkSubPropertyBackpack@CAttemperEngineSink@@IAE_NPAXGK@Z 004165c0 f   AttemperEngineSink.obj
 0001:00015690       ?OnTCPNetworkSubPropertyPresent@CAttemperEngineSink@@IAE_NPAXGK@Z 00416690 f   AttemperEngineSink.obj
 0001:000157a0       ?OnTCPNetworkSubPropertyUse@CAttemperEngineSink@@IAE_NPAXGK@Z 004167a0 f   AttemperEngineSink.obj
 0001:000158a0       ?OnTCPNetworkSubPurchaseMember@CAttemperEngineSink@@IAE_NPAXGK@Z 004168a0 f   AttemperEngineSink.obj
 0001:000159b0       ?OnTCPNetworkSubQueryExchangeInfo@CAttemperEngineSink@@IAE_NPAXGK@Z 004169b0 f   AttemperEngineSink.obj
 0001:00015ac0       ?OnTCPNetworkSubQueryInsureInfo@CAttemperEngineSink@@IAE_NPAXGK@Z 00416ac0 f   AttemperEngineSink.obj
 0001:00015bd0       ?OnTCPNetworkSubQueryOption@CAttemperEngineSink@@IAE_NPAXGK@Z 00416bd0 f   AttemperEngineSink.obj
 0001:00015ec0       ?OnTCPNetworkSubQuerySendPresent@CAttemperEngineSink@@IAE_NPAXGK@Z 00416ec0 f   AttemperEngineSink.obj
 0001:00015f70       ?OnTCPNetworkSubQueryUserInfoRequest@CAttemperEngineSink@@IAE_NPAXGK@Z 00416f70 f   AttemperEngineSink.obj
 0001:00016130       ?OnTCPNetworkSubRoomAIConfigDebug@CAttemperEngineSink@@IAE_NPAXGK@Z 00417130 f   AttemperEngineSink.obj
 0001:00016130       ?OnTCPNetworkSubRoomDebug@CAttemperEngineSink@@IAE_NPAXGK@Z 00417130 f   AttemperEngineSink.obj
 0001:000162f0       ?OnTCPNetworkSubSaveScoreRequest@CAttemperEngineSink@@IAE_NPAXGK@Z 004172f0 f   AttemperEngineSink.obj
 0001:000166e0       ?OnTCPNetworkSubSendMessage@CAttemperEngineSink@@IAE_NPAXGK@Z 004176e0 f   AttemperEngineSink.obj
 0001:00016760       ?OnTCPNetworkSubTakeScoreRequest@CAttemperEngineSink@@IAE_NPAXGK@Z 00417760 f   AttemperEngineSink.obj
 0001:00016a20       ?OnTCPNetworkSubTransferScoreRequest@CAttemperEngineSink@@IAE_NPAXGK@Z 00417a20 f   AttemperEngineSink.obj
 0001:00016be0       ?OnTCPNetworkSubUserChairReq@CAttemperEngineSink@@IAE_NPAXGK@Z 00417be0 f   AttemperEngineSink.obj
 0001:00017480       ?OnTCPNetworkSubUserChangeChair@CAttemperEngineSink@@IAE_NPAXGK@Z 00418480 f   AttemperEngineSink.obj
 0001:00017710       ?OnTCPNetworkSubUserChat@CAttemperEngineSink@@IAE_NPAXGK@Z 00418710 f   AttemperEngineSink.obj
 0001:000179a0       ?OnTCPNetworkSubUserExpression@CAttemperEngineSink@@IAE_NPAXGK@Z 004189a0 f   AttemperEngineSink.obj
 0001:00017b90       ?OnTCPNetworkSubUserInfoReq@CAttemperEngineSink@@IAE_NPAXGK@Z 00418b90 f   AttemperEngineSink.obj
 0001:00017c60       ?OnTCPNetworkSubUserInviteReq@CAttemperEngineSink@@IAE_NPAXGK@Z 00418c60 f   AttemperEngineSink.obj
 0001:00017dc0       ?OnTCPNetworkSubUserLookon@CAttemperEngineSink@@IAE_NPAXGK@Z 00418dc0 f   AttemperEngineSink.obj
 0001:00018000       ?OnTCPNetworkSubUserRepulseSit@CAttemperEngineSink@@IAE_NPAXGK@Z 00419000 f   AttemperEngineSink.obj
 0001:00018180       ?OnTCPNetworkSubUserRule@CAttemperEngineSink@@IAE_NPAXGK@Z 00419180 f   AttemperEngineSink.obj
 0001:000183a0       ?OnTCPNetworkSubUserSitDown@CAttemperEngineSink@@IAE_NPAXGK@Z 004193a0 f   AttemperEngineSink.obj
 0001:00019410       ?OnTCPNetworkSubUserStandUp@CAttemperEngineSink@@IAE_NPAXGK@Z 0041a410 f   AttemperEngineSink.obj
 0001:00019750       ?OnTCPNetworkSubWarningUser@CAttemperEngineSink@@IAE_NPAXGK@Z 0041a750 f   AttemperEngineSink.obj
 0001:000198b0       ?OnTCPNetworkSubWisperChat@CAttemperEngineSink@@IAE_NPAXGK@Z 0041a8b0 f   AttemperEngineSink.obj
 0001:00019dd0       ?OnTCPNetworkSubWisperExpression@CAttemperEngineSink@@IAE_NPAXGK@Z 0041add0 f   AttemperEngineSink.obj
 0001:0001a1d0       ?OnTCPSockeSubLogonAI@CAttemperEngineSink@@IAE_NPAXG@Z 0041b1d0 f   AttemperEngineSink.obj
 0001:0001a240       ?OnTCPSocketMainAI@CAttemperEngineSink@@IAE_NGPAXG@Z 0041b240 f   AttemperEngineSink.obj
 0001:0001a2c0       ?OnTCPSocketMainAndroidService@CAttemperEngineSink@@IAE_NGPAXG@Z 0041b2c0 f   AttemperEngineSink.obj
 0001:0001a3b0       ?OnTCPSocketMainManagerService@CAttemperEngineSink@@IAE_NGPAXG@Z 0041b3b0 f   AttemperEngineSink.obj
 0001:0001a540       ?OnTCPSocketMainPersonalRoomRegister@CAttemperEngineSink@@IAE_NGPAXG@Z 0041b540 f   AttemperEngineSink.obj
 0001:0001a5e0       ?OnTCPSocketMainRegister@CAttemperEngineSink@@IAE_NGPAXG@Z 0041b5e0 f   AttemperEngineSink.obj
 0001:0001a680       ?OnTCPSocketMainServiceInfo@CAttemperEngineSink@@IAE_NGPAXG@Z 0041b680 f   AttemperEngineSink.obj
 0001:0001b740       ?OnTCPSocketMainUserCollect@CAttemperEngineSink@@IAE_NGPAXG@Z 0041c740 f   AttemperEngineSink.obj
 0001:0001b900       ?PerformCheckVersion@CAttemperEngineSink@@IAE_NKKKK@Z 0041c900 f   AttemperEngineSink.obj
 0001:0001baf0       ?PerformDistribute@CAttemperEngineSink@@IAE_NXZ 0041caf0 f   AttemperEngineSink.obj
 0001:0001c200       ?PerformTaskProgress@CAttemperEngineSink@@QAE_NPAUIServerUserItem@@KKK@Z 0041d200 f   AttemperEngineSink.obj
 0001:0001c390       ?PerformUnlockScore@CAttemperEngineSink@@IAE_NKKK@Z 0041d390 f   AttemperEngineSink.obj
 0001:0001c490       ?QueryInterface@CAttemperEngineSink@@UAEPAXABU_GUID@@K@Z 0041d490 f   AttemperEngineSink.obj
 0001:0001c5b1       ?QueryInterface@CAttemperEngineSink@@W3AEPAXABU_GUID@@K@Z 0041d5b1 f i AttemperEngineSink.obj
 0001:0001c5b9       ?QueryInterface@CAttemperEngineSink@@W7AEPAXABU_GUID@@K@Z 0041d5b9 f i AttemperEngineSink.obj
 0001:0001c5c1       ?Release@CDataBaseEngineSink@@W3AEXXZ 0041d5c1 f i DataBaseEngineSink.obj
 0001:0001c5c1       ?Release@CAttemperEngineSink@@W3AEXXZ 0041d5c1 f i AttemperEngineSink.obj
 0001:0001c5c9       ?Release@CAttemperEngineSink@@W7AEXXZ 0041d5c9 f i AttemperEngineSink.obj
 0001:0001c5e0       ?RemoveAll@?$CMap@KK_JAA_J@@QAEXXZ 0041d5e0 f i TableFrame.obj
 0001:0001c5e0       ?RemoveAll@?$CMap@GGUtagTaskConfigInfo@@AAU1@@@QAEXXZ 0041d5e0 f i AttemperEngineSink.obj
 0001:0001c690       ?RemoveAt@?$CWHArray@UtagDistributeInfo@@ABU1@@@QAEXHH@Z 0041d690 f i AttemperEngineSink.obj
 0001:0001c740       ?RemoveKey@?$CMap@KKKAAK@@QAEHK@Z 0041d740 f i AttemperEngineSink.obj
 0001:0001c7f0       ?SaveVideoDataInfo@CAttemperEngineSink@@QAE_NPADGGPAEG@Z 0041d7f0 f   AttemperEngineSink.obj
 0001:0001c900       ?SaveVideoPlayerInfo@CAttemperEngineSink@@QAE_NKPAD@Z 0041d900 f   AttemperEngineSink.obj
 0001:0001c950       ?SendChangeCurSubStorageItem@CAttemperEngineSink@@QAEXW4ENUM_SHARESTORAGE_STATUS@@AAUtagShareStorageItem@@@Z 0041d950 f   AttemperEngineSink.obj
 0001:0001ca60       ?SendData@CAttemperEngineSink@@UAE_NEGGPAXG@Z 0041da60 f   AttemperEngineSink.obj
 0001:0001cb50       ?SendData@CAttemperEngineSink@@UAE_NKGGPAXG@Z 0041db50 f   AttemperEngineSink.obj
 0001:0001cbf0       ?SendData@CAttemperEngineSink@@UAE_NPAUIServerUserItem@@GGPAXG@Z 0041dbf0 f   AttemperEngineSink.obj
 0001:0001cd10       ?SendDataBatchToDebugUser@CAttemperEngineSink@@UAE_NPAUIServerUserItem@@GGPAXG@Z 0041dd10 f   AttemperEngineSink.obj
 0001:0001ce30       ?SendDataBatchToMobileUser@CAttemperEngineSink@@UAE_NGGGPAXG@Z 0041de30 f   AttemperEngineSink.obj
 0001:0001d140       ?SendGameMessage@CAttemperEngineSink@@UAE_NPAUIServerUserItem@@PB_WG@Z 0041e140 f   AttemperEngineSink.obj
 0001:0001d380       ?SendGameMessage@CAttemperEngineSink@@UAE_NPB_WG@Z 0041e380 f   AttemperEngineSink.obj
 0001:0001d490       ?SendGamePropertyInfo@CAttemperEngineSink@@IAEXKE@Z 0041e490 f   AttemperEngineSink.obj
 0001:0001d620       ?SendGamePropertyRelatInfo@CAttemperEngineSink@@IAEXKE@Z 0041e620 f   AttemperEngineSink.obj
 0001:0001d770       ?SendGamePropertySubInfo@CAttemperEngineSink@@IAEXKE@Z 0041e770 f   AttemperEngineSink.obj
 0001:0001d8c0       ?SendGamePropertyTypeInfo@CAttemperEngineSink@@IAEXKE@Z 0041e8c0 f   AttemperEngineSink.obj
 0001:0001da10       ?SendInsureFailure@CAttemperEngineSink@@IAE_NPAUIServerUserItem@@PB_WJE@Z 0041ea10 f   AttemperEngineSink.obj
 0001:0001dae0       ?SendLogData@CAttemperEngineSink@@UAAXPAUIServerUserItem@@PB_WZZ 0041eae0 f   AttemperEngineSink.obj
 0001:0001dcf0       ?SendLogData@CAttemperEngineSink@@UAAXPB_WZZ 0041ecf0 f   AttemperEngineSink.obj
 0001:0001dea0       ?SendLogData@CAttemperEngineSink@@UAEXPAUIServerUserItem@@QB_WPB_W@Z 0041eea0 f   AttemperEngineSink.obj
 0001:0001e060       ?SendLogData@CAttemperEngineSink@@UAEXUtagLogUserInfo@@@Z 0041f060 f   AttemperEngineSink.obj
 0001:0001e260       ?SendLogonFailure@CAttemperEngineSink@@IAE_NPB_WJK@Z 0041f260 f   AttemperEngineSink.obj
 0001:0001e2f0       ?SendMatchMessage@CAttemperEngineSink@@UAE_N_JG@Z 0041f2f0 f   AttemperEngineSink.obj
 0001:0001e370       ?SendPropertyEffect@CAttemperEngineSink@@IAE_NPAUIServerUserItem@@G@Z 0041f370 f   AttemperEngineSink.obj
 0001:0001e4a0       ?SendPropertyFailure@CAttemperEngineSink@@IAE_NPAUIServerUserItem@@PB_WJG@Z 0041f4a0 f   AttemperEngineSink.obj
 0001:0001e570       ?SendPropertyMessage@CAttemperEngineSink@@IAE_NKKGG@Z 0041f570 f   AttemperEngineSink.obj
 0001:0001e630       ?SendRequestFailure@CAttemperEngineSink@@IAE_NPAUIServerUserItem@@PB_WJ@Z 0041f630 f   AttemperEngineSink.obj
 0001:0001e6f0       ?SendRoomMessage@CAttemperEngineSink@@UAE_NKPB_WG_N@Z 0041f6f0 f   AttemperEngineSink.obj
 0001:0001e810       ?SendRoomMessage@CAttemperEngineSink@@UAE_NPAUIServerUserItem@@PB_WG@Z 0041f810 f   AttemperEngineSink.obj
 0001:0001ea40       ?SendRoomMessage@CAttemperEngineSink@@UAE_NPB_WG@Z 0041fa40 f   AttemperEngineSink.obj
 0001:0001eb50       ?SendSystemMessage@CAttemperEngineSink@@IAE_NPAUCMD_GR_SendMessage@@G@Z 0041fb50 f   AttemperEngineSink.obj
 0001:0001ec20       ?SendSystemMessage@CAttemperEngineSink@@UAE_NPB_W@Z 0041fc20 f   AttemperEngineSink.obj
 0001:0001ece0       ?SendUIControlPacket@CAttemperEngineSink@@IAE_NGPAXG@Z 0041fce0 f   AttemperEngineSink.obj
 0001:0001ed20       ?SendUserInfoPacket@CAttemperEngineSink@@IAE_NPAUIServerUserItem@@K_N@Z 0041fd20 f   AttemperEngineSink.obj
 0001:0001f290       ?SendUserInfoPacketBatchToMobileUser@CAttemperEngineSink@@IAE_NPAUIServerUserItem@@K@Z 00420290 f   AttemperEngineSink.obj
 0001:0001f6f0       ?SendUserInfoPacketBatchToPage@CAttemperEngineSink@@IAE_NPAUIServerUserItem@@@Z 004206f0 f   AttemperEngineSink.obj
 0001:0001fca0       ?SendVisibleTableUserInfoToMobileUser@CAttemperEngineSink@@IAE_NPAUIServerUserItem@@G@Z 00420ca0 f   AttemperEngineSink.obj
 0001:00020210       ?SensitiveWordFilter@CAttemperEngineSink@@UAEXPB_WPA_WH@Z 00421210 f   AttemperEngineSink.obj
 0001:00020240       ?Serialize@?$CMap@GGUtagTaskConfigInfo@@AAU1@@@UAEXAAVCArchive@@@Z 00421240 f i AttemperEngineSink.obj
 0001:00020380       ?SetAllowAndroidAttend@CServerRule@@SAXAAK_N@Z 00421380 f i AttemperEngineSink.obj
 0001:000203d0       ?SetAllowDynamicJoin@CServerRule@@SAXAAK_N@Z 004213d0 f i AttemperEngineSink.obj
 0001:00020420       ?SetAllowOffLineTrustee@CServerRule@@SAXAAK_N@Z 00421420 f i AttemperEngineSink.obj
 0001:00020470       ?SetAt@?$CMap@GGUtagTaskConfigInfo@@AAU1@@@QAEXGAAUtagTaskConfigInfo@@@Z 00421470 f i AttemperEngineSink.obj
 0001:000204b0       ?SetDistributeRule@CDistributeManager@@QAEXE@Z 004214b0 f i AttemperEngineSink.obj
 0001:000204d0       ?SetForfendGameChat@CServerRule@@SAXAAK_N@Z 004214d0 f i AttemperEngineSink.obj
 0001:00020520       ?SetForfendGameEnter@CServerRule@@SAXAAK_N@Z 00421520 f i AttemperEngineSink.obj
 0001:00020570       ?SetForfendGameLookon@CServerRule@@SAXAAK_N@Z 00421570 f i AttemperEngineSink.obj
 0001:000205c0       ?SetForfendGameRule@CServerRule@@SAXAAK_N@Z 004215c0 f i AttemperEngineSink.obj
 0001:00020610       ?SetForfendLockTable@CServerRule@@SAXAAK_N@Z 00421610 f i AttemperEngineSink.obj
 0001:00020660       ?SetForfendRoomChat@CServerRule@@SAXAAK_N@Z 00421660 f i AttemperEngineSink.obj
 0001:000206b0       ?SetForfendRoomEnter@CServerRule@@SAXAAK_N@Z 004216b0 f i AttemperEngineSink.obj
 0001:00020700       ?SetForfendSaveInGame@CServerRule@@SAXAAK_N@Z 00421700 f i AttemperEngineSink.obj
 0001:00020750       ?SetForfendSaveInRoom@CServerRule@@SAXAAK_N@Z 00421750 f i AttemperEngineSink.obj
 0001:000207a0       ?SetForfendTakeInGame@CServerRule@@SAXAAK_N@Z 004217a0 f i AttemperEngineSink.obj
 0001:000207f0       ?SetForfendTakeInRoom@CServerRule@@SAXAAK_N@Z 004217f0 f i AttemperEngineSink.obj
 0001:00020840       ?SetForfendWisperChat@CServerRule@@SAXAAK_N@Z 00421840 f i AttemperEngineSink.obj
 0001:00020890       ?SetForfendWisperOnGame@CServerRule@@SAXAAK_N@Z 00421890 f i AttemperEngineSink.obj
 0001:000208e0       ?SetImmediateWriteScore@CServerRule@@SAXAAK_N@Z 004218e0 f i AttemperEngineSink.obj
 0001:00020930       ?SetMobileUserParameter@CAttemperEngineSink@@IAEXPAUIServerUserItem@@EGG@Z 00421930 f   AttemperEngineSink.obj
 0001:00020980       ?SetRecordGameScore@CServerRule@@SAXAAK_N@Z 00421980 f i AttemperEngineSink.obj
 0001:000209d0       ?SetRecordGameTrack@CServerRule@@SAXAAK_N@Z 004219d0 f i AttemperEngineSink.obj
 0001:00020a20       ?SetSize@?$CWHArray@KABK@@QAEXH@Z 00421a20 f i DBCorrespondManager.obj
 0001:00020a20       ?SetSize@?$CWHArray@PAVCGameKindItem@NServerListManager@@ABQAV12@@@QAEXH@Z 00421a20 f i ServerListManager.obj
 0001:00020a20       ?SetSize@?$CWHArray@PAUIServerUserItem@@ABQAU1@@@QAEXH@Z 00421a20 f i TableFrame.obj
 0001:00020a20       ?SetSize@?$CWHArray@PAVCGameServerItem@NServerListManager@@ABQAV12@@@QAEXH@Z 00421a20 f i ServerListManager.obj
 0001:00020a20       ?SetSize@?$CWHArray@PAUtagGroupScoreRecord@@ABQAU1@@@QAEXH@Z 00421a20 f i TableFrame.obj
 0001:00020a20       ?SetSize@?$CWHArray@PAUtagGameScoreRecord@@ABQAU1@@@QAEXH@Z 00421a20 f i TableFrame.obj
 0001:00020a20       ?SetSize@?$CWHArray@PAVCGameNodeItem@NServerListManager@@ABQAV12@@@QAEXH@Z 00421a20 f i ServerListManager.obj
 0001:00020a20       ?SetSize@?$CWHArray@PAVCGameTypeItem@NServerListManager@@ABQAV12@@@QAEXH@Z 00421a20 f i ServerListManager.obj
 0001:00020a20       ?SetSize@?$CWHArray@PB_WABQB_W@@QAEXH@Z 00421a20 f i SensitiveWordsFilter.obj
 0001:00020a20       ?SetSize@?$CWHArray@PAVCGamePageItem@NServerListManager@@ABQAV12@@@QAEXH@Z 00421a20 f i ServerListManager.obj
 0001:00020a20       ?SetSize@?$CWHArray@PAVCTableFrame@@ABQAV1@@@QAEXH@Z 00421a20 f i AttemperEngineSink.obj
 0001:00020af0       ?SwitchUserItemConnect@CAttemperEngineSink@@IAE_NPAUIServerUserItem@@QA_WGEGG@Z 00421af0 f   AttemperEngineSink.obj
 0001:00020eb0       ?Switch_Num@@YA?AV?$CStringT@_WV?$StrTraitMFC_DLL@_WV?$ChTraitsCRT@_W@ATL@@@@@ATL@@_J@Z 00421eb0 f   AttemperEngineSink.obj
 0001:00021080       ?UnLockAndroidUser@CAttemperEngineSink@@UAEXK@Z 00422080 f   AttemperEngineSink.obj
 0001:00021150       ?UpdateAIStatus@CAttemperEngineSink@@UAE_NPAUIServerUserItem@@@Z 00422150 f   AttemperEngineSink.obj
 0001:00021250       ?UpdateGroupMaxChairBankerUserID@CAttemperEngineSink@@UAEXGGGK@Z 00422250 f   AttemperEngineSink.obj
 0001:000212d0       ?UpdateGroupScore@CAttemperEngineSink@@UAEXKPAUIServerUserItem@@_J_N@Z 004222d0 f   AttemperEngineSink.obj
 0001:00021370       ?UpdateTablePlayerCount@CAttemperEngineSink@@UAEXGGGKG_N0@Z 00422370 f   AttemperEngineSink.obj
 0001:000213f0       ?WHCrashHandler@@YAJPAU_EXCEPTION_POINTERS@@@Z 004223f0 f   AttemperEngineSink.obj
 0001:00021490       ?WHCreateDumpFile@@YAXPB_WPAU_EXCEPTION_POINTERS@@@Z 00422490 f   AttemperEngineSink.obj
 0001:00021500       ?abs@@YA_J_J@Z             00422500 f i AttemperEngineSink.obj
 0001:00021520       ?data@CPlex@@QAEPAXXZ      00422520 f i AttemperEngineSink.obj
 0001:00021540       ?pow@@YAMMM@Z              00422540 f i AttemperEngineSink.obj
 0001:00021570       _==                        00422570 f i AttemperEngineSink.obj
 0001:000215b0       _IsEqualGUID               004225b0 f i AttemperEngineSink.obj
 0001:000215f0       __snwprintf                004225f0 f i AttemperEngineSink.obj
 0001:00021640       __vsnwprintf_s             00422640 f i AttemperEngineSink.obj
 0001:00021670       __vsnwprintf_s_l           00422670 f i AttemperEngineSink.obj
 0001:000216d0       __vswprintf_s_l            004226d0 f i AttemperEngineSink.obj
 0001:00021730       _powf                      00422730 f i AttemperEngineSink.obj
 0001:00021770       _vswprintf_s               00422770 f i AttemperEngineSink.obj
 0001:000217a0       ??0?$CTempldateHelper@UIDataBase@@@@QAE@ABU_GUID@@KPB_WPBD@Z 004227a0 f i DataBaseEngineSink.obj
 0001:00021830       ??0CDataBaseEngineSink@@QAE@XZ 00422830 f   DataBaseEngineSink.obj
 0001:000219d0       ??0CDataBaseHelper@@QAE@XZ 004229d0 f i DataBaseEngineSink.obj
 0001:00021a10       ??0DBO_GR_DissumeResult@@QAE@XZ 00422a10 f i DataBaseEngineSink.obj
 0001:00021a40       ??0DBO_GR_GameAndroidInfo@@QAE@XZ 00422a40 f i DataBaseEngineSink.obj
 0001:00021a70       ??0IDataBaseEngineSink@@QAE@XZ 00422a70 f i DataBaseEngineSink.obj
 0001:00021aa0       ??0IGameDataBaseEngine@@QAE@XZ 00422aa0 f i DataBaseEngineSink.obj
 0001:00021ad0       ??0_variant_t@@QAE@ABUtagVARIANT@@@Z 00422ad0 f i DataBaseEngineSink.obj
 0001:00021b10       ??0tagPersonalUserScoreInfo@@QAE@XZ 00422b10 f i DataBaseEngineSink.obj
 0001:00021b40       ??1?$CTempldateHelper@UIDataBase@@@@UAE@XZ 00422b40 f i DataBaseEngineSink.obj
 0001:00021b90       ??1CDataBaseEngineSink@@UAE@XZ 00422b90 f   DataBaseEngineSink.obj
 0001:00021c70       ??1CDataBaseHelper@@UAE@XZ 00422c70 f i DataBaseEngineSink.obj
 0001:00021c90       ??_G?$CTempldateHelper@UIDataBase@@@@UAEPAXI@Z 00422c90 f i DataBaseEngineSink.obj
 0001:00021c90       ??_E?$CTempldateHelper@UIDataBase@@@@UAEPAXI@Z 00422c90 f i DataBaseEngineSink.obj
 0001:00021cd0       ??_GCDataBaseEngineSink@@UAEPAXI@Z 00422cd0 f i DataBaseEngineSink.obj
 0001:00021cd0       ??_ECDataBaseEngineSink@@UAEPAXI@Z 00422cd0 f i DataBaseEngineSink.obj
 0001:00021d10       ??_GCDataBaseHelper@@UAEPAXI@Z 00422d10 f i DataBaseEngineSink.obj
 0001:00021d10       ??_ECDataBaseHelper@@UAEPAXI@Z 00422d10 f i DataBaseEngineSink.obj
 0001:00021d50       ??_H@YGXPAXIIP6EPAX0@Z@Z   00422d50 f i DataBaseEngineSink.obj
 0001:00021e00       ?CheckError@_com_util@@YAXJ@Z 00422e00 f i DataBaseEngineSink.obj
 0001:00021e20       ?GetCustomRule@CDataBaseEngineSink@@UAEPAXXZ 00422e20 f i DataBaseEngineSink.obj
 0001:00021e50       ?GetDataBase@CDataBaseEngineSink@@UAEPAXABU_GUID@@K@Z 00422e50 f   DataBaseEngineSink.obj
 0001:00021eb0       ?GetDataBaseEngine@CDataBaseEngineSink@@UAEPAXABU_GUID@@K@Z 00422eb0 f   DataBaseEngineSink.obj
 0001:00021f00       ?GetGameServiceAttrib@CDataBaseEngineSink@@UAEPAUtagGameServiceAttrib@@XZ 00422f00 f i DataBaseEngineSink.obj
 0001:00021f20       ?GetGameServiceOption@CDataBaseEngineSink@@UAEPAUtagGameServiceOption@@XZ 00422f20 f i DataBaseEngineSink.obj
 0001:00022350       ?OnAILogonResult@CDataBaseEngineSink@@AAEXKGKPB_W_NEGG@Z 00423350 f   DataBaseEngineSink.obj
 0001:00022b40       ?OnDataBaseEngineConclude@CDataBaseEngineSink@@UAE_NPAUIUnknownEx@@@Z 00423b40 f   DataBaseEngineSink.obj
 0001:00022ce0       ?OnEventAttemperData@CAttemperEngineSink@@UAE_NGPAXG@Z 00423ce0 f   AttemperEngineSink.obj
 0001:00022ce0       ?OnDataBaseEngineControl@CDataBaseEngineSink@@UAE_NGPAXG@Z 00423ce0 f   DataBaseEngineSink.obj
 0001:00022d00       ?OnDataBaseEngineRequest@CDataBaseEngineSink@@UAE_NGKPAXG@Z 00423d00 f   DataBaseEngineSink.obj
 0001:00023f30       ?OnDataBaseEngineStart@CDataBaseEngineSink@@UAE_NPAUIUnknownEx@@@Z 00424f30 f   DataBaseEngineSink.obj
 0001:00024400       ?OnDataBaseEngineTimer@CDataBaseEngineSink@@UAE_NKI@Z 00425400 f   DataBaseEngineSink.obj
 0001:00024420       ?OnInsureDisposeResult@CDataBaseEngineSink@@AAEXKK_JPB_W_NE@Z 00425420 f   DataBaseEngineSink.obj
 0001:00024670       ?OnLogonDisposeResult@CDataBaseEngineSink@@AAEXKKPB_W_NEGG@Z 00425670 f   DataBaseEngineSink.obj
 0001:00024e10       ?OnRequestBuyGameProperty@CDataBaseEngineSink@@IAE_NKPAXGAAK@Z 00425e10 f   DataBaseEngineSink.obj
 0001:00025340       ?OnRequestCancelCreateTable@CDataBaseEngineSink@@IAE_NKPAXGAAK@Z 00426340 f   DataBaseEngineSink.obj
 0001:00025790       ?OnRequestCheckInDone@CDataBaseEngineSink@@IAE_NKPAXGAAK@Z 00426790 f   DataBaseEngineSink.obj
 0001:00025c30       ?OnRequestCheckInQueryInfo@CDataBaseEngineSink@@IAE_NKPAXGAAK@Z 00426c30 f   DataBaseEngineSink.obj
 0001:00025fe0       ?OnRequestCreateTable@CDataBaseEngineSink@@IAE_NKPAXGAAK@Z 00426fe0 f   DataBaseEngineSink.obj
 0001:00026750       ?OnRequestExchangeScoreByBeans@CDataBaseEngineSink@@IAE_NKPAXGAAK@Z 00427750 f   DataBaseEngineSink.obj
 0001:00026c40       ?OnRequestExchangeScoreByIngot@CDataBaseEngineSink@@IAE_NKPAXGAAK@Z 00427c40 f   DataBaseEngineSink.obj
 0001:000271a0       ?OnRequestGameScoreRecord@CDataBaseEngineSink@@IAE_NKPAXGAAK@Z 004281a0 f   DataBaseEngineSink.obj
 0001:000276b0       ?OnRequestGetSendPresent@CDataBaseEngineSink@@IAE_NKPAXGAAK@Z 004286b0 f   DataBaseEngineSink.obj
 0001:00027c20       ?OnRequestGroupScoreRecord@CDataBaseEngineSink@@IAE_NKPAXGAAK@Z 00428c20 f   DataBaseEngineSink.obj
 0001:00028080       ?OnRequestHostCancelCreateTable@CDataBaseEngineSink@@IAE_NKPAXGAAK@Z 00429080 f   DataBaseEngineSink.obj
 0001:00028410       ?OnRequestLeaveGameServer@CDataBaseEngineSink@@IAE_NKPAXGAAK@Z 00429410 f   DataBaseEngineSink.obj
 0001:00028a90       ?OnRequestLoadAndroidParameter@CDataBaseEngineSink@@IAE_NKPAXGAAK@Z 00429a90 f   DataBaseEngineSink.obj
 0001:00028f70       ?OnRequestLoadAndroidUser@CDataBaseEngineSink@@IAE_NKPAXGAAK@Z 00429f70 f   DataBaseEngineSink.obj
 0001:000292f0       ?OnRequestLoadBaseEnsure@CDataBaseEngineSink@@IAE_NKPAXGAAK@Z 0042a2f0 f   DataBaseEngineSink.obj
 0001:00029560       ?OnRequestLoadCheckIn@CDataBaseEngineSink@@IAE_NKPAXGAAK@Z 0042a560 f   DataBaseEngineSink.obj
 0001:000297c0       ?OnRequestLoadGameBuff@CDataBaseEngineSink@@IAE_NKPAXGAAK@Z 0042a7c0 f   DataBaseEngineSink.obj
 0001:00029c30       ?OnRequestLoadGameChat@CDataBaseEngineSink@@IAE_NKPAXGAAK@Z 0042ac30 f   DataBaseEngineSink.obj
 0001:00029ff0       ?OnRequestLoadGameColumn@CDataBaseEngineSink@@IAE_NKPAXGAAK@Z 0042aff0 f   DataBaseEngineSink.obj
 0001:0002a370       ?OnRequestLoadGameProperty@CDataBaseEngineSink@@IAE_NKPAXGAAK@Z 0042b370 f   DataBaseEngineSink.obj
 0001:0002ae70       ?OnRequestLoadGameTrumpet@CDataBaseEngineSink@@IAE_NKPAXGAAK@Z 0042be70 f   DataBaseEngineSink.obj
 0001:0002b090       ?OnRequestLoadGrowLevelConfig@CDataBaseEngineSink@@IAE_NKPAXGAAK@Z 0042c090 f   DataBaseEngineSink.obj
 0001:0002b360       ?OnRequestLoadParameter@CDataBaseEngineSink@@IAE_NKPAXGAAK@Z 0042c360 f   DataBaseEngineSink.obj
 0001:0002b5c0       ?OnRequestLoadPersonalParameter@CDataBaseEngineSink@@IAE_NKPAXGAAK@Z 0042c5c0 f   DataBaseEngineSink.obj
 0001:0002bea0       ?OnRequestLoadSensitiveWords@CDataBaseEngineSink@@IAE_NKPAXGAAK@Z 0042cea0 f   DataBaseEngineSink.obj
 0001:0002c100       ?OnRequestLoadShareStorageItem@CDataBaseEngineSink@@IAE_NKPAXGAAK@Z 0042d100 f   DataBaseEngineSink.obj
 0001:0002c980       ?OnRequestLoadSingleGroupShareStorageItem@CDataBaseEngineSink@@IAE_NKPAXGAAK@Z 0042d980 f   DataBaseEngineSink.obj
 0001:0002d1c0       ?OnRequestLoadTaskList@CDataBaseEngineSink@@IAE_NKPAXGAAK@Z 0042e1c0 f   DataBaseEngineSink.obj
 0001:0002d660       ?OnRequestLogonAI@CDataBaseEngineSink@@IAE_NKPAXGAAK@Z 0042e660 f   DataBaseEngineSink.obj
 0001:0002da80       ?OnRequestLogonAccounts@CDataBaseEngineSink@@IAE_NKPAXGAAK@Z 0042ea80 f   DataBaseEngineSink.obj
 0001:0002de40       ?OnRequestLogonMobile@CDataBaseEngineSink@@IAE_NKPAXGAAK@Z 0042ee40 f   DataBaseEngineSink.obj
 0001:0002e2e0       ?OnRequestLogonUserID@CDataBaseEngineSink@@IAE_NKPAXGAAKH@Z 0042f2e0 f   DataBaseEngineSink.obj
 0001:0002e6b0       ?OnRequestManageUserRight@CDataBaseEngineSink@@IAE_NKPAXGAAK@Z 0042f6b0 f   DataBaseEngineSink.obj
 0001:0002e850       ?OnRequestMatchAndroidDebug@CDataBaseEngineSink@@IAE_NKPAXGAAK@Z 0042f850 f   DataBaseEngineSink.obj
 0001:0002eb20       ?OnRequestMatchBuySafeCard@CDataBaseEngineSink@@IAE_NKPAXGAAK@Z 0042fb20 f   DataBaseEngineSink.obj
 0001:0002ef50       ?OnRequestMatchCancel@CDataBaseEngineSink@@IAE_NKPAXGAAK@Z 0042ff50 f   DataBaseEngineSink.obj
 0001:0002f180       ?OnRequestMatchEliminate@CDataBaseEngineSink@@IAE_NKPAXGAAK@Z 00430180 f   DataBaseEngineSink.obj
 0001:0002f360       ?OnRequestMatchOver@CDataBaseEngineSink@@IAE_NKPAXGAAK@Z 00430360 f   DataBaseEngineSink.obj
 0001:0002f860       ?OnRequestMatchQueryQualify@CDataBaseEngineSink@@IAE_NKPAXGAAK@Z 00430860 f   DataBaseEngineSink.obj
 0001:0002fa50       ?OnRequestMatchQueryReviveInfo@CDataBaseEngineSink@@IAE_NKPAXGAAK@Z 00430a50 f   DataBaseEngineSink.obj
 0001:0002fce0       ?OnRequestMatchRecordGrades@CDataBaseEngineSink@@IAE_NKPAXGAAK@Z 00430ce0 f   DataBaseEngineSink.obj
 0001:0002fec0       ?OnRequestMatchReward@CDataBaseEngineSink@@IAE_NKPAXGAAK@Z 00430ec0 f   DataBaseEngineSink.obj
 0001:000301c0       ?OnRequestMatchRoundsOver@CDataBaseEngineSink@@IAE_NKPAXGAAK@Z 004311c0 f   DataBaseEngineSink.obj
 0001:000306c0       ?OnRequestMatchSignup@CDataBaseEngineSink@@IAE_NKPAXGAAK@Z 004316c0 f   DataBaseEngineSink.obj
 0001:00030ca0       ?OnRequestMatchSignupStart@CDataBaseEngineSink@@IAE_NKPAXGAAK@Z 00431ca0 f   DataBaseEngineSink.obj
 0001:00030e80       ?OnRequestMatchStart@CDataBaseEngineSink@@IAE_NKPAXGAAK@Z 00431e80 f   DataBaseEngineSink.obj
 0001:00031040       ?OnRequestMatchUnSignup@CDataBaseEngineSink@@IAE_NKPAXGAAK@Z 00432040 f   DataBaseEngineSink.obj
 0001:00031620       ?OnRequestMatchUserRevive@CDataBaseEngineSink@@IAE_NKPAXGAAK@Z 00432620 f   DataBaseEngineSink.obj
 0001:00031ad0       ?OnRequestMemberDayGift@CDataBaseEngineSink@@IAE_NKPAXGAAK@Z 00432ad0 f   DataBaseEngineSink.obj
 0001:00031eb0       ?OnRequestMemberDayPresent@CDataBaseEngineSink@@IAE_NKPAXGAAK@Z 00432eb0 f   DataBaseEngineSink.obj
 0001:000322c0       ?OnRequestMemberLoadParameter@CDataBaseEngineSink@@IAE_NKPAXGAAK@Z 004332c0 f   DataBaseEngineSink.obj
 0001:00032680       ?OnRequestMemberQueryInfo@CDataBaseEngineSink@@IAE_NKPAXGAAK@Z 00433680 f   DataBaseEngineSink.obj
 0001:00032bd0       ?OnRequestModifyConfigSubStorageItem@CDataBaseEngineSink@@IAE_NKPAXGAAK@Z 00433bd0 f   DataBaseEngineSink.obj
 0001:00033110       ?OnRequestModifyCurSubStorageItem@CDataBaseEngineSink@@IAE_NKPAXGAAK@Z 00434110 f   DataBaseEngineSink.obj
 0001:00033380       ?OnRequestPayRoomCard@CDataBaseEngineSink@@IAE_NKPAXGAAK@Z 00434380 f   DataBaseEngineSink.obj
 0001:00033770       ?OnRequestPropertyBackpack@CDataBaseEngineSink@@IAE_NKPAXGAAK@Z 00434770 f   DataBaseEngineSink.obj
 0001:00033d70       ?OnRequestPropertyPresent@CDataBaseEngineSink@@IAE_NKPAXGAAK@Z 00434d70 f   DataBaseEngineSink.obj
 0001:00034210       ?OnRequestPropertyUse@CDataBaseEngineSink@@IAE_NKPAXGAAK@Z 00435210 f   DataBaseEngineSink.obj
 0001:00034890       ?OnRequestPurchaseMember@CDataBaseEngineSink@@IAE_NKPAXGAAK@Z 00435890 f   DataBaseEngineSink.obj
 0001:00034de0       ?OnRequestQueryGrowLevelParameter@CDataBaseEngineSink@@IAE_NKPAXGAAK@Z 00435de0 f   DataBaseEngineSink.obj
 0001:000353b0       ?OnRequestQueryInsureInfo@CDataBaseEngineSink@@IAE_NKPAXGAAK@Z 004363b0 f   DataBaseEngineSink.obj
 0001:000359c0       ?OnRequestQuerySendPresent@CDataBaseEngineSink@@IAE_NKPAXGAAK@Z 004369c0 f   DataBaseEngineSink.obj
 0001:00035ef0       ?OnRequestQueryTransferUserInfo@CDataBaseEngineSink@@IAE_NKPAXGAAK@Z 00436ef0 f   DataBaseEngineSink.obj
 0001:00036250       ?OnRequestRoomTaskProgress@CDataBaseEngineSink@@IAE_NKPAXGAAK@Z 00437250 f   DataBaseEngineSink.obj
 0001:00036250       ?OnRequestQueryUserRoomScore@CDataBaseEngineSink@@IAE_NKPAXGAAK@Z 00437250 f   DataBaseEngineSink.obj
 0001:00036270       ?OnRequestSendTrumpet@CDataBaseEngineSink@@IAE_NKPAXGAAK@Z 00437270 f   DataBaseEngineSink.obj
 0001:000364e0       ?OnRequestTakeBaseEnsure@CDataBaseEngineSink@@IAE_NKPAXGAAK@Z 004374e0 f   DataBaseEngineSink.obj
 0001:000369c0       ?OnRequestTaskGiveUp@CDataBaseEngineSink@@IAE_NKPAXGAAK@Z 004379c0 f   DataBaseEngineSink.obj
 0001:00036e20       ?OnRequestTaskPerform@CDataBaseEngineSink@@IAE_NKPAXGAAK@Z 00437e20 f   DataBaseEngineSink.obj
 0001:00037000       ?OnRequestTaskQueryInfo@CDataBaseEngineSink@@IAE_NKPAXGAAK@Z 00438000 f   DataBaseEngineSink.obj
 0001:00037160       ?OnRequestTaskReward@CDataBaseEngineSink@@IAE_NKPAXGAAK@Z 00438160 f   DataBaseEngineSink.obj
 0001:00037640       ?OnRequestTaskTake@CDataBaseEngineSink@@IAE_NKPAXGAAK@Z 00438640 f   DataBaseEngineSink.obj
 0001:00037aa0       ?OnRequestUnlockAndroidUser@CDataBaseEngineSink@@IAE_NKPAXGAAK@Z 00438aa0 f   DataBaseEngineSink.obj
 0001:00037c40       ?OnRequestUserEnableInsure@CDataBaseEngineSink@@IAE_NKPAXGAAK@Z 00438c40 f   DataBaseEngineSink.obj
 0001:000380e0       ?OnRequestUserSaveScore@CDataBaseEngineSink@@IAE_NKPAXGAAK@Z 004390e0 f   DataBaseEngineSink.obj
 0001:000384b0       ?OnRequestUserTakeScore@CDataBaseEngineSink@@IAE_NKPAXGAAK@Z 004394b0 f   DataBaseEngineSink.obj
 0001:00038890       ?OnRequestUserTransferScore@CDataBaseEngineSink@@IAE_NKPAXGAAK@Z 00439890 f   DataBaseEngineSink.obj
 0001:00038cb0       ?OnRequestWriteGameScore@CDataBaseEngineSink@@IAE_NKPAXGAAK@Z 00439cb0 f   DataBaseEngineSink.obj
 0001:000391b0       ?OnRequestWriteGroupBattleInfo@CDataBaseEngineSink@@IAE_NKPAXGAAK@Z 0043a1b0 f   DataBaseEngineSink.obj
 0001:000396c0       ?OnRequestWriteJoinInfo@CDataBaseEngineSink@@IAE_NKPAXGAAK@Z 0043a6c0 f   DataBaseEngineSink.obj
 0001:00039910       ?OnRequestWritePersonalGameScore@CDataBaseEngineSink@@IAE_NKPAXGAAK@Z 0043a910 f   DataBaseEngineSink.obj
 0001:00039f80       ?OnRequestWriteUserGameData@CDataBaseEngineSink@@IAE_NKPAXGAAK@Z 0043af80 f   DataBaseEngineSink.obj
 0001:0003a1d0       ?OnRequestWriteVideoDataInfo@CDataBaseEngineSink@@IAE_NKPAXGAAK@Z 0043b1d0 f   DataBaseEngineSink.obj
 0001:0003a460       ?OnRequestWriteVideoPlayerInfo@CDataBaseEngineSink@@IAE_NKPAXGAAK@Z 0043b460 f   DataBaseEngineSink.obj
 0001:0003a630       ?OnRequsetDissumeRoom@CDataBaseEngineSink@@IAE_NKPAXGAAK@Z 0043b630 f   DataBaseEngineSink.obj
 0001:0003aaf0       ?OnRequsetInsertCreateRecord@CDataBaseEngineSink@@IAE_NKPAXGAAK@Z 0043baf0 f   DataBaseEngineSink.obj
 0001:0003ae50       ?QueryInterface@CDataBaseEngineSink@@UAEPAXABU_GUID@@K@Z 0043be50 f   DataBaseEngineSink.obj
 0001:0003af21       ?QueryInterface@CDataBaseEngineSink@@W3AEPAXABU_GUID@@K@Z 0043bf21 f i DataBaseEngineSink.obj
 0001:0003af30       ?Release@CAttemperEngineSink@@UAEXXZ 0043bf30 f i AttemperEngineSink.obj
 0001:0003af30       ?AssertValid@CObject@@UBEXXZ 0043bf30 f i AttemperEngineSink.obj
 0001:0003af30       ?OnOK@CGameServerDlg@@MAEXXZ 0043bf30 f i GameServerDlg.obj
 0001:0003af30       ??1?$CW2CWEX@$0IA@@ATL@@QAE@XZ 0043bf30 f i AttemperEngineSink.obj
 0001:0003af30       ??1CObject@@UAE@XZ         0043bf30 f i AttemperEngineSink.obj
 0001:0003af30       ?Release@CDataBaseEngineSink@@UAEXXZ 0043bf30 f i DataBaseEngineSink.obj
 0001:0003af50       ?SendLogData@CDataBaseEngineSink@@AAAXPB_WZZ 0043bf50 f   DataBaseEngineSink.obj
 0001:0003b070       ___vswprintf_l             0043c070 f i DataBaseEngineSink.obj
 0001:0003b0a0       __swprintf                 0043c0a0 f i DataBaseEngineSink.obj
 0001:0003b0e0       __vswprintf_c_l            0043c0e0 f i DataBaseEngineSink.obj
 0001:0003b140       __vswprintf_l              0043c140 f i DataBaseEngineSink.obj
 0001:0003b190       ??0?$CList@PAUtagDBRequestHead@@ABQAU1@@@QAE@H@Z 0043c190 f i DBCorrespondManager.obj
 0001:0003b200       ??0?$CWHArray@KABK@@QAE@XZ 0043c200 f i DBCorrespondManager.obj
 0001:0003b250       ??0CCriticalSection@@QAE@XZ 0043c250 f i DBCorrespondManager.obj
 0001:0003b2d0       ??0CDBCorrespondManager@@QAE@XZ 0043c2d0 f   DBCorrespondManager.obj
 0001:0003b370       ??0IDBCorrespondManager@@QAE@XZ 0043c370 f i DBCorrespondManager.obj
 0001:0003b3a0       ??0IServiceModule@@QAE@XZ  0043c3a0 f i DBCorrespondManager.obj
 0001:0003b3d0       ??1?$CList@PAUtagDBRequestHead@@ABQAU1@@@UAE@XZ 0043c3d0 f i DBCorrespondManager.obj
 0001:0003b430       ??1?$CWHArray@KABK@@UAE@XZ 0043c430 f i DBCorrespondManager.obj
 0001:0003b4a0       ??1CCriticalSection@@UAE@XZ 0043c4a0 f i DBCorrespondManager.obj
 0001:0003b4e0       ??1CDBCorrespondManager@@QAE@XZ 0043c4e0 f   DBCorrespondManager.obj
 0001:0003b570       ??_E?$CList@PAUtagDBRequestHead@@ABQAU1@@@UAEPAXI@Z 0043c570 f i DBCorrespondManager.obj
 0001:0003b570       ??_G?$CList@PAUtagDBRequestHead@@ABQAU1@@@UAEPAXI@Z 0043c570 f i DBCorrespondManager.obj
 0001:0003b5c0       ??_E?$CWHArray@KABK@@UAEPAXI@Z 0043c5c0 f i DBCorrespondManager.obj
 0001:0003b5c0       ??_G?$CWHArray@KABK@@UAEPAXI@Z 0043c5c0 f i DBCorrespondManager.obj
 0001:0003b600       ??_GCCriticalSection@@UAEPAXI@Z 0043c600 f i DBCorrespondManager.obj
 0001:0003b600       ??_ECCriticalSection@@UAEPAXI@Z 0043c600 f i DBCorrespondManager.obj
 0001:0003b650       ??_GCDBCorrespondManager@@QAEPAXI@Z 0043c650 f i DBCorrespondManager.obj
 0001:0003b690       ?AddTail@?$CList@PAUtagDBRequestHead@@ABQAU1@@@QAEPAU__POSITION@@ABQAUtagDBRequestHead@@@Z 0043c690 f i DBCorrespondManager.obj
 0001:0003b6f0       ?AmortizeSyncData@CDBCorrespondManager@@QAE_NKGKPAXGE@Z 0043c6f0 f   DBCorrespondManager.obj
 0001:0003b800       ?AtlThrowImpl@ATL@@YGXJ@Z  0043c800 f i DBCorrespondManager.obj
 0001:0003b830       ?ClearAmortizeData@CDBCorrespondManager@@QAEXXZ 0043c830 f   DBCorrespondManager.obj
 0001:0003b880       ?ConcludeService@CDBCorrespondManager@@UAE_NXZ 0043c880 f   DBCorrespondManager.obj
 0001:0003b910       ?FreeNode@?$CList@PAUtagDBRequestHead@@ABQAU1@@@IAEXPAUCNode@1@@Z 0043c910 f i DBCorrespondManager.obj
 0001:0003b960       ?GetHeadPosition@?$CList@PAUtagDBRequestHead@@ABQAU1@@@QBEPAU__POSITION@@XZ 0043c960 f i DBCorrespondManager.obj
 0001:0003b960       ?GetData@?$CWHArray@PAVCTableFrame@@ABQAV1@@@QAEPAPAVCTableFrame@@XZ 0043c960 f i AttemperEngineSink.obj
 0001:0003b980       ?GetNext@?$CList@PAUtagDBRequestHead@@ABQAU1@@@QAEAAPAUtagDBRequestHead@@AAPAU__POSITION@@@Z 0043c980 f i DBCorrespondManager.obj
 0001:0003b9b0       ?GetUserArrayIndex@CDBCorrespondManager@@QAEHK@Z 0043c9b0 f   DBCorrespondManager.obj
 0001:0003ba10       ?Init@CCriticalSection@@AAEJXZ 0043ca10 f i DBCorrespondManager.obj
 0001:0003ba50       ?InitDBCorrespondManager@CDBCorrespondManager@@UAA_NPAUIDataBaseEngine@@@Z 0043ca50 f   DBCorrespondManager.obj
 0001:0003ba70       ?IsPostDBRequest@CDBCorrespondManager@@QAE_NK@Z 0043ca70 f   DBCorrespondManager.obj
 0001:0003bad0       ?Lock@CCriticalSection@@QAEHXZ 0043cad0 f i DBCorrespondManager.obj
 0001:0003bb00       ?Lock@CCriticalSection@@UAEHK@Z 0043cb00 f i DBCorrespondManager.obj
 0001:0003bb20       ?NewNode@?$CList@PAUtagDBRequestHead@@ABQAU1@@@IAEPAUCNode@1@PAU21@0@Z 0043cb20 f i DBCorrespondManager.obj
 0001:0003bc30       ?OnPostRequestComplete@CDBCorrespondManager@@UAA_NK_N@Z 0043cc30 f   DBCorrespondManager.obj
 0001:0003bd40       ?OnTimerNotify@CDBCorrespondManager@@UAA_NXZ 0043cd40 f   DBCorrespondManager.obj
 0001:0003bdc0       ?PerformAmortisation@CDBCorrespondManager@@QAEXXZ 0043cdc0 f   DBCorrespondManager.obj
 0001:0003beb0       ?PostDataBaseRequest@CDBCorrespondManager@@UAA_NKGKPAXGE@Z 0043ceb0 f   DBCorrespondManager.obj
 0001:0003bf50       ?QueryInterface@CDBCorrespondManager@@UAEPAXABU_GUID@@K@Z 0043cf50 f   DBCorrespondManager.obj
 0001:0003bfe0       ?Release@CDBCorrespondManager@@UAEXXZ 0043cfe0 f i DBCorrespondManager.obj
 0001:0003c020       ?RemoveAll@?$CList@PAUtagDBRequestHead@@ABQAU1@@@QAEXXZ 0043d020 f i DBCorrespondManager.obj
 0001:0003c090       ?RemoveAt@?$CList@PAUtagDBRequestHead@@ABQAU1@@@QAEXPAU__POSITION@@@Z 0043d090 f i DBCorrespondManager.obj
 0001:0003c110       ?RemoveHead@?$CList@PAUtagDBRequestHead@@ABQAU1@@@QAEPAUtagDBRequestHead@@XZ 0043d110 f i DBCorrespondManager.obj
 0001:0003c1a0       ?Serialize@?$CList@PAUtagDBRequestHead@@ABQAU1@@@UAEXAAVCArchive@@@Z 0043d1a0 f i DBCorrespondManager.obj
 0001:0003c260       ?StartService@CDBCorrespondManager@@UAE_NXZ 0043d260 f   DBCorrespondManager.obj
 0001:0003c280       ?Unlock@CCriticalSection@@UAEHXZ 0043d280 f i DBCorrespondManager.obj
 0001:0003c2b0       ?Unlock@CSyncObject@@UAEHJPAJ@Z 0043d2b0 f i DBCorrespondManager.obj
 0001:0003c2d0       _HRESULT_FROM_WIN32        0043d2d0 f i DBCorrespondManager.obj
 0001:0003c310       ??0CDistributeManager@@QAE@XZ 0043d310 f   DistributeManager.obj
 0001:0003c370       ??1CDistributeManager@@UAE@XZ 0043d370 f   DistributeManager.obj
 0001:0003c3d0       ??1CDistributeNodePool@@QAE@XZ 0043d3d0 f   DistributeManager.obj
 0001:0003c480       ??A?$CWHArray@UtagDistributeInfo@@ABU1@@@QBEABUtagDistributeInfo@@H@Z 0043d480 f i DistributeManager.obj
 0001:0003c4b0       ??_GCDistributeManager@@UAEPAXI@Z 0043d4b0 f i DistributeManager.obj
 0001:0003c4b0       ??_ECDistributeManager@@UAEPAXI@Z 0043d4b0 f i DistributeManager.obj
 0001:0003c4f0       ?Add@?$CWHArray@UtagDistributeInfo@@ABU1@@@QAEHABUtagDistributeInfo@@@Z 0043d4f0 f i DistributeManager.obj
 0001:0003c530       ?AllocMemory@?$CWHArray@UtagDistributeInfo@@ABU1@@@QAEXH@Z 0043d530 f i DistributeManager.obj
 0001:0003c630       ?AllocNode@CDistributeNodePool@@QAEPAUtagDistributeNode@@XZ 0043d630 f   DistributeManager.obj
 0001:0003c6d0       ?FilterRuleExitsIPAddr@CDistributeManager@@IAEHABV?$CWHArray@UtagDistributeInfo@@ABU1@@@K@Z 0043d6d0 f i DistributeManager.obj
 0001:0003c740       ?FilterRuleExitsSameTable@CDistributeManager@@IAEHABV?$CWHArray@UtagDistributeInfo@@ABU1@@@G@Z 0043d740 f i DistributeManager.obj
 0001:0003c7b0       ?FilterRuleIsAllAndroid@CDistributeManager@@IAEHABV?$CWHArray@UtagDistributeInfo@@ABU1@@@QAUIServerUserItem@@@Z 0043d7b0 f i DistributeManager.obj
 0001:0003c880       ?FreeNode@CDistributeNodePool@@QAEXPAX@Z 0043d880 f   DistributeManager.obj
 0001:0003c8b0       ?GetAt@?$CWHArray@UtagDistributeInfo@@ABU1@@@QBEABUtagDistributeInfo@@H@Z 0043d8b0 f i DistributeManager.obj
 0001:0003c8f0       ?InsertDistributeNode@CDistributeManager@@QAEHABUtagDistributeInfo@@@Z 0043d8f0 f   DistributeManager.obj
 0001:0003ca50       ?PerformDistribute@CDistributeManager@@QAEGAAV?$CWHArray@UtagDistributeInfo@@ABU1@@@G@Z 0043da50 f   DistributeManager.obj
 0001:0003cbb0       ?RemoveAll@CDistributeManager@@QAEXXZ 0043dbb0 f   DistributeManager.obj
 0001:0003cc10       ?RemoveDistributeNode@CDistributeManager@@QAEXPAUtagDistributeNode@@@Z 0043dc10 f   DistributeManager.obj
 0001:0003cd00       ?RemoveDistributeNode@CDistributeManager@@QAEXPBUIServerUserItem@@@Z 0043dd00 f   DistributeManager.obj
 0001:0003cd40       ?SearchNode@CDistributeManager@@IAEPAUtagDistributeNode@@QBUIServerUserItem@@@Z 0043dd40 f   DistributeManager.obj
 0001:0003cd90       ?SetAtGrow@?$CWHArray@UtagDistributeInfo@@ABU1@@@QAEXHABUtagDistributeInfo@@@Z 0043dd90 f i DistributeManager.obj
 0001:0003cdf0       ?SetSize@?$CWHArray@UtagDistributeInfo@@ABU1@@@QAEXH@Z 0043ddf0 f i DistributeManager.obj
 0001:0003cec0       ??$SerializeElements@PAVCGameNodeItem@NServerListManager@@@@YGXAAVCArchive@@PAPAVCGameNodeItem@NServerListManager@@H@Z 0043dec0 f i ServerListManager.obj
 0001:0003cec0       ??$SerializeElements@PAVCGameKindItem@NServerListManager@@@@YGXAAVCArchive@@PAPAVCGameKindItem@NServerListManager@@H@Z 0043dec0 f i ServerListManager.obj
 0001:0003cec0       ??$SerializeElements@PAVCGamePropertyRelatItem@NGamePropertyListManager@@@@YGXAAVCArchive@@PAPAVCGamePropertyRelatItem@NGamePropertyListManager@@H@Z 0043dec0 f i GamePropertyListManager.obj
 0001:0003cec0       ??$SerializeElements@PAVCGameServerItem@NServerListManager@@@@YGXAAVCArchive@@PAPAVCGameServerItem@NServerListManager@@H@Z 0043dec0 f i ServerListManager.obj
 0001:0003cec0       ??$SerializeElements@PAVCGamePropertyItem@NGamePropertyListManager@@@@YGXAAVCArchive@@PAPAVCGamePropertyItem@NGamePropertyListManager@@H@Z 0043dec0 f i GamePropertyListManager.obj
 0001:0003cec0       ??$SerializeElements@PAVCGamePropertySubItem@NGamePropertyListManager@@@@YGXAAVCArchive@@PAPAVCGamePropertySubItem@NGamePropertyListManager@@H@Z 0043dec0 f i GamePropertyListManager.obj
 0001:0003cec0       ??$SerializeElements@PAVCGameTypeItem@NServerListManager@@@@YGXAAVCArchive@@PAPAVCGameTypeItem@NServerListManager@@H@Z 0043dec0 f i ServerListManager.obj
 0001:0003cec0       ??$SerializeElements@K@@YGXAAVCArchive@@PAKH@Z 0043dec0 f i AttemperEngineSink.obj
 0001:0003cec0       ??$SerializeElements@PAUtagDBRequestHead@@@@YGXAAVCArchive@@PAPAUtagDBRequestHead@@H@Z 0043dec0 f i DBCorrespondManager.obj
 0001:0003cec0       ??$SerializeElements@PAVCGamePropertyTypeItem@NGamePropertyListManager@@@@YGXAAVCArchive@@PAPAVCGamePropertyTypeItem@NGamePropertyListManager@@H@Z 0043dec0 f i GamePropertyListManager.obj
 0001:0003cec0       ??$SerializeElements@PAVCGamePageItem@NServerListManager@@@@YGXAAVCArchive@@PAPAVCGamePageItem@NServerListManager@@H@Z 0043dec0 f i ServerListManager.obj
 0001:0003cfd0       ??0?$CMap@KKPAVCGamePropertyItem@NGamePropertyListManager@@AAPAV12@@@QAE@H@Z 0043dfd0 f i GamePropertyListManager.obj
 0001:0003d040       ??0?$CMap@KKPAVCGamePropertyRelatItem@NGamePropertyListManager@@AAPAV12@@@QAE@H@Z 0043e040 f i GamePropertyListManager.obj
 0001:0003d0b0       ??0?$CMap@KKPAVCGamePropertySubItem@NGamePropertyListManager@@AAPAV12@@@QAE@H@Z 0043e0b0 f i GamePropertyListManager.obj
 0001:0003d120       ??0?$CMap@KKPAVCGamePropertyTypeItem@NGamePropertyListManager@@AAPAV12@@@QAE@H@Z 0043e120 f i GamePropertyListManager.obj
 0001:0003d190       ??0?$CWHArray@PAVCGamePropertyItem@NGamePropertyListManager@@ABQAV12@@@QAE@XZ 0043e190 f i GamePropertyListManager.obj
 0001:0003d1e0       ??0?$CWHArray@PAVCGamePropertyRelatItem@NGamePropertyListManager@@ABQAV12@@@QAE@XZ 0043e1e0 f i GamePropertyListManager.obj
 0001:0003d230       ??0?$CWHArray@PAVCGamePropertySubItem@NGamePropertyListManager@@ABQAV12@@@QAE@XZ 0043e230 f i GamePropertyListManager.obj
 0001:0003d280       ??0?$CWHArray@PAVCGamePropertyTypeItem@NGamePropertyListManager@@ABQAV12@@@QAE@XZ 0043e280 f i GamePropertyListManager.obj
 0001:0003d2d0       ??0CAssoc@?$CMap@KKPAVCGamePropertyRelatItem@NGamePropertyListManager@@AAPAV12@@@QAE@K@Z 0043e2d0 f i GamePropertyListManager.obj
 0001:0003d2d0       ??0CAssoc@?$CMap@KKKAAK@@QAE@K@Z 0043e2d0 f i AttemperEngineSink.obj
 0001:0003d2d0       ??0CAssoc@?$CMap@KKPAVCGamePropertySubItem@NGamePropertyListManager@@AAPAV12@@@QAE@K@Z 0043e2d0 f i GamePropertyListManager.obj
 0001:0003d2d0       ??0CAssoc@?$CMap@KK_JAA_J@@QAE@K@Z 0043e2d0 f i TableFrame.obj
 0001:0003d2d0       ??0CAssoc@?$CMap@KKPAVCGamePropertyTypeItem@NGamePropertyListManager@@AAPAV12@@@QAE@K@Z 0043e2d0 f i GamePropertyListManager.obj
 0001:0003d2d0       ??0CAssoc@?$CMap@KKPAVCGamePropertyItem@NGamePropertyListManager@@AAPAV12@@@QAE@K@Z 0043e2d0 f i GamePropertyListManager.obj
 0001:0003d300       ??0CGamePropertyItem@NGamePropertyListManager@@QAE@XZ 0043e300 f   GamePropertyListManager.obj
 0001:0003d340       ??0CGamePropertyListManager@NGamePropertyListManager@@QAE@XZ 0043e340 f   GamePropertyListManager.obj
 0001:0003d460       ??0CGamePropertyRelatItem@NGamePropertyListManager@@QAE@XZ 0043e460 f   GamePropertyListManager.obj
 0001:0003d4a0       ??0CGamePropertySubItem@NGamePropertyListManager@@QAE@XZ 0043e4a0 f   GamePropertyListManager.obj
 0001:0003d4e0       ??0CGamePropertyTypeItem@NGamePropertyListManager@@QAE@XZ 0043e4e0 f   GamePropertyListManager.obj
 0001:0003d520       ??0CPair@?$CMap@KKPAVCGamePropertyRelatItem@NGamePropertyListManager@@AAPAV12@@@IAE@K@Z 0043e520 f i GamePropertyListManager.obj
 0001:0003d520       ??0CPair@?$CMap@KK_JAA_J@@IAE@K@Z 0043e520 f i TableFrame.obj
 0001:0003d520       ??0CPair@?$CMap@KKPAVCGamePropertySubItem@NGamePropertyListManager@@AAPAV12@@@IAE@K@Z 0043e520 f i GamePropertyListManager.obj
 0001:0003d520       ??0?$CW2CWEX@$0IA@@ATL@@QAE@PB_W@Z 0043e520 f i AttemperEngineSink.obj
 0001:0003d520       ??0CPair@?$CMap@KKPAVCGamePropertyItem@NGamePropertyListManager@@AAPAV12@@@IAE@K@Z 0043e520 f i GamePropertyListManager.obj
 0001:0003d520       ??0CPair@?$CMap@KKPAVCGamePropertyTypeItem@NGamePropertyListManager@@AAPAV12@@@IAE@K@Z 0043e520 f i GamePropertyListManager.obj
 0001:0003d520       ??0CPair@?$CMap@KKKAAK@@IAE@K@Z 0043e520 f i AttemperEngineSink.obj
 0001:0003d540       ??1?$CMap@KKPAVCGamePropertyItem@NGamePropertyListManager@@AAPAV12@@@UAE@XZ 0043e540 f i GamePropertyListManager.obj
 0001:0003d5a0       ??1?$CMap@KKPAVCGamePropertyRelatItem@NGamePropertyListManager@@AAPAV12@@@UAE@XZ 0043e5a0 f i GamePropertyListManager.obj
 0001:0003d600       ??1?$CMap@KKPAVCGamePropertySubItem@NGamePropertyListManager@@AAPAV12@@@UAE@XZ 0043e600 f i GamePropertyListManager.obj
 0001:0003d660       ??1?$CMap@KKPAVCGamePropertyTypeItem@NGamePropertyListManager@@AAPAV12@@@UAE@XZ 0043e660 f i GamePropertyListManager.obj
 0001:0003d6c0       ??1?$CWHArray@PAVCGamePropertyItem@NGamePropertyListManager@@ABQAV12@@@UAE@XZ 0043e6c0 f i GamePropertyListManager.obj
 0001:0003d730       ??1?$CWHArray@PAVCGamePropertyRelatItem@NGamePropertyListManager@@ABQAV12@@@UAE@XZ 0043e730 f i GamePropertyListManager.obj
 0001:0003d7a0       ??1?$CWHArray@PAVCGamePropertySubItem@NGamePropertyListManager@@ABQAV12@@@UAE@XZ 0043e7a0 f i GamePropertyListManager.obj
 0001:0003d810       ??1?$CWHArray@PAVCGamePropertyTypeItem@NGamePropertyListManager@@ABQAV12@@@UAE@XZ 0043e810 f i GamePropertyListManager.obj
 0001:0003d880       ??1CGamePropertyListManager@NGamePropertyListManager@@UAE@XZ 0043e880 f   GamePropertyListManager.obj
 0001:0003dd70       ??A?$CMap@KKPAVCGamePropertyTypeItem@NGamePropertyListManager@@AAPAV12@@@QAEAAPAVCGamePropertyTypeItem@NGamePropertyListManager@@K@Z 0043ed70 f i GamePropertyListManager.obj
 0001:0003dd70       ??A?$CMap@KKKAAK@@QAEAAKK@Z 0043ed70 f i AttemperEngineSink.obj
 0001:0003dd70       ??A?$CMap@KKPAVCGamePropertyItem@NGamePropertyListManager@@AAPAV12@@@QAEAAPAVCGamePropertyItem@NGamePropertyListManager@@K@Z 0043ed70 f i GamePropertyListManager.obj
 0001:0003dd70       ??A?$CMap@KKPAVCGamePropertyRelatItem@NGamePropertyListManager@@AAPAV12@@@QAEAAPAVCGamePropertyRelatItem@NGamePropertyListManager@@K@Z 0043ed70 f i GamePropertyListManager.obj
 0001:0003dd70       ??A?$CMap@KKPAVCGamePropertySubItem@NGamePropertyListManager@@AAPAV12@@@QAEAAPAVCGamePropertySubItem@NGamePropertyListManager@@K@Z 0043ed70 f i GamePropertyListManager.obj
 0001:0003de30       ??_G?$CMap@KKPAVCGamePropertyItem@NGamePropertyListManager@@AAPAV12@@@UAEPAXI@Z 0043ee30 f i GamePropertyListManager.obj
 0001:0003de30       ??_E?$CMap@KKPAVCGamePropertyItem@NGamePropertyListManager@@AAPAV12@@@UAEPAXI@Z 0043ee30 f i GamePropertyListManager.obj
 0001:0003de80       ??_E?$CMap@KKPAVCGamePropertyRelatItem@NGamePropertyListManager@@AAPAV12@@@UAEPAXI@Z 0043ee80 f i GamePropertyListManager.obj
 0001:0003de80       ??_G?$CMap@KKPAVCGamePropertyRelatItem@NGamePropertyListManager@@AAPAV12@@@UAEPAXI@Z 0043ee80 f i GamePropertyListManager.obj
 0001:0003ded0       ??_E?$CMap@KKPAVCGamePropertySubItem@NGamePropertyListManager@@AAPAV12@@@UAEPAXI@Z 0043eed0 f i GamePropertyListManager.obj
 0001:0003ded0       ??_G?$CMap@KKPAVCGamePropertySubItem@NGamePropertyListManager@@AAPAV12@@@UAEPAXI@Z 0043eed0 f i GamePropertyListManager.obj
 0001:0003df20       ??_E?$CMap@KKPAVCGamePropertyTypeItem@NGamePropertyListManager@@AAPAV12@@@UAEPAXI@Z 0043ef20 f i GamePropertyListManager.obj
 0001:0003df20       ??_G?$CMap@KKPAVCGamePropertyTypeItem@NGamePropertyListManager@@AAPAV12@@@UAEPAXI@Z 0043ef20 f i GamePropertyListManager.obj
 0001:0003df70       ??_G?$CWHArray@PAVCGamePropertyItem@NGamePropertyListManager@@ABQAV12@@@UAEPAXI@Z 0043ef70 f i GamePropertyListManager.obj
 0001:0003df70       ??_E?$CWHArray@PAVCGamePropertyItem@NGamePropertyListManager@@ABQAV12@@@UAEPAXI@Z 0043ef70 f i GamePropertyListManager.obj
 0001:0003dfb0       ??_E?$CWHArray@PAVCGamePropertyRelatItem@NGamePropertyListManager@@ABQAV12@@@UAEPAXI@Z 0043efb0 f i GamePropertyListManager.obj
 0001:0003dfb0       ??_G?$CWHArray@PAVCGamePropertyRelatItem@NGamePropertyListManager@@ABQAV12@@@UAEPAXI@Z 0043efb0 f i GamePropertyListManager.obj
 0001:0003dff0       ??_E?$CWHArray@PAVCGamePropertySubItem@NGamePropertyListManager@@ABQAV12@@@UAEPAXI@Z 0043eff0 f i GamePropertyListManager.obj
 0001:0003dff0       ??_G?$CWHArray@PAVCGamePropertySubItem@NGamePropertyListManager@@ABQAV12@@@UAEPAXI@Z 0043eff0 f i GamePropertyListManager.obj
 0001:0003e030       ??_E?$CWHArray@PAVCGamePropertyTypeItem@NGamePropertyListManager@@ABQAV12@@@UAEPAXI@Z 0043f030 f i GamePropertyListManager.obj
 0001:0003e030       ??_G?$CWHArray@PAVCGamePropertyTypeItem@NGamePropertyListManager@@ABQAV12@@@UAEPAXI@Z 0043f030 f i GamePropertyListManager.obj
 0001:0003e070       ??_ECGamePropertyListManager@NGamePropertyListManager@@UAEPAXI@Z 0043f070 f i GamePropertyListManager.obj
 0001:0003e070       ??_GCGamePropertyListManager@NGamePropertyListManager@@UAEPAXI@Z 0043f070 f i GamePropertyListManager.obj
 0001:0003e0b0       ?DisusePropertyItem@CGamePropertyListManager@NGamePropertyListManager@@QAEXXZ 0043f0b0 f   GamePropertyListManager.obj
 0001:0003e110       ?DisusePropertyTypeItem@CGamePropertyListManager@NGamePropertyListManager@@QAEXXZ 0043f110 f   GamePropertyListManager.obj
 0001:0003e170       ?EmunGamePropertyItem@CGamePropertyListManager@NGamePropertyListManager@@QAEPAVCGamePropertyItem@2@AAPAU__POSITION@@@Z 0043f170 f   GamePropertyListManager.obj
 0001:0003e1d0       ?EmunGamePropertyRelatItem@CGamePropertyListManager@NGamePropertyListManager@@QAEPAVCGamePropertyRelatItem@2@AAPAU__POSITION@@@Z 0043f1d0 f   GamePropertyListManager.obj
 0001:0003e230       ?EmunGamePropertySubItem@CGamePropertyListManager@NGamePropertyListManager@@QAEPAVCGamePropertySubItem@2@AAPAU__POSITION@@@Z 0043f230 f   GamePropertyListManager.obj
 0001:0003e290       ?EmunGamePropertyTypeItem@CGamePropertyListManager@NGamePropertyListManager@@QAEPAVCGamePropertyTypeItem@2@AAPAU__POSITION@@@Z 0043f290 f   GamePropertyListManager.obj
 0001:0003e2f0       ?GetAssocAt@?$CMap@KKPAVCGamePropertyTypeItem@NGamePropertyListManager@@AAPAV12@@@IBEPAVCAssoc@1@KAAI0@Z 0043f2f0 f i GamePropertyListManager.obj
 0001:0003e2f0       ?GetAssocAt@?$CMap@KKPAVCGamePropertyRelatItem@NGamePropertyListManager@@AAPAV12@@@IBEPAVCAssoc@1@KAAI0@Z 0043f2f0 f i GamePropertyListManager.obj
 0001:0003e2f0       ?GetAssocAt@?$CMap@KKPAVCGamePropertyItem@NGamePropertyListManager@@AAPAV12@@@IBEPAVCAssoc@1@KAAI0@Z 0043f2f0 f i GamePropertyListManager.obj
 0001:0003e2f0       ?GetAssocAt@?$CMap@KKKAAK@@IBEPAVCAssoc@1@KAAI0@Z 0043f2f0 f i AttemperEngineSink.obj
 0001:0003e2f0       ?GetAssocAt@?$CMap@KKPAVCGamePropertySubItem@NGamePropertyListManager@@AAPAV12@@@IBEPAVCAssoc@1@KAAI0@Z 0043f2f0 f i GamePropertyListManager.obj
 0001:0003e380       ?GetNextAssoc@?$CMap@KKPAVCGamePropertySubItem@NGamePropertyListManager@@AAPAV12@@@QBEXAAPAU__POSITION@@AAKAAPAVCGamePropertySubItem@NGamePropertyListManager@@@Z 0043f380 f i GamePropertyListManager.obj
 0001:0003e380       ?GetNextAssoc@?$CMap@KKPAVCGamePropertyRelatItem@NGamePropertyListManager@@AAPAV12@@@QBEXAAPAU__POSITION@@AAKAAPAVCGamePropertyRelatItem@NGamePropertyListManager@@@Z 0043f380 f i GamePropertyListManager.obj
 0001:0003e380       ?GetNextAssoc@?$CMap@KKPAVCGamePropertyTypeItem@NGamePropertyListManager@@AAPAV12@@@QBEXAAPAU__POSITION@@AAKAAPAVCGamePropertyTypeItem@NGamePropertyListManager@@@Z 0043f380 f i GamePropertyListManager.obj
 0001:0003e380       ?GetNextAssoc@?$CMap@KKPAVCGamePropertyItem@NGamePropertyListManager@@AAPAV12@@@QBEXAAPAU__POSITION@@AAKAAPAVCGamePropertyItem@NGamePropertyListManager@@@Z 0043f380 f i GamePropertyListManager.obj
 0001:0003e4d0       ?GetStartPosition@?$CMap@KKPAVCGamePropertyRelatItem@NGamePropertyListManager@@AAPAV12@@@QBEPAU__POSITION@@XZ 0043f4d0 f i GamePropertyListManager.obj
 0001:0003e4d0       ?GetStartPosition@?$CMap@KKPAVCGamePropertySubItem@NGamePropertyListManager@@AAPAV12@@@QBEPAU__POSITION@@XZ 0043f4d0 f i GamePropertyListManager.obj
 0001:0003e4d0       ?GetStartPosition@?$CMap@KKPAVCGamePropertyTypeItem@NGamePropertyListManager@@AAPAV12@@@QBEPAU__POSITION@@XZ 0043f4d0 f i GamePropertyListManager.obj
 0001:0003e4d0       ?GetStartPosition@?$CMap@GGPAVCGameServerItem@NServerListManager@@AAPAV12@@@QBEPAU__POSITION@@XZ 0043f4d0 f i ServerListManager.obj
 0001:0003e4d0       ?GetStartPosition@?$CMap@GGPAVCGamePageItem@NServerListManager@@AAPAV12@@@QBEPAU__POSITION@@XZ 0043f4d0 f i ServerListManager.obj
 0001:0003e4d0       ?GetStartPosition@?$CMap@GGPAVCGameKindItem@NServerListManager@@AAPAV12@@@QBEPAU__POSITION@@XZ 0043f4d0 f i ServerListManager.obj
 0001:0003e4d0       ?GetStartPosition@?$CMap@GGUtagTaskConfigInfo@@AAU1@@@QBEPAU__POSITION@@XZ 0043f4d0 f i AttemperEngineSink.obj
 0001:0003e4d0       ?GetStartPosition@?$CMap@GGPAVCGameTypeItem@NServerListManager@@AAPAV12@@@QBEPAU__POSITION@@XZ 0043f4d0 f i ServerListManager.obj
 0001:0003e4d0       ?GetStartPosition@?$CMap@KKPAVCGamePropertyItem@NGamePropertyListManager@@AAPAV12@@@QBEPAU__POSITION@@XZ 0043f4d0 f i GamePropertyListManager.obj
 0001:0003e4d0       ?GetStartPosition@?$CMap@GGPAVCGameNodeItem@NServerListManager@@AAPAV12@@@QBEPAU__POSITION@@XZ 0043f4d0 f i ServerListManager.obj
 0001:0003e500       ?InsertGamePropertyItem@CGamePropertyListManager@NGamePropertyListManager@@QAE_NPAUtagPropertyItem@@@Z 0043f500 f   GamePropertyListManager.obj
 0001:0003e6b0       ?InsertGamePropertyRelatItem@CGamePropertyListManager@NGamePropertyListManager@@QAE_NPAUtagPropertyRelatItem@@@Z 0043f6b0 f   GamePropertyListManager.obj
 0001:0003e870       ?InsertGamePropertySubItem@CGamePropertyListManager@NGamePropertyListManager@@QAE_NPAUtagPropertySubItem@@@Z 0043f870 f   GamePropertyListManager.obj
 0001:0003ea30       ?InsertGamePropertyTypeItem@CGamePropertyListManager@NGamePropertyListManager@@QAE_NPAUtagPropertyTypeItem@@@Z 0043fa30 f   GamePropertyListManager.obj
 0001:0003ebb0       ?NewAssoc@?$CMap@KKPAVCGamePropertyItem@NGamePropertyListManager@@AAPAV12@@@IAEPAVCAssoc@1@K@Z 0043fbb0 f i GamePropertyListManager.obj
 0001:0003ebb0       ?NewAssoc@?$CMap@KKKAAK@@IAEPAVCAssoc@1@K@Z 0043fbb0 f i AttemperEngineSink.obj
 0001:0003ebb0       ?NewAssoc@?$CMap@KKPAVCGamePropertyRelatItem@NGamePropertyListManager@@AAPAV12@@@IAEPAVCAssoc@1@K@Z 0043fbb0 f i GamePropertyListManager.obj
 0001:0003ebb0       ?NewAssoc@?$CMap@KKPAVCGamePropertyTypeItem@NGamePropertyListManager@@AAPAV12@@@IAEPAVCAssoc@1@K@Z 0043fbb0 f i GamePropertyListManager.obj
 0001:0003ebb0       ?NewAssoc@?$CMap@KKPAVCGamePropertySubItem@NGamePropertyListManager@@AAPAV12@@@IAEPAVCAssoc@1@K@Z 0043fbb0 f i GamePropertyListManager.obj
 0001:0003ed30       ?RemoveAll@?$CMap@KKPAVCGamePropertyTypeItem@NGamePropertyListManager@@AAPAV12@@@QAEXXZ 0043fd30 f i GamePropertyListManager.obj
 0001:0003ed30       ?RemoveAll@?$CMap@KKPAVCGamePropertySubItem@NGamePropertyListManager@@AAPAV12@@@QAEXXZ 0043fd30 f i GamePropertyListManager.obj
 0001:0003ed30       ?RemoveAll@?$CMap@GGPAVCGamePageItem@NServerListManager@@AAPAV12@@@QAEXXZ 0043fd30 f i ServerListManager.obj
 0001:0003ed30       ?RemoveAll@?$CMap@GGPAVCGameNodeItem@NServerListManager@@AAPAV12@@@QAEXXZ 0043fd30 f i ServerListManager.obj
 0001:0003ed30       ?RemoveAll@?$CMap@KKKAAK@@QAEXXZ 0043fd30 f i AttemperEngineSink.obj
 0001:0003ed30       ?RemoveAll@?$CMap@GGPAVCGameKindItem@NServerListManager@@AAPAV12@@@QAEXXZ 0043fd30 f i ServerListManager.obj
 0001:0003ed30       ?RemoveAll@?$CMap@KKPAVCGamePropertyRelatItem@NGamePropertyListManager@@AAPAV12@@@QAEXXZ 0043fd30 f i GamePropertyListManager.obj
 0001:0003ed30       ?RemoveAll@?$CMap@GGPAVCGameTypeItem@NServerListManager@@AAPAV12@@@QAEXXZ 0043fd30 f i ServerListManager.obj
 0001:0003ed30       ?RemoveAll@?$CMap@GGPAVCGameServerItem@NServerListManager@@AAPAV12@@@QAEXXZ 0043fd30 f i ServerListManager.obj
 0001:0003ed30       ?RemoveAll@?$CMap@KKPAVCGamePropertyItem@NGamePropertyListManager@@AAPAV12@@@QAEXXZ 0043fd30 f i GamePropertyListManager.obj
 0001:0003ede0       ?RemoveAt@?$CWHArray@PAUtagGameScoreRecord@@ABQAU1@@@QAEXHH@Z 0043fde0 f i TableFrame.obj
 0001:0003ede0       ?RemoveAt@?$CWHArray@PAVCGameServerItem@NServerListManager@@ABQAV12@@@QAEXHH@Z 0043fde0 f i ServerListManager.obj
 0001:0003ede0       ?RemoveAt@?$CWHArray@PAUtagGroupScoreRecord@@ABQAU1@@@QAEXHH@Z 0043fde0 f i TableFrame.obj
 0001:0003ede0       ?RemoveAt@?$CWHArray@KABK@@QAEXHH@Z 0043fde0 f i DBCorrespondManager.obj
 0001:0003ede0       ?RemoveAt@?$CWHArray@PAVCGamePropertyTypeItem@NGamePropertyListManager@@ABQAV12@@@QAEXHH@Z 0043fde0 f i GamePropertyListManager.obj
 0001:0003ede0       ?RemoveAt@?$CWHArray@PAVCGamePropertyItem@NGamePropertyListManager@@ABQAV12@@@QAEXHH@Z 0043fde0 f i GamePropertyListManager.obj
 0001:0003ede0       ?RemoveAt@?$CWHArray@PAUIServerUserItem@@ABQAU1@@@QAEXHH@Z 0043fde0 f i TableFrame.obj
 0001:0003ee90       ?Serialize@?$CMap@KKKAAK@@UAEXAAVCArchive@@@Z 0043fe90 f i AttemperEngineSink.obj
 0001:0003ee90       ?Serialize@?$CMap@KKPAVCGamePropertySubItem@NGamePropertyListManager@@AAPAV12@@@UAEXAAVCArchive@@@Z 0043fe90 f i GamePropertyListManager.obj
 0001:0003ee90       ?Serialize@?$CMap@KKPAVCGamePropertyRelatItem@NGamePropertyListManager@@AAPAV12@@@UAEXAAVCArchive@@@Z 0043fe90 f i GamePropertyListManager.obj
 0001:0003ee90       ?Serialize@?$CMap@KKPAVCGamePropertyItem@NGamePropertyListManager@@AAPAV12@@@UAEXAAVCArchive@@@Z 0043fe90 f i GamePropertyListManager.obj
 0001:0003ee90       ?Serialize@?$CMap@KKPAVCGamePropertyTypeItem@NGamePropertyListManager@@AAPAV12@@@UAEXAAVCArchive@@@Z 0043fe90 f i GamePropertyListManager.obj
 0001:0003efc0       ?SetAt@?$CMap@KKPAVCGamePropertyRelatItem@NGamePropertyListManager@@AAPAV12@@@QAEXKAAPAVCGamePropertyRelatItem@NGamePropertyListManager@@@Z 0043ffc0 f i GamePropertyListManager.obj
 0001:0003efc0       ?SetAt@?$CMap@KKKAAK@@QAEXKAAK@Z 0043ffc0 f i AttemperEngineSink.obj
 0001:0003efc0       ?SetAt@?$CMap@KKPAVCGamePropertyItem@NGamePropertyListManager@@AAPAV12@@@QAEXKAAPAVCGamePropertyItem@NGamePropertyListManager@@@Z 0043ffc0 f i GamePropertyListManager.obj
 0001:0003efc0       ?SetAt@?$CMap@KKPAVCGamePropertySubItem@NGamePropertyListManager@@AAPAV12@@@QAEXKAAPAVCGamePropertySubItem@NGamePropertyListManager@@@Z 0043ffc0 f i GamePropertyListManager.obj
 0001:0003efc0       ?SetAt@?$CMap@KKPAVCGamePropertyTypeItem@NGamePropertyListManager@@AAPAV12@@@QAEXKAAPAVCGamePropertyTypeItem@NGamePropertyListManager@@@Z 0043ffc0 f i GamePropertyListManager.obj
 0001:0003eff0       ??0CGameServerApp@@QAE@XZ  0043fff0 f   GameServer.obj
 0001:0003f020       ??1CGameServerApp@@UAE@XZ  00440020 f i GameServer.obj
 0001:0003f040       ??_ECGameServerApp@@UAEPAXI@Z 00440040 f i GameServer.obj
 0001:0003f040       ??_GCGameServerApp@@UAEPAXI@Z 00440040 f i GameServer.obj
 0001:0003f090       ?GetApplicationRecoveryPingInterval@CWinApp@@UAEKXZ 00440090 f i GameServer.obj
 0001:0003f0b0       ?GetApplicationRecoveryParameter@CWinApp@@UAEPAXXZ 004400b0 f i GameServer.obj
 0001:0003f0b0       ?GetApplicationRestartFlags@CWinApp@@UAEKXZ 004400b0 f i GameServer.obj
 0001:0003f0d0       ?GetMessageMap@CGameServerApp@@MBEPBUAFX_MSGMAP@@XZ 004400d0 f   GameServer.obj
 0001:0003f0f0       ?GetThisMessageMap@CGameServerApp@@KGPBUAFX_MSGMAP@@XZ 004400f0 f   GameServer.obj
 0001:0003f110       ?InitInstance@CGameServerApp@@UAEHXZ 00440110 f   GameServer.obj
 0001:0003f1e0       ?ReopenPreviousFilesAtRestart@CWinApp@@UBEHXZ 004401e0 f i GameServer.obj
 0001:0003f200       ?RestoreAutosavedFilesAtRestart@CWinApp@@UBEHXZ 00440200 f i GameServer.obj
 0001:0003f220       ?SupportsApplicationRecovery@CWinApp@@UBEHXZ 00440220 f i GameServer.obj
 0001:0003f240       ?SupportsAutosaveAtInterval@CWinApp@@UBEHXZ 00440240 f i GameServer.obj
 0001:0003f260       ?SupportsAutosaveAtRestart@CWinApp@@UBEHXZ 00440260 f i GameServer.obj
 0001:0003f280       ?SupportsRestartManager@CWinApp@@UBEHXZ 00440280 f i GameServer.obj
 0001:0003f2a0       ?OnBnClickedStartService@CGameServerDlg@@IAEXXZ 004402a0 f   GameServerDlg.obj
 0001:0003f310       ?OnBnClickedStopService@CGameServerDlg@@IAEXXZ 00440310 f   GameServerDlg.obj
 0001:0003f380       ?OnBnClickedOpenServer@CGameServerDlg@@IAEXXZ 00440380 f   GameServerDlg.obj
 0001:0003f4f0       ?OnBnClickedCreateServer@CGameServerDlg@@IAEXXZ 004404f0 f   GameServerDlg.obj
 0001:0003f5e0       ?OnBnClickedOptionServer@CGameServerDlg@@IAEXXZ 004405e0 f   GameServerDlg.obj
 0001:0003f770       ?OnBnClickedOptionMatch@CGameServerDlg@@IAEXXZ 00440770 f   GameServerDlg.obj
 0001:0003f8f0       ?OnBnClickedLogService@CGameServerDlg@@IAEXXZ 004408f0 f   GameServerDlg.obj
 0001:0003f960       ?OnQueryEndSession@CGameServerDlg@@QAEHXZ 00440960 f   GameServerDlg.obj
 0001:0003f9a0       ?OnMessageProcessCmdLine@CGameServerDlg@@QAEJIJ@Z 004409a0 f   GameServerDlg.obj
 0001:0003fa90       ??0?$CTempldateHelper@UIGameServiceManager@@@@QAE@ABU_GUID@@K@Z 00440a90 f i GameServerDlg.obj
 0001:0003fb20       ??0CGameServerDlg@@QAE@XZ  00440b20 f   GameServerDlg.obj
 0001:0003fc10       ??0CGameServiceManagerHelper@@QAE@XZ 00440c10 f i GameServerDlg.obj
 0001:0003fc50       ??0CreateRoomPayFee@@QAE@XZ 00440c50 f i GameServerDlg.obj
 0001:0003fcb0       ??0IServiceUnitsSink@@QAE@XZ 00440cb0 f i GameServerDlg.obj
 0001:0003fcd0       ??0tagModuleInitParameter@@QAE@XZ 00440cd0 f i GameServerDlg.obj
 0001:0003fd00       ??0tagPersonalRoomOptionRightAndFee@@QAE@XZ 00440d00 f i GameServerDlg.obj
 0001:0003fd30       ??1?$CTempldateHelper@UIGameServiceManager@@@@UAE@XZ 00440d30 f i GameServerDlg.obj
 0001:0003fd80       ??1CGameServerDlg@@UAE@XZ  00440d80 f   GameServerDlg.obj
 0001:0003fde0       ??1CGameServiceManagerHelper@@UAE@XZ 00440de0 f i GameServerDlg.obj
 0001:0003fe00       ??_E?$CTempldateHelper@UIGameServiceManager@@@@UAEPAXI@Z 00440e00 f i GameServerDlg.obj
 0001:0003fe00       ??_G?$CTempldateHelper@UIGameServiceManager@@@@UAEPAXI@Z 00440e00 f i GameServerDlg.obj
 0001:0003fe40       ??_GCGameServerDlg@@UAEPAXI@Z 00440e40 f i GameServerDlg.obj
 0001:0003fe40       ??_ECGameServerDlg@@UAEPAXI@Z 00440e40 f i GameServerDlg.obj
 0001:0003fe90       ??_ECGameServiceManagerHelper@@UAEPAXI@Z 00440e90 f i GameServerDlg.obj
 0001:0003fe90       ??_GCGameServiceManagerHelper@@UAEPAXI@Z 00440e90 f i GameServerDlg.obj
 0001:0003fed0       ?AfxGetApp@@YGPAVCWinApp@@XZ 00440ed0 f i GameServerDlg.obj
 0001:0003fef0       ?AfxGetInstanceHandle@@YGPAUHINSTANCE__@@XZ 00440ef0 f i GameServerDlg.obj
 0001:0003ff10       ?AfxSetResourceHandle@@YGXPAUHINSTANCE__@@@Z 00440f10 f i GameServerDlg.obj
 0001:0003ff30       ?BeginModalState@CWnd@@UAEXXZ 00440f30 f i GameServerDlg.obj
 0001:0003ff60       ?Create@CDialog@@UAEHIPAVCWnd@@@Z 00440f60 f i GameServerDlg.obj
 0001:0003ff90       ?DoDataExchange@CGameServerDlg@@MAEXPAVCDataExchange@@@Z 00440f90 f   GameServerDlg.obj
 0001:0003ffd0       ?Dump@CObject@@UBEXAAVCDumpContext@@@Z 00440fd0 f i AttemperEngineSink.obj
 0001:0003ffd0       ?BuildWord@CFilterTree@@QAEXPB_W@Z 00440fd0 f i SensitiveWordsFilter.obj
 0001:0003ffd0       ?Serialize@CObject@@UAEXAAVCArchive@@@Z 00440fd0 f i AttemperEngineSink.obj
 0001:0003ffd0       ?DoDataExchange@CWnd@@MAEXPAVCDataExchange@@@Z 00440fd0 f i GameServerDlg.obj
 0001:0003fff0       ?EndModalState@CWnd@@UAEXXZ 00440ff0 f i GameServerDlg.obj
 0001:00040020       ?ExceptionCrashHandler@@YAJPAU_EXCEPTION_POINTERS@@@Z 00441020 f   GameServerDlg.obj
 0001:000400a0       ?GetMessageMap@CGameServerDlg@@MBEPBUAFX_MSGMAP@@XZ 004410a0 f   GameServerDlg.obj
 0001:000400c0       ?GetPlatformDBParameter@CGameServerDlg@@IAE_NAAUtagDataBaseParameter@@@Z 004410c0 f   GameServerDlg.obj
 0001:00040280       ?GetThisMessageMap@CGameServerDlg@@KGPBUAFX_MSGMAP@@XZ 00441280 f   GameServerDlg.obj
 0001:000402a0       ?OnCancel@CGameServerDlg@@MAEXXZ 004412a0 f   GameServerDlg.obj
 0001:00040300       ?OnInitDialog@CGameServerDlg@@MAEHXZ 00441300 f   GameServerDlg.obj
 0001:000403d0       ?OnServiceUnitsStatus@CGameServerDlg@@UAEXW4enServiceStatus@@@Z 004413d0 f   GameServerDlg.obj
 0001:00040780       ?PostMessageW@CWnd@@QAEHIIJ@Z 00441780 f i GameServerDlg.obj
 0001:000407b0       ?PreTranslateMessage@CGameServerDlg@@MAEHPAUtagMSG@@@Z 004417b0 f   GameServerDlg.obj
 0001:000407f0       ?SetIcon@CStatic@@QAEPAUHICON__@@PAU2@@Z 004417f0 f i GameServerDlg.obj
 0001:00040820       ?SetIcon@CWnd@@QAEPAUHICON__@@PAU2@H@Z 00441820 f i GameServerDlg.obj
 0001:00040850       ?SetModuleCreateInfo@?$CTempldateHelper@UIGameServiceManager@@@@QAEXPB_WPBD@Z 00441850 f i GameServerDlg.obj
 0001:00040890       ?StartServerService@CGameServerDlg@@IAE_NG@Z 00441890 f   GameServerDlg.obj
 0001:000409e0       ?UpdateParameterStatus@CGameServerDlg@@IAEXAAUtagModuleInitParameter@@@Z 004419e0 f   GameServerDlg.obj
 0001:00040bb0       ?UpdateServerLogo@CGameServerDlg@@IAEXPB_W@Z 00441bb0 f   GameServerDlg.obj
 0001:00040c20       ?UpdateServerTitle@CGameServerDlg@@IAEXW4enServiceStatus@@@Z 00441c20 f   GameServerDlg.obj
 0001:00040d20       ??0CInitParameter@@QAE@XZ  00441d20 f   InitParameter.obj
 0001:00040d70       ??1CInitParameter@@UAE@XZ  00441d70 f   InitParameter.obj
 0001:00040d90       ??_GCInitParameter@@UAEPAXI@Z 00441d90 f i InitParameter.obj
 0001:00040d90       ??_ECInitParameter@@UAEPAXI@Z 00441d90 f i InitParameter.obj
 0001:00040dd0       ?InitParameter@CInitParameter@@QAEXXZ 00441dd0 f   InitParameter.obj
 0001:00040f10       ?LoadInitParameter@CInitParameter@@QAEXXZ 00441f10 f   InitParameter.obj
 0001:00041330       ?ReadMobileParameter@CInitParameter@@QAEXXZ 00442330 f   InitParameter.obj
 0001:00041570       ?SetServerParameter@CInitParameter@@QAEXPAUtagGameServiceAttrib@@PAUtagGameServiceOption@@@Z 00442570 f   InitParameter.obj
 0001:000415a0       ??1CFilterTree@@QAE@XZ     004425a0 f   SensitiveWordsFilter.obj
 0001:000415f0       ?AddSensitiveWords@CSensitiveWordsFilter@@QAE_NPB_W@Z 004425f0 f   SensitiveWordsFilter.obj
 0001:00041680       ?BuildTree@CFilterTree@@QAEXXZ 00442680 f   SensitiveWordsFilter.obj
 0001:000416e0       ?Filtrate@CFilterTree@@QAE?AV?$CStringT@_WV?$StrTraitMFC_DLL@_WV?$ChTraitsCRT@_W@ATL@@@@@ATL@@PB_W@Z 004426e0 f   SensitiveWordsFilter.obj
 0001:00041890       ?Filtrate@CSensitiveWordsFilter@@QAE?AV?$CStringT@_WV?$StrTraitMFC_DLL@_WV?$ChTraitsCRT@_W@ATL@@@@@ATL@@PB_WAAH@Z 00442890 f   SensitiveWordsFilter.obj
 0001:00041930       ?Filtrate@CSensitiveWordsFilter@@QAEXPB_WPA_WH@Z 00442930 f   SensitiveWordsFilter.obj
 0001:00041990       ?FinishAdd@CSensitiveWordsFilter@@QAEXXZ 00442990 f   SensitiveWordsFilter.obj
 0001:000419b0       ?GetAt@?$CWHArray@PAUtagPersonalTableParameter@@ABQAU1@@@QAEAAPAUtagPersonalTableParameter@@H@Z 004429b0 f i AttemperEngineSink.obj
 0001:000419b0       ?GetAt@?$CWHArray@PB_WABQB_W@@QAEAAPB_WH@Z 004429b0 f i SensitiveWordsFilter.obj
 0001:000419f0       ?GetCount@?$CWHArray@PAUIServerUserItem@@ABQAU1@@@QBEHXZ 004429f0 f i TableFrame.obj
 0001:000419f0       ?GetCount@?$CWHArray@PB_WABQB_W@@QBEHXZ 004429f0 f i SensitiveWordsFilter.obj
 0001:000419f0       ?GetCount@?$CWHArray@PAVCTableFrame@@ABQAV1@@@QBEHXZ 004429f0 f i AttemperEngineSink.obj
 0001:000419f0       ?GetCount@?$CWHArray@KABK@@QBEHXZ 004429f0 f i DBCorrespondManager.obj
 0001:000419f0       ?GetCount@?$CWHArray@PAVCGamePageItem@NServerListManager@@ABQAV12@@@QBEHXZ 004429f0 f i ServerListManager.obj
 0001:000419f0       ?GetCount@?$CWHArray@PAVCGameNodeItem@NServerListManager@@ABQAV12@@@QBEHXZ 004429f0 f i ServerListManager.obj
 0001:000419f0       ?GetCount@?$CWHArray@PAVCGameServerItem@NServerListManager@@ABQAV12@@@QBEHXZ 004429f0 f i ServerListManager.obj
 0001:000419f0       ?GetCount@?$CWHArray@UtagDistributeInfo@@ABU1@@@QBEHXZ 004429f0 f i AttemperEngineSink.obj
 0001:000419f0       ?GetCount@?$CWHArray@PAVCGamePropertyTypeItem@NGamePropertyListManager@@ABQAV12@@@QBEHXZ 004429f0 f i GamePropertyListManager.obj
 0001:000419f0       ?GetCount@?$CWHArray@PAVCGamePropertySubItem@NGamePropertyListManager@@ABQAV12@@@QBEHXZ 004429f0 f i GamePropertyListManager.obj
 0001:000419f0       ?GetCount@?$CWHArray@PAVCGamePropertyItem@NGamePropertyListManager@@ABQAV12@@@QBEHXZ 004429f0 f i GamePropertyListManager.obj
 0001:000419f0       ?GetCount@?$CWHArray@PAVCGameTypeItem@NServerListManager@@ABQAV12@@@QBEHXZ 004429f0 f i ServerListManager.obj
 0001:000419f0       ?GetCount@?$CWHArray@PAVCGameKindItem@NServerListManager@@ABQAV12@@@QBEHXZ 004429f0 f i ServerListManager.obj
 0001:000419f0       ?GetCount@?$CWHArray@PAUtagGroupScoreRecord@@ABQAU1@@@QBEHXZ 004429f0 f i TableFrame.obj
 0001:000419f0       ?GetCount@?$CWHArray@PAUtagGameScoreRecord@@ABQAU1@@@QBEHXZ 004429f0 f i TableFrame.obj
 0001:000419f0       ?GetCount@?$CWHArray@PAUtagPersonalTableParameter@@ABQAU1@@@QBEHXZ 004429f0 f i AttemperEngineSink.obj
 0001:000419f0       ?GetCount@?$CWHArray@PAVCGamePropertyRelatItem@NGamePropertyListManager@@ABQAV12@@@QBEHXZ 004429f0 f i GamePropertyListManager.obj
 0001:00041a10       ?Reset@CFilterTree@@QAEXXZ 00442a10 f   SensitiveWordsFilter.obj
 0001:00041ad0       ?ResetSensitiveWordArray@CSensitiveWordsFilter@@QAEXXZ 00442ad0 f   SensitiveWordsFilter.obj
 0001:00041af0       ??0?$CMap@GGPAVCGameKindItem@NServerListManager@@AAPAV12@@@QAE@H@Z 00442af0 f i ServerListManager.obj
 0001:00041b60       ??0?$CMap@GGPAVCGameNodeItem@NServerListManager@@AAPAV12@@@QAE@H@Z 00442b60 f i ServerListManager.obj
 0001:00041bd0       ??0?$CMap@GGPAVCGamePageItem@NServerListManager@@AAPAV12@@@QAE@H@Z 00442bd0 f i ServerListManager.obj
 0001:00041c40       ??0?$CMap@GGPAVCGameServerItem@NServerListManager@@AAPAV12@@@QAE@H@Z 00442c40 f i ServerListManager.obj
 0001:00041cb0       ??0?$CMap@GGPAVCGameTypeItem@NServerListManager@@AAPAV12@@@QAE@H@Z 00442cb0 f i ServerListManager.obj
 0001:00041d20       ??0?$CWHArray@PAVCGameKindItem@NServerListManager@@ABQAV12@@@QAE@XZ 00442d20 f i ServerListManager.obj
 0001:00041d70       ??0?$CWHArray@PAVCGameNodeItem@NServerListManager@@ABQAV12@@@QAE@XZ 00442d70 f i ServerListManager.obj
 0001:00041dc0       ??0?$CWHArray@PAVCGamePageItem@NServerListManager@@ABQAV12@@@QAE@XZ 00442dc0 f i ServerListManager.obj
 0001:00041e10       ??0?$CWHArray@PAVCGameServerItem@NServerListManager@@ABQAV12@@@QAE@XZ 00442e10 f i ServerListManager.obj
 0001:00041e60       ??0?$CWHArray@PAVCGameTypeItem@NServerListManager@@ABQAV12@@@QAE@XZ 00442e60 f i ServerListManager.obj
 0001:00041eb0       ??0CAssoc@?$CMap@GGPAVCGameKindItem@NServerListManager@@AAPAV12@@@QAE@G@Z 00442eb0 f i ServerListManager.obj
 0001:00041eb0       ??0CAssoc@?$CMap@GGPAVCGamePageItem@NServerListManager@@AAPAV12@@@QAE@G@Z 00442eb0 f i ServerListManager.obj
 0001:00041eb0       ??0CAssoc@?$CMap@GGUtagTaskConfigInfo@@AAU1@@@QAE@G@Z 00442eb0 f i AttemperEngineSink.obj
 0001:00041eb0       ??0CAssoc@?$CMap@GGPAVCGameServerItem@NServerListManager@@AAPAV12@@@QAE@G@Z 00442eb0 f i ServerListManager.obj
 0001:00041eb0       ??0CAssoc@?$CMap@GGPAVCGameTypeItem@NServerListManager@@AAPAV12@@@QAE@G@Z 00442eb0 f i ServerListManager.obj
 0001:00041eb0       ??0CAssoc@?$CMap@GGPAVCGameNodeItem@NServerListManager@@AAPAV12@@@QAE@G@Z 00442eb0 f i ServerListManager.obj
 0001:00041ee0       ??0CGamePropertyListItem@NGamePropertyListManager@@IAE@XZ 00442ee0 f i GamePropertyListManager.obj
 0001:00041ee0       ??0CGameListItem@NServerListManager@@IAE@XZ 00442ee0 f i ServerListManager.obj
 0001:00041f00       ??0CGameServerItem@NServerListManager@@QAE@XZ 00442f00 f   ServerListManager.obj
 0001:00041f40       ??0CPair@?$CMap@GGPAVCGamePageItem@NServerListManager@@AAPAV12@@@IAE@G@Z 00442f40 f i ServerListManager.obj
 0001:00041f40       ??0CPair@?$CMap@GGPAVCGameServerItem@NServerListManager@@AAPAV12@@@IAE@G@Z 00442f40 f i ServerListManager.obj
 0001:00041f40       ??0CPair@?$CMap@GGPAVCGameKindItem@NServerListManager@@AAPAV12@@@IAE@G@Z 00442f40 f i ServerListManager.obj
 0001:00041f40       ??0CPair@?$CMap@GGPAVCGameTypeItem@NServerListManager@@AAPAV12@@@IAE@G@Z 00442f40 f i ServerListManager.obj
 0001:00041f40       ??0CPair@?$CMap@GGUtagTaskConfigInfo@@AAU1@@@IAE@G@Z 00442f40 f i AttemperEngineSink.obj
 0001:00041f40       ??0CPair@?$CMap@GGPAVCGameNodeItem@NServerListManager@@AAPAV12@@@IAE@G@Z 00442f40 f i ServerListManager.obj
 0001:00041f70       ??0CServerListManager@NServerListManager@@QAE@XZ 00442f70 f   ServerListManager.obj
 0001:000420c0       ??1?$CMap@GGPAVCGameKindItem@NServerListManager@@AAPAV12@@@UAE@XZ 004430c0 f i ServerListManager.obj
 0001:00042120       ??1?$CMap@GGPAVCGameNodeItem@NServerListManager@@AAPAV12@@@UAE@XZ 00443120 f i ServerListManager.obj
 0001:00042180       ??1?$CMap@GGPAVCGamePageItem@NServerListManager@@AAPAV12@@@UAE@XZ 00443180 f i ServerListManager.obj
 0001:000421e0       ??1?$CMap@GGPAVCGameServerItem@NServerListManager@@AAPAV12@@@UAE@XZ 004431e0 f i ServerListManager.obj
 0001:00042240       ??1?$CMap@GGPAVCGameTypeItem@NServerListManager@@AAPAV12@@@UAE@XZ 00443240 f i ServerListManager.obj
 0001:000422a0       ??1?$CWHArray@PAVCGameKindItem@NServerListManager@@ABQAV12@@@UAE@XZ 004432a0 f i ServerListManager.obj
 0001:00042310       ??1?$CWHArray@PAVCGameNodeItem@NServerListManager@@ABQAV12@@@UAE@XZ 00443310 f i ServerListManager.obj
 0001:00042380       ??1?$CWHArray@PAVCGamePageItem@NServerListManager@@ABQAV12@@@UAE@XZ 00443380 f i ServerListManager.obj
 0001:000423f0       ??1?$CWHArray@PAVCGameServerItem@NServerListManager@@ABQAV12@@@UAE@XZ 004433f0 f i ServerListManager.obj
 0001:00042460       ??1?$CWHArray@PAVCGameTypeItem@NServerListManager@@ABQAV12@@@UAE@XZ 00443460 f i ServerListManager.obj
 0001:000424d0       ??1CServerListManager@NServerListManager@@UAE@XZ 004434d0 f   ServerListManager.obj
 0001:00042b00       ??A?$CMap@GGPAVCGameKindItem@NServerListManager@@AAPAV12@@@QAEAAPAVCGameKindItem@NServerListManager@@G@Z 00443b00 f i ServerListManager.obj
 0001:00042b00       ??A?$CMap@GGPAVCGamePageItem@NServerListManager@@AAPAV12@@@QAEAAPAVCGamePageItem@NServerListManager@@G@Z 00443b00 f i ServerListManager.obj
 0001:00042b00       ??A?$CMap@GGPAVCGameNodeItem@NServerListManager@@AAPAV12@@@QAEAAPAVCGameNodeItem@NServerListManager@@G@Z 00443b00 f i ServerListManager.obj
 0001:00042b00       ??A?$CMap@GGPAVCGameTypeItem@NServerListManager@@AAPAV12@@@QAEAAPAVCGameTypeItem@NServerListManager@@G@Z 00443b00 f i ServerListManager.obj
 0001:00042b00       ??A?$CMap@GGPAVCGameServerItem@NServerListManager@@AAPAV12@@@QAEAAPAVCGameServerItem@NServerListManager@@G@Z 00443b00 f i ServerListManager.obj
 0001:00042bc0       ??A?$CWHArray@PAVCGamePropertyItem@NGamePropertyListManager@@ABQAV12@@@QAEAAPAVCGamePropertyItem@NGamePropertyListManager@@H@Z 00443bc0 f i GamePropertyListManager.obj
 0001:00042bc0       ??A?$CWHArray@PAVCGameTypeItem@NServerListManager@@ABQAV12@@@QAEAAPAVCGameTypeItem@NServerListManager@@H@Z 00443bc0 f i ServerListManager.obj
 0001:00042bc0       ??A?$CWHArray@PAVCGamePropertyTypeItem@NGamePropertyListManager@@ABQAV12@@@QAEAAPAVCGamePropertyTypeItem@NGamePropertyListManager@@H@Z 00443bc0 f i GamePropertyListManager.obj
 0001:00042bc0       ??A?$CWHArray@PAUtagGameScoreRecord@@ABQAU1@@@QAEAAPAUtagGameScoreRecord@@H@Z 00443bc0 f i TableFrame.obj
 0001:00042bc0       ??A?$CWHArray@PAUtagGroupScoreRecord@@ABQAU1@@@QAEAAPAUtagGroupScoreRecord@@H@Z 00443bc0 f i TableFrame.obj
 0001:00042bc0       ??A?$CWHArray@PAVCTableFrame@@ABQAV1@@@QAEAAPAVCTableFrame@@H@Z 00443bc0 f i AttemperEngineSink.obj
 0001:00042bc0       ??A?$CWHArray@PAUIServerUserItem@@ABQAU1@@@QAEAAPAUIServerUserItem@@H@Z 00443bc0 f i TableFrame.obj
 0001:00042bc0       ??A?$CWHArray@PAVCGamePropertyRelatItem@NGamePropertyListManager@@ABQAV12@@@QAEAAPAVCGamePropertyRelatItem@NGamePropertyListManager@@H@Z 00443bc0 f i GamePropertyListManager.obj
 0001:00042bc0       ??A?$CWHArray@PAVCGamePropertySubItem@NGamePropertyListManager@@ABQAV12@@@QAEAAPAVCGamePropertySubItem@NGamePropertyListManager@@H@Z 00443bc0 f i GamePropertyListManager.obj
 0001:00042bc0       ??A?$CWHArray@PAVCGameKindItem@NServerListManager@@ABQAV12@@@QAEAAPAVCGameKindItem@NServerListManager@@H@Z 00443bc0 f i ServerListManager.obj
 0001:00042bc0       ??A?$CWHArray@PAVCGamePageItem@NServerListManager@@ABQAV12@@@QAEAAPAVCGamePageItem@NServerListManager@@H@Z 00443bc0 f i ServerListManager.obj
 0001:00042bc0       ??A?$CWHArray@PAVCGameServerItem@NServerListManager@@ABQAV12@@@QAEAAPAVCGameServerItem@NServerListManager@@H@Z 00443bc0 f i ServerListManager.obj
 0001:00042bc0       ??A?$CWHArray@PAVCGameNodeItem@NServerListManager@@ABQAV12@@@QAEAAPAVCGameNodeItem@NServerListManager@@H@Z 00443bc0 f i ServerListManager.obj
 0001:00042bc0       ??A?$CWHArray@PB_WABQB_W@@QAEAAPB_WH@Z 00443bc0 f i SensitiveWordsFilter.obj
 0001:00042bc0       ??A?$CWHArray@KABK@@QAEAAKH@Z 00443bc0 f i DBCorrespondManager.obj
 0001:00042bf0       ??_G?$CMap@GGPAVCGameKindItem@NServerListManager@@AAPAV12@@@UAEPAXI@Z 00443bf0 f i ServerListManager.obj
 0001:00042bf0       ??_E?$CMap@GGPAVCGameKindItem@NServerListManager@@AAPAV12@@@UAEPAXI@Z 00443bf0 f i ServerListManager.obj
 0001:00042c40       ??_G?$CMap@GGPAVCGameNodeItem@NServerListManager@@AAPAV12@@@UAEPAXI@Z 00443c40 f i ServerListManager.obj
 0001:00042c40       ??_E?$CMap@GGPAVCGameNodeItem@NServerListManager@@AAPAV12@@@UAEPAXI@Z 00443c40 f i ServerListManager.obj
 0001:00042c90       ??_G?$CMap@GGPAVCGamePageItem@NServerListManager@@AAPAV12@@@UAEPAXI@Z 00443c90 f i ServerListManager.obj
 0001:00042c90       ??_E?$CMap@GGPAVCGamePageItem@NServerListManager@@AAPAV12@@@UAEPAXI@Z 00443c90 f i ServerListManager.obj
 0001:00042ce0       ??_G?$CMap@GGPAVCGameServerItem@NServerListManager@@AAPAV12@@@UAEPAXI@Z 00443ce0 f i ServerListManager.obj
 0001:00042ce0       ??_E?$CMap@GGPAVCGameServerItem@NServerListManager@@AAPAV12@@@UAEPAXI@Z 00443ce0 f i ServerListManager.obj
 0001:00042d30       ??_G?$CMap@GGPAVCGameTypeItem@NServerListManager@@AAPAV12@@@UAEPAXI@Z 00443d30 f i ServerListManager.obj
 0001:00042d30       ??_E?$CMap@GGPAVCGameTypeItem@NServerListManager@@AAPAV12@@@UAEPAXI@Z 00443d30 f i ServerListManager.obj
 0001:00042d80       ??_E?$CWHArray@PAVCGameKindItem@NServerListManager@@ABQAV12@@@UAEPAXI@Z 00443d80 f i ServerListManager.obj
 0001:00042d80       ??_G?$CWHArray@PAVCGameKindItem@NServerListManager@@ABQAV12@@@UAEPAXI@Z 00443d80 f i ServerListManager.obj
 0001:00042dc0       ??_E?$CWHArray@PAVCGameNodeItem@NServerListManager@@ABQAV12@@@UAEPAXI@Z 00443dc0 f i ServerListManager.obj
 0001:00042dc0       ??_G?$CWHArray@PAVCGameNodeItem@NServerListManager@@ABQAV12@@@UAEPAXI@Z 00443dc0 f i ServerListManager.obj
 0001:00042e00       ??_E?$CWHArray@PAVCGamePageItem@NServerListManager@@ABQAV12@@@UAEPAXI@Z 00443e00 f i ServerListManager.obj
 0001:00042e00       ??_G?$CWHArray@PAVCGamePageItem@NServerListManager@@ABQAV12@@@UAEPAXI@Z 00443e00 f i ServerListManager.obj
 0001:00042e40       ??_G?$CWHArray@PAVCGameServerItem@NServerListManager@@ABQAV12@@@UAEPAXI@Z 00443e40 f i ServerListManager.obj
 0001:00042e40       ??_E?$CWHArray@PAVCGameServerItem@NServerListManager@@ABQAV12@@@UAEPAXI@Z 00443e40 f i ServerListManager.obj
 0001:00042e80       ??_G?$CWHArray@PAVCGameTypeItem@NServerListManager@@ABQAV12@@@UAEPAXI@Z 00443e80 f i ServerListManager.obj
 0001:00042e80       ??_E?$CWHArray@PAVCGameTypeItem@NServerListManager@@ABQAV12@@@UAEPAXI@Z 00443e80 f i ServerListManager.obj
 0001:00042ec0       ??_GCServerListManager@NServerListManager@@UAEPAXI@Z 00443ec0 f i ServerListManager.obj
 0001:00042ec0       ??_ECServerListManager@NServerListManager@@UAEPAXI@Z 00443ec0 f i ServerListManager.obj
 0001:00042f00       ?CleanKernelItem@CServerListManager@NServerListManager@@QAEXXZ 00443f00 f   ServerListManager.obj
 0001:000430b0       ?CleanServerItem@CServerListManager@NServerListManager@@QAEXXZ 004440b0 f   ServerListManager.obj
 0001:00043190       ?DeleteGameServer@CServerListManager@NServerListManager@@QAE_NG@Z 00444190 f   ServerListManager.obj
 0001:00043240       ?DisuseKernelItem@CServerListManager@NServerListManager@@QAEXXZ 00444240 f   ServerListManager.obj
 0001:00043350       ?DisuseServerItem@CServerListManager@NServerListManager@@QAEXXZ 00444350 f   ServerListManager.obj
 0001:000433b0       ?ElementAt@?$CWHArray@KABK@@QAEAAKH@Z 004443b0 f i DBCorrespondManager.obj
 0001:000433b0       ?ElementAt@?$CWHArray@PAVCGameNodeItem@NServerListManager@@ABQAV12@@@QAEAAPAVCGameNodeItem@NServerListManager@@H@Z 004443b0 f i ServerListManager.obj
 0001:000433b0       ?ElementAt@?$CWHArray@PAUtagGameScoreRecord@@ABQAU1@@@QAEAAPAUtagGameScoreRecord@@H@Z 004443b0 f i TableFrame.obj
 0001:000433b0       ?ElementAt@?$CWHArray@PAVCGamePropertyTypeItem@NGamePropertyListManager@@ABQAV12@@@QAEAAPAVCGamePropertyTypeItem@NGamePropertyListManager@@H@Z 004443b0 f i GamePropertyListManager.obj
 0001:000433b0       ?ElementAt@?$CWHArray@PAVCGameTypeItem@NServerListManager@@ABQAV12@@@QAEAAPAVCGameTypeItem@NServerListManager@@H@Z 004443b0 f i ServerListManager.obj
 0001:000433b0       ?ElementAt@?$CWHArray@PAVCGamePropertyItem@NGamePropertyListManager@@ABQAV12@@@QAEAAPAVCGamePropertyItem@NGamePropertyListManager@@H@Z 004443b0 f i GamePropertyListManager.obj
 0001:000433b0       ?ElementAt@?$CWHArray@PAVCGamePropertySubItem@NGamePropertyListManager@@ABQAV12@@@QAEAAPAVCGamePropertySubItem@NGamePropertyListManager@@H@Z 004443b0 f i GamePropertyListManager.obj
 0001:000433b0       ?ElementAt@?$CWHArray@PAUIServerUserItem@@ABQAU1@@@QAEAAPAUIServerUserItem@@H@Z 004443b0 f i TableFrame.obj
 0001:000433b0       ?ElementAt@?$CWHArray@PB_WABQB_W@@QAEAAPB_WH@Z 004443b0 f i SensitiveWordsFilter.obj
 0001:000433b0       ?ElementAt@?$CWHArray@PAVCGameKindItem@NServerListManager@@ABQAV12@@@QAEAAPAVCGameKindItem@NServerListManager@@H@Z 004443b0 f i ServerListManager.obj
 0001:000433b0       ?ElementAt@?$CWHArray@PAVCGameServerItem@NServerListManager@@ABQAV12@@@QAEAAPAVCGameServerItem@NServerListManager@@H@Z 004443b0 f i ServerListManager.obj
 0001:000433b0       ?ElementAt@?$CWHArray@PAVCGamePageItem@NServerListManager@@ABQAV12@@@QAEAAPAVCGamePageItem@NServerListManager@@H@Z 004443b0 f i ServerListManager.obj
 0001:000433b0       ?ElementAt@?$CWHArray@PAVCGamePropertyRelatItem@NGamePropertyListManager@@ABQAV12@@@QAEAAPAVCGamePropertyRelatItem@NGamePropertyListManager@@H@Z 004443b0 f i GamePropertyListManager.obj
 0001:000433b0       ?ElementAt@?$CWHArray@PAVCTableFrame@@ABQAV1@@@QAEAAPAVCTableFrame@@H@Z 004443b0 f i AttemperEngineSink.obj
 0001:000433b0       ?ElementAt@?$CWHArray@PAUtagGroupScoreRecord@@ABQAU1@@@QAEAAPAUtagGroupScoreRecord@@H@Z 004443b0 f i TableFrame.obj
 0001:000433f0       ?FreeAssoc@?$CMap@GGPAVCGameTypeItem@NServerListManager@@AAPAV12@@@IAEXPAVCAssoc@1@@Z 004443f0 f i ServerListManager.obj
 0001:000433f0       ?FreeAssoc@?$CMap@KKKAAK@@IAEXPAVCAssoc@1@@Z 004443f0 f i AttemperEngineSink.obj
 0001:000433f0       ?FreeAssoc@?$CMap@GGPAVCGameKindItem@NServerListManager@@AAPAV12@@@IAEXPAVCAssoc@1@@Z 004443f0 f i ServerListManager.obj
 0001:000433f0       ?FreeAssoc@?$CMap@GGPAVCGameNodeItem@NServerListManager@@AAPAV12@@@IAEXPAVCAssoc@1@@Z 004443f0 f i ServerListManager.obj
 0001:000433f0       ?FreeAssoc@?$CMap@GGPAVCGamePageItem@NServerListManager@@AAPAV12@@@IAEXPAVCAssoc@1@@Z 004443f0 f i ServerListManager.obj
 0001:000433f0       ?FreeAssoc@?$CMap@GGPAVCGameServerItem@NServerListManager@@AAPAV12@@@IAEXPAVCAssoc@1@@Z 004443f0 f i ServerListManager.obj
 0001:00043440       ?GetAssocAt@?$CMap@GGPAVCGameTypeItem@NServerListManager@@AAPAV12@@@IBEPAVCAssoc@1@GAAI0@Z 00444440 f i ServerListManager.obj
 0001:00043440       ?GetAssocAt@?$CMap@GGPAVCGameServerItem@NServerListManager@@AAPAV12@@@IBEPAVCAssoc@1@GAAI0@Z 00444440 f i ServerListManager.obj
 0001:00043440       ?GetAssocAt@?$CMap@GGPAVCGameKindItem@NServerListManager@@AAPAV12@@@IBEPAVCAssoc@1@GAAI0@Z 00444440 f i ServerListManager.obj
 0001:00043440       ?GetAssocAt@?$CMap@GGPAVCGamePageItem@NServerListManager@@AAPAV12@@@IBEPAVCAssoc@1@GAAI0@Z 00444440 f i ServerListManager.obj
 0001:00043440       ?GetAssocAt@?$CMap@GGPAVCGameNodeItem@NServerListManager@@AAPAV12@@@IBEPAVCAssoc@1@GAAI0@Z 00444440 f i ServerListManager.obj
 0001:000434d0       ?GetNextAssoc@?$CMap@GGPAVCGameServerItem@NServerListManager@@AAPAV12@@@QBEXAAPAU__POSITION@@AAGAAPAVCGameServerItem@NServerListManager@@@Z 004444d0 f i ServerListManager.obj
 0001:000434d0       ?GetNextAssoc@?$CMap@GGPAVCGameNodeItem@NServerListManager@@AAPAV12@@@QBEXAAPAU__POSITION@@AAGAAPAVCGameNodeItem@NServerListManager@@@Z 004444d0 f i ServerListManager.obj
 0001:000434d0       ?GetNextAssoc@?$CMap@GGPAVCGamePageItem@NServerListManager@@AAPAV12@@@QBEXAAPAU__POSITION@@AAGAAPAVCGamePageItem@NServerListManager@@@Z 004444d0 f i ServerListManager.obj
 0001:000434d0       ?GetNextAssoc@?$CMap@GGPAVCGameKindItem@NServerListManager@@AAPAV12@@@QBEXAAPAU__POSITION@@AAGAAPAVCGameKindItem@NServerListManager@@@Z 004444d0 f i ServerListManager.obj
 0001:000434d0       ?GetNextAssoc@?$CMap@GGPAVCGameTypeItem@NServerListManager@@AAPAV12@@@QBEXAAPAU__POSITION@@AAGAAPAVCGameTypeItem@NServerListManager@@@Z 004444d0 f i ServerListManager.obj
 0001:00043620       ?InitHashTable@?$CMap@GGUtagTaskConfigInfo@@AAU1@@@QAEXIH@Z 00444620 f i AttemperEngineSink.obj
 0001:00043620       ?InitHashTable@?$CMap@KKPAVCGamePropertyTypeItem@NGamePropertyListManager@@AAPAV12@@@QAEXIH@Z 00444620 f i GamePropertyListManager.obj
 0001:00043620       ?InitHashTable@?$CMap@GGPAVCGameNodeItem@NServerListManager@@AAPAV12@@@QAEXIH@Z 00444620 f i ServerListManager.obj
 0001:00043620       ?InitHashTable@?$CMap@KKPAVCGamePropertyRelatItem@NGamePropertyListManager@@AAPAV12@@@QAEXIH@Z 00444620 f i GamePropertyListManager.obj
 0001:00043620       ?InitHashTable@?$CMap@GGPAVCGameKindItem@NServerListManager@@AAPAV12@@@QAEXIH@Z 00444620 f i ServerListManager.obj
 0001:00043620       ?InitHashTable@?$CMap@KKPAVCGamePropertySubItem@NGamePropertyListManager@@AAPAV12@@@QAEXIH@Z 00444620 f i GamePropertyListManager.obj
 0001:00043620       ?InitHashTable@?$CMap@KKKAAK@@QAEXIH@Z 00444620 f i AttemperEngineSink.obj
 0001:00043620       ?InitHashTable@?$CMap@KK_JAA_J@@QAEXIH@Z 00444620 f i TableFrame.obj
 0001:00043620       ?InitHashTable@?$CMap@GGPAVCGameServerItem@NServerListManager@@AAPAV12@@@QAEXIH@Z 00444620 f i ServerListManager.obj
 0001:00043620       ?InitHashTable@?$CMap@GGPAVCGameTypeItem@NServerListManager@@AAPAV12@@@QAEXIH@Z 00444620 f i ServerListManager.obj
 0001:00043620       ?InitHashTable@?$CMap@GGPAVCGamePageItem@NServerListManager@@AAPAV12@@@QAEXIH@Z 00444620 f i ServerListManager.obj
 0001:00043620       ?InitHashTable@?$CMap@KKPAVCGamePropertyItem@NGamePropertyListManager@@AAPAV12@@@QAEXIH@Z 00444620 f i GamePropertyListManager.obj
 0001:000436e0       ?InsertGameServer@CServerListManager@NServerListManager@@QAE_NPAUtagGameServer@@@Z 004446e0 f   ServerListManager.obj
 0001:000439e0       ?Lookup@?$CMap@GGPAVCGameServerItem@NServerListManager@@AAPAV12@@@QBEHGAAPAVCGameServerItem@NServerListManager@@@Z 004449e0 f i ServerListManager.obj
 0001:000439e0       ?Lookup@?$CMap@GGPAVCGameKindItem@NServerListManager@@AAPAV12@@@QBEHGAAPAVCGameKindItem@NServerListManager@@@Z 004449e0 f i ServerListManager.obj
 0001:00043a30       ?NewAssoc@?$CMap@GGPAVCGameNodeItem@NServerListManager@@AAPAV12@@@IAEPAVCAssoc@1@G@Z 00444a30 f i ServerListManager.obj
 0001:00043a30       ?NewAssoc@?$CMap@GGPAVCGameTypeItem@NServerListManager@@AAPAV12@@@IAEPAVCAssoc@1@G@Z 00444a30 f i ServerListManager.obj
 0001:00043a30       ?NewAssoc@?$CMap@GGPAVCGamePageItem@NServerListManager@@AAPAV12@@@IAEPAVCAssoc@1@G@Z 00444a30 f i ServerListManager.obj
 0001:00043a30       ?NewAssoc@?$CMap@GGPAVCGameKindItem@NServerListManager@@AAPAV12@@@IAEPAVCAssoc@1@G@Z 00444a30 f i ServerListManager.obj
 0001:00043a30       ?NewAssoc@?$CMap@GGPAVCGameServerItem@NServerListManager@@AAPAV12@@@IAEPAVCAssoc@1@G@Z 00444a30 f i ServerListManager.obj
 0001:00043bb0       ?RemoveAll@?$CWHArray@PB_WABQB_W@@QAEXXZ 00444bb0 f i SensitiveWordsFilter.obj
 0001:00043bb0       ?RemoveAll@?$CWHArray@PAVCGamePropertySubItem@NGamePropertyListManager@@ABQAV12@@@QAEXXZ 00444bb0 f i GamePropertyListManager.obj
 0001:00043bb0       ?RemoveAll@?$CWHArray@PAVCTableFrame@@ABQAV1@@@QAEXXZ 00444bb0 f i AttemperEngineSink.obj
 0001:00043bb0       ?RemoveAll@?$CWHArray@PAUtagGroupScoreRecord@@ABQAU1@@@QAEXXZ 00444bb0 f i TableFrame.obj
 0001:00043bb0       ?RemoveAll@?$CWHArray@PAVCGamePropertyTypeItem@NGamePropertyListManager@@ABQAV12@@@QAEXXZ 00444bb0 f i GamePropertyListManager.obj
 0001:00043bb0       ?RemoveAll@?$CWHArray@PAVCGamePropertyRelatItem@NGamePropertyListManager@@ABQAV12@@@QAEXXZ 00444bb0 f i GamePropertyListManager.obj
 0001:00043bb0       ?RemoveAll@?$CWHArray@KABK@@QAEXXZ 00444bb0 f i DBCorrespondManager.obj
 0001:00043bb0       ?RemoveAll@?$CWHArray@PAVCGameTypeItem@NServerListManager@@ABQAV12@@@QAEXXZ 00444bb0 f i ServerListManager.obj
 0001:00043bb0       ?RemoveAll@?$CWHArray@PAVCGameNodeItem@NServerListManager@@ABQAV12@@@QAEXXZ 00444bb0 f i ServerListManager.obj
 0001:00043bb0       ?RemoveAll@?$CWHArray@PAVCGamePageItem@NServerListManager@@ABQAV12@@@QAEXXZ 00444bb0 f i ServerListManager.obj
 0001:00043bb0       ?RemoveAll@?$CWHArray@PAUtagGameScoreRecord@@ABQAU1@@@QAEXXZ 00444bb0 f i TableFrame.obj
 0001:00043bb0       ?RemoveAll@?$CWHArray@PAVCGamePropertyItem@NGamePropertyListManager@@ABQAV12@@@QAEXXZ 00444bb0 f i GamePropertyListManager.obj
 0001:00043bb0       ?RemoveAll@?$CWHArray@PAVCGameServerItem@NServerListManager@@ABQAV12@@@QAEXXZ 00444bb0 f i ServerListManager.obj
 0001:00043bb0       ?RemoveAll@?$CWHArray@PAUtagPersonalTableParameter@@ABQAU1@@@QAEXXZ 00444bb0 f i AttemperEngineSink.obj
 0001:00043bb0       ?RemoveAll@?$CWHArray@PAVCGameKindItem@NServerListManager@@ABQAV12@@@QAEXXZ 00444bb0 f i ServerListManager.obj
 0001:00043c10       ?RemoveKey@?$CMap@GGPAVCGameTypeItem@NServerListManager@@AAPAV12@@@QAEHG@Z 00444c10 f i ServerListManager.obj
 0001:00043c10       ?RemoveKey@?$CMap@GGPAVCGameKindItem@NServerListManager@@AAPAV12@@@QAEHG@Z 00444c10 f i ServerListManager.obj
 0001:00043c10       ?RemoveKey@?$CMap@GGPAVCGamePageItem@NServerListManager@@AAPAV12@@@QAEHG@Z 00444c10 f i ServerListManager.obj
 0001:00043c10       ?RemoveKey@?$CMap@GGPAVCGameNodeItem@NServerListManager@@AAPAV12@@@QAEHG@Z 00444c10 f i ServerListManager.obj
 0001:00043c10       ?RemoveKey@?$CMap@GGPAVCGameServerItem@NServerListManager@@AAPAV12@@@QAEHG@Z 00444c10 f i ServerListManager.obj
 0001:00043cc0       ?ResetServerList@CServerListManager@NServerListManager@@QAEXXZ 00444cc0 f   ServerListManager.obj
 0001:00043d00       ?SearchGameServer@CServerListManager@NServerListManager@@QAEPAVCGameServerItem@2@G@Z 00444d00 f   ServerListManager.obj
 0001:00043d40       ?Serialize@?$CMap@GGPAVCGamePageItem@NServerListManager@@AAPAV12@@@UAEXAAVCArchive@@@Z 00444d40 f i ServerListManager.obj
 0001:00043d40       ?Serialize@?$CMap@GGPAVCGameServerItem@NServerListManager@@AAPAV12@@@UAEXAAVCArchive@@@Z 00444d40 f i ServerListManager.obj
 0001:00043d40       ?Serialize@?$CMap@GGPAVCGameTypeItem@NServerListManager@@AAPAV12@@@UAEXAAVCArchive@@@Z 00444d40 f i ServerListManager.obj
 0001:00043d40       ?Serialize@?$CMap@GGPAVCGameKindItem@NServerListManager@@AAPAV12@@@UAEXAAVCArchive@@@Z 00444d40 f i ServerListManager.obj
 0001:00043d40       ?Serialize@?$CMap@GGPAVCGameNodeItem@NServerListManager@@AAPAV12@@@UAEXAAVCArchive@@@Z 00444d40 f i ServerListManager.obj
 0001:00043e70       ?SetAt@?$CMap@GGPAVCGameServerItem@NServerListManager@@AAPAV12@@@QAEXGAAPAVCGameServerItem@NServerListManager@@@Z 00444e70 f i ServerListManager.obj
 0001:00043e70       ?SetAt@?$CMap@GGPAVCGamePageItem@NServerListManager@@AAPAV12@@@QAEXGAAPAVCGamePageItem@NServerListManager@@@Z 00444e70 f i ServerListManager.obj
 0001:00043e70       ?SetAt@?$CMap@GGPAVCGameTypeItem@NServerListManager@@AAPAV12@@@QAEXGAAPAVCGameTypeItem@NServerListManager@@@Z 00444e70 f i ServerListManager.obj
 0001:00043e70       ?SetAt@?$CMap@GGPAVCGameKindItem@NServerListManager@@AAPAV12@@@QAEXGAAPAVCGameKindItem@NServerListManager@@@Z 00444e70 f i ServerListManager.obj
 0001:00043e70       ?SetAt@?$CMap@GGPAVCGameNodeItem@NServerListManager@@AAPAV12@@@QAEXGAAPAVCGameNodeItem@NServerListManager@@@Z 00444e70 f i ServerListManager.obj
 0001:00043ea0       ?OnUIControlRequest@CServiceUnits@@IAEJIJ@Z 00444ea0 f   ServiceUnits.obj
 0001:00044390       ??0?$CTempldateHelper@UIAttemperEngine@@@@QAE@ABU_GUID@@KPB_WPBD@Z 00445390 f i ServiceUnits.obj
 0001:00044420       ??0?$CTempldateHelper@UIDataBaseEngine@@@@QAE@ABU_GUID@@KPB_WPBD@Z 00445420 f i ServiceUnits.obj
 0001:000444b0       ??0?$CTempldateHelper@UIMatchServiceManager@@@@QAE@ABU_GUID@@KPB_WPBD@Z 004454b0 f i ServiceUnits.obj
 0001:00044540       ??0?$CTempldateHelper@UIPersonalRoomServiceManager@@@@QAE@ABU_GUID@@KPB_WPBD@Z 00445540 f i ServiceUnits.obj
 0001:000445d0       ??0?$CTempldateHelper@UITCPNetworkEngine@@@@QAE@ABU_GUID@@KPB_WPBD@Z 004455d0 f i ServiceUnits.obj
 0001:00044660       ??0?$CTempldateHelper@UITCPSocketService@@@@QAE@ABU_GUID@@KPB_WPBD@Z 00445660 f i ServiceUnits.obj
 0001:000446f0       ??0?$CTempldateHelper@UITimerEngine@@@@QAE@ABU_GUID@@KPB_WPBD@Z 004456f0 f i ServiceUnits.obj
 0001:00044780       ??0CAttemperEngineHelper@@QAE@XZ 00445780 f i ServiceUnits.obj
 0001:000447c0       ??0CDataBaseEngineHelper@@QAE@XZ 004457c0 f i ServiceUnits.obj
 0001:00044800       ??0CMatchServiceManagerHelper@@QAE@XZ 00445800 f i ServiceUnits.obj
 0001:00044840       ??0CPersonalRoomServiceManagerHelper@@QAE@XZ 00445840 f i ServiceUnits.obj
 0001:00044880       ??0CRect@@QAE@HHHH@Z       00445880 f i ServiceUnits.obj
 0001:000448c0       ??0CServiceUnits@@QAE@XZ   004458c0 f   ServiceUnits.obj
 0001:00044b40       ??0CTCPNetworkEngineHelper@@QAE@XZ 00445b40 f i ServiceUnits.obj
 0001:00044b80       ??0CTCPSocketServiceHelper@@QAE@XZ 00445b80 f i ServiceUnits.obj
 0001:00044bc0       ??0CTimerEngineHelper@@QAE@XZ 00445bc0 f i ServiceUnits.obj
 0001:00044c00       ??1?$CTempldateHelper@UIAttemperEngine@@@@UAE@XZ 00445c00 f i ServiceUnits.obj
 0001:00044c50       ??1?$CTempldateHelper@UIDataBaseEngine@@@@UAE@XZ 00445c50 f i ServiceUnits.obj
 0001:00044ca0       ??1?$CTempldateHelper@UIMatchServiceManager@@@@UAE@XZ 00445ca0 f i ServiceUnits.obj
 0001:00044cf0       ??1?$CTempldateHelper@UIPersonalRoomServiceManager@@@@UAE@XZ 00445cf0 f i ServiceUnits.obj
 0001:00044d40       ??1?$CTempldateHelper@UITCPNetworkEngine@@@@UAE@XZ 00445d40 f i ServiceUnits.obj
 0001:00044d90       ??1?$CTempldateHelper@UITCPSocketService@@@@UAE@XZ 00445d90 f i ServiceUnits.obj
 0001:00044de0       ??1?$CTempldateHelper@UITimerEngine@@@@UAE@XZ 00445de0 f i ServiceUnits.obj
 0001:00044e30       ??1CAttemperEngineHelper@@UAE@XZ 00445e30 f i ServiceUnits.obj
 0001:00044e50       ??1CDataBaseEngineHelper@@UAE@XZ 00445e50 f i ServiceUnits.obj
 0001:00044e70       ??1CMatchServiceManagerHelper@@UAE@XZ 00445e70 f i ServiceUnits.obj
 0001:00044e90       ??1CPersonalRoomServiceManagerHelper@@UAE@XZ 00445e90 f i ServiceUnits.obj
 0001:00044eb0       ??1CServiceUnits@@UAE@XZ   00445eb0 f   ServiceUnits.obj
 0001:00045030       ??1CTCPNetworkEngineHelper@@UAE@XZ 00446030 f i ServiceUnits.obj
 0001:00045050       ??1CTCPSocketServiceHelper@@UAE@XZ 00446050 f i ServiceUnits.obj
 0001:00045070       ??1CTimerEngineHelper@@UAE@XZ 00446070 f i ServiceUnits.obj
 0001:00045090       ??C?$CTempldateHelper@UITCPNetworkEngine@@@@QBEPAUITCPNetworkEngine@@XZ 00446090 f i AttemperEngineSink.obj
 0001:00045090       ??C?$CTempldateHelper@UIDataBaseEngine@@@@QBEPAUIDataBaseEngine@@XZ 00446090 f i ServiceUnits.obj
 0001:00045090       ??C?$CTempldateHelper@UITimerEngine@@@@QBEPAUITimerEngine@@XZ 00446090 f i ServiceUnits.obj
 0001:00045090       ??C?$CTempldateHelper@UIMatchServiceManager@@@@QBEPAUIMatchServiceManager@@XZ 00446090 f i ServiceUnits.obj
 0001:00045090       ??C?$CTempldateHelper@UIAttemperEngine@@@@QBEPAUIAttemperEngine@@XZ 00446090 f i ServiceUnits.obj
 0001:00045090       ??C?$CTempldateHelper@UIDataBase@@@@QBEPAUIDataBase@@XZ 00446090 f i DataBaseEngineSink.obj
 0001:00045090       ??C?$CTempldateHelper@UITCPSocketService@@@@QBEPAUITCPSocketService@@XZ 00446090 f i DataBaseEngineSink.obj
 0001:00045090       ??C?$CTempldateHelper@UIPersonalRoomServiceManager@@@@QBEPAUIPersonalRoomServiceManager@@XZ 00446090 f i ServiceUnits.obj
 0001:00045090       ??C?$CTempldateHelper@UIGameServiceManager@@@@QBEPAUIGameServiceManager@@XZ 00446090 f i ServiceUnits.obj
 0001:000450b0       ??_E?$CTempldateHelper@UIAttemperEngine@@@@UAEPAXI@Z 004460b0 f i ServiceUnits.obj
 0001:000450b0       ??_G?$CTempldateHelper@UIAttemperEngine@@@@UAEPAXI@Z 004460b0 f i ServiceUnits.obj
 0001:000450f0       ??_E?$CTempldateHelper@UIDataBaseEngine@@@@UAEPAXI@Z 004460f0 f i ServiceUnits.obj
 0001:000450f0       ??_G?$CTempldateHelper@UIDataBaseEngine@@@@UAEPAXI@Z 004460f0 f i ServiceUnits.obj
 0001:00045130       ??_E?$CTempldateHelper@UIMatchServiceManager@@@@UAEPAXI@Z 00446130 f i ServiceUnits.obj
 0001:00045130       ??_G?$CTempldateHelper@UIMatchServiceManager@@@@UAEPAXI@Z 00446130 f i ServiceUnits.obj
 0001:00045170       ??_G?$CTempldateHelper@UIPersonalRoomServiceManager@@@@UAEPAXI@Z 00446170 f i ServiceUnits.obj
 0001:00045170       ??_E?$CTempldateHelper@UIPersonalRoomServiceManager@@@@UAEPAXI@Z 00446170 f i ServiceUnits.obj
 0001:000451b0       ??_E?$CTempldateHelper@UITCPNetworkEngine@@@@UAEPAXI@Z 004461b0 f i ServiceUnits.obj
 0001:000451b0       ??_G?$CTempldateHelper@UITCPNetworkEngine@@@@UAEPAXI@Z 004461b0 f i ServiceUnits.obj
 0001:000451f0       ??_E?$CTempldateHelper@UITCPSocketService@@@@UAEPAXI@Z 004461f0 f i ServiceUnits.obj
 0001:000451f0       ??_G?$CTempldateHelper@UITCPSocketService@@@@UAEPAXI@Z 004461f0 f i ServiceUnits.obj
 0001:00045230       ??_G?$CTempldateHelper@UITimerEngine@@@@UAEPAXI@Z 00446230 f i ServiceUnits.obj
 0001:00045230       ??_E?$CTempldateHelper@UITimerEngine@@@@UAEPAXI@Z 00446230 f i ServiceUnits.obj
 0001:00045270       ??_ECAttemperEngineHelper@@UAEPAXI@Z 00446270 f i ServiceUnits.obj
 0001:00045270       ??_GCAttemperEngineHelper@@UAEPAXI@Z 00446270 f i ServiceUnits.obj
 0001:000452b0       ??_GCDataBaseEngineHelper@@UAEPAXI@Z 004462b0 f i ServiceUnits.obj
 0001:000452b0       ??_ECDataBaseEngineHelper@@UAEPAXI@Z 004462b0 f i ServiceUnits.obj
 0001:000452f0       ??_ECMatchServiceManagerHelper@@UAEPAXI@Z 004462f0 f i ServiceUnits.obj
 0001:000452f0       ??_GCMatchServiceManagerHelper@@UAEPAXI@Z 004462f0 f i ServiceUnits.obj
 0001:00045330       ??_ECPersonalRoomServiceManagerHelper@@UAEPAXI@Z 00446330 f i ServiceUnits.obj
 0001:00045330       ??_GCPersonalRoomServiceManagerHelper@@UAEPAXI@Z 00446330 f i ServiceUnits.obj
 0001:00045370       ??_ECServiceUnits@@UAEPAXI@Z 00446370 f i ServiceUnits.obj
 0001:00045370       ??_GCServiceUnits@@UAEPAXI@Z 00446370 f i ServiceUnits.obj
 0001:000453c0       ??_ECTCPNetworkEngineHelper@@UAEPAXI@Z 004463c0 f i ServiceUnits.obj
 0001:000453c0       ??_GCTCPNetworkEngineHelper@@UAEPAXI@Z 004463c0 f i ServiceUnits.obj
 0001:00045400       ??_GCTCPSocketServiceHelper@@UAEPAXI@Z 00446400 f i ServiceUnits.obj
 0001:00045400       ??_ECTCPSocketServiceHelper@@UAEPAXI@Z 00446400 f i ServiceUnits.obj
 0001:00045440       ??_ECTimerEngineHelper@@UAEPAXI@Z 00446440 f i ServiceUnits.obj
 0001:00045440       ??_GCTimerEngineHelper@@UAEPAXI@Z 00446440 f i ServiceUnits.obj
 0001:00045480       ?AfxGetMainWnd@@YGPAVCWnd@@XZ 00446480 f i ServiceUnits.obj
 0001:00045530       ?CloseInstance@?$CTempldateHelper@UIPersonalRoomServiceManager@@@@QAE_NXZ 00446530 f i ServiceUnits.obj
 0001:00045530       ?CloseInstance@?$CTempldateHelper@UIDataBase@@@@QAE_NXZ 00446530 f i DataBaseEngineSink.obj
 0001:00045530       ?CloseInstance@?$CTempldateHelper@UITimerEngine@@@@QAE_NXZ 00446530 f i ServiceUnits.obj
 0001:00045530       ?CloseInstance@?$CTempldateHelper@UIMatchServiceManager@@@@QAE_NXZ 00446530 f i ServiceUnits.obj
 0001:00045530       ?CloseInstance@?$CTempldateHelper@UIDataBaseEngine@@@@QAE_NXZ 00446530 f i ServiceUnits.obj
 0001:00045530       ?CloseInstance@?$CTempldateHelper@UIGameServiceManager@@@@QAE_NXZ 00446530 f i GameServerDlg.obj
 0001:00045530       ?CloseInstance@?$CTempldateHelper@UITCPSocketService@@@@QAE_NXZ 00446530 f i ServiceUnits.obj
 0001:00045530       ?CloseInstance@?$CTempldateHelper@UIAttemperEngine@@@@QAE_NXZ 00446530 f i ServiceUnits.obj
 0001:00045530       ?CloseInstance@?$CTempldateHelper@UITCPNetworkEngine@@@@QAE_NXZ 00446530 f i ServiceUnits.obj
 0001:000455c0       ?CollocateService@CServiceUnits@@QAE_NAAUtagGameMatchOption@@@Z 004465c0 f   ServiceUnits.obj
 0001:00045600       ?CollocateService@CServiceUnits@@QAE_NPB_WAAUtagGameServiceOption@@@Z 00446600 f   ServiceUnits.obj
 0001:00045660       ?ConcludeService@CServiceUnits@@QAE_NXZ 00446660 f   ServiceUnits.obj
 0001:00045a30       ?ConnectPlatformDB@CServiceUnits@@AAE_NAAVCDataBaseHelper@@@Z 00446a30 f   ServiceUnits.obj
 0001:00045af0       ?CreateInstance@?$CTempldateHelper@UITCPNetworkEngine@@@@QAE_NXZ 00446af0 f i ServiceUnits.obj
 0001:00045af0       ?CreateInstance@?$CTempldateHelper@UIDataBase@@@@QAE_NXZ 00446af0 f i DataBaseEngineSink.obj
 0001:00045af0       ?CreateInstance@?$CTempldateHelper@UITimerEngine@@@@QAE_NXZ 00446af0 f i ServiceUnits.obj
 0001:00045af0       ?CreateInstance@?$CTempldateHelper@UITCPSocketService@@@@QAE_NXZ 00446af0 f i ServiceUnits.obj
 0001:00045af0       ?CreateInstance@?$CTempldateHelper@UIAttemperEngine@@@@QAE_NXZ 00446af0 f i ServiceUnits.obj
 0001:00045af0       ?CreateInstance@?$CTempldateHelper@UIDataBaseEngine@@@@QAE_NXZ 00446af0 f i ServiceUnits.obj
 0001:00045af0       ?CreateInstance@?$CTempldateHelper@UIPersonalRoomServiceManager@@@@QAE_NXZ 00446af0 f i ServiceUnits.obj
 0001:00045af0       ?CreateInstance@?$CTempldateHelper@UIMatchServiceManager@@@@QAE_NXZ 00446af0 f i ServiceUnits.obj
 0001:00045af0       ?CreateInstance@?$CTempldateHelper@UIGameServiceManager@@@@QAE_NXZ 00446af0 f i GameServerDlg.obj
 0001:00045cd0       ?CreateServiceDLL@CServiceUnits@@IAE_NXZ 00446cd0 f   ServiceUnits.obj
 0001:00046070       ?GetErrorDescribe@?$CTempldateHelper@UIDataBaseEngine@@@@QBEPB_WXZ 00447070 f i ServiceUnits.obj
 0001:00046070       ?GetErrorDescribe@?$CTempldateHelper@UITCPNetworkEngine@@@@QBEPB_WXZ 00447070 f i ServiceUnits.obj
 0001:00046070       ?GetErrorDescribe@?$CTempldateHelper@UIAttemperEngine@@@@QBEPB_WXZ 00447070 f i ServiceUnits.obj
 0001:00046070       ?GetErrorDescribe@?$CTempldateHelper@UITCPSocketService@@@@QBEPB_WXZ 00447070 f i ServiceUnits.obj
 0001:00046070       ?GetErrorDescribe@?$CTempldateHelper@UIPersonalRoomServiceManager@@@@QBEPB_WXZ 00447070 f i ServiceUnits.obj
 0001:00046070       ?GetErrorDescribe@?$CTempldateHelper@UIMatchServiceManager@@@@QBEPB_WXZ 00447070 f i ServiceUnits.obj
 0001:00046070       ?GetErrorDescribe@?$CTempldateHelper@UIGameServiceManager@@@@QBEPB_WXZ 00447070 f i ServiceUnits.obj
 0001:00046070       ?GetErrorDescribe@?$CTempldateHelper@UITimerEngine@@@@QBEPB_WXZ 00447070 f i ServiceUnits.obj
 0001:00046090       ?GetInterface@?$CTempldateHelper@UIMatchServiceManager@@@@QBEPAUIMatchServiceManager@@XZ 00447090 f i ServiceUnits.obj
 0001:00046090       ?GetInterface@?$CTempldateHelper@UIDataBase@@@@QBEPAUIDataBase@@XZ 00447090 f i DataBaseEngineSink.obj
 0001:00046090       ?GetInterface@?$CTempldateHelper@UIPersonalRoomServiceManager@@@@QBEPAUIPersonalRoomServiceManager@@XZ 00447090 f i ServiceUnits.obj
 0001:00046090       ?GetInterface@?$CTempldateHelper@UIGameServiceManager@@@@QBEPAUIGameServiceManager@@XZ 00447090 f i GameServerDlg.obj
 0001:00046090       ?GetInterface@?$CTempldateHelper@UIDataBaseEngine@@@@QBEPAUIDataBaseEngine@@XZ 00447090 f i ServiceUnits.obj
 0001:00046090       ?GetInterface@?$CTempldateHelper@UITCPNetworkEngine@@@@QBEPAUITCPNetworkEngine@@XZ 00447090 f i AttemperEngineSink.obj
 0001:00046090       ?GetInterface@?$CTempldateHelper@UIAttemperEngine@@@@QBEPAUIAttemperEngine@@XZ 00447090 f i ServiceUnits.obj
 0001:00046090       ?GetInterface@?$CTempldateHelper@UITimerEngine@@@@QBEPAUITimerEngine@@XZ 00447090 f i ServiceUnits.obj
 0001:00046090       ?GetInterface@?$CTempldateHelper@UITCPSocketService@@@@QBEPAUITCPSocketService@@XZ 00447090 f i DataBaseEngineSink.obj
 0001:000460b0       ?GetMessageMap@CServiceUnits@@MBEPBUAFX_MSGMAP@@XZ 004470b0 f   ServiceUnits.obj
 0001:000460d0       ?GetThisMessageMap@CServiceUnits@@KGPBUAFX_MSGMAP@@XZ 004470d0 f   ServiceUnits.obj
 0001:000460f0       ?InitializeService@CServiceUnits@@IAE_NXZ 004470f0 f   ServiceUnits.obj
 0001:00046b90       ?LoadDataBaseParameter@CServiceUnits@@QAE_NPB_W0AAUtagDataBaseParameter@@@Z 00447b90 f   ServiceUnits.obj
 0001:00046fb0       ?PostControlRequest@CServiceUnits@@QAE_NGPAXG@Z 00447fb0 f   ServiceUnits.obj
 0001:00047090       ?RectifyServiceParameter@CServiceUnits@@IAE_NXZ 00448090 f   ServiceUnits.obj
 0001:00047670       ?SendControlPacket@CServiceUnits@@AAE_NGPAXG@Z 00448670 f   ServiceUnits.obj
 0001:000476d0       ?SetAllowAndroidSimulate@CServerRule@@SAXAAK_N@Z 004486d0 f i ServiceUnits.obj
 0001:00047720       ?SetAllowAvertDebugMode@CServerRule@@SAXAAK_N@Z 00448720 f i ServiceUnits.obj
 0001:00047770       ?SetServiceStatus@CServiceUnits@@AAE_NW4enServiceStatus@@@Z 00448770 f   ServiceUnits.obj
 0001:00047800       ?SetServiceUnitsSink@CServiceUnits@@QAE_NPAUIServiceUnitsSink@@@Z 00448800 f   ServiceUnits.obj
 0001:00047830       ?SetSuportGroup@CServerRule@@SAXAAK_N@Z 00448830 f i ServiceUnits.obj
 0001:00047880       ?StartKernelService@CServiceUnits@@IAE_NXZ 00448880 f   ServiceUnits.obj
 0001:00047a50       ?StartNetworkService@CServiceUnits@@IAE_NXZ 00448a50 f   ServiceUnits.obj
 0001:00047a90       ?StartService@CServiceUnits@@QAE_NXZ 00448a90 f   ServiceUnits.obj
 0001:00047b90       ?UnLockServerUser@CServiceUnits@@AAE_NXZ 00448b90 f   ServiceUnits.obj
 0001:00047ea0       ?WritePersonalDissumeInfo@CServiceUnits@@AAE_NXZ 00448ea0 f   ServiceUnits.obj
 0001:00048160       ?WriteSeverCount@CServiceUnits@@QAEX_N@Z 00449160 f   ServiceUnits.obj
 0001:00048330       ?Init@CComCriticalSection@ATL@@QAEJXZ 00449330 f i Stdafx.obj
 0001:00048380       ?_AtlInitializeCriticalSectionEx@ATL@@YAHPAU_RTL_CRITICAL_SECTION@@KK@Z 00449380 f i Stdafx.obj
 0001:000483a0       ??$SerializeElements@_J@@YGXAAVCArchive@@PA_JH@Z 004493a0 f i TableFrame.obj
 0001:000484b0       ??0?$CMap@KK_JAA_J@@QAE@H@Z 004494b0 f i TableFrame.obj
 0001:00048520       ??0?$CWHArray@PAUIServerUserItem@@ABQAU1@@@QAE@XZ 00449520 f i TableFrame.obj
 0001:00048570       ??0?$CWHArray@PAUtagGameScoreRecord@@ABQAU1@@@QAE@XZ 00449570 f i TableFrame.obj
 0001:000485c0       ??0?$CWHArray@PAUtagGroupScoreRecord@@ABQAU1@@@QAE@XZ 004495c0 f i TableFrame.obj
 0001:00048610       ??0CTableFrame@@QAE@XZ     00449610 f   TableFrame.obj
 0001:00048c10       ??0CTime@ATL@@QAE@XZ       00449c10 f i TableFrame.obj
 0001:00048c40       ??0ICompilationSink@@QAE@XZ 00449c40 f i TableFrame.obj
 0001:00048c70       ??0ITableFrame@@QAE@XZ     00449c70 f i TableFrame.obj
 0001:00048ca0       ??1?$CMap@KK_JAA_J@@UAE@XZ 00449ca0 f i TableFrame.obj
 0001:00048d00       ??1?$CWHArray@PAUIServerUserItem@@ABQAU1@@@UAE@XZ 00449d00 f i TableFrame.obj
 0001:00048d70       ??1?$CWHArray@PAUtagGameScoreRecord@@ABQAU1@@@UAE@XZ 00449d70 f i TableFrame.obj
 0001:00048de0       ??1?$CWHArray@PAUtagGroupScoreRecord@@ABQAU1@@@UAE@XZ 00449de0 f i TableFrame.obj
 0001:00048e50       ??1CTableFrame@@UAE@XZ     00449e50 f   TableFrame.obj
 0001:00048f80       ??0CTime@ATL@@QAE@_J@Z     00449f80 f i TableFrame.obj
 0001:00048f80       ??4CTime@ATL@@QAEAAV01@_J@Z 00449f80 f i TableFrame.obj
 0001:00048f80       ??0CTimeSpan@ATL@@QAE@_J@Z 00449f80 f i TableFrame.obj
 0001:00048fb0       ??8CTime@ATL@@QBE_NV01@@Z  00449fb0 f i TableFrame.obj
 0001:00049000       ??A?$CMap@KK_JAA_J@@QAEAA_JK@Z 0044a000 f i TableFrame.obj
 0001:000490c0       ??GCTime@ATL@@QBE?AVCTimeSpan@1@V01@@Z 0044a0c0 f i TableFrame.obj
 0001:000490f0       ??_G?$CMap@KK_JAA_J@@UAEPAXI@Z 0044a0f0 f i TableFrame.obj
 0001:000490f0       ??_E?$CMap@KK_JAA_J@@UAEPAXI@Z 0044a0f0 f i TableFrame.obj
 0001:00049140       ??_G?$CWHArray@PAUIServerUserItem@@ABQAU1@@@UAEPAXI@Z 0044a140 f i TableFrame.obj
 0001:00049140       ??_E?$CWHArray@PAUIServerUserItem@@ABQAU1@@@UAEPAXI@Z 0044a140 f i TableFrame.obj
 0001:00049180       ??_G?$CWHArray@PAUtagGameScoreRecord@@ABQAU1@@@UAEPAXI@Z 0044a180 f i TableFrame.obj
 0001:00049180       ??_E?$CWHArray@PAUtagGameScoreRecord@@ABQAU1@@@UAEPAXI@Z 0044a180 f i TableFrame.obj
 0001:000491c0       ??_G?$CWHArray@PAUtagGroupScoreRecord@@ABQAU1@@@UAEPAXI@Z 0044a1c0 f i TableFrame.obj
 0001:000491c0       ??_E?$CWHArray@PAUtagGroupScoreRecord@@ABQAU1@@@UAEPAXI@Z 0044a1c0 f i TableFrame.obj
 0001:00049200       ??_ECTableFrame@@UAEPAXI@Z 0044a200 f i TableFrame.obj
 0001:00049200       ??_GCTableFrame@@UAEPAXI@Z 0044a200 f i TableFrame.obj
 0001:00049240       ?Add@?$CWHArray@PAVCGameKindItem@NServerListManager@@ABQAV12@@@QAEHABQAVCGameKindItem@NServerListManager@@@Z 0044a240 f i ServerListManager.obj
 0001:00049240       ?Add@?$CWHArray@PAUtagGameScoreRecord@@ABQAU1@@@QAEHABQAUtagGameScoreRecord@@@Z 0044a240 f i TableFrame.obj
 0001:00049240       ?Add@?$CWHArray@PAVCGameNodeItem@NServerListManager@@ABQAV12@@@QAEHABQAVCGameNodeItem@NServerListManager@@@Z 0044a240 f i ServerListManager.obj
 0001:00049240       ?Add@?$CWHArray@PAVCGameTypeItem@NServerListManager@@ABQAV12@@@QAEHABQAVCGameTypeItem@NServerListManager@@@Z 0044a240 f i ServerListManager.obj
 0001:00049240       ?Add@?$CWHArray@PB_WABQB_W@@QAEHABQB_W@Z 0044a240 f i SensitiveWordsFilter.obj
 0001:00049240       ?Add@?$CWHArray@PAUtagGroupScoreRecord@@ABQAU1@@@QAEHABQAUtagGroupScoreRecord@@@Z 0044a240 f i TableFrame.obj
 0001:00049240       ?Add@?$CWHArray@KABK@@QAEHABK@Z 0044a240 f i DBCorrespondManager.obj
 0001:00049240       ?Add@?$CWHArray@PAUIServerUserItem@@ABQAU1@@@QAEHABQAUIServerUserItem@@@Z 0044a240 f i TableFrame.obj
 0001:00049240       ?Add@?$CWHArray@PAVCGameServerItem@NServerListManager@@ABQAV12@@@QAEHABQAVCGameServerItem@NServerListManager@@@Z 0044a240 f i ServerListManager.obj
 0001:00049240       ?Add@?$CWHArray@PAVCGamePageItem@NServerListManager@@ABQAV12@@@QAEHABQAVCGamePageItem@NServerListManager@@@Z 0044a240 f i ServerListManager.obj
 0001:00049280       ?Append@?$CWHArray@PAUtagGroupScoreRecord@@ABQAU1@@@QAEHABV1@@Z 0044a280 f i TableFrame.obj
 0001:00049280       ?Append@?$CWHArray@PAUtagGameScoreRecord@@ABQAU1@@@QAEHABV1@@Z 0044a280 f i TableFrame.obj
 0001:00049320       ?AutoStartGame@CTableFrame@@QAE_NXZ 0044a320 f   TableFrame.obj
 0001:0004a0b0       ?CalculateRevenue@CTableFrame@@UAE_JG_J@Z 0044b0b0 f   TableFrame.obj
 0001:0004a220       ?CalculateServiceFate@CTableFrame@@QAE_JXZ 0044b220 f   TableFrame.obj
 0001:0004a410       ?CancelTableRequest@CTableFrame@@UAE_NKG@Z 0044b410 f   TableFrame.obj
 0001:0004a680       ?CancelTableRequestReply@CTableFrame@@UAE_NKE@Z 0044b680 f   TableFrame.obj
 0001:0004c040       ?ChangeCurSubStorageItem@CTableFrame@@UAEXW4ENUM_SHARESTORAGE_STATUS@@AAUtagCurSubStorageItem@@@Z 0044d040 f   TableFrame.obj
 0001:0004c1d0       ?CheckDistribute@CTableFrame@@QAE_NXZ 0044d1d0 f   TableFrame.obj
 0001:0004c230       ?ConcludeGame@CTableFrame@@UAE_NEH@Z 0044d230 f   TableFrame.obj
 0001:0004da50       ?ConcludeTable@CTableFrame@@UAE_NXZ 0044ea50 f   TableFrame.obj
 0001:0004daf0       ?DismissGame@CTableFrame@@UAE_NXZ 0044eaf0 f   TableFrame.obj
 0001:0004dc80       ?EfficacyAutoStartGame@CTableFrame@@QAE_NG@Z 0044ec80 f   TableFrame.obj
 0001:0004e780       ?EfficacyConfigSubStorage@CTableFrame@@QAE_NPAUtagShareStorageItem@@QA_W@Z 0044f780 f   TableFrame.obj
 0001:0004e7d0       ?EfficacyEnterTableScoreRule@CTableFrame@@QAE_NGPAUIServerUserItem@@@Z 0044f7d0 f   TableFrame.obj
 0001:0004eb70       ?EfficacyIPAddress@CTableFrame@@QAE_NPAUIServerUserItem@@@Z 0044fb70 f   TableFrame.obj
 0001:0004ef30       ?EfficacyScoreRule@CTableFrame@@QAE_NPAUIServerUserItem@@@Z 0044ff30 f   TableFrame.obj
 0001:0004f320       ?EfficacyStartGame@CTableFrame@@QAE_NG@Z 00450320 f   TableFrame.obj
 0001:0004f870       ?EnumLookonUserItem@CTableFrame@@UAEPAUIServerUserItem@@G@Z 00450870 f   TableFrame.obj
 0001:0004f8c0       ?GetAsSystemTime@CTime@ATL@@QBE_NAAU_SYSTEMTIME@@@Z 004508c0 f i TableFrame.obj
 0001:0004f980       ?GetAssocAt@?$CMap@KK_JAA_J@@IBEPAVCAssoc@1@KAAI0@Z 00450980 f i TableFrame.obj
 0001:0004fa10       ?GetBetValues@CTableFrame@@QAEXQA_J@Z 00450a10 f   TableFrame.obj
 0001:0004fa40       ?GetCellScore@CTableFrame@@UAEJXZ 00450a40 f i TableFrame.obj
 0001:0004fa60       ?GetChairCount@CTableFrame@@UAEGXZ 00450a60 f i TableFrame.obj
 0001:0004fa80       ?GetCompilation@CTableFrame@@UAEPB_WXZ 00450a80 f i TableFrame.obj
 0001:0004faa0       ?GetConfigSubStorageItem@CTableFrame@@UAEPAUtagConfigSubStorageItem@@XZ 00450aa0 f   TableFrame.obj
 0001:0004fb50       ?GetCurSubStorageItem@CTableFrame@@UAEPAUtagCurSubStorageItem@@XZ 00450b50 f   TableFrame.obj
 0001:0004fc00       ?GetCustomRule@CTableFrame@@UAEPAXXZ 00450c00 f i TableFrame.obj
 0001:0004fc30       ?GetDataBaseMode@CTableFrame@@UAEEXZ 00450c30 f   TableFrame.obj
 0001:0004fc50       ?GetDrawCount@CTableFrame@@UAEGXZ 00450c50 f   TableFrame.obj
 0001:0004fc70       ?GetDrawCountLimit@CTableFrame@@UAEKXZ 00450c70 f i TableFrame.obj
 0001:0004fc90       ?GetEnterScore@CTableFrame@@UAEXAA_J@Z 00450c90 f   TableFrame.obj
 0001:0004fcc0       ?GetGameMatchOption@CTableFrame@@UAEPAUtagGameMatchOption@@XZ 00450cc0 f i TableFrame.obj
 0001:0004fce0       ?GetGameMode@CTableFrame@@UAEEXZ 00450ce0 f i TableFrame.obj
 0001:0004fd00       ?GetGameRule@CTableFrame@@UAEPAEXZ 00450d00 f   TableFrame.obj
 0001:0004fd20       ?GetGameServiceAttrib@CTableFrame@@UAEPAUtagGameServiceAttrib@@XZ 00450d20 f i TableFrame.obj
 0001:0004fd40       ?GetGameServiceOption@CTableFrame@@UAEPAUtagGameServiceOption@@XZ 00450d40 f i TableFrame.obj
 0001:0004fd60       ?GetGameStatus@CTableFrame@@UAEEXZ 00450d60 f i TableFrame.obj
 0001:0004fd80       ?GetGroupID@CTableFrame@@UAEKXZ 00450d80 f   TableFrame.obj
 0001:0004fda0       ?GetGroupTaxInfo@CTableFrame@@UAEXAAEAA_J@Z 00450da0 f   TableFrame.obj
 0001:0004fde0       ?GetHostAddr@CTableFrame@@UAEKXZ 00450de0 f   TableFrame.obj
 0001:0004fe00       ?GetLocalTm@CTime@ATL@@QBEPAUtm@@PAU3@@Z 00450e00 f i TableFrame.obj
 0001:0004fea0       ?GetLoopCount@CTableFrame@@UAEEXZ 00450ea0 f i TableFrame.obj
 0001:0004fec0       ?GetMinutes@CTimeSpan@ATL@@QBEJXZ 00450ec0 f i TableFrame.obj
 0001:0004ff00       ?GetNullChairCount@CTableFrame@@UAEGXZ 00450f00 f i TableFrame.obj
 0001:0004ff30       ?GetNullChairID@CTableFrame@@UAEGXZ 00450f30 f   TableFrame.obj
 0001:0004ff90       ?GetOffLineUserCount@CTableFrame@@QAEGXZ 00450f90 f   TableFrame.obj
 0001:0004fff0       ?GetPayRoomCardMode@CTableFrame@@UAEEXZ 00450ff0 f i TableFrame.obj
 0001:00050010       ?GetPersonalRoomGUID@CTableFrame@@UAEPA_WXZ 00451010 f   TableFrame.obj
 0001:00050030       ?GetPersonalRoomID@CTableFrame@@UAEKXZ 00451030 f   TableFrame.obj
 0001:00050050       ?GetPersonalScore@CTableFrame@@UAE_NKAA_J@Z 00451050 f   TableFrame.obj
 0001:000500b0       ?GetPersonalTableParameter@CTableFrame@@UAE?AUtagPersonalTableParameter@@XZ 004510b0 f   TableFrame.obj
 0001:00050130       ?GetRandNullChairID@CTableFrame@@QAEGXZ 00451130 f   TableFrame.obj
 0001:000501c0       ?GetRecordTableOwner@CTableFrame@@UAEKXZ 004511c0 f   TableFrame.obj
 0001:000501e0       ?GetSitUserCount@CTableFrame@@QAEGXZ 004511e0 f   TableFrame.obj
 0001:00050250       ?GetSpeicalInfo@CTableFrame@@UAEXPAEH@Z 00451250 f   TableFrame.obj
 0001:00050290       ?GetStartMode@CTableFrame@@UAEEXZ 00451290 f i TableFrame.obj
 0001:000502b0       ?GetTableFrameHook@CTableFrame@@UAEPAUIUnknownEx@@XZ 004512b0 f i TableFrame.obj
 0001:000502d0       ?GetTableID@CTableFrame@@UAEGXZ 004512d0 f i TableFrame.obj
 0001:000502f0       ?GetTableOwner@CTableFrame@@UAEKXZ 004512f0 f i TableFrame.obj
 0001:00050310       ?GetTableUserInfo@CTableFrame@@QAEGAAUtagTableUserInfo@@@Z 00451310 f   TableFrame.obj
 0001:00050460       ?GetTableUserItem@CTableFrame@@UAEPAUIServerUserItem@@G@Z 00451460 f   TableFrame.obj
 0001:000504a0       ?GetTickCount@CTime@ATL@@SG?AV12@XZ 004514a0 f i TableFrame.obj
 0001:000504d0       ?GetTotalHours@CTimeSpan@ATL@@QBE_JXZ 004514d0 f i TableFrame.obj
 0001:00050500       ?GetTotalMinutes@CTimeSpan@ATL@@QBE_JXZ 00451500 f i TableFrame.obj
 0001:00050530       ?GetUserPayStatus@CTableFrame@@UAEEG@Z 00451530 f   TableFrame.obj
 0001:00050560       ?HostDissumeGame@CTableFrame@@UAEXH@Z 00451560 f   TableFrame.obj
 0001:00051a70       ?ImitateGameOption@CTableFrame@@UAE_NPAUIServerUserItem@@@Z 00452a70 f   TableFrame.obj
 0001:00051b30       ?InitializationFrame@CTableFrame@@QAE_NGAAUtagTableFrameParameter@@@Z 00452b30 f   TableFrame.obj
 0001:00051f30       ?IsDrawStarted@CTableFrame@@UAE_NXZ 00452f30 f i TableFrame.obj
 0001:00051f50       ?IsGameStarted@CTableFrame@@UAE_NXZ 00452f50 f i TableFrame.obj
 0001:00051f70       ?IsJoinGame@CTableFrame@@UAE_NG@Z 00452f70 f   TableFrame.obj
 0001:00051fa0       ?IsPersonalRoomDisumme@CTableFrame@@UAE_NXZ 00452fa0 f   TableFrame.obj
 0001:00051fc0       ?IsPersonalTableLocked@CTableFrame@@UAE_NXZ 00452fc0 f i TableFrame.obj
 0001:00051fe0       ?IsTableLocked@CTableFrame@@UAE_NXZ 00452fe0 f   TableFrame.obj
 0001:00052060       ?IsTableStarted@CTableFrame@@UAE_NXZ 00453060 f i TableFrame.obj
 0001:00052080       ?JudePersonalStandUp@CTableFrame@@QAEHPAUIServerUserItem@@@Z 00453080 f   TableFrame.obj
 0001:00052200       ?KillGameTimer@CTableFrame@@UAE_NK@Z 00453200 f   TableFrame.obj
 0001:00052270       ?Lookup@?$CMap@KK_JAA_J@@QBEHKAA_J@Z 00453270 f i TableFrame.obj
 0001:000522c0       ?NewAssoc@?$CMap@KK_JAA_J@@IAEPAVCAssoc@1@K@Z 004532c0 f i TableFrame.obj
 0001:00052440       ?OnEventSocketFrame@CTableFrame@@QAE_NGPAXGPAUIServerUserItem@@@Z 00453440 f   TableFrame.obj
 0001:00054bf0       ?OnEventSocketGame@CTableFrame@@QAE_NGPAXGPAUIServerUserItem@@@Z 00455bf0 f   TableFrame.obj
 0001:00054c30       ?OnEventTimer@CTableFrame@@QAE_NKI@Z 00455c30 f   TableFrame.obj
 0001:00055c50       ?OnEventUserOffLine@CTableFrame@@QAE_NPAUIServerUserItem@@@Z 00456c50 f   TableFrame.obj
 0001:00056220       ?OnUserScroeNotify@CTableFrame@@UAE_NGPAUIServerUserItem@@E@Z 00457220 f   TableFrame.obj
 0001:00056260       ?PerformLookonAction@CTableFrame@@UAE_NGPAUIServerUserItem@@@Z 00457260 f   TableFrame.obj
 0001:00056420       ?PerformLookonStandup@CTableFrame@@UAE_NGPAUIServerUserItem@@@Z 00457420 f   TableFrame.obj
 0001:000565b0       ?PerformSitDownAction@CTableFrame@@UAE_NGPAUIServerUserItem@@PB_WK@Z 004575b0 f   TableFrame.obj
 0001:000585b0       ?PerformStandUpAction@CTableFrame@@UAE_NPAUIServerUserItem@@_N@Z 004595b0 f   TableFrame.obj
 0001:00059b30       ?QueryConsumeQuota@CTableFrame@@UAE_JPAUIServerUserItem@@@Z 0045ab30 f   TableFrame.obj
 0001:00059c10       ?QueryInterface@CTableFrame@@UAEPAXABU_GUID@@K@Z 0045ac10 f   TableFrame.obj
 0001:00059ce1       ?QueryInterface@CTableFrame@@W3AEPAXABU_GUID@@K@Z 0045ace1 f i TableFrame.obj
 0001:00059cf0       ?RecordGameScore@CTableFrame@@QAEX_NK@Z 0045acf0 f   TableFrame.obj
 0001:0005a070       ?RecordGroupScore@CTableFrame@@QAEX_NK@Z 0045b070 f   TableFrame.obj
 0001:0005a310       ?Release@CTableFrame@@UAEXXZ 0045b310 f i TableFrame.obj
 0001:0005a353       ?Release@CTableFrame@@W3AEXXZ 0045b353 f i TableFrame.obj
 0001:0005a360       ?SearchUserItem@CTableFrame@@UAEPAUIServerUserItem@@K@Z 0045b360 f   TableFrame.obj
 0001:0005a430       ?SendChatMessage@CTableFrame@@UAE_NPAUIServerUserItem@@0KPB_WPA_W@Z 0045b430 f   TableFrame.obj
 0001:0005a750       ?SendGameLogData@CTableFrame@@UAA_NPAUIServerUserItem@@PB_WZZ 0045b750 f   TableFrame.obj
 0001:0005a7f0       ?SendGameLogData@CTableFrame@@UAA_NPB_WZZ 0045b7f0 f   TableFrame.obj
 0001:0005a8a0       ?SendGameLogData@CTableFrame@@UAE_NPAUIServerUserItem@@QB_WPB_W@Z 0045b8a0 f   TableFrame.obj
 0001:0005a8e0       ?SendGameLogData@CTableFrame@@UAE_NUtagLogUserInfo@@@Z 0045b8e0 f   TableFrame.obj
 0001:0005a930       ?SendGameLogData@CTableFrame@@UAE_NV?$CStringT@_WV?$StrTraitMFC_DLL@_WV?$ChTraitsCRT@_W@ATL@@@@@ATL@@@Z 0045b930 f   TableFrame.obj
 0001:0005aa30       ?SendGameMessage@CTableFrame@@UAE_NPAUIServerUserItem@@PB_WG@Z 0045ba30 f   TableFrame.obj
 0001:0005aa80       ?SendGameMessage@CTableFrame@@UAE_NPB_WG@Z 0045ba80 f   TableFrame.obj
 0001:0005aba0       ?SendGameScene@CTableFrame@@UAE_NPAUIServerUserItem@@PAXG@Z 0045bba0 f   TableFrame.obj
 0001:0005ac80       ?SendLookonData@CTableFrame@@UAE_NGG@Z 0045bc80 f   TableFrame.obj
 0001:0005adf0       ?SendLookonData@CTableFrame@@UAE_NGGGPAXG@Z 0045bdf0 f   TableFrame.obj
 0001:0005af60       ?SendLookonData@CTableFrame@@UAE_NGGPAXG@Z 0045bf60 f   TableFrame.obj
 0001:0005b0d0       ?SendRequestFailure@CTableFrame@@QAE_NPAUIServerUserItem@@PB_WJ@Z 0045c0d0 f   TableFrame.obj
 0001:0005b190       ?SendRoomAIConfigData@CTableFrame@@UAE_NPAUIServerUserItem@@G@Z 0045c190 f   TableFrame.obj
 0001:0005b200       ?SendRoomAIConfigData@CTableFrame@@UAE_NPAUIServerUserItem@@GPAXG@Z 0045c200 f   TableFrame.obj
 0001:0005b2d0       ?SendRoomData@CTableFrame@@UAE_NPAUIServerUserItem@@G@Z 0045c2d0 f   TableFrame.obj
 0001:0005b340       ?SendRoomData@CTableFrame@@UAE_NPAUIServerUserItem@@GPAXG@Z 0045c340 f   TableFrame.obj
 0001:0005b410       ?SendRoomMessage@CTableFrame@@UAE_NPAUIServerUserItem@@PB_WG@Z 0045c410 f   TableFrame.obj
 0001:0005b480       ?SendTableData@CTableFrame@@UAE_NGG@Z 0045c480 f   TableFrame.obj
 0001:0005b640       ?SendTableData@CTableFrame@@UAE_NGGPAXGG@Z 0045c640 f   TableFrame.obj
 0001:0005b800       ?SendTableStatus@CTableFrame@@QAE_NXZ 0045c800 f   TableFrame.obj
 0001:0005b8e0       ?SendUserItemData@CTableFrame@@UAE_NPAUIServerUserItem@@G@Z 0045c8e0 f   TableFrame.obj
 0001:0005b9e0       ?SendUserItemData@CTableFrame@@UAE_NPAUIServerUserItem@@GPAXG@Z 0045c9e0 f   TableFrame.obj
 0001:0005baf0       ?Serialize@?$CMap@KK_JAA_J@@UAEXAAVCArchive@@@Z 0045caf0 f i TableFrame.obj
 0001:0005bc20       ?SetAICreate@CTableFrame@@UAEXE@Z 0045cc20 f   TableFrame.obj
 0001:0005bc50       ?SetAISocketWorkTCP@CTableFrame@@UAEXPAUITCPSocketService@@@Z 0045cc50 f   TableFrame.obj
 0001:0005bc80       ?SetAt@?$CMap@KK_JAA_J@@QAEXKAA_J@Z 0045cc80 f i TableFrame.obj
 0001:0005bcb0       ?SetAtGrow@?$CWHArray@PAVCGameKindItem@NServerListManager@@ABQAV12@@@QAEXHABQAVCGameKindItem@NServerListManager@@@Z 0045ccb0 f i ServerListManager.obj
 0001:0005bcb0       ?SetAtGrow@?$CWHArray@PAVCGameServerItem@NServerListManager@@ABQAV12@@@QAEXHABQAVCGameServerItem@NServerListManager@@@Z 0045ccb0 f i ServerListManager.obj
 0001:0005bcb0       ?SetAtGrow@?$CWHArray@PB_WABQB_W@@QAEXHABQB_W@Z 0045ccb0 f i SensitiveWordsFilter.obj
 0001:0005bcb0       ?SetAtGrow@?$CWHArray@PAVCGameNodeItem@NServerListManager@@ABQAV12@@@QAEXHABQAVCGameNodeItem@NServerListManager@@@Z 0045ccb0 f i ServerListManager.obj
 0001:0005bcb0       ?SetAtGrow@?$CWHArray@PAUIServerUserItem@@ABQAU1@@@QAEXHABQAUIServerUserItem@@@Z 0045ccb0 f i TableFrame.obj
 0001:0005bcb0       ?SetAtGrow@?$CWHArray@KABK@@QAEXHABK@Z 0045ccb0 f i DBCorrespondManager.obj
 0001:0005bcb0       ?SetAtGrow@?$CWHArray@PAUtagGroupScoreRecord@@ABQAU1@@@QAEXHABQAUtagGroupScoreRecord@@@Z 0045ccb0 f i TableFrame.obj
 0001:0005bcb0       ?SetAtGrow@?$CWHArray@PAVCGameTypeItem@NServerListManager@@ABQAV12@@@QAEXHABQAVCGameTypeItem@NServerListManager@@@Z 0045ccb0 f i ServerListManager.obj
 0001:0005bcb0       ?SetAtGrow@?$CWHArray@PAVCGamePageItem@NServerListManager@@ABQAV12@@@QAEXHABQAVCGamePageItem@NServerListManager@@@Z 0045ccb0 f i ServerListManager.obj
 0001:0005bcb0       ?SetAtGrow@?$CWHArray@PAUtagGameScoreRecord@@ABQAU1@@@QAEXHABQAUtagGameScoreRecord@@@Z 0045ccb0 f i TableFrame.obj
 0001:0005bd00       ?SetBetValueArray@CTableFrame@@UAEXQA_J@Z 0045cd00 f   TableFrame.obj
 0001:0005bd30       ?SetCellScore@CTableFrame@@UAEXJ@Z 0045cd30 f   TableFrame.obj
 0001:0005bda0       ?SetCreatePersonalTime@CTableFrame@@UAEXU_SYSTEMTIME@@@Z 0045cda0 f   TableFrame.obj
 0001:0005bde0       ?SetDataBaseMode@CTableFrame@@UAEXE@Z 0045cde0 f   TableFrame.obj
 0001:0005be10       ?SetEnterAndLeaveScore@CTableFrame@@UAEX_J0@Z 0045ce10 f   TableFrame.obj
 0001:0005be50       ?SetGameRule@CTableFrame@@UAEXPAEH@Z 0045ce50 f   TableFrame.obj
 0001:0005beb0       ?SetGameStatus@CTableFrame@@UAEXE@Z 0045ceb0 f i TableFrame.obj
 0001:0005bee0       ?SetGameTimer@CTableFrame@@UAE_NKKKI@Z 0045cee0 f   TableFrame.obj
 0001:0005bf60       ?SetGroupConfigID@CTableFrame@@UAEXK@Z 0045cf60 f   TableFrame.obj
 0001:0005c150       ?SetGroupInfo@CTableFrame@@UAEXKEKE@Z 0045d150 f   TableFrame.obj
 0001:0005c210       ?SetGroupMaxChairBankerUserID@CTableFrame@@UAEXGK@Z 0045d210 f   TableFrame.obj
 0001:0005c280       ?SetHostAddr@CTableFrame@@UAEXK@Z 0045d280 f   TableFrame.obj
 0001:0005c2b0       ?SetLoopCount@CTableFrame@@UAEXE@Z 0045d2b0 f i TableFrame.obj
 0001:0005c2e0       ?SetPayRoomCardMode@CTableFrame@@UAEXEJE@Z 0045d2e0 f i TableFrame.obj
 0001:0005c320       ?SetPersonalRoomGUID@CTableFrame@@UAEXPA_WH@Z 0045d320 f   TableFrame.obj
 0001:0005c350       ?SetPersonalRoomID@CTableFrame@@UAEXK@Z 0045d350 f   TableFrame.obj
 0001:0005c440       ?SetPersonalTable@CTableFrame@@UAEXKK_J@Z 0045d440 f   TableFrame.obj
 0001:0005c5f0       ?SetPersonalTableLocked@CTableFrame@@UAEX_N@Z 0045d5f0 f   TableFrame.obj
 0001:0005c770       ?SetPersonalTableParameter@CTableFrame@@UAEXUtagPersonalTableParameter@@UtagPersonalRoomOption@@@Z 0045d770 f   TableFrame.obj
 0001:0005cab0       ?SetPersonalTablePassword@CTableFrame@@UAEXPAUtagRoomPassword@@@Z 0045dab0 f i TableFrame.obj
 0001:0005cae0       ?SetPlayingStatusLeave@CTableFrame@@UAEXGE@Z 0045dae0 f   TableFrame.obj
 0001:0005cc00       ?SetStartMode@CTableFrame@@UAEXE@Z 0045dc00 f i TableFrame.obj
 0001:0005cc20       ?SetTableChairCount@CTableFrame@@UAEXG@Z 0045dc20 f   TableFrame.obj
 0001:0005cc60       ?SetTableFrameHook@CTableFrame@@UAE_NPAUIUnknownEx@@@Z 0045dc60 f   TableFrame.obj
 0001:0005cd80       ?SetTableOwner@CTableFrame@@UAEXK@Z 0045dd80 f i TableFrame.obj
 0001:0005cdb0       ?SetTimerNotBeginAfterCreate@CTableFrame@@UAEXXZ 0045ddb0 f   TableFrame.obj
 0001:0005ce20       ?SetUserPayStatus@CTableFrame@@UAEEGE@Z 0045de20 f   TableFrame.obj
 0001:0005ce50       ?StartGame@CTableFrame@@UAE_NXZ 0045de50 f   TableFrame.obj
 0001:0005d890       ?UpdateAITableChange@CTableFrame@@UAEXH@Z 0045e890 f   TableFrame.obj
 0001:0005d980       ?WriteTableScore@CTableFrame@@UAE_NQAUtagScoreInfo@@G@Z 0045e980 f   TableFrame.obj
 0001:0005da20       ?WriteTableVideoData@CTableFrame@@UAE_NPADGGPAEG@Z 0045ea20 f   TableFrame.obj
 0001:0005dab0       ?WriteTableVideoPlayer@CTableFrame@@UAE_NKPAD@Z 0045eab0 f   TableFrame.obj
 0001:0005db30       ?WriteUserScore@CTableFrame@@UAE_NGAAUtagScoreInfo@@KK@Z 0045eb30 f   TableFrame.obj
 0001:0005ed43       _wWinMainCRTStartup        0045fd43 f   MSVCRT:exe_wwinmain.obj
 0001:0005ed4d       @__security_check_cookie@4 0045fd4d f   MSVCRT:_secchk_.obj
 0001:0005ed60       __chkstk                   0045fd60 f   MSVCRT:chkstk.obj
 0001:0005ed60       __alloca_probe             0045fd60 f   MSVCRT:chkstk.obj
 0001:0005ed8d       ??3@YAXPAX@Z               0045fd8d f   MSVCRT:delete_scalar.obj
 0001:0005ed92       ??2@YAPAXI@Z               0045fd92 f   MSVCRT:new_scalar.obj
 0001:0005edc5       ??3@YAXPAXI@Z              0045fdc5 f   MSVCRT:delete_scalar_size.obj
 0001:0005edd3       ??_U@YAPAXI@Z              0045fdd3 f   MSVCRT:new_array.obj
 0001:0005eddc       ??_V@YAXPAX@Z              0045fddc f   MSVCRT:delete_array.obj
 0001:0005edf0       __alldiv                   0045fdf0 f   MSVCRT:lldiv.obj
 0001:0005eea0       __allmul                   0045fea0 f   MSVCRT:llmul.obj
 0001:0005eee0       __allrem                   0045fee0 f   MSVCRT:llrem.obj
 0001:0005efa0       __allshl                   0045ffa0 f   MSVCRT:llshl.obj
 0001:0005efc0       __ftoui3                   0045ffc0 f   MSVCRT:_ftol3_.obj
 0001:0005efcf       __ftoul3                   0045ffcf f   MSVCRT:_ftol3_.obj
 0001:0005efde       __ftol3                    0045ffde f   MSVCRT:_ftol3_.obj
 0001:0005efeb       __ftol3_NaN                0045ffeb f   MSVCRT:_ftol3_.obj
 0001:0005f003       __ftol3_work               00460003 f   MSVCRT:_ftol3_.obj
 0001:0005f089       __ftol3_common             00460089 f   MSVCRT:_ftol3_.obj
 0001:0005f14b       __ftol3_arg_error          0046014b f   MSVCRT:_ftol3_.obj
 0001:0005f15d       __ftol3_except             0046015d f   MSVCRT:_ftol3_.obj
 0001:0005f1a1       __dtoui3                   004601a1 f   MSVCRT:_ftol3_.obj
 0001:0005f1b0       __dtoul3                   004601b0 f   MSVCRT:_ftol3_.obj
 0001:0005f1bf       __dtol3                    004601bf f   MSVCRT:_ftol3_.obj
 0001:0005f1cc       __dtol3_NaN                004601cc f   MSVCRT:_ftol3_.obj
 0001:0005f1e9       __dtol3_work               004601e9 f   MSVCRT:_ftol3_.obj
 0001:0005f2d0       __ultod3                   004602d0 f   MSVCRT:_ftol3_.obj
 0001:0005f310       __ltod3                    00460310 f   MSVCRT:_ftol3_.obj
 0001:0005f337       ??_Gtype_info@@UAEPAXI@Z   00460337 f i MSVCRT:std_type_info_static.obj
 0001:0005f337       ??_Etype_info@@UAEPAXI@Z   00460337 f i MSVCRT:std_type_info_static.obj
 0001:0005f39e       ___scrt_acquire_startup_lock 0046039e f   MSVCRT:utility.obj
 0001:0005f3d3       ___scrt_initialize_crt     004603d3 f   MSVCRT:utility.obj
 0001:0005f40c       ___scrt_initialize_onexit_tables 0046040c f   MSVCRT:utility.obj
 0001:0005f4a3       ___scrt_is_nonwritable_in_current_image 004604a3 f   MSVCRT:utility.obj
 0001:0005f52d       ___scrt_release_startup_lock 0046052d f   MSVCRT:utility.obj
 0001:0005f54a       ___scrt_uninitialize_crt   0046054a f   MSVCRT:utility.obj
 0001:0005f572       __onexit                   00460572 f   MSVCRT:utility.obj
 0001:0005f5ad       _atexit                    004605ad f   MSVCRT:utility.obj
 0001:0005f5c2       ??_L@YGXPAXIIP6EX0@Z1@Z    004605c2 f   MSVCRT:ehvecctr.obj
 0001:0005f62b       ??_M@YGXPAXIIP6EX0@Z@Z     0046062b f   MSVCRT:ehvecdtr.obj
 0001:0005f6a5       ?__ArrayUnwind@@YGXPAXIIP6EX0@Z@Z 004606a5 f   MSVCRT:ehvecdtr.obj
 0001:0005f7d2       ??$__crt_fast_encode_pointer@P6GXPAU_RTL_CONDITION_VARIABLE@@@Z@@YAP6GXPAU_RTL_CONDITION_VARIABLE@@@ZQ6GX0@Z@Z 004607d2 f i MSVCRT:thread_safe_statics.obj
 0001:0005f7d2       ??$__crt_fast_encode_pointer@P6GHPAU_RTL_CONDITION_VARIABLE@@PAU_RTL_CRITICAL_SECTION@@K@Z@@YAP6GHPAU_RTL_CONDITION_VARIABLE@@PAU_RTL_CRITICAL_SECTION@@K@ZQ6GH01K@Z@Z 004607d2 f i MSVCRT:thread_safe_statics.obj
 0001:0005f80b       ___security_init_cookie    0046080b f   MSVCRT:gs_support.obj
 0001:0005f8a7       __get_startup_argv_mode    004608a7 f   MSVCRT:argv_mode.obj
 0001:0005f8ab       __get_startup_file_mode    004608ab f   MSVCRT:file_mode.obj
 0001:0005f8b1       ?__scrt_initialize_type_info@@YAXXZ 004608b1 f   MSVCRT:tncleanup.obj
 0001:0005f8bd       __initialize_default_precision 004608bd f   MSVCRT:default_precision.obj
 0001:0005f8de       ___local_stdio_scanf_options 004608de f i MSVCRT:default_local_stdio_options.obj
 0001:0005f8e4       ___scrt_initialize_default_local_stdio_options 004608e4 f   MSVCRT:default_local_stdio_options.obj
 0001:0005f901       ___scrt_is_user_matherr_present 00460901 f   MSVCRT:matherr_detection.obj
 0001:0005f90d       ___scrt_get_dyn_tls_init_callback 0046090d f   MSVCRT:dyn_tls_init.obj
 0001:0005f913       ___scrt_get_dyn_tls_dtor_callback 00460913 f   MSVCRT:dyn_tls_dtor.obj
 0001:0005f919       ___scrt_fastfail           00460919 f   MSVCRT:utility_desktop.obj
 0001:0005fa34       ___scrt_get_show_window_mode 00460a34 f   MSVCRT:utility_desktop.obj
 0001:0005fa67       ___scrt_initialize_winrt   00460a67 f   MSVCRT:utility_desktop.obj
 0001:0005fa67       __get_startup_commit_mode  00460a67 f   MSVCRT:commit_mode.obj
 0001:0005fa67       __matherr                  00460a67 f   MSVCRT:matherr.obj
 0001:0005fa67       __get_startup_new_mode     00460a67 f   MSVCRT:new_mode.obj
 0001:0005fa67       __get_startup_thread_locale_mode 00460a67 f   MSVCRT:thread_locale.obj
 0001:0005fa6a       ___scrt_is_managed_app     00460a6a f   MSVCRT:utility_desktop.obj
 0001:0005faae       ___scrt_set_unhandled_exception_filter 00460aae f   MSVCRT:utility_desktop.obj
 0001:0005faba       ___scrt_unhandled_exception_filter@4 00460aba f   MSVCRT:utility_desktop.obj
 0001:0005fafb       __RTC_Initialize           00460afb f   MSVCRT:_initsect_.obj
 0001:0005fb26       __RTC_Terminate            00460b26 f   MSVCRT:_initsect_.obj
 0001:0005fb51       @_guard_check_icall@4      00460b51 f i MSVCRT:checkcfg.obj
 0001:0005fb60       __SEH_prolog4              00460b60 f   MSVCRT:_sehprolg4_.obj
 0001:0005fba6       __SEH_epilog4              00460ba6 f   MSVCRT:_sehprolg4_.obj
 0001:0005fbbb       __except_handler4          00460bbb f   MSVCRT:_chandler4gs_.obj
 0001:0005fbde       ___raise_securityfailure   00460bde f   MSVCRT:gs_report.obj
 0001:0005fc06       ___report_gsfailure        00460c06 f   MSVCRT:gs_report.obj
 0001:0005fd01       ??0bad_alloc@std@@QAE@ABV01@@Z 00460d01 f i MSVCRT:throw_bad_alloc.obj
 0001:0005fd1c       ??0bad_alloc@std@@QAE@XZ   00460d1c f i MSVCRT:throw_bad_alloc.obj
 0001:0005fd34       ??0bad_array_new_length@std@@QAE@ABV01@@Z 00460d34 f i MSVCRT:throw_bad_alloc.obj
 0001:0005fd4f       ??0bad_array_new_length@std@@QAE@XZ 00460d4f f i MSVCRT:throw_bad_alloc.obj
 0001:0005fd67       ??0exception@std@@QAE@ABV01@@Z 00460d67 f i MSVCRT:throw_bad_alloc.obj
 0001:0005fd93       ??1bad_alloc@std@@UAE@XZ   00460d93 f i MSVCRT:throw_bad_alloc.obj
 0001:0005fd93       ??1bad_array_new_length@std@@UAE@XZ 00460d93 f i MSVCRT:throw_bad_alloc.obj
 0001:0005fda4       ??_Gbad_array_new_length@std@@UAEPAXI@Z 00460da4 f i MSVCRT:throw_bad_alloc.obj
 0001:0005fda4       ??_Eexception@std@@UAEPAXI@Z 00460da4 f i MSVCRT:throw_bad_alloc.obj
 0001:0005fda4       ??_Gexception@std@@UAEPAXI@Z 00460da4 f i MSVCRT:throw_bad_alloc.obj
 0001:0005fda4       ??_Gbad_alloc@std@@UAEPAXI@Z 00460da4 f i MSVCRT:throw_bad_alloc.obj
 0001:0005fda4       ??_Ebad_array_new_length@std@@UAEPAXI@Z 00460da4 f i MSVCRT:throw_bad_alloc.obj
 0001:0005fda4       ??_Ebad_alloc@std@@UAEPAXI@Z 00460da4 f i MSVCRT:throw_bad_alloc.obj
 0001:0005fdd1       ?__scrt_throw_std_bad_alloc@@YAXXZ 00460dd1 f   MSVCRT:throw_bad_alloc.obj
 0001:0005fdee       ?__scrt_throw_std_bad_array_new_length@@YAXXZ 00460dee f   MSVCRT:throw_bad_alloc.obj
 0001:0005fe0b       ?what@exception@std@@UBEPBDXZ 00460e0b f i MSVCRT:throw_bad_alloc.obj
 0001:0005fe18       ___isa_available_init      00460e18 f   MSVCRT:_cpu_disp_.obj
 0001:0005ffbc       ___scrt_is_ucrt_dll_in_use 00460fbc f   MSVCRT:ucrt_detection.obj
 0001:0005ffc8       __initialize_invalid_parameter_handler 00460fc8 f i MSVCRT:invalid_parameter_handler.obj
 0001:0005ffc8       @_guard_check_icall_nop@4  00460fc8 f i MSVCRT:guard_support.obj
 0001:0005ffc8       __initialize_denormal_control 00460fc8 f i MSVCRT:denormal_control.obj
 0001:0005ffca       ?AfxThrowInvalidArgException@@YGXXZ 00460fca f   mfc140u:mfc140u.dll
 0001:0005ffd0       ?AfxThrowArchiveException@@YGXHPB_W@Z 00460fd0 f   mfc140u:mfc140u.dll
 0001:0005ffd6       ?GetRuntimeClass@CObject@@UBEPAUCRuntimeClass@@XZ 00460fd6 f   mfc140u:mfc140u.dll
 0001:0005ffdc       ?Read@CArchive@@QAEIPAXI@Z 00460fdc f   mfc140u:mfc140u.dll
 0001:0005ffe2       ?Write@CArchive@@QAEXPBXI@Z 00460fe2 f   mfc140u:mfc140u.dll
 0001:0005ffe8       ?ReadCount@CArchive@@QAEKXZ 00460fe8 f   mfc140u:mfc140u.dll
 0001:0005ffee       ?WriteCount@CArchive@@QAEXK@Z 00460fee f   mfc140u:mfc140u.dll
 0001:0005fff4       ?Create@CPlex@@SGPAU1@AAPAU1@II@Z 00460ff4 f   mfc140u:mfc140u.dll
 0001:0005fffa       ?FreeDataChain@CPlex@@QAEXXZ 00460ffa f   mfc140u:mfc140u.dll
 0001:00060000       ?AfxLoadLibrary@@YGPAUHINSTANCE__@@PB_W@Z 00461000 f   mfc140u:mfc140u.dll
 0001:00060006       ?AfxFreeLibrary@@YGHPAUHINSTANCE__@@@Z 00461006 f   mfc140u:mfc140u.dll
 0001:0006000c       ?AfxThrowMemoryException@@YGXXZ 0046100c f   mfc140u:mfc140u.dll
 0001:00060012       ?AfxThrowOleException@@YGXJ@Z 00461012 f   mfc140u:mfc140u.dll
 0001:00060018       ??0CSyncObject@@QAE@PB_W@Z 00461018 f   mfc140u:mfc140u.dll
 0001:0006001e       ??1CSyncObject@@UAE@XZ     0046101e f   mfc140u:mfc140u.dll
 0001:00060024       ?GetRuntimeClass@CCriticalSection@@UBEPAUCRuntimeClass@@XZ 00461024 f   mfc140u:mfc140u.dll
 0001:0006002a       ?GetThisMessageMap@CWinApp@@KGPBUAFX_MSGMAP@@XZ 0046102a f   mfc140u:mfc140u.dll
 0001:00060030       ?OnCmdMsg@CCmdTarget@@UAEHIHPAXPAUAFX_CMDHANDLERINFO@@@Z 00461030 f   mfc140u:mfc140u.dll
 0001:00060036       ?OnFinalRelease@CCmdTarget@@UAEXXZ 00461036 f   mfc140u:mfc140u.dll
 0001:0006003c       ?IsInvokeAllowed@CCmdTarget@@UAEHJ@Z 0046103c f   mfc140u:mfc140u.dll
 0001:00060042       ?GetDispatchIID@CCmdTarget@@UAEHPAU_GUID@@@Z 00461042 f   mfc140u:mfc140u.dll
 0001:00060048       ?GetTypeInfoCount@CCmdTarget@@UAEIXZ 00461048 f   mfc140u:mfc140u.dll
 0001:0006004e       ?GetTypeLibCache@CCmdTarget@@UAEPAVCTypeLibCache@@XZ 0046104e f   mfc140u:mfc140u.dll
 0001:00060054       ?GetTypeLib@CCmdTarget@@UAEJKPAPAUITypeLib@@@Z 00461054 f   mfc140u:mfc140u.dll
 0001:0006005a       ?GetCommandMap@CCmdTarget@@MBEPBUAFX_OLECMDMAP@@XZ 0046105a f   mfc140u:mfc140u.dll
 0001:00060060       ?GetDispatchMap@CCmdTarget@@MBEPBUAFX_DISPMAP@@XZ 00461060 f   mfc140u:mfc140u.dll
 0001:00060066       ?GetConnectionMap@CCmdTarget@@MBEPBUAFX_CONNECTIONMAP@@XZ 00461066 f   mfc140u:mfc140u.dll
 0001:0006006c       ?GetInterfaceMap@CCmdTarget@@MBEPBUAFX_INTERFACEMAP@@XZ 0046106c f   mfc140u:mfc140u.dll
 0001:00060072       ?GetEventSinkMap@CCmdTarget@@MBEPBUAFX_EVENTSINKMAP@@XZ 00461072 f   mfc140u:mfc140u.dll
 0001:00060078       ?OnCreateAggregates@CCmdTarget@@UAEHXZ 00461078 f   mfc140u:mfc140u.dll
 0001:0006007e       ?GetInterfaceHook@CCmdTarget@@UAEPAUIUnknown@@PBX@Z 0046107e f   mfc140u:mfc140u.dll
 0001:00060084       ?GetExtraConnectionPoints@CCmdTarget@@MAEHPAVCPtrArray@@@Z 00461084 f   mfc140u:mfc140u.dll
 0001:0006008a       ?GetConnectionHook@CCmdTarget@@MAEPAUIConnectionPoint@@ABU_GUID@@@Z 0046108a f   mfc140u:mfc140u.dll
 0001:00060090       ?AfxInitRichEdit2@@YGHXZ   00461090 f   mfc140u:mfc140u.dll
 0001:00060096       ?DoModal@CDialog@@UAEHXZ   00461096 f   mfc140u:mfc140u.dll
 0001:0006009c       ?PreTranslateMessage@CWinThread@@UAEHPAUtagMSG@@@Z 0046109c f   mfc140u:mfc140u.dll
 0001:000600a2       ?PumpMessage@CWinThread@@UAEHXZ 004610a2 f   mfc140u:mfc140u.dll
 0001:000600a8       ?IsIdleMessage@CWinThread@@UAEHPAUtagMSG@@@Z 004610a8 f   mfc140u:mfc140u.dll
 0001:000600ae       ?ProcessMessageFilter@CWinThread@@UAEHHPAUtagMSG@@@Z 004610ae f   mfc140u:mfc140u.dll
 0001:000600b4       ?GetMainWnd@CWinThread@@UAEPAVCWnd@@XZ 004610b4 f   mfc140u:mfc140u.dll
 0001:000600ba       ?Delete@CWinThread@@UAEXXZ 004610ba f   mfc140u:mfc140u.dll
 0001:000600c0       ?GetRuntimeClass@CWinApp@@UBEPAUCRuntimeClass@@XZ 004610c0 f   mfc140u:mfc140u.dll
 0001:000600c6       ??0CWinApp@@QAE@PB_W@Z     004610c6 f   mfc140u:mfc140u.dll
 0001:000600cc       ?SetRegistryKey@CWinApp@@IAEXPB_W@Z 004610cc f   mfc140u:mfc140u.dll
 0001:000600d2       ?GetProfileIntW@CWinApp@@UAEIPB_W0H@Z 004610d2 f   mfc140u:mfc140u.dll
 0001:000600d8       ?WriteProfileInt@CWinApp@@UAEHPB_W0H@Z 004610d8 f   mfc140u:mfc140u.dll
 0001:000600de       ?GetProfileStringW@CWinApp@@UAE?AV?$CStringT@_WV?$StrTraitMFC_DLL@_WV?$ChTraitsCRT@_W@ATL@@@@@ATL@@PB_W00@Z 004610de f   mfc140u:mfc140u.dll
 0001:000600e4       ?WriteProfileStringW@CWinApp@@UAEHPB_W00@Z 004610e4 f   mfc140u:mfc140u.dll
 0001:000600ea       ?GetProfileBinary@CWinApp@@UAEHPB_W0PAPAEPAI@Z 004610ea f   mfc140u:mfc140u.dll
 0001:000600f0       ?WriteProfileBinary@CWinApp@@UAEHPB_W0PAEI@Z 004610f0 f   mfc140u:mfc140u.dll
 0001:000600f6       ?InitLibId@CWinApp@@UAEXXZ 004610f6 f   mfc140u:mfc140u.dll
 0001:000600fc       ?Register@CWinApp@@UAEHXZ  004610fc f   mfc140u:mfc140u.dll
 0001:00060102       ?Unregister@CWinApp@@UAEHXZ 00461102 f   mfc140u:mfc140u.dll
 0001:00060108       ?OpenDocumentFile@CWinApp@@UAEPAVCDocument@@PB_W@Z 00461108 f   mfc140u:mfc140u.dll
 0001:0006010e       ?OpenDocumentFile@CWinApp@@UAEPAVCDocument@@PB_WH@Z 0046110e f   mfc140u:mfc140u.dll
 0001:00060114       ?AddToRecentFileList@CWinApp@@UAEXPB_W@Z 00461114 f   mfc140u:mfc140u.dll
 0001:0006011a       ?InitApplication@CWinApp@@UAEHXZ 0046111a f   mfc140u:mfc140u.dll
 0001:00060120       ?SaveAllModified@CWinApp@@UAEHXZ 00461120 f   mfc140u:mfc140u.dll
 0001:00060126       ?DoMessageBox@CWinApp@@UAEHPB_WII@Z 00461126 f   mfc140u:mfc140u.dll
 0001:0006012c       ?DoWaitCursor@CWinApp@@UAEXH@Z 0046112c f   mfc140u:mfc140u.dll
 0001:00060132       ?OnDDECommand@CWinApp@@UAEHPA_W@Z 00461132 f   mfc140u:mfc140u.dll
 0001:00060138       ?WinHelpW@CWinApp@@UAEXKI@Z 00461138 f   mfc140u:mfc140u.dll
 0001:0006013e       ?HtmlHelpW@CWinApp@@UAEXKI@Z 0046113e f   mfc140u:mfc140u.dll
 0001:00060144       ?WinHelpInternal@CWinApp@@UAEXKI@Z 00461144 f   mfc140u:mfc140u.dll
 0001:0006014a       ?RegisterWithRestartManager@CWinApp@@UAEJHABV?$CStringT@_WV?$StrTraitMFC_DLL@_WV?$ChTraitsCRT@_W@ATL@@@@@ATL@@@Z 0046114a f   mfc140u:mfc140u.dll
 0001:00060150       ?RegisterWithRestartManager@CWinApp@@UAEJPB_WKP6GKPAX@Z1KK@Z 00461150 f   mfc140u:mfc140u.dll
 0001:00060156       ?ApplicationRecoveryCallback@CWinApp@@UAEKPAX@Z 00461156 f   mfc140u:mfc140u.dll
 0001:0006015c       ?GetDataRecoveryHandler@CWinApp@@UAEPAVCDataRecoveryHandler@@XZ 0046115c f   mfc140u:mfc140u.dll
 0001:00060162       ?IsTaskbarInteractionEnabled@CWinApp@@UAEHXZ 00461162 f   mfc140u:mfc140u.dll
 0001:00060168       ?InitInstance@CWinApp@@UAEHXZ 00461168 f   mfc140u:mfc140u.dll
 0001:0006016e       ?ExitInstance@CWinApp@@UAEHXZ 0046116e f   mfc140u:mfc140u.dll
 0001:00060174       ?RestartInstance@CWinApp@@UAEHXZ 00461174 f   mfc140u:mfc140u.dll
 0001:0006017a       ?Run@CWinApp@@UAEHXZ       0046117a f   mfc140u:mfc140u.dll
 0001:00060180       ?OnIdle@CWinApp@@UAEHJ@Z   00461180 f   mfc140u:mfc140u.dll
 0001:00060186       ?ProcessWndProcException@CWinApp@@UAEJPAVCException@@PBUtagMSG@@@Z 00461186 f   mfc140u:mfc140u.dll
 0001:0006018c       ?LoadAppLangResourceDLL@CWinApp@@UAEPAUHINSTANCE__@@XZ 0046118c f   mfc140u:mfc140u.dll
 0001:00060192       ??1CWinApp@@UAE@XZ         00461192 f   mfc140u:mfc140u.dll
 0001:00060198       ?LoadSysPolicies@CWinApp@@UAEHXZ 00461198 f   mfc140u:mfc140u.dll
 0001:0006019e       ?AfxEnableControlContainer@@YAXPAVCOccManager@@@Z 0046119e f   mfc140u:mfc140u.dll
 0001:000601a4       ?GetThisMessageMap@CDialog@@KGPBUAFX_MSGMAP@@XZ 004611a4 f   mfc140u:mfc140u.dll
 0001:000601aa       ?AfxGetModuleState@@YGPAVAFX_MODULE_STATE@@XZ 004611aa f   mfc140u:mfc140u.dll
 0001:000601b0       ?DDX_Control@@YGXPAVCDataExchange@@HAAVCWnd@@@Z 004611b0 f   mfc140u:mfc140u.dll
 0001:000601b6       ?PreSubclassWindow@CWnd@@UAEXXZ 004611b6 f   mfc140u:mfc140u.dll
 0001:000601bc       ?Create@CWnd@@UAEHPB_W0KABUtagRECT@@PAV1@IPAUCCreateContext@@@Z 004611bc f   mfc140u:mfc140u.dll
 0001:000601c2       ?CreateEx@CWnd@@UAEHKPB_W0KHHHHPAUHWND__@@PAUHMENU__@@PAX@Z 004611c2 f   mfc140u:mfc140u.dll
 0001:000601c8       ?CreateEx@CWnd@@UAEHKPB_W0KABUtagRECT@@PAV1@IPAX@Z 004611c8 f   mfc140u:mfc140u.dll
 0001:000601ce       ?DestroyWindow@CWnd@@UAEHXZ 004611ce f   mfc140u:mfc140u.dll
 0001:000601d4       ?PreCreateWindow@CWnd@@UAEHAAUtagCREATESTRUCTW@@@Z 004611d4 f   mfc140u:mfc140u.dll
 0001:000601da       ?CalcWindowRect@CWnd@@UAEXPAUtagRECT@@I@Z 004611da f   mfc140u:mfc140u.dll
 0001:000601e0       ?GetDlgItem@CWnd@@QBEPAV1@H@Z 004611e0 f   mfc140u:mfc140u.dll
 0001:000601e6       ?SetWindowTextW@CWnd@@QAEXPB_W@Z 004611e6 f   mfc140u:mfc140u.dll
 0001:000601ec       ?GetMenu@CWnd@@UBEPAVCMenu@@XZ 004611ec f   mfc140u:mfc140u.dll
 0001:000601f2       ?SetMenu@CWnd@@UAEHPAVCMenu@@@Z 004611f2 f   mfc140u:mfc140u.dll
 0001:000601f8       ?OnToolHitTest@CWnd@@UBEHVCPoint@@PAUtagTOOLINFOW@@@Z 004611f8 f   mfc140u:mfc140u.dll
 0001:000601fe       ?EnableWindow@CWnd@@QAEHH@Z 004611fe f   mfc140u:mfc140u.dll
 0001:00060204       ?SetDlgItemInt@CWnd@@QAEXHIH@Z 00461204 f   mfc140u:mfc140u.dll
 0001:0006020a       ?SetDlgItemTextW@CWnd@@QAEXHPB_W@Z 0046120a f   mfc140u:mfc140u.dll
 0001:00060210       ?GetScrollBarCtrl@CWnd@@UBEPAVCScrollBar@@H@Z 00461210 f   mfc140u:mfc140u.dll
 0001:00060216       ?WinHelpW@CWnd@@UAEXKI@Z   00461216 f   mfc140u:mfc140u.dll
 0001:0006021c       ?HtmlHelpW@CWnd@@UAEXKI@Z  0046121c f   mfc140u:mfc140u.dll
 0001:00060222       ?WinHelpInternal@CWnd@@UAEXKI@Z 00461222 f   mfc140u:mfc140u.dll
 0001:00060228       ?ContinueModal@CWnd@@UAEHXZ 00461228 f   mfc140u:mfc140u.dll
 0001:0006022e       ?EndModalLoop@CWnd@@UAEXH@Z 0046122e f   mfc140u:mfc140u.dll
 0001:00060234       ?OnDrawIconicThumbnailOrLivePreview@CWnd@@UAEXAAVCDC@@VCRect@@VCSize@@HAAH@Z 00461234 f   mfc140u:mfc140u.dll
 0001:0006023a       ?GetInterfaceMap@CWnd@@MBEPBUAFX_INTERFACEMAP@@XZ 0046123a f   mfc140u:mfc140u.dll
 0001:00060240       ?EnsureStdObj@CWnd@@UAEJXZ 00461240 f   mfc140u:mfc140u.dll
 0001:00060246       ?get_accParent@CWnd@@UAEJPAPAUIDispatch@@@Z 00461246 f   mfc140u:mfc140u.dll
 0001:0006024c       ?get_accChildCount@CWnd@@UAEJPAJ@Z 0046124c f   mfc140u:mfc140u.dll
 0001:00060252       ?get_accChild@CWnd@@UAEJUtagVARIANT@@PAPAUIDispatch@@@Z 00461252 f   mfc140u:mfc140u.dll
 0001:00060258       ?get_accName@CWnd@@UAEJUtagVARIANT@@PAPA_W@Z 00461258 f   mfc140u:mfc140u.dll
 0001:0006025e       ?get_accValue@CWnd@@UAEJUtagVARIANT@@PAPA_W@Z 0046125e f   mfc140u:mfc140u.dll
 0001:00060264       ?get_accDescription@CWnd@@UAEJUtagVARIANT@@PAPA_W@Z 00461264 f   mfc140u:mfc140u.dll
 0001:0006026a       ?get_accRole@CWnd@@UAEJUtagVARIANT@@PAU2@@Z 0046126a f   mfc140u:mfc140u.dll
 0001:00060270       ?get_accState@CWnd@@UAEJUtagVARIANT@@PAU2@@Z 00461270 f   mfc140u:mfc140u.dll
 0001:00060276       ?get_accHelp@CWnd@@UAEJUtagVARIANT@@PAPA_W@Z 00461276 f   mfc140u:mfc140u.dll
 0001:0006027c       ?get_accHelpTopic@CWnd@@UAEJPAPA_WUtagVARIANT@@PAJ@Z 0046127c f   mfc140u:mfc140u.dll
 0001:00060282       ?get_accKeyboardShortcut@CWnd@@UAEJUtagVARIANT@@PAPA_W@Z 00461282 f   mfc140u:mfc140u.dll
 0001:00060288       ?get_accFocus@CWnd@@UAEJPAUtagVARIANT@@@Z 00461288 f   mfc140u:mfc140u.dll
 0001:0006028e       ?get_accSelection@CWnd@@UAEJPAUtagVARIANT@@@Z 0046128e f   mfc140u:mfc140u.dll
 0001:00060294       ?get_accDefaultAction@CWnd@@UAEJUtagVARIANT@@PAPA_W@Z 00461294 f   mfc140u:mfc140u.dll
 0001:0006029a       ?accSelect@CWnd@@UAEJJUtagVARIANT@@@Z 0046129a f   mfc140u:mfc140u.dll
 0001:000602a0       ?accLocation@CWnd@@UAEJPAJ000UtagVARIANT@@@Z 004612a0 f   mfc140u:mfc140u.dll
 0001:000602a6       ?accNavigate@CWnd@@UAEJJUtagVARIANT@@PAU2@@Z 004612a6 f   mfc140u:mfc140u.dll
 0001:000602ac       ?accHitTest@CWnd@@UAEJJJPAUtagVARIANT@@@Z 004612ac f   mfc140u:mfc140u.dll
 0001:000602b2       ?accDoDefaultAction@CWnd@@UAEJUtagVARIANT@@@Z 004612b2 f   mfc140u:mfc140u.dll
 0001:000602b8       ?put_accName@CWnd@@UAEJUtagVARIANT@@PA_W@Z 004612b8 f   mfc140u:mfc140u.dll
 0001:000602be       ?put_accValue@CWnd@@UAEJUtagVARIANT@@PA_W@Z 004612be f   mfc140u:mfc140u.dll
 0001:000602c4       ?SetProxy@CWnd@@UAEJPAUIAccessibleProxy@@@Z 004612c4 f   mfc140u:mfc140u.dll
 0001:000602ca       ?CreateAccessibleProxy@CWnd@@UAEJIJPAJ@Z 004612ca f   mfc140u:mfc140u.dll
 0001:000602d0       ?OnCommand@CWnd@@MAEHIJ@Z  004612d0 f   mfc140u:mfc140u.dll
 0001:000602d6       ?OnNotify@CWnd@@MAEHIJPAJ@Z 004612d6 f   mfc140u:mfc140u.dll
 0001:000602dc       ?GetSuperWndProcAddr@CWnd@@MAEPAP6GJPAUHWND__@@IIJ@ZXZ 004612dc f   mfc140u:mfc140u.dll
 0001:000602e2       ?OnAmbientProperty@CWnd@@UAEHPAVCOleControlSite@@JPAUtagVARIANT@@@Z 004612e2 f   mfc140u:mfc140u.dll
 0001:000602e8       ?WindowProc@CWnd@@MAEJIIJ@Z 004612e8 f   mfc140u:mfc140u.dll
 0001:000602ee       ?OnWndMsg@CWnd@@MAEHIIJPAJ@Z 004612ee f   mfc140u:mfc140u.dll
 0001:000602f4       ?DefWindowProcW@CWnd@@MAEJIIJ@Z 004612f4 f   mfc140u:mfc140u.dll
 0001:000602fa       ?PostNcDestroy@CWnd@@MAEXXZ 004612fa f   mfc140u:mfc140u.dll
 0001:00060300       ?OnChildNotify@CWnd@@MAEHIIJPAJ@Z 00461300 f   mfc140u:mfc140u.dll
 0001:00060306       ?OnTouchInputs@CWnd@@MAEHIPAUtagTOUCHINPUT@@@Z 00461306 f   mfc140u:mfc140u.dll
 0001:0006030c       ?OnTouchInput@CWnd@@MAEHVCPoint@@HHPAUtagTOUCHINPUT@@@Z 0046130c f   mfc140u:mfc140u.dll
 0001:00060312       ?GetGestureStatus@CWnd@@MAEKVCPoint@@@Z 00461312 f   mfc140u:mfc140u.dll
 0001:00060318       ?OnGestureZoom@CWnd@@MAEHVCPoint@@J@Z 00461318 f   mfc140u:mfc140u.dll
 0001:0006031e       ?OnGesturePan@CWnd@@MAEHVCPoint@@0@Z 0046131e f   mfc140u:mfc140u.dll
 0001:00060324       ?OnGestureRotate@CWnd@@MAEHVCPoint@@N@Z 00461324 f   mfc140u:mfc140u.dll
 0001:0006032a       ?OnGestureTwoFingerTap@CWnd@@MAEHVCPoint@@@Z 0046132a f   mfc140u:mfc140u.dll
 0001:00060330       ?OnGesturePressAndTap@CWnd@@MAEHVCPoint@@J@Z 00461330 f   mfc140u:mfc140u.dll
 0001:00060336       ?ResizeDynamicLayout@CWnd@@MAEXXZ 00461336 f   mfc140u:mfc140u.dll
 0001:0006033c       ?IsFrameWnd@CWnd@@UBEHXZ   0046133c f   mfc140u:mfc140u.dll
 0001:00060342       ?OnFinalRelease@CWnd@@UAEXXZ 00461342 f   mfc140u:mfc140u.dll
 0001:00060348       ?CreateControlContainer@CWnd@@MAEHPAPAVCOleControlContainer@@@Z 00461348 f   mfc140u:mfc140u.dll
 0001:0006034e       ?CreateControlSite@CWnd@@MAEHPAVCOleControlContainer@@PAPAVCOleControlSite@@IABU_GUID@@@Z 0046134e f   mfc140u:mfc140u.dll
 0001:00060354       ?GetRuntimeClass@CDialog@@UBEPAUCRuntimeClass@@XZ 00461354 f   mfc140u:mfc140u.dll
 0001:0006035a       ?Create@CDialog@@UAEHPB_WPAVCWnd@@@Z 0046135a f   mfc140u:mfc140u.dll
 0001:00060360       ?CreateIndirect@CDialog@@UAEHPBUDLGTEMPLATE@@PAVCWnd@@PAX@Z 00461360 f   mfc140u:mfc140u.dll
 0001:00060366       ?CreateIndirect@CDialog@@UAEHPAXPAVCWnd@@@Z 00461366 f   mfc140u:mfc140u.dll
 0001:0006036c       ??0CDialog@@QAE@IPAVCWnd@@@Z 0046136c f   mfc140u:mfc140u.dll
 0001:00060372       ?OnInitDialog@CDialog@@UAEHXZ 00461372 f   mfc140u:mfc140u.dll
 0001:00060378       ?OnSetFont@CDialog@@UAEXPAVCFont@@@Z 00461378 f   mfc140u:mfc140u.dll
 0001:0006037e       ?OnCancel@CDialog@@MAEXXZ  0046137e f   mfc140u:mfc140u.dll
 0001:00060384       ??1CDialog@@UAE@XZ         00461384 f   mfc140u:mfc140u.dll
 0001:0006038a       ?PreTranslateMessage@CDialog@@UAEHPAUtagMSG@@@Z 0046138a f   mfc140u:mfc140u.dll
 0001:00060390       ?OnCmdMsg@CDialog@@UAEHIHPAXPAUAFX_CMDHANDLERINFO@@@Z 00461390 f   mfc140u:mfc140u.dll
 0001:00060396       ?CheckAutoCenter@CDialog@@UAEHXZ 00461396 f   mfc140u:mfc140u.dll
 0001:0006039c       ?SetOccDialogInfo@CDialog@@MAEHPAU_AFX_OCC_DIALOG_INFO@@@Z 0046139c f   mfc140u:mfc140u.dll
 0001:000603a2       ?GetOccDialogInfo@CDialog@@MAEPAU_AFX_OCC_DIALOG_INFO@@XZ 004613a2 f   mfc140u:mfc140u.dll
 0001:000603a8       ?PreInitDialog@CDialog@@MAEXXZ 004613a8 f   mfc140u:mfc140u.dll
 0001:000603ae       ?AfxMessageBox@@YGHPB_WII@Z 004613ae f   mfc140u:mfc140u.dll
 0001:000603b4       ?GetThisMessageMap@CWnd@@KGPBUAFX_MSGMAP@@XZ 004613b4 f   mfc140u:mfc140u.dll
 0001:000603ba       ?GetRuntimeClass@CWnd@@UBEPAUCRuntimeClass@@XZ 004613ba f   mfc140u:mfc140u.dll
 0001:000603c0       ??0CWnd@@QAE@XZ            004613c0 f   mfc140u:mfc140u.dll
 0001:000603c6       ?PreTranslateMessage@CWnd@@UAEHPAUtagMSG@@@Z 004613c6 f   mfc140u:mfc140u.dll
 0001:000603cc       ??1CWnd@@UAE@XZ            004613cc f   mfc140u:mfc140u.dll
 0001:000603d2       ?CheckAutoCenter@CWnd@@UAEHXZ 004613d2 f   mfc140u:mfc140u.dll
 0001:000603d8       ?SetOccDialogInfo@CWnd@@MAEHPAU_AFX_OCC_DIALOG_INFO@@@Z 004613d8 f   mfc140u:mfc140u.dll
 0001:000603de       ?GetOccDialogInfo@CWnd@@MAEPAU_AFX_OCC_DIALOG_INFO@@XZ 004613de f   mfc140u:mfc140u.dll
 0001:000603e4       ?AfxGetThread@@YGPAVCWinThread@@XZ 004613e4 f   mfc140u:mfc140u.dll
 0001:000603ea       ?AfxInitialize@@YGHHK@Z    004613ea f   mfcs140u:appmodul.obj
 0001:00060405       _wWinMain@16               00461405 f   mfcs140u:appmodul.obj
 0001:0006040e       _IsProcessorFeaturePresent@4 0046140e f   kernel32:KERNEL32.dll
 0001:00060414       ??0CAtlBaseModule@ATL@@QAE@XZ 00461414 f   atls:atlbase.obj
 0001:00060467       ??0_ATL_BASE_MODULE70@ATL@@QAE@XZ 00461467 f i atls:atlbase.obj
 0001:0006048a       ??1CAtlBaseModule@ATL@@QAE@XZ 0046148a f   atls:atlbase.obj
 0001:000604a0       ?RemoveAll@?$CSimpleArray@PAUHINSTANCE__@@V?$CSimpleArrayEqualHelper@PAUHINSTANCE__@@@ATL@@@ATL@@QAEXXZ 004614a0 f i atls:atlbase.obj
 0001:000604c0       ?_com_issue_error@@YGXJ@Z  004614c0 f   comsuppw:comsupp.obj
 0001:000604e0       ??0_com_error@@QAE@ABV0@@Z 004614e0 f i comsuppw:comraise.obj
 0001:00060520       ??0_com_error@@QAE@JPAUIErrorInfo@@_N@Z 00461520 f i comsuppw:comraise.obj
 0001:00060570       ??1_com_error@@UAE@XZ      00461570 f i comsuppw:comraise.obj
 0001:000605b0       ??_E_com_error@@UAEPAXI@Z  004615b0 f i comsuppw:comraise.obj
 0001:000605b0       ??_G_com_error@@UAEPAXI@Z  004615b0 f i comsuppw:comraise.obj
 0001:00060600       ?_com_raise_error@@YGXJPAUIErrorInfo@@@Z 00461600 f   comsuppw:comraise.obj
 0001:00060626       _MiniDumpWriteDump@28      00461626 f   DbgHelp:dbghelp.dll
 0001:0006062c       _memset                    0046162c f   vcruntime:VCRUNTIME140.dll
 0001:00060632       __purecall                 00461632 f   vcruntime:VCRUNTIME140.dll
 0001:00060638       _memcmp                    00461638 f   vcruntime:VCRUNTIME140.dll
 0001:0006063e       _memcpy                    0046163e f   vcruntime:VCRUNTIME140.dll
 0001:00060644       ___CxxFrameHandler3        00461644 f   vcruntime:VCRUNTIME140.dll
 0001:0006064a       __CxxThrowException@8      0046164a f   vcruntime:VCRUNTIME140.dll
 0001:00060650       ___vcrt_InitializeCriticalSectionEx 00461650 f   vcruntime:VCRUNTIME140.dll
 0001:00060656       __except_handler4_common   00461656 f   vcruntime:VCRUNTIME140.dll
 0001:0006065c       ___std_exception_copy      0046165c f   vcruntime:VCRUNTIME140.dll
 0001:00060662       ___std_exception_destroy   00461662 f   vcruntime:VCRUNTIME140.dll
 0001:00060668       _strlen                    00461668 f   ucrt:api-ms-win-crt-string-l1-1-0.dll
 0001:0006066e       _llabs                     0046166e f   ucrt:api-ms-win-crt-utility-l1-1-0.dll
 0001:00060674       _pow                       00461674 f   ucrt:api-ms-win-crt-math-l1-1-0.dll
 0001:0006067a       _free                      0046167a f   ucrt:api-ms-win-crt-heap-l1-1-0.dll
 0001:00060680       __seh_filter_exe           00461680 f   ucrt:api-ms-win-crt-runtime-l1-1-0.dll
 0001:00060686       __set_app_type             00461686 f   ucrt:api-ms-win-crt-runtime-l1-1-0.dll
 0001:0006068c       ___setusermatherr          0046168c f   ucrt:api-ms-win-crt-math-l1-1-0.dll
 0001:00060692       __configure_wide_argv      00461692 f   ucrt:api-ms-win-crt-runtime-l1-1-0.dll
 0001:00060698       __initialize_wide_environment 00461698 f   ucrt:api-ms-win-crt-runtime-l1-1-0.dll
 0001:0006069e       __get_wide_winmain_command_line 0046169e f   ucrt:api-ms-win-crt-runtime-l1-1-0.dll
 0001:000606a4       __initterm                 004616a4 f   ucrt:api-ms-win-crt-runtime-l1-1-0.dll
 0001:000606aa       __initterm_e               004616aa f   ucrt:api-ms-win-crt-runtime-l1-1-0.dll
 0001:000606b0       _exit                      004616b0 f   ucrt:api-ms-win-crt-runtime-l1-1-0.dll
 0001:000606b6       __exit                     004616b6 f   ucrt:api-ms-win-crt-runtime-l1-1-0.dll
 0001:000606bc       __set_fmode                004616bc f   ucrt:api-ms-win-crt-stdio-l1-1-0.dll
 0001:000606c2       __cexit                    004616c2 f   ucrt:api-ms-win-crt-runtime-l1-1-0.dll
 0001:000606c8       __c_exit                   004616c8 f   ucrt:api-ms-win-crt-runtime-l1-1-0.dll
 0001:000606ce       __register_thread_local_exe_atexit_callback 004616ce f   ucrt:api-ms-win-crt-runtime-l1-1-0.dll
 0001:000606d4       __configthreadlocale       004616d4 f   ucrt:api-ms-win-crt-locale-l1-1-0.dll
 0001:000606da       __set_new_mode             004616da f   ucrt:api-ms-win-crt-heap-l1-1-0.dll
 0001:000606e0       ___p__commode              004616e0 f   ucrt:api-ms-win-crt-stdio-l1-1-0.dll
 0001:000606e6       __callnewh                 004616e6 f   ucrt:api-ms-win-crt-heap-l1-1-0.dll
 0001:000606ec       _malloc                    004616ec f   ucrt:api-ms-win-crt-heap-l1-1-0.dll
 0001:000606f2       __except1                  004616f2 f   ucrt:api-ms-win-crt-math-l1-1-0.dll
 0001:000606f8       __initialize_onexit_table  004616f8 f   ucrt:api-ms-win-crt-runtime-l1-1-0.dll
 0001:000606fe       __register_onexit_function 004616fe f   ucrt:api-ms-win-crt-runtime-l1-1-0.dll
 0001:00060704       __crt_atexit               00461704 f   ucrt:api-ms-win-crt-runtime-l1-1-0.dll
 0001:0006070a       _terminate                 0046170a f   ucrt:api-ms-win-crt-runtime-l1-1-0.dll
 0001:00060710       __controlfp_s              00461710 f   ucrt:api-ms-win-crt-runtime-l1-1-0.dll
 0001:00060720       __SEH_prolog4_GS           00461720 f   MSVCRT:_sehprolg4gs_.obj
 0001:00060769       __SEH_epilog4_GS           00461769 f   MSVCRT:_sehprolg4gs_.obj
 0001:00060780       __alloca_probe_16          00461780 f   MSVCRT:alloca16.obj
 0001:00060796       __alloca_probe_8           00461796     MSVCRT:alloca16.obj
 0001:000607ac       ?AfxWinMain@@YGHPAUHINSTANCE__@@0PA_WH@Z 004617ac f   mfc140u:mfc140u.dll
 0001:000607b2       ___scrt_stub_for_acrt_initialize 004617b2 f   MSVCRT:ucrt_stubs.obj
 0001:000607b2       ___scrt_stub_for_acrt_uninitialize 004617b2 f   MSVCRT:ucrt_stubs.obj
 0001:000607b2       ___vcrt_uninitialize       004617b2 f   MSVCRT:ucrt_stubs.obj
 0001:000607b2       ___acrt_initialize         004617b2 f   MSVCRT:ucrt_stubs.obj
 0001:000607b2       __should_initialize_environment 004617b2 f   MSVCRT:env_mode.obj
 0001:000607b2       ___acrt_uninitialize       004617b2 f   MSVCRT:ucrt_stubs.obj
 0001:000607b2       ___vcrt_initialize         004617b2 f   MSVCRT:ucrt_stubs.obj
 0002:00000000       __imp__InitCommonControls@0 00464000     comctl32:COMCTL32.dll
 0002:00000004       \177COMCTL32_NULL_THUNK_DATA 00464004     comctl32:COMCTL32.dll
 0002:00000008       __imp_?SetMainServiceFrame@CAndroidUserManager@@QAEXPAUIMainServiceFrame@@@Z 00464008     GameService:GameService.dll
 0002:0000000c       __imp_??0CGamePropertyManager@@QAE@XZ 0046400c     GameService:GameService.dll
 0002:00000010       __imp_??1CGamePropertyManager@@UAE@XZ 00464010     GameService:GameService.dll
 0002:00000014       __imp_?SetGamePropertyBuff@CGamePropertyManager@@QAE_NKQBUtagPropertyBuff@@G@Z 00464014     GameService:GameService.dll
 0002:00000018       __imp_?ClearUserBuff@CGamePropertyManager@@QAE_NK@Z 00464018     GameService:GameService.dll
 0002:0000001c       __imp_??1CAndroidUserManager@@UAE@XZ 0046401c     GameService:GameService.dll
 0002:00000020       __imp_?SearchValidPropertyBuff@CGamePropertyManager@@SAPAUtagPropertyBuff@@KW4PROP_KIND@@@Z 00464020     GameService:GameService.dll
 0002:00000024       __imp_??0CServerUserManager@@QAE@XZ 00464024     GameService:GameService.dll
 0002:00000028       __imp_??1CUserTaskManager@@UAE@XZ 00464028     GameService:GameService.dll
 0002:0000002c       __imp_??0CUserTaskManager@@QAE@XZ 0046402c     GameService:GameService.dll
 0002:00000030       __imp_??1CServerUserManager@@UAE@XZ 00464030     GameService:GameService.dll
 0002:00000034       __imp_??0CAndroidUserManager@@QAE@XZ 00464034     GameService:GameService.dll
 0002:00000038       \177GameService_NULL_THUNK_DATA 00464038     GameService:GameService.dll
 0002:0000003c       __imp__MultiByteToWideChar@24 0046403c     kernel32:KERNEL32.dll
 0002:00000040       __imp__OutputDebugStringA@4 00464040     kernel32:KERNEL32.dll
 0002:00000044       __imp__GetLastError@0      00464044     kernel32:KERNEL32.dll
 0002:00000048       __imp__GetProcAddress@8    00464048     kernel32:KERNEL32.dll
 0002:0000004c       __imp__lstrcpynA@12        0046404c     kernel32:KERNEL32.dll
 0002:00000050       __imp__EnterCriticalSection@4 00464050     kernel32:KERNEL32.dll
 0002:00000054       __imp__LeaveCriticalSection@4 00464054     kernel32:KERNEL32.dll
 0002:00000058       __imp__InitializeCriticalSectionAndSpinCount@8 00464058     kernel32:KERNEL32.dll
 0002:0000005c       __imp__DeleteCriticalSection@4 0046405c     kernel32:KERNEL32.dll
 0002:00000060       __imp__GetModuleHandleW@4  00464060     kernel32:KERNEL32.dll
 0002:00000064       __imp__WritePrivateProfileStringW@16 00464064     kernel32:KERNEL32.dll
 0002:00000068       __imp__lstrlenW@4          00464068     kernel32:KERNEL32.dll
 0002:0000006c       __imp__CreateEventW@16     0046406c     kernel32:KERNEL32.dll
 0002:00000070       __imp__QueryPerformanceCounter@4 00464070     kernel32:KERNEL32.dll
 0002:00000074       __imp__GetSystemTimeAsFileTime@4 00464074     kernel32:KERNEL32.dll
 0002:00000078       __imp__InitializeSListHead@4 00464078     kernel32:KERNEL32.dll
 0002:0000007c       __imp__IsDebuggerPresent@0 0046407c     kernel32:KERNEL32.dll
 0002:00000080       __imp__UnhandledExceptionFilter@4 00464080     kernel32:KERNEL32.dll
 0002:00000084       __imp__GetStartupInfoW@4   00464084     kernel32:KERNEL32.dll
 0002:00000088       __imp__IsProcessorFeaturePresent@4 00464088     kernel32:KERNEL32.dll
 0002:0000008c       __imp__TerminateProcess@8  0046408c     kernel32:KERNEL32.dll
 0002:00000090       __imp__lstrcpynW@12        00464090     kernel32:KERNEL32.dll
 0002:00000094       __imp__lstrcmpW@8          00464094     kernel32:KERNEL32.dll
 0002:00000098       __imp__LoadLibraryW@4      00464098     kernel32:KERNEL32.dll
 0002:0000009c       __imp__FreeLibrary@4       0046409c     kernel32:KERNEL32.dll
 0002:000000a0       __imp__GetTickCount@0      004640a0     kernel32:KERNEL32.dll
 0002:000000a4       __imp__GetCurrentThreadId@0 004640a4     kernel32:KERNEL32.dll
 0002:000000a8       __imp__GetCurrentProcessId@0 004640a8     kernel32:KERNEL32.dll
 0002:000000ac       __imp__GetCurrentProcess@0 004640ac     kernel32:KERNEL32.dll
 0002:000000b0       __imp__SetUnhandledExceptionFilter@4 004640b0     kernel32:KERNEL32.dll
 0002:000000b4       __imp__CloseHandle@4       004640b4     kernel32:KERNEL32.dll
 0002:000000b8       __imp__LocalFree@4         004640b8     kernel32:KERNEL32.dll
 0002:000000bc       __imp__OutputDebugStringW@4 004640bc     kernel32:KERNEL32.dll
 0002:000000c0       __imp__CreateFileW@28      004640c0     kernel32:KERNEL32.dll
 0002:000000c4       __imp__GetCurrentDirectoryW@8 004640c4     kernel32:KERNEL32.dll
 0002:000000c8       __imp__GetLocalTime@4      004640c8     kernel32:KERNEL32.dll
 0002:000000cc       \177KERNEL32_NULL_THUNK_DATA 004640cc     kernel32:KERNEL32.dll
 0002:000000d0       __imp_?GetValue_BYTE@CDataBaseAide@@QAEEPB_W@Z 004640d0     KernelEngine:KernelEngine.dll
 0002:000000d4       __imp_?GetValue_DWORD@CDataBaseAide@@QAEKPB_W@Z 004640d4     KernelEngine:KernelEngine.dll
 0002:000000d8       __imp_?GetValue_LONGLONG@CDataBaseAide@@QAE_JPB_W@Z 004640d8     KernelEngine:KernelEngine.dll
 0002:000000dc       __imp_?GetParameter@CDataBaseAide@@QAEXPB_WPA_WI@Z 004640dc     KernelEngine:KernelEngine.dll
 0002:000000e0       __imp_??1CTraceServiceControl@@UAE@XZ 004640e0     KernelEngine:KernelEngine.dll
 0002:000000e4       __imp_??0CTraceServiceControl@@QAE@XZ 004640e4     KernelEngine:KernelEngine.dll
 0002:000000e8       __imp_?AddParameter@CDataBaseAide@@QAEXPB_WAAU_SYSTEMTIME@@W4ParameterDirectionEnum@ADOCG@@@Z 004640e8     KernelEngine:KernelEngine.dll
 0002:000000ec       __imp_?AddParameter@CDataBaseAide@@QAEXPB_WPBDW4ParameterDirectionEnum@ADOCG@@@Z 004640ec     KernelEngine:KernelEngine.dll
 0002:000000f0       __imp_?AddParameter@CDataBaseAide@@QAEXPB_WNW4ParameterDirectionEnum@ADOCG@@@Z 004640f0     KernelEngine:KernelEngine.dll
 0002:000000f4       __imp_?AddParameter@CDataBaseAide@@QAEXPB_WGW4ParameterDirectionEnum@ADOCG@@@Z 004640f4     KernelEngine:KernelEngine.dll
 0002:000000f8       __imp_?AddParameter@CDataBaseAide@@QAEXPB_W_JW4ParameterDirectionEnum@ADOCG@@@Z 004640f8     KernelEngine:KernelEngine.dll
 0002:000000fc       __imp_?AddParameter@CDataBaseAide@@QAEXPB_WJW4ParameterDirectionEnum@ADOCG@@@Z 004640fc     KernelEngine:KernelEngine.dll
 0002:00000100       __imp_?GetValue_String@CDataBaseAide@@QAEXPB_WPA_WI@Z 00464100     KernelEngine:KernelEngine.dll
 0002:00000104       __imp_?ResetParameter@CDataBaseAide@@QAEXXZ 00464104     KernelEngine:KernelEngine.dll
 0002:00000108       __imp_?GetParameter@CDataBaseAide@@QAEXPB_WAAV_variant_t@@@Z 00464108     KernelEngine:KernelEngine.dll
 0002:0000010c       __imp_?AddParameter@CDataBaseAide@@QAEXPB_WEW4ParameterDirectionEnum@ADOCG@@@Z 0046410c     KernelEngine:KernelEngine.dll
 0002:00000110       __imp_?AddParameter@CDataBaseAide@@QAEXPB_WKW4ParameterDirectionEnum@ADOCG@@@Z 00464110     KernelEngine:KernelEngine.dll
 0002:00000114       __imp_?AddParameter@CDataBaseAide@@QAEXPB_W0W4ParameterDirectionEnum@ADOCG@@@Z 00464114     KernelEngine:KernelEngine.dll
 0002:00000118       __imp_?AddParameterOutput@CDataBaseAide@@QAEXPB_WPA_WIW4ParameterDirectionEnum@ADOCG@@@Z 00464118     KernelEngine:KernelEngine.dll
 0002:0000011c       __imp_?GetReturnValue@CDataBaseAide@@QAEJXZ 0046411c     KernelEngine:KernelEngine.dll
 0002:00000120       __imp_?ExecuteProcess@CDataBaseAide@@QAEJPB_W_N@Z 00464120     KernelEngine:KernelEngine.dll
 0002:00000124       __imp_?TraceString@CTraceService@@SA_NPB_WW4enTraceLevel@@@Z 00464124     KernelEngine:KernelEngine.dll
 0002:00000128       __imp_??0CDataBaseAide@@QAE@PAUIUnknownEx@@@Z 00464128     KernelEngine:KernelEngine.dll
 0002:0000012c       __imp_??1CDataBaseAide@@UAE@XZ 0046412c     KernelEngine:KernelEngine.dll
 0002:00000130       __imp_?SetDataBase@CDataBaseAide@@QAE_NPAUIUnknownEx@@@Z 00464130     KernelEngine:KernelEngine.dll
 0002:00000134       __imp_?GetValue_LONG@CDataBaseAide@@QAEJPB_W@Z 00464134     KernelEngine:KernelEngine.dll
 0002:00000138       __imp_?GetValue_WORD@CDataBaseAide@@QAEGPB_W@Z 00464138     KernelEngine:KernelEngine.dll
 0002:0000013c       __imp_?GetValue_DOUBLE@CDataBaseAide@@QAENPB_W@Z 0046413c     KernelEngine:KernelEngine.dll
 0002:00000140       __imp_?GetValue_SystemTime@CDataBaseAide@@QAEXPB_WAAU_SYSTEMTIME@@@Z 00464140     KernelEngine:KernelEngine.dll
 0002:00000144       __imp_?AddParameter@CDataBaseAide@@QAEXPB_WHW4ParameterDirectionEnum@ADOCG@@@Z 00464144     KernelEngine:KernelEngine.dll
 0002:00000148       __imp_?GetValue_INT@CDataBaseAide@@QAEHPB_W@Z 00464148     KernelEngine:KernelEngine.dll
 0002:0000014c       \177KernelEngine_NULL_THUNK_DATA 0046414c     KernelEngine:KernelEngine.dll
 0002:00000150       __imp_?GetPlatformDBParameter@CModuleDBParameter@@QAEPAUtagDataBaseParameter@@XZ 00464150     ModuleManager:ModuleManager.dll
 0002:00000154       __imp_??0CModuleDBParameter@@QAE@XZ 00464154     ModuleManager:ModuleManager.dll
 0002:00000158       __imp_?SetPersonalRoomParameter@CDlgServerWizard@@QAEXUtagPersonalRoomOption@@UtagPersonalRoomOptionRightAndFee@@@Z 00464158     ModuleManager:ModuleManager.dll
 0002:0000015c       __imp_?GetModuleDBParameter@CModuleDBParameter@@SAPAV1@XZ 0046415c     ModuleManager:ModuleManager.dll
 0002:00000160       __imp_??1CModuleDBParameter@@UAE@XZ 00464160     ModuleManager:ModuleManager.dll
 0002:00000164       __imp_?SetPlatformDBParameter@CModuleDBParameter@@QAEXAAUtagDataBaseParameter@@@Z 00464164     ModuleManager:ModuleManager.dll
 0002:00000168       __imp_??0CDlgServerItem@@QAE@XZ 00464168     ModuleManager:ModuleManager.dll
 0002:0000016c       __imp_??1CDlgServerItem@@UAE@XZ 0046416c     ModuleManager:ModuleManager.dll
 0002:00000170       __imp_?OpenGameServer@CDlgServerItem@@QAE_NXZ 00464170     ModuleManager:ModuleManager.dll
 0002:00000174       __imp_?OpenGameServer@CDlgServerItem@@QAE_NG@Z 00464174     ModuleManager:ModuleManager.dll
 0002:00000178       __imp_?LoadPersonalRoomPatameter@CDlgServerItem@@QAE_NGE@Z 00464178     ModuleManager:ModuleManager.dll
 0002:0000017c       __imp_??0CDlgServerMatch@@QAE@XZ 0046417c     ModuleManager:ModuleManager.dll
 0002:00000180       __imp_??1CDlgServerMatch@@UAE@XZ 00464180     ModuleManager:ModuleManager.dll
 0002:00000184       __imp_?OpenGameMatch@CDlgServerMatch@@QAE_NAAUtagGameServiceAttrib@@AAUtagGameServiceOption@@@Z 00464184     ModuleManager:ModuleManager.dll
 0002:00000188       __imp_??0CDlgServerWizard@@QAE@XZ 00464188     ModuleManager:ModuleManager.dll
 0002:0000018c       __imp_??1CDlgServerWizard@@UAE@XZ 0046418c     ModuleManager:ModuleManager.dll
 0002:00000190       __imp_?CreateGameServer@CDlgServerWizard@@QAE_NXZ 00464190     ModuleManager:ModuleManager.dll
 0002:00000194       __imp_?SetWizardParameter@CDlgServerWizard@@QAEXPAUIGameServiceManager@@PAUtagGameServiceOption@@@Z 00464194     ModuleManager:ModuleManager.dll
 0002:00000198       \177ModuleManager_NULL_THUNK_DATA 00464198     ModuleManager:ModuleManager.dll
 0002:0000019c       __imp__VariantCopy@8       0046419c     oleaut32:OLEAUT32.dll
 0002:000001a0       __imp__SafeArrayPutElement@12 004641a0     oleaut32:OLEAUT32.dll
 0002:000001a4       __imp__SafeArrayCreate@12  004641a4     oleaut32:OLEAUT32.dll
 0002:000001a8       __imp__VariantClear@4      004641a8     oleaut32:OLEAUT32.dll
 0002:000001ac       __imp__VariantInit@4       004641ac     oleaut32:OLEAUT32.dll
 0002:000001b0       \177OLEAUT32_NULL_THUNK_DATA 004641b0     oleaut32:OLEAUT32.dll
 0002:000001b4       __imp__PathFileExistsW@4   004641b4     shlwapi:SHLWAPI.dll
 0002:000001b8       __imp__wnsprintfW          004641b8     shlwapi:SHLWAPI.dll
 0002:000001bc       \177SHLWAPI_NULL_THUNK_DATA 004641bc     shlwapi:SHLWAPI.dll
 0002:000001c0       __imp_?DistillData@CWHDataQueue@@QAE_NAAUtagDataHead@@PAXG@Z 004641c0     ServiceCore:ServiceCore.dll
 0002:000001c4       __imp_??1CWHCommandLine@@UAE@XZ 004641c4     ServiceCore:ServiceCore.dll
 0002:000001c8       __imp_??1CWHDataQueue@@UAE@XZ 004641c8     ServiceCore:ServiceCore.dll
 0002:000001cc       __imp_??0CWHDataQueue@@QAE@XZ 004641cc     ServiceCore:ServiceCore.dll
 0002:000001d0       __imp_?SearchCommandItem@CWHCommandLine@@QAE_NPB_W0QA_WG@Z 004641d0     ServiceCore:ServiceCore.dll
 0002:000001d4       __imp_?InsertData@CWHDataQueue@@QAE_NGPAXG@Z 004641d4     ServiceCore:ServiceCore.dll
 0002:000001d8       __imp_??1CWHIniData@@UAE@XZ 004641d8     ServiceCore:ServiceCore.dll
 0002:000001dc       __imp_??0CWHDataLocker@@QAE@AAVCCriticalSection@@_N@Z 004641dc     ServiceCore:ServiceCore.dll
 0002:000001e0       __imp_??1CWHDataLocker@@UAE@XZ 004641e0     ServiceCore:ServiceCore.dll
 0002:000001e4       __imp_?GetWorkDirectory@CWHService@@SA_NQA_WG@Z 004641e4     ServiceCore:ServiceCore.dll
 0002:000001e8       __imp_??0CWHIniData@@QAE@XZ 004641e8     ServiceCore:ServiceCore.dll
 0002:000001ec       __imp_??0CWHCommandLine@@QAE@XZ 004641ec     ServiceCore:ServiceCore.dll
 0002:000001f0       __imp_?SetIniFilePath@CWHIniData@@QAEXPB_W@Z 004641f0     ServiceCore:ServiceCore.dll
 0002:000001f4       __imp_?ReadInt@CWHIniData@@QAEIPB_W0H@Z 004641f4     ServiceCore:ServiceCore.dll
 0002:000001f8       __imp_?ReadEncryptString@CWHIniData@@QAEPB_WPB_W00PA_WG@Z 004641f8     ServiceCore:ServiceCore.dll
 0002:000001fc       __imp_?XorCrevasse@CWHEncrypt@@SA_NPB_WPA_WG@Z 004641fc     ServiceCore:ServiceCore.dll
 0002:00000200       \177ServiceCore_NULL_THUNK_DATA 00464200     ServiceCore:ServiceCore.dll
 0002:00000204       __imp_??1CShareStorageServiceManager@@UAE@XZ 00464204     ShareStorageService:ShareStorageService.dll
 0002:00000208       __imp_??0CShareStorageServiceManager@@QAE@XZ 00464208     ShareStorageService:ShareStorageService.dll
 0002:0000020c       \177ShareStorageService_NULL_THUNK_DATA 0046420c     ShareStorageService:ShareStorageService.dll
 0002:00000210       __imp__IsWindow@4          00464210     user32:USER32.dll
 0002:00000214       __imp__LoadIconW@8         00464214     user32:USER32.dll
 0002:00000218       __imp__EnableWindow@8      00464218     user32:USER32.dll
 0002:0000021c       __imp__PostMessageW@16     0046421c     user32:USER32.dll
 0002:00000220       __imp__SendMessageW@16     00464220     user32:USER32.dll
 0002:00000224       __imp__wsprintfW           00464224     user32:USER32.dll
 0002:00000228       \177USER32_NULL_THUNK_DATA 00464228     user32:USER32.dll
 0002:0000022c       __imp__memset              0046422c     vcruntime:VCRUNTIME140.dll
 0002:00000230       __imp___purecall           00464230     vcruntime:VCRUNTIME140.dll
 0002:00000234       __imp__memcmp              00464234     vcruntime:VCRUNTIME140.dll
 0002:00000238       __imp__memcpy              00464238     vcruntime:VCRUNTIME140.dll
 0002:0000023c       __imp__memmove             0046423c     vcruntime:VCRUNTIME140.dll
 0002:00000240       __imp____CxxFrameHandler3  00464240     vcruntime:VCRUNTIME140.dll
 0002:00000244       __imp___CxxThrowException@8 00464244     vcruntime:VCRUNTIME140.dll
 0002:00000248       __imp____vcrt_InitializeCriticalSectionEx 00464248     vcruntime:VCRUNTIME140.dll
 0002:0000024c       __imp___except_handler4_common 0046424c     vcruntime:VCRUNTIME140.dll
 0002:00000250       __imp____std_exception_copy 00464250     vcruntime:VCRUNTIME140.dll
 0002:00000254       __imp____std_exception_destroy 00464254     vcruntime:VCRUNTIME140.dll
 0002:00000258       \177VCRUNTIME140_NULL_THUNK_DATA 00464258     vcruntime:VCRUNTIME140.dll
 0002:0000025c       __imp___wtol               0046425c     ucrt:api-ms-win-crt-convert-l1-1-0.dll
 0002:00000260       \177api-ms-win-crt-convert-l1-1-0_NULL_THUNK_DATA 00464260     ucrt:api-ms-win-crt-convert-l1-1-0.dll
 0002:00000264       __imp___mkdir              00464264     ucrt:api-ms-win-crt-filesystem-l1-1-0.dll
 0002:00000268       __imp___wmkdir             00464268     ucrt:api-ms-win-crt-filesystem-l1-1-0.dll
 0002:0000026c       \177api-ms-win-crt-filesystem-l1-1-0_NULL_THUNK_DATA 0046426c     ucrt:api-ms-win-crt-filesystem-l1-1-0.dll
 0002:00000270       __imp__free                00464270     ucrt:api-ms-win-crt-heap-l1-1-0.dll
 0002:00000274       __imp__malloc              00464274     ucrt:api-ms-win-crt-heap-l1-1-0.dll
 0002:00000278       __imp___callnewh           00464278     ucrt:api-ms-win-crt-heap-l1-1-0.dll
 0002:0000027c       __imp___set_new_mode       0046427c     ucrt:api-ms-win-crt-heap-l1-1-0.dll
 0002:00000280       \177api-ms-win-crt-heap-l1-1-0_NULL_THUNK_DATA 00464280     ucrt:api-ms-win-crt-heap-l1-1-0.dll
 0002:00000284       __imp___wsetlocale         00464284     ucrt:api-ms-win-crt-locale-l1-1-0.dll
 0002:00000288       __imp___configthreadlocale 00464288     ucrt:api-ms-win-crt-locale-l1-1-0.dll
 0002:0000028c       \177api-ms-win-crt-locale-l1-1-0_NULL_THUNK_DATA 0046428c     ucrt:api-ms-win-crt-locale-l1-1-0.dll
 0002:00000290       __imp__pow                 00464290     ucrt:api-ms-win-crt-math-l1-1-0.dll
 0002:00000294       __imp___except1            00464294     ucrt:api-ms-win-crt-math-l1-1-0.dll
 0002:00000298       __imp____setusermatherr    00464298     ucrt:api-ms-win-crt-math-l1-1-0.dll
 0002:0000029c       \177api-ms-win-crt-math-l1-1-0_NULL_THUNK_DATA 0046429c     ucrt:api-ms-win-crt-math-l1-1-0.dll
 0002:000002a0       __imp__exit                004642a0     ucrt:api-ms-win-crt-runtime-l1-1-0.dll
 0002:000002a4       __imp___exit               004642a4     ucrt:api-ms-win-crt-runtime-l1-1-0.dll
 0002:000002a8       __imp___cexit              004642a8     ucrt:api-ms-win-crt-runtime-l1-1-0.dll
 0002:000002ac       __imp___c_exit             004642ac     ucrt:api-ms-win-crt-runtime-l1-1-0.dll
 0002:000002b0       __imp___set_app_type       004642b0     ucrt:api-ms-win-crt-runtime-l1-1-0.dll
 0002:000002b4       __imp___initterm_e         004642b4     ucrt:api-ms-win-crt-runtime-l1-1-0.dll
 0002:000002b8       __imp___seh_filter_exe     004642b8     ucrt:api-ms-win-crt-runtime-l1-1-0.dll
 0002:000002bc       __imp___errno              004642bc     ucrt:api-ms-win-crt-runtime-l1-1-0.dll
 0002:000002c0       __imp___invalid_parameter_noinfo 004642c0     ucrt:api-ms-win-crt-runtime-l1-1-0.dll
 0002:000002c4       __imp___initterm           004642c4     ucrt:api-ms-win-crt-runtime-l1-1-0.dll
 0002:000002c8       __imp___initialize_onexit_table 004642c8     ucrt:api-ms-win-crt-runtime-l1-1-0.dll
 0002:000002cc       __imp___register_onexit_function 004642cc     ucrt:api-ms-win-crt-runtime-l1-1-0.dll
 0002:000002d0       __imp___crt_atexit         004642d0     ucrt:api-ms-win-crt-runtime-l1-1-0.dll
 0002:000002d4       __imp__terminate           004642d4     ucrt:api-ms-win-crt-runtime-l1-1-0.dll
 0002:000002d8       __imp___controlfp_s        004642d8     ucrt:api-ms-win-crt-runtime-l1-1-0.dll
 0002:000002dc       __imp___get_wide_winmain_command_line 004642dc     ucrt:api-ms-win-crt-runtime-l1-1-0.dll
 0002:000002e0       __imp___initialize_wide_environment 004642e0     ucrt:api-ms-win-crt-runtime-l1-1-0.dll
 0002:000002e4       __imp___configure_wide_argv 004642e4     ucrt:api-ms-win-crt-runtime-l1-1-0.dll
 0002:000002e8       __imp___register_thread_local_exe_atexit_callback 004642e8     ucrt:api-ms-win-crt-runtime-l1-1-0.dll
 0002:000002ec       \177api-ms-win-crt-runtime-l1-1-0_NULL_THUNK_DATA 004642ec     ucrt:api-ms-win-crt-runtime-l1-1-0.dll
 0002:000002f0       __imp____stdio_common_vfwprintf_s 004642f0     ucrt:api-ms-win-crt-stdio-l1-1-0.dll
 0002:000002f4       __imp__fopen               004642f4     ucrt:api-ms-win-crt-stdio-l1-1-0.dll
 0002:000002f8       __imp____p__commode        004642f8     ucrt:api-ms-win-crt-stdio-l1-1-0.dll
 0002:000002fc       __imp___set_fmode          004642fc     ucrt:api-ms-win-crt-stdio-l1-1-0.dll
 0002:00000300       __imp__fwrite              00464300     ucrt:api-ms-win-crt-stdio-l1-1-0.dll
 0002:00000304       __imp____stdio_common_vsprintf 00464304     ucrt:api-ms-win-crt-stdio-l1-1-0.dll
 0002:00000308       __imp____stdio_common_vsprintf_s 00464308     ucrt:api-ms-win-crt-stdio-l1-1-0.dll
 0002:0000030c       __imp____stdio_common_vswprintf_s 0046430c     ucrt:api-ms-win-crt-stdio-l1-1-0.dll
 0002:00000310       __imp___wfopen_s           00464310     ucrt:api-ms-win-crt-stdio-l1-1-0.dll
 0002:00000314       __imp__fclose              00464314     ucrt:api-ms-win-crt-stdio-l1-1-0.dll
 0002:00000318       __imp____stdio_common_vswprintf 00464318     ucrt:api-ms-win-crt-stdio-l1-1-0.dll
 0002:0000031c       __imp____stdio_common_vsnwprintf_s 0046431c     ucrt:api-ms-win-crt-stdio-l1-1-0.dll
 0002:00000320       \177api-ms-win-crt-stdio-l1-1-0_NULL_THUNK_DATA 00464320     ucrt:api-ms-win-crt-stdio-l1-1-0.dll
 0002:00000324       __imp__wcslen              00464324     ucrt:api-ms-win-crt-string-l1-1-0.dll
 0002:00000328       __imp__strlen              00464328     ucrt:api-ms-win-crt-string-l1-1-0.dll
 0002:0000032c       \177api-ms-win-crt-string-l1-1-0_NULL_THUNK_DATA 0046432c     ucrt:api-ms-win-crt-string-l1-1-0.dll
 0002:00000330       __imp___localtime64        00464330     ucrt:api-ms-win-crt-time-l1-1-0.dll
 0002:00000334       __imp___localtime64_s      00464334     ucrt:api-ms-win-crt-time-l1-1-0.dll
 0002:00000338       __imp___mktime64           00464338     ucrt:api-ms-win-crt-time-l1-1-0.dll
 0002:0000033c       __imp___time64             0046433c     ucrt:api-ms-win-crt-time-l1-1-0.dll
 0002:00000340       \177api-ms-win-crt-time-l1-1-0_NULL_THUNK_DATA 00464340     ucrt:api-ms-win-crt-time-l1-1-0.dll
 0002:00000344       __imp__srand               00464344     ucrt:api-ms-win-crt-utility-l1-1-0.dll
 0002:00000348       __imp__rand                00464348     ucrt:api-ms-win-crt-utility-l1-1-0.dll
 0002:0000034c       __imp__llabs               0046434c     ucrt:api-ms-win-crt-utility-l1-1-0.dll
 0002:00000350       __imp__ldiv                00464350     ucrt:api-ms-win-crt-utility-l1-1-0.dll
 0002:00000354       \177api-ms-win-crt-utility-l1-1-0_NULL_THUNK_DATA 00464354     ucrt:api-ms-win-crt-utility-l1-1-0.dll
 0002:00000358       __imp__MiniDumpWriteDump@28 00464358     DbgHelp:dbghelp.dll
 0002:0000035c       \177dbghelp_NULL_THUNK_DATA 0046435c     DbgHelp:dbghelp.dll
 0002:00000360       __imp_?WinHelpW@CWnd@@UAEXKI@Z 00464360     mfc140u:mfc140u.dll
 0002:00000364       __imp_?HtmlHelpW@CWnd@@UAEXKI@Z 00464364     mfc140u:mfc140u.dll
 0002:00000368       __imp_?InitInstance@CWinApp@@UAEHXZ 00464368     mfc140u:mfc140u.dll
 0002:0000036c       __imp_?IsTaskbarInteractionEnabled@CWinApp@@UAEHXZ 0046436c     mfc140u:mfc140u.dll
 0002:00000370       __imp_?WinHelpInternal@CWnd@@UAEXKI@Z 00464370     mfc140u:mfc140u.dll
 0002:00000374       __imp_?ContinueModal@CWnd@@UAEHXZ 00464374     mfc140u:mfc140u.dll
 0002:00000378       __imp_?EndModalLoop@CWnd@@UAEXH@Z 00464378     mfc140u:mfc140u.dll
 0002:0000037c       __imp_?GetDataRecoveryHandler@CWinApp@@UAEPAVCDataRecoveryHandler@@XZ 0046437c     mfc140u:mfc140u.dll
 0002:00000380       __imp_?ApplicationRecoveryCallback@CWinApp@@UAEKPAX@Z 00464380     mfc140u:mfc140u.dll
 0002:00000384       __imp_?RegisterWithRestartManager@CWinApp@@UAEJPB_WKP6GKPAX@Z1KK@Z 00464384     mfc140u:mfc140u.dll
 0002:00000388       __imp_?RegisterWithRestartManager@CWinApp@@UAEJHABV?$CStringT@_WV?$StrTraitMFC_DLL@_WV?$ChTraitsCRT@_W@ATL@@@@@ATL@@@Z 00464388     mfc140u:mfc140u.dll
 0002:0000038c       __imp_?WinHelpInternal@CWinApp@@UAEXKI@Z 0046438c     mfc140u:mfc140u.dll
 0002:00000390       __imp_?HtmlHelpW@CWinApp@@UAEXKI@Z 00464390     mfc140u:mfc140u.dll
 0002:00000394       __imp_?WinHelpW@CWinApp@@UAEXKI@Z 00464394     mfc140u:mfc140u.dll
 0002:00000398       __imp_?OnDDECommand@CWinApp@@UAEHPA_W@Z 00464398     mfc140u:mfc140u.dll
 0002:0000039c       __imp_?DoWaitCursor@CWinApp@@UAEXH@Z 0046439c     mfc140u:mfc140u.dll
 0002:000003a0       __imp_?DoMessageBox@CWinApp@@UAEHPB_WII@Z 004643a0     mfc140u:mfc140u.dll
 0002:000003a4       __imp_?OnDrawIconicThumbnailOrLivePreview@CWnd@@UAEXAAVCDC@@VCRect@@VCSize@@HAAH@Z 004643a4     mfc140u:mfc140u.dll
 0002:000003a8       __imp_?GetInterfaceMap@CWnd@@MBEPBUAFX_INTERFACEMAP@@XZ 004643a8     mfc140u:mfc140u.dll
 0002:000003ac       __imp_?EnsureStdObj@CWnd@@UAEJXZ 004643ac     mfc140u:mfc140u.dll
 0002:000003b0       __imp_?get_accParent@CWnd@@UAEJPAPAUIDispatch@@@Z 004643b0     mfc140u:mfc140u.dll
 0002:000003b4       __imp_?get_accChildCount@CWnd@@UAEJPAJ@Z 004643b4     mfc140u:mfc140u.dll
 0002:000003b8       __imp_?get_accChild@CWnd@@UAEJUtagVARIANT@@PAPAUIDispatch@@@Z 004643b8     mfc140u:mfc140u.dll
 0002:000003bc       __imp_?get_accName@CWnd@@UAEJUtagVARIANT@@PAPA_W@Z 004643bc     mfc140u:mfc140u.dll
 0002:000003c0       __imp_?get_accValue@CWnd@@UAEJUtagVARIANT@@PAPA_W@Z 004643c0     mfc140u:mfc140u.dll
 0002:000003c4       __imp_?get_accDescription@CWnd@@UAEJUtagVARIANT@@PAPA_W@Z 004643c4     mfc140u:mfc140u.dll
 0002:000003c8       __imp_?get_accRole@CWnd@@UAEJUtagVARIANT@@PAU2@@Z 004643c8     mfc140u:mfc140u.dll
 0002:000003cc       __imp_?get_accState@CWnd@@UAEJUtagVARIANT@@PAU2@@Z 004643cc     mfc140u:mfc140u.dll
 0002:000003d0       __imp_?get_accHelp@CWnd@@UAEJUtagVARIANT@@PAPA_W@Z 004643d0     mfc140u:mfc140u.dll
 0002:000003d4       __imp_?get_accHelpTopic@CWnd@@UAEJPAPA_WUtagVARIANT@@PAJ@Z 004643d4     mfc140u:mfc140u.dll
 0002:000003d8       __imp_?get_accKeyboardShortcut@CWnd@@UAEJUtagVARIANT@@PAPA_W@Z 004643d8     mfc140u:mfc140u.dll
 0002:000003dc       __imp_?get_accFocus@CWnd@@UAEJPAUtagVARIANT@@@Z 004643dc     mfc140u:mfc140u.dll
 0002:000003e0       __imp_?get_accSelection@CWnd@@UAEJPAUtagVARIANT@@@Z 004643e0     mfc140u:mfc140u.dll
 0002:000003e4       __imp_?get_accDefaultAction@CWnd@@UAEJUtagVARIANT@@PAPA_W@Z 004643e4     mfc140u:mfc140u.dll
 0002:000003e8       __imp_?SaveAllModified@CWinApp@@UAEHXZ 004643e8     mfc140u:mfc140u.dll
 0002:000003ec       __imp_?AddToRecentFileList@CWinApp@@UAEXPB_W@Z 004643ec     mfc140u:mfc140u.dll
 0002:000003f0       __imp_?OpenDocumentFile@CWinApp@@UAEPAVCDocument@@PB_WH@Z 004643f0     mfc140u:mfc140u.dll
 0002:000003f4       __imp_?OpenDocumentFile@CWinApp@@UAEPAVCDocument@@PB_W@Z 004643f4     mfc140u:mfc140u.dll
 0002:000003f8       __imp_?Unregister@CWinApp@@UAEHXZ 004643f8     mfc140u:mfc140u.dll
 0002:000003fc       __imp_?Register@CWinApp@@UAEHXZ 004643fc     mfc140u:mfc140u.dll
 0002:00000400       __imp_?InitLibId@CWinApp@@UAEXXZ 00464400     mfc140u:mfc140u.dll
 0002:00000404       __imp_?WriteProfileBinary@CWinApp@@UAEHPB_W0PAEI@Z 00464404     mfc140u:mfc140u.dll
 0002:00000408       __imp_?GetProfileBinary@CWinApp@@UAEHPB_W0PAPAEPAI@Z 00464408     mfc140u:mfc140u.dll
 0002:0000040c       __imp_?WriteProfileStringW@CWinApp@@UAEHPB_W00@Z 0046440c     mfc140u:mfc140u.dll
 0002:00000410       __imp_?GetProfileStringW@CWinApp@@UAE?AV?$CStringT@_WV?$StrTraitMFC_DLL@_WV?$ChTraitsCRT@_W@ATL@@@@@ATL@@PB_W00@Z 00464410     mfc140u:mfc140u.dll
 0002:00000414       __imp_?WriteProfileInt@CWinApp@@UAEHPB_W0H@Z 00464414     mfc140u:mfc140u.dll
 0002:00000418       __imp_?GetProfileIntW@CWinApp@@UAEIPB_W0H@Z 00464418     mfc140u:mfc140u.dll
 0002:0000041c       __imp_?SetRegistryKey@CWinApp@@IAEXPB_W@Z 0046441c     mfc140u:mfc140u.dll
 0002:00000420       __imp_??0CWinApp@@QAE@PB_W@Z 00464420     mfc140u:mfc140u.dll
 0002:00000424       __imp_?GetScrollBarCtrl@CWnd@@UBEPAVCScrollBar@@H@Z 00464424     mfc140u:mfc140u.dll
 0002:00000428       __imp_?Delete@CWinThread@@UAEXXZ 00464428     mfc140u:mfc140u.dll
 0002:0000042c       __imp_?GetMainWnd@CWinThread@@UAEPAVCWnd@@XZ 0046442c     mfc140u:mfc140u.dll
 0002:00000430       __imp_?ProcessMessageFilter@CWinThread@@UAEHHPAUtagMSG@@@Z 00464430     mfc140u:mfc140u.dll
 0002:00000434       __imp_?IsIdleMessage@CWinThread@@UAEHPAUtagMSG@@@Z 00464434     mfc140u:mfc140u.dll
 0002:00000438       __imp_?PumpMessage@CWinThread@@UAEHXZ 00464438     mfc140u:mfc140u.dll
 0002:0000043c       __imp_?PreTranslateMessage@CWinThread@@UAEHPAUtagMSG@@@Z 0046443c     mfc140u:mfc140u.dll
 0002:00000440       __imp_?DoModal@CDialog@@UAEHXZ 00464440     mfc140u:mfc140u.dll
 0002:00000444       __imp_?AfxInitRichEdit2@@YGHXZ 00464444     mfc140u:mfc140u.dll
 0002:00000448       __imp_?GetConnectionHook@CCmdTarget@@MAEPAUIConnectionPoint@@ABU_GUID@@@Z 00464448     mfc140u:mfc140u.dll
 0002:0000044c       __imp_?GetExtraConnectionPoints@CCmdTarget@@MAEHPAVCPtrArray@@@Z 0046444c     mfc140u:mfc140u.dll
 0002:00000450       __imp_?GetInterfaceHook@CCmdTarget@@UAEPAUIUnknown@@PBX@Z 00464450     mfc140u:mfc140u.dll
 0002:00000454       __imp_?OnCreateAggregates@CCmdTarget@@UAEHXZ 00464454     mfc140u:mfc140u.dll
 0002:00000458       __imp_?GetEventSinkMap@CCmdTarget@@MBEPBUAFX_EVENTSINKMAP@@XZ 00464458     mfc140u:mfc140u.dll
 0002:0000045c       __imp_?GetInterfaceMap@CCmdTarget@@MBEPBUAFX_INTERFACEMAP@@XZ 0046445c     mfc140u:mfc140u.dll
 0002:00000460       __imp_?GetConnectionMap@CCmdTarget@@MBEPBUAFX_CONNECTIONMAP@@XZ 00464460     mfc140u:mfc140u.dll
 0002:00000464       __imp_?GetDispatchMap@CCmdTarget@@MBEPBUAFX_DISPMAP@@XZ 00464464     mfc140u:mfc140u.dll
 0002:00000468       __imp_?GetCommandMap@CCmdTarget@@MBEPBUAFX_OLECMDMAP@@XZ 00464468     mfc140u:mfc140u.dll
 0002:0000046c       __imp_?GetTypeLib@CCmdTarget@@UAEJKPAPAUITypeLib@@@Z 0046446c     mfc140u:mfc140u.dll
 0002:00000470       __imp_?GetTypeLibCache@CCmdTarget@@UAEPAVCTypeLibCache@@XZ 00464470     mfc140u:mfc140u.dll
 0002:00000474       __imp_?GetTypeInfoCount@CCmdTarget@@UAEIXZ 00464474     mfc140u:mfc140u.dll
 0002:00000478       __imp_?GetDispatchIID@CCmdTarget@@UAEHPAU_GUID@@@Z 00464478     mfc140u:mfc140u.dll
 0002:0000047c       __imp_?IsInvokeAllowed@CCmdTarget@@UAEHJ@Z 0046447c     mfc140u:mfc140u.dll
 0002:00000480       __imp_?OnFinalRelease@CCmdTarget@@UAEXXZ 00464480     mfc140u:mfc140u.dll
 0002:00000484       __imp_?OnCmdMsg@CCmdTarget@@UAEHIHPAXPAUAFX_CMDHANDLERINFO@@@Z 00464484     mfc140u:mfc140u.dll
 0002:00000488       __imp_?GetThisMessageMap@CWinApp@@KGPBUAFX_MSGMAP@@XZ 00464488     mfc140u:mfc140u.dll
 0002:0000048c       __imp_?GetRuntimeClass@CCriticalSection@@UBEPAUCRuntimeClass@@XZ 0046448c     mfc140u:mfc140u.dll
 0002:00000490       __imp_?SetDlgItemInt@CWnd@@QAEXHIH@Z 00464490     mfc140u:mfc140u.dll
 0002:00000494       __imp_??0CSyncObject@@QAE@PB_W@Z 00464494     mfc140u:mfc140u.dll
 0002:00000498       __imp_?AfxThrowOleException@@YGXJ@Z 00464498     mfc140u:mfc140u.dll
 0002:0000049c       __imp_?Find@?$CStringT@_WV?$StrTraitMFC_DLL@_WV?$ChTraitsCRT@_W@ATL@@@@@ATL@@QBEHPB_WH@Z 0046449c     mfc140u:mfc140u.dll
 0002:000004a0       __imp_?AfxGetThread@@YGPAVCWinThread@@XZ 004644a0     mfc140u:mfc140u.dll
 0002:000004a4       __imp_?GetOccDialogInfo@CWnd@@MAEPAU_AFX_OCC_DIALOG_INFO@@XZ 004644a4     mfc140u:mfc140u.dll
 0002:000004a8       __imp_?AfxThrowMemoryException@@YGXXZ 004644a8     mfc140u:mfc140u.dll
 0002:000004ac       __imp_?AfxFreeLibrary@@YGHPAUHINSTANCE__@@@Z 004644ac     mfc140u:mfc140u.dll
 0002:000004b0       __imp_?AfxLoadLibrary@@YGPAUHINSTANCE__@@PB_W@Z 004644b0     mfc140u:mfc140u.dll
 0002:000004b4       __imp_?FreeDataChain@CPlex@@QAEXXZ 004644b4     mfc140u:mfc140u.dll
 0002:000004b8       __imp_?Create@CPlex@@SGPAU1@AAPAU1@II@Z 004644b8     mfc140u:mfc140u.dll
 0002:000004bc       __imp_?WriteCount@CArchive@@QAEXK@Z 004644bc     mfc140u:mfc140u.dll
 0002:000004c0       __imp_?ReadCount@CArchive@@QAEKXZ 004644c0     mfc140u:mfc140u.dll
 0002:000004c4       __imp_?Write@CArchive@@QAEXPBXI@Z 004644c4     mfc140u:mfc140u.dll
 0002:000004c8       __imp_?Read@CArchive@@QAEIPAXI@Z 004644c8     mfc140u:mfc140u.dll
 0002:000004cc       __imp_?AppendFormat@?$CStringT@_WV?$StrTraitMFC_DLL@_WV?$ChTraitsCRT@_W@ATL@@@@@ATL@@QAAXPB_WZZ 004644cc     mfc140u:mfc140u.dll
 0002:000004d0       __imp_?Format@?$CStringT@_WV?$StrTraitMFC_DLL@_WV?$ChTraitsCRT@_W@ATL@@@@@ATL@@QAAXPB_WZZ 004644d0     mfc140u:mfc140u.dll
 0002:000004d4       __imp_?Trim@?$CStringT@_WV?$StrTraitMFC_DLL@_WV?$ChTraitsCRT@_W@ATL@@@@@ATL@@QAEAAV12@XZ 004644d4     mfc140u:mfc140u.dll
 0002:000004d8       __imp_??4?$CStringT@_WV?$StrTraitMFC_DLL@_WV?$ChTraitsCRT@_W@ATL@@@@@ATL@@QAEAAV01@PB_W@Z 004644d8     mfc140u:mfc140u.dll
 0002:000004dc       __imp_??1?$CStringT@_WV?$StrTraitMFC_DLL@_WV?$ChTraitsCRT@_W@ATL@@@@@ATL@@QAE@XZ 004644dc     mfc140u:mfc140u.dll
 0002:000004e0       __imp_??0?$CStringT@_WV?$StrTraitMFC_DLL@_WV?$ChTraitsCRT@_W@ATL@@@@@ATL@@QAE@PB_W@Z 004644e0     mfc140u:mfc140u.dll
 0002:000004e4       __imp_??0?$CStringT@_WV?$StrTraitMFC_DLL@_WV?$ChTraitsCRT@_W@ATL@@@@@ATL@@QAE@ABV01@@Z 004644e4     mfc140u:mfc140u.dll
 0002:000004e8       __imp_??0?$CStringT@_WV?$StrTraitMFC_DLL@_WV?$ChTraitsCRT@_W@ATL@@@@@ATL@@QAE@XZ 004644e8     mfc140u:mfc140u.dll
 0002:000004ec       __imp_?IsEmpty@?$CSimpleStringT@_W$00@ATL@@QBE_NXZ 004644ec     mfc140u:mfc140u.dll
 0002:000004f0       __imp_?GetLength@?$CSimpleStringT@_W$00@ATL@@QBEHXZ 004644f0     mfc140u:mfc140u.dll
 0002:000004f4       __imp_?GetRuntimeClass@CWinApp@@UBEPAUCRuntimeClass@@XZ 004644f4     mfc140u:mfc140u.dll
 0002:000004f8       __imp_?SetDlgItemTextW@CWnd@@QAEXHPB_W@Z 004644f8     mfc140u:mfc140u.dll
 0002:000004fc       __imp_?SetOccDialogInfo@CWnd@@MAEHPAU_AFX_OCC_DIALOG_INFO@@@Z 004644fc     mfc140u:mfc140u.dll
 0002:00000500       __imp_?CheckAutoCenter@CWnd@@UAEHXZ 00464500     mfc140u:mfc140u.dll
 0002:00000504       __imp_??1CWnd@@UAE@XZ      00464504     mfc140u:mfc140u.dll
 0002:00000508       __imp_?PreTranslateMessage@CWnd@@UAEHPAUtagMSG@@@Z 00464508     mfc140u:mfc140u.dll
 0002:0000050c       __imp_??0CWnd@@QAE@XZ      0046450c     mfc140u:mfc140u.dll
 0002:00000510       __imp_?GetRuntimeClass@CWnd@@UBEPAUCRuntimeClass@@XZ 00464510     mfc140u:mfc140u.dll
 0002:00000514       __imp_?GetThisMessageMap@CWnd@@KGPBUAFX_MSGMAP@@XZ 00464514     mfc140u:mfc140u.dll
 0002:00000518       __imp_?Replace@?$CStringT@_WV?$StrTraitMFC_DLL@_WV?$ChTraitsCRT@_W@ATL@@@@@ATL@@QAEHPB_W0@Z 00464518     mfc140u:mfc140u.dll
 0002:0000051c       __imp_?Left@?$CStringT@_WV?$StrTraitMFC_DLL@_WV?$ChTraitsCRT@_W@ATL@@@@@ATL@@QBE?AV12@H@Z 0046451c     mfc140u:mfc140u.dll
 0002:00000520       __imp_??4?$CStringT@_WV?$StrTraitMFC_DLL@_WV?$ChTraitsCRT@_W@ATL@@@@@ATL@@QAEAAV01@ABV01@@Z 00464520     mfc140u:mfc140u.dll
 0002:00000524       __imp_?AfxMessageBox@@YGHPB_WII@Z 00464524     mfc140u:mfc140u.dll
 0002:00000528       __imp_?PreInitDialog@CDialog@@MAEXXZ 00464528     mfc140u:mfc140u.dll
 0002:0000052c       __imp_?GetOccDialogInfo@CDialog@@MAEPAU_AFX_OCC_DIALOG_INFO@@XZ 0046452c     mfc140u:mfc140u.dll
 0002:00000530       __imp_?SetOccDialogInfo@CDialog@@MAEHPAU_AFX_OCC_DIALOG_INFO@@@Z 00464530     mfc140u:mfc140u.dll
 0002:00000534       __imp_?EnableWindow@CWnd@@QAEHH@Z 00464534     mfc140u:mfc140u.dll
 0002:00000538       __imp_?OnToolHitTest@CWnd@@UBEHVCPoint@@PAUtagTOOLINFOW@@@Z 00464538     mfc140u:mfc140u.dll
 0002:0000053c       __imp_?SetMenu@CWnd@@UAEHPAVCMenu@@@Z 0046453c     mfc140u:mfc140u.dll
 0002:00000540       __imp_?ExitInstance@CWinApp@@UAEHXZ 00464540     mfc140u:mfc140u.dll
 0002:00000544       __imp_?RestartInstance@CWinApp@@UAEHXZ 00464544     mfc140u:mfc140u.dll
 0002:00000548       __imp_?Run@CWinApp@@UAEHXZ 00464548     mfc140u:mfc140u.dll
 0002:0000054c       __imp_?OnIdle@CWinApp@@UAEHJ@Z 0046454c     mfc140u:mfc140u.dll
 0002:00000550       __imp_?ProcessWndProcException@CWinApp@@UAEJPAVCException@@PBUtagMSG@@@Z 00464550     mfc140u:mfc140u.dll
 0002:00000554       __imp_?LoadAppLangResourceDLL@CWinApp@@UAEPAUHINSTANCE__@@XZ 00464554     mfc140u:mfc140u.dll
 0002:00000558       __imp_?CheckAutoCenter@CDialog@@UAEHXZ 00464558     mfc140u:mfc140u.dll
 0002:0000055c       __imp_?OnCmdMsg@CDialog@@UAEHIHPAXPAUAFX_CMDHANDLERINFO@@@Z 0046455c     mfc140u:mfc140u.dll
 0002:00000560       __imp_?PreTranslateMessage@CDialog@@UAEHPAUtagMSG@@@Z 00464560     mfc140u:mfc140u.dll
 0002:00000564       __imp_??1CWinApp@@UAE@XZ   00464564     mfc140u:mfc140u.dll
 0002:00000568       __imp_?LoadSysPolicies@CWinApp@@UAEHXZ 00464568     mfc140u:mfc140u.dll
 0002:0000056c       __imp_?AfxEnableControlContainer@@YAXPAVCOccManager@@@Z 0046456c     mfc140u:mfc140u.dll
 0002:00000570       __imp_?GetThisMessageMap@CDialog@@KGPBUAFX_MSGMAP@@XZ 00464570     mfc140u:mfc140u.dll
 0002:00000574       __imp_?AfxGetModuleState@@YGPAVAFX_MODULE_STATE@@XZ 00464574     mfc140u:mfc140u.dll
 0002:00000578       __imp_?DDX_Control@@YGXPAVCDataExchange@@HAAVCWnd@@@Z 00464578     mfc140u:mfc140u.dll
 0002:0000057c       __imp_?PreSubclassWindow@CWnd@@UAEXXZ 0046457c     mfc140u:mfc140u.dll
 0002:00000580       __imp_?Create@CWnd@@UAEHPB_W0KABUtagRECT@@PAV1@IPAUCCreateContext@@@Z 00464580     mfc140u:mfc140u.dll
 0002:00000584       __imp_??1CDialog@@UAE@XZ   00464584     mfc140u:mfc140u.dll
 0002:00000588       __imp_?CreateEx@CWnd@@UAEHKPB_W0KHHHHPAUHWND__@@PAUHMENU__@@PAX@Z 00464588     mfc140u:mfc140u.dll
 0002:0000058c       __imp_?OnCancel@CDialog@@MAEXXZ 0046458c     mfc140u:mfc140u.dll
 0002:00000590       __imp_?OnSetFont@CDialog@@UAEXPAVCFont@@@Z 00464590     mfc140u:mfc140u.dll
 0002:00000594       __imp_?OnInitDialog@CDialog@@UAEHXZ 00464594     mfc140u:mfc140u.dll
 0002:00000598       __imp_??0CDialog@@QAE@IPAVCWnd@@@Z 00464598     mfc140u:mfc140u.dll
 0002:0000059c       __imp_?CreateIndirect@CDialog@@UAEHPAXPAVCWnd@@@Z 0046459c     mfc140u:mfc140u.dll
 0002:000005a0       __imp_?CreateEx@CWnd@@UAEHKPB_W0KABUtagRECT@@PAV1@IPAX@Z 004645a0     mfc140u:mfc140u.dll
 0002:000005a4       __imp_?DestroyWindow@CWnd@@UAEHXZ 004645a4     mfc140u:mfc140u.dll
 0002:000005a8       __imp_?CreateIndirect@CDialog@@UAEHPBUDLGTEMPLATE@@PAVCWnd@@PAX@Z 004645a8     mfc140u:mfc140u.dll
 0002:000005ac       __imp_?Create@CDialog@@UAEHPB_WPAVCWnd@@@Z 004645ac     mfc140u:mfc140u.dll
 0002:000005b0       __imp_?GetRuntimeClass@CDialog@@UBEPAUCRuntimeClass@@XZ 004645b0     mfc140u:mfc140u.dll
 0002:000005b4       __imp_?CreateControlSite@CWnd@@MAEHPAVCOleControlContainer@@PAPAVCOleControlSite@@IABU_GUID@@@Z 004645b4     mfc140u:mfc140u.dll
 0002:000005b8       __imp_?CreateControlContainer@CWnd@@MAEHPAPAVCOleControlContainer@@@Z 004645b8     mfc140u:mfc140u.dll
 0002:000005bc       __imp_?OnFinalRelease@CWnd@@UAEXXZ 004645bc     mfc140u:mfc140u.dll
 0002:000005c0       __imp_?IsFrameWnd@CWnd@@UBEHXZ 004645c0     mfc140u:mfc140u.dll
 0002:000005c4       __imp_?ResizeDynamicLayout@CWnd@@MAEXXZ 004645c4     mfc140u:mfc140u.dll
 0002:000005c8       __imp_?OnGesturePressAndTap@CWnd@@MAEHVCPoint@@J@Z 004645c8     mfc140u:mfc140u.dll
 0002:000005cc       __imp_?OnGestureTwoFingerTap@CWnd@@MAEHVCPoint@@@Z 004645cc     mfc140u:mfc140u.dll
 0002:000005d0       __imp_?PreCreateWindow@CWnd@@UAEHAAUtagCREATESTRUCTW@@@Z 004645d0     mfc140u:mfc140u.dll
 0002:000005d4       __imp_?OnGestureRotate@CWnd@@MAEHVCPoint@@N@Z 004645d4     mfc140u:mfc140u.dll
 0002:000005d8       __imp_?OnGesturePan@CWnd@@MAEHVCPoint@@0@Z 004645d8     mfc140u:mfc140u.dll
 0002:000005dc       __imp_?OnGestureZoom@CWnd@@MAEHVCPoint@@J@Z 004645dc     mfc140u:mfc140u.dll
 0002:000005e0       __imp_?GetGestureStatus@CWnd@@MAEKVCPoint@@@Z 004645e0     mfc140u:mfc140u.dll
 0002:000005e4       __imp_?OnTouchInput@CWnd@@MAEHVCPoint@@HHPAUtagTOUCHINPUT@@@Z 004645e4     mfc140u:mfc140u.dll
 0002:000005e8       __imp_?CalcWindowRect@CWnd@@UAEXPAUtagRECT@@I@Z 004645e8     mfc140u:mfc140u.dll
 0002:000005ec       __imp_?OnTouchInputs@CWnd@@MAEHIPAUtagTOUCHINPUT@@@Z 004645ec     mfc140u:mfc140u.dll
 0002:000005f0       __imp_?OnChildNotify@CWnd@@MAEHIIJPAJ@Z 004645f0     mfc140u:mfc140u.dll
 0002:000005f4       __imp_?PostNcDestroy@CWnd@@MAEXXZ 004645f4     mfc140u:mfc140u.dll
 0002:000005f8       __imp_?DefWindowProcW@CWnd@@MAEJIIJ@Z 004645f8     mfc140u:mfc140u.dll
 0002:000005fc       __imp_?OnWndMsg@CWnd@@MAEHIIJPAJ@Z 004645fc     mfc140u:mfc140u.dll
 0002:00000600       __imp_?WindowProc@CWnd@@MAEJIIJ@Z 00464600     mfc140u:mfc140u.dll
 0002:00000604       __imp_?OnAmbientProperty@CWnd@@UAEHPAVCOleControlSite@@JPAUtagVARIANT@@@Z 00464604     mfc140u:mfc140u.dll
 0002:00000608       __imp_?GetSuperWndProcAddr@CWnd@@MAEPAP6GJPAUHWND__@@IIJ@ZXZ 00464608     mfc140u:mfc140u.dll
 0002:0000060c       __imp_?OnNotify@CWnd@@MAEHIJPAJ@Z 0046460c     mfc140u:mfc140u.dll
 0002:00000610       __imp_?OnCommand@CWnd@@MAEHIJ@Z 00464610     mfc140u:mfc140u.dll
 0002:00000614       __imp_?CreateAccessibleProxy@CWnd@@UAEJIJPAJ@Z 00464614     mfc140u:mfc140u.dll
 0002:00000618       __imp_?SetProxy@CWnd@@UAEJPAUIAccessibleProxy@@@Z 00464618     mfc140u:mfc140u.dll
 0002:0000061c       __imp_?put_accValue@CWnd@@UAEJUtagVARIANT@@PA_W@Z 0046461c     mfc140u:mfc140u.dll
 0002:00000620       __imp_?put_accName@CWnd@@UAEJUtagVARIANT@@PA_W@Z 00464620     mfc140u:mfc140u.dll
 0002:00000624       __imp_?GetDlgItem@CWnd@@QBEPAV1@H@Z 00464624     mfc140u:mfc140u.dll
 0002:00000628       __imp_?SetWindowTextW@CWnd@@QAEXPB_W@Z 00464628     mfc140u:mfc140u.dll
 0002:0000062c       __imp_?accDoDefaultAction@CWnd@@UAEJUtagVARIANT@@@Z 0046462c     mfc140u:mfc140u.dll
 0002:00000630       __imp_?accHitTest@CWnd@@UAEJJJPAUtagVARIANT@@@Z 00464630     mfc140u:mfc140u.dll
 0002:00000634       __imp_??1CSyncObject@@UAE@XZ 00464634     mfc140u:mfc140u.dll
 0002:00000638       __imp_?GetMenu@CWnd@@UBEPAVCMenu@@XZ 00464638     mfc140u:mfc140u.dll
 0002:0000063c       __imp_?accNavigate@CWnd@@UAEJJUtagVARIANT@@PAU2@@Z 0046463c     mfc140u:mfc140u.dll
 0002:00000640       __imp_?accLocation@CWnd@@UAEJPAJ000UtagVARIANT@@@Z 00464640     mfc140u:mfc140u.dll
 0002:00000644       __imp_?InitApplication@CWinApp@@UAEHXZ 00464644     mfc140u:mfc140u.dll
 0002:00000648       __imp_?accSelect@CWnd@@UAEJJUtagVARIANT@@@Z 00464648     mfc140u:mfc140u.dll
 0002:0000064c       __imp_?AfxWinMain@@YGHPAUHINSTANCE__@@0PA_WH@Z 0046464c     mfc140u:mfc140u.dll
 0002:00000650       __imp_?Append@?$CSimpleStringT@_W$00@ATL@@QAEXPB_W@Z 00464650     mfc140u:mfc140u.dll
 0002:00000654       __imp_??B?$CSimpleStringT@_W$00@ATL@@QBEPB_WXZ 00464654     mfc140u:mfc140u.dll
 0002:00000658       __imp_?GetRuntimeClass@CObject@@UBEPAUCRuntimeClass@@XZ 00464658     mfc140u:mfc140u.dll
 0002:0000065c       __imp_?AfxThrowArchiveException@@YGXHPB_W@Z 0046465c     mfc140u:mfc140u.dll
 0002:00000660       __imp_?AfxThrowInvalidArgException@@YGXXZ 00464660     mfc140u:mfc140u.dll
 0002:00000664       \177mfc140u_NULL_THUNK_DATA 00464664     mfc140u:mfc140u.dll
 0002:00000668       ___guard_check_icall_fptr  00464668     MSVCRT:guard_support.obj
 0002:0000066c       ___xc_a                    0046466c     MSVCRT:initializers.obj
 0002:00000688       ___xc_z                    00464688     MSVCRT:initializers.obj
 0002:0000068c       ___xi_a                    0046468c     MSVCRT:initializers.obj
 0002:0000069c       ___xi_z                    0046469c     MSVCRT:initializers.obj
 0002:000006a0       ___xl_a                    004646a0     MSVCRT:tlssup.obj
 0002:000006a4       ___xl_z                    004646a4     MSVCRT:tlssup.obj
 0002:000006a8       ___xp_a                    004646a8     MSVCRT:initializers.obj
 0002:000006ac       ___xp_z                    004646ac     MSVCRT:initializers.obj
 0002:000006b0       ___xt_a                    004646b0     MSVCRT:initializers.obj
 0002:000006b4       ___xt_z                    004646b4     MSVCRT:initializers.obj
 0002:000006c0       ??_C@_0BG@LDDEPHLF@open?5?$CK?$CK?$CK?5?H?U?V?$LO?P?E?O?$KC?5?$CFs?5?$AA@ 004646c0     Log.obj
 0002:000006d8       ??_C@_0BD@DCGNBEMB@?$CFd?9?$CFd?9?$CFd?9?$CFd?3?5?$CFs?5?$AN?6?$AA@ 004646d8     Log.obj
 0002:000006ec       ??_C@_03GGEOLGBL@Log?$AA@  004646ec     Log.obj
 0002:000006f0       ??_C@_0L@HKNEHNMC@ServerID?5?$DN?$AA@ 004646f0     Log.obj
 0002:000006fc       ??_C@_0CF@PDFOOCFE@Log?1?1?$CFd?9?$CFd?9?$CFd?9?$CFd?9?$CFs?9?$CFd?9ServerLog@ 004646fc     Log.obj
 0002:00000724       ??_C@_03HIKJINGA@at?$CL?$AA@ 00464724     Log.obj
 0002:00000728       ??_C@_1FA@LOAONLEB@?$AAL?$AAo?$AAg?$AA?1?$AA?1n8b?$APg?$ANR?$KBVh_?$AC?$FO8?$AA?1?$AA?1?$AA?$CF?$AAd?$AA?9?$AA?$CF?$AAd?$AA?9?$AA?$CF?$AAd?$AA?9?$AA?$CF?$AAd?$AA?9?$AA?$CF?$AAs?$AA?9?$AA?$CF?$AAd?$AA?9@ 00464728     Log.obj
 0002:00000778       ??_C@_1BE@CBPABKMI@?$AAS?$AAe?$AAr?$AAv?$AAe?$AAr?$AAI?$AAD?$AA?$DN?$AA?$AA@ 00464778     Log.obj
 0002:0000078c       ??_C@_17GBBMOHFL@?$AAa?$AAt?$AA?$CL?$AA?$AA@ 0046478c     Log.obj
 0002:00000794       ??_C@_1BA@BMHKCPFP@n8b?$APg?$ANR?$KBVh_?$AC?$FO8?$AA?$AA@ 00464794     Log.obj
 0002:000007a4       ??_C@_1BA@KMHAJMJA@?$AAL?$AAo?$AAg?$AA?1?$AA?1?$AA?$CF?$AAs?$AA?$AA@ 004647a4     Log.obj
 0002:000007b4       ??_C@_17FJJEAFIL@?$AAc?$AAh?$AAs?$AA?$AA@ 004647b4     Log.obj
 0002:000007c0       ??_C@_1EO@PNODFHAM@?$AA?$FL?$AA?$CF?$AA0?$AA2?$AAd?$AA?9?$AA?$CF?$AA0?$AA2?$AAd?$AA?9?$AA?$CF?$AA0?$AA2?$AAd?$AA?9?$AA?$CF?$AA0?$AA2?$AAd?$AA?9?$AA?$CF?$AA0?$AA2?$AAd?$AA?9?$AA?$CF?$AA0?$AA2?$AAd?$AA?$FN?$AA?3@ 004647c0     Log.obj
 0002:000008ec       ??_C@_11LOCGONAA@?$AA?$AA@ 004648ec     AttemperEngineSink.obj
 0002:000008f0       ??_C@_1M@OBKMGAH@?$AA?$CF?$AAI?$AA6?$AA4?$AAd?$AA?$AA@ 004648f0     AttemperEngineSink.obj
 0002:00000900       ??_7IUnknownEx@@6B@        00464900     AttemperEngineSink.obj
 0002:0000090c       ??_7IAttemperEngineSink@@6B@ 0046490c     AttemperEngineSink.obj
 0002:00000948       ??_7IServerUserItemSink@@6B@ 00464948     AttemperEngineSink.obj
 0002:0000096c       ??_7IMainServiceFrame@@6B@ 0046496c     AttemperEngineSink.obj
 0002:000009dc       ??_C@_1DA@KMGIMLLC@?$AAP?$AAe?$AAr?$AAs?$AAo?$AAn?$AAa?$AAl?$AAR?$AAo?$AAo?$AAm?$AAS?$AAe?$AAr?$AAv?$AAi?$AAc?$AAe?$AA?4?$AAd?$AAl?$AAl?$AA?$AA@ 004649dc     AttemperEngineSink.obj
 0002:00000a10       ??_7?$CWHArray@PB_WABQB_W@@6B@ 00464a10     AttemperEngineSink.obj
 0002:00000a18       ??_7CSensitiveWordsFilter@@6B@ 00464a18     AttemperEngineSink.obj
 0002:00000a20       ??_7?$CWHArray@PAUtagPersonalTableParameter@@ABQAU1@@@6B@ 00464a20     AttemperEngineSink.obj
 0002:00000a28       ??_7?$CMap@GGUtagTaskConfigInfo@@AAU1@@@6B@ 00464a28     AttemperEngineSink.obj
 0002:00000a40       ??_7?$CWHArray@PAVCTableFrame@@ABQAV1@@@6B@ 00464a40     AttemperEngineSink.obj
 0002:00000a48       ??_7?$CMap@KKKAAK@@6B@     00464a48     AttemperEngineSink.obj
 0002:00000a60       ??_7CAttemperEngineSink@@6BIAttemperEngineSink@@@ 00464a60     AttemperEngineSink.obj
 0002:00000ab0       ??_7CAttemperEngineSink@@6BIMainServiceFrame@@@ 00464ab0     AttemperEngineSink.obj
 0002:00000b24       ??_7CAttemperEngineSink@@6BIServerUserItemSink@@@ 00464b24     AttemperEngineSink.obj
 0002:00000b44       ??_C@_1CE@FOMHCKGK@?$AA?$CF?$AAs?$AA?2?$AAG?$AAa?$AAm?$AAe?$AAS?$AAe?$AAr?$AAv?$AAe?$AAr?$AA?4?$AAd?$AAm?$AAp?$AA?$AA@ 00464b44     AttemperEngineSink.obj
 0002:00000b68       ??_C@_13IMODFHAA@?$AA?9?$AA?$AA@ 00464b68     AttemperEngineSink.obj
 0002:00000b6c       ??_C@_1O@CFDABFO@?$AA?$CF?$AAI?$AA6?$AA4?$AAdN?$LP?$AA?$AA@ 00464b6c     AttemperEngineSink.obj
 0002:00000b7c       ??_C@_1O@NKJFGHCL@?$AA?$CF?$AAI?$AA6?$AA4?$AAdN?$AH?$AA?$AA@ 00464b7c     AttemperEngineSink.obj
 0002:00000b8c       ??_C@_13COJANIEC@?$AA0?$AA?$AA@ 00464b8c     AttemperEngineSink.obj
 0002:00000b90       ??_C@_1EI@ODKHGPDP@?$AAS?$AAt?$AAa?$AAr?$AAt?$AAS?$AAh?$AAa?$AAr?$AAe?$AAS?$AAt?$AAo?$AAr?$AAa?$AAg?$AAe?$AAS?$AAe?$AAr?$AAv?$AAi?$AAc?$AAe?$AA?$FL?$AA?$CF?$AAd?$AA?$FN?$AAI?$AAN?$AAV?$AAA@ 00464b90     AttemperEngineSink.obj
 0002:00000bd8       ??_C@_1EG@NHACGLO@?$AAS?$AAt?$AAo?$AAp?$AAS?$AAh?$AAa?$AAr?$AAe?$AAS?$AAt?$AAo?$AAr?$AAa?$AAg?$AAe?$AAS?$AAe?$AAr?$AAv?$AAi?$AAc?$AAe?$AA?$FL?$AA?$CF?$AAd?$AA?$FN?$AAI?$AAN?$AAV?$AAA?$AAL@ 00464bd8     AttemperEngineSink.obj
 0002:00000c20       ??_C@_1CI@CAGOFGHI@kcW?$CI?$IP?$NOc?$KFSO?$IM?$ADg?$ANR?$KBVh?$AA?5?$AA?$FL?$AA?5?$AA?$CF?$AAs?$AA?3?$AA?$CF?$AAd?$AA?5?$AA?$FN?$AA?$AA@ 00464c20     AttemperEngineSink.obj
 0002:00000c48       ??_C@_1CI@KMMCCKNG@kcW?$CI?$IP?$NOc?$KF?$HO?$KGb?$BIg?$ANR?$KBVh?$AA?5?$AA?$FL?$AA?5?$AA?$CF?$AAs?$AA?3?$AA?$CF?$AAd?$AA?5?$AA?$FN?$AA?$AA@ 00464c48     AttemperEngineSink.obj
 0002:00000c70       ??_C@_1CI@PEFKCJNN@kcW?$CI?$IP?$NOc?$KFe?e_?Wg?$ANR?$KBVh?$AA?5?$AA?$FL?$AA?5?$AA?$CF?$AAs?$AA?3?$AA?$CF?$AAd?$AA?5?$AA?$FN?$AA?$AA@ 00464c70     AttemperEngineSink.obj
 0002:00000c98       ??_C@_1DI@OOFJLMAA@?$AAp?$AAt?$AAd?$AAt?$AAa?$AAi?$AAp?$AA?5?$AA?$CK?$AA?$CK?$AA?$CK?$AA?5?$AAr?$AAe?$AAq?$AAu?$AAe?$AAs?$AAt?$AAi?$AAd?$AA?5?$AA?$DN?$AA?5?$AA?$CF?$AAd?$AA?5?$AA?$AA@ 00464c98     AttemperEngineSink.obj
 0002:00000cd0       ??_C@_1CK@OGCDEFIE@kcW?$CI?$IP?$NO?$AAA?$AAIR?$AG?$JBMg?$ANR?$KBVh?$AA?5?$AA?$FL?$AA?5?$AA?$CF?$AAs?$AA?3?$AA?$CF?$AAd?$AA?5?$AA?$FN?$AA?$AA@ 00464cd0     AttemperEngineSink.obj
 0002:00000d00       ??_C@_1EC@ICBKIJNO@?$AAp?$AAt?$AAd?$AAt?$AAa?$AAi?$AA?5?$AA?$CK?$AA?$CK?$AA?$CK?$AA?$CK?$AA?5n?$AFt?$AGzz?$JF?rr?$LG?$GA?$ABN?$ALv?$IE?$AAA?$AAI?$AA?5?$AA?$CF?$AAde?e?$AA?$CF?$AAde?v?$AA?$CF?$AAdR?$AG@ 00464d00     AttemperEngineSink.obj
 0002:00000d48       ??_C@_1FC@PBIJKPHL@?$AAp?$AAt?$AAd?$AAt?$AAa?$AAi?$AA?5?$AA?$CK?$AA?$CK?$AA?$CK?$AA?5n?$AFt?$AG?$AAA?$AAI?$AA?5?$AAU?$AAs?$AAe?$AAr?$AAI?$AAD?$AA?5?$AA?$DN?$AA?5?$AA?$CF?$AAd?$AA?5?$AA?5?$AAG?$AAa?$AAm@ 00464d48     AttemperEngineSink.obj
 0002:00000d9c       ??_C@_1CC@MPGMOMDB@?$FL?$JKe?vVh_?$AC?$FO8?$PP?$BK?$AAT?$AAi?$AAm?$AAe?$AAr?$AAI?$AAD?$AA?$DN?$AA?$CF?$AAd?$AA?$AA@ 00464d9c     AttemperEngineSink.obj
 0002:00000dc0       ??_C@_1EM@LLNEHMP@?$AAO?$AAn?$AAE?$AAv?$AAe?$AAn?$AAt?$AAD?$AAa?$AAt?$AAa?$AAB?$AAa?$AAs?$AAe?$AA?5?$AAw?$AAR?$AAe?$AAq?$AAu?$AAe?$AAs?$AAt?$AAI?$AAD?$AA?5?$AA?$DN?$AA?5?$AA?$CF?$AAd?$AA?5@ 00464dc0     AttemperEngineSink.obj
 0002:00000e10       ??_C@_1FE@MPFNIDBA@?$AAO?$AAn?$AAE?$AAv?$AAe?$AAn?$AAt?$AAD?$AAa?$AAt?$AAa?$AAB?$AAa?$AAs?$AAe?$AA?5?$AAw?$AAR?$AAe?$AAq?$AAu?$AAe?$AAs?$AAt?$AAI?$AAD?$AA?5?$AA?$DN?$AA?5?$AA?$CF?$AAd?$AA?5@ 00464e10     AttemperEngineSink.obj
 0002:00000e68       ??_C@_1EI@KJNONBFI@?$AAO?$AAn?$AAE?$AAv?$AAe?$AAn?$AAt?$AAD?$AAa?$AAt?$AAa?$AAB?$AAa?$AAs?$AAe?$AA?5?$AAw?$AAR?$AAe?$AAq?$AAu?$AAe?$AAs?$AAt?$AAI?$AAD?$AA?5?$AA?$DN?$AA?5?$AA?$CF?$AAd?$AA?5@ 00464e68     AttemperEngineSink.obj
 0002:00000eb0       ??_C@_1DC@PEGMNDNJ@N?$AOSO?$IM?$ADg?$ANR?$KBVhv?$IE?$IP?$NOc?$KFQs?$JF?mN?$IG?$PP?$AM?$AA?$CF?$AAl?$AAd?$AA?5y?RT?$AO?2?$AG?$JB?Me?$LA?$IP?$NOc?$KF?$AA?$AA@ 00464eb0     AttemperEngineSink.obj
 0002:00000ee4       ??_C@_1DC@ICLHFKEI@N?$AO?$HO?$KGb?$BIg?$ANR?$KBVhv?$IE?$IP?$NOc?$KFQs?$JF?mN?$IG?$PP?$AM?$AA?$CF?$AAl?$AAd?$AA?5y?RT?$AO?2?$AG?$JB?Me?$LA?$IP?$NOc?$KF?$AA?$AA@ 00464ee4     AttemperEngineSink.obj
 0002:00000f18       ??_C@_1DC@CEOPECBE@N?$AO?$AAA?$AAIg?$ANR?$KBVhv?$IE?$IP?$NOc?$KFQs?$JF?mN?$IG?$PP?$AM?$AA?$CF?$AAl?$AAd?$AA?5y?RT?$AO?2?$AG?$JB?Me?$LA?$IP?$NOc?$KF?$AA?$AA@ 00464f18     AttemperEngineSink.obj
 0002:00000f4c       ??_C@_1DM@EBEAFOFG@SO?$IM?$ADg?$ANR?$KBVh?$IP?$NOc?$KFY1?$IN?$CF?$AA?5?$AA?$FL?$AA?5?$AA?$CF?$AAl?$AAd?$AA?5?$AA?$FN?$PP?$AM?$AA?$CF?$AAl?$AAd?$AA?5y?RT?$AO?2?$AG?$JB?Me?$LA?$IP?$NOc?$KF?$AA?$AA@ 00464f4c     AttemperEngineSink.obj
 0002:00000f88       ??_C@_1CA@HOJPOMLI@kcW?$CIS?Q?$JA?$ABn8b?$APb?$DP?$JF?tl?hQ?$IMO?a?$GAo?$AA?4?$AA?4?$AA?4?$AA?$AA@ 00464f88     AttemperEngineSink.obj
 0002:00000fa8       ??_C@_1DM@JONOFFNO@?$HO?$KGb?$BIg?$ANR?$KBVh?$IP?$NOc?$KFY1?$IN?$CF?$AA?5?$AA?$FL?$AA?5?$AA?$CF?$AAl?$AAd?$AA?5?$AA?$FN?$PP?$AM?$AA?$CF?$AAl?$AAd?$AA?5y?RT?$AO?2?$AG?$JB?Me?$LA?$IP?$NOc?$KF?$AA?$AA@ 00464fa8     AttemperEngineSink.obj
 0002:00000fe8       ??_C@_1EA@LAJCEPBB@?$AAA?$AAIR?$AG?$JBMg?$ANR?$KBVh?$IP?$NOc?$KFY1?$IN?$CF?$AA?5?$AA?$FL?$AA?5?$AA?$CF?$AAl?$AAd?$AA?5?$AA?$FN?$PP?$AM?$AA?$CF?$AAl?$AAd?$AA?5y?RT?$AO?2?$AG?$JB?Me?$LA?$IP?$NOc?$KF?$AA?$AA@ 00464fe8     AttemperEngineSink.obj
 0002:00001028       ??_C@_1DG@FLFPOLON@?$AAA?$AAIg?$ANR?$KBVhVh?$JE?$POc?$KFb?$BAR?$JP?$PP?$AMkcW?$CIS?Q?$JA?$ABn8b?$APb?$DP?$JF?tl?hQ?$IMO?a?$GAo?$AA?4?$AA?4?$AA?4?$AA?$AA@ 00465028     AttemperEngineSink.obj
 0002:00001060       ??_C@_0CH@NFDDKLA@OnEventTCPNetworkShut?5userid?5?$DN?5?$CF@ 00465060     AttemperEngineSink.obj
 0002:00001088       ??_C@_0L@LDJEFOCL@?S?N?O?$LH?$LH?$PO?N?q?F?w?$AA@ 00465088     AttemperEngineSink.obj
 0002:00001098       ??_C@_1EK@JCMKFGFO@?$AAO?$AAn?$AAE?$AAv?$AAe?$AAn?$AAt?$AAT?$AAC?$AAP?$AAN?$AAe?$AAt?$AAw?$AAo?$AAr?$AAk?$AAS?$AAh?$AAu?$AAt?$AA?5?$AAu?$AAs?$AAe?$AAr?$AAi?$AAd?$AA?5?$AA?$DN?$AA?5?$AA?$CF@ 00465098     AttemperEngineSink.obj
 0002:000010e8       ??_C@_0EF@BOEPCLPN@OnEventTCPNetworkShut?5userid?5?$DN?5?$CF@ 004650e8     AttemperEngineSink.obj
 0002:00001130       ??_C@_1FA@EHMHCDLK@?$AAO?$AAn?$AAE?$AAv?$AAe?$AAn?$AAt?$AAT?$AAC?$AAP?$AAN?$AAe?$AAt?$AAw?$AAo?$AAr?$AAk?$AAS?$AAh?$AAu?$AAt?$AA?5?$AAu?$AAs?$AAe?$AAr?$AAi?$AAd?$AA?5?$AA?$DN?$AA?5?$AA?$CF@ 00465130     AttemperEngineSink.obj
 0002:00001180       ??_C@_0CM@KEJBAIKP@OnEventTCPNetworkShut?5userid?5?$DN?5?$CF@ 00465180     AttemperEngineSink.obj
 0002:000011b0       ??_C@_1GG@MGHNBBFE@?$AAp?$AAt?$AAd?$AAt?$AAd?$AAt?$AA?5?$AA?$CK?$AA?$CK?$AA?$CK?$AA?5?$AAO?$AAn?$AAE?$AAv?$AAe?$AAn?$AAt?$AAT?$AAC?$AAP?$AAN?$AAe?$AAt?$AAw?$AAo?$AAr?$AAk?$AAS?$AAh?$AAu?$AAt@ 004651b0     AttemperEngineSink.obj
 0002:00001218       ??_C@_1FE@DGBMJPLF@?$AAO?$AAn?$AAE?$AAv?$AAe?$AAn?$AAt?$AAT?$AAC?$AAP?$AAN?$AAe?$AAt?$AAw?$AAo?$AAr?$AAk?$AAS?$AAh?$AAu?$AAt?$AA?5?$AAu?$AAs?$AAe?$AAr?$AAi?$AAd?$AA?5?$AA?$DN?$AA?5?$AA?$CF@ 00465218     AttemperEngineSink.obj
 0002:00001270       ??_C@_1GK@KDMGGNME@?$AAp?$AAt?$AAd?$AAt?$AAd?$AAt?$AA?5?$AA?$CK?$AA?$CK?$AA?$CK?$AA?5?$AAO?$AAn?$AAE?$AAv?$AAe?$AAn?$AAt?$AAT?$AAC?$AAP?$AAN?$AAe?$AAt?$AAw?$AAo?$AAr?$AAk?$AAS?$AAh?$AAu?$AAt@ 00465270     AttemperEngineSink.obj
 0002:000012dc       ??_C@_0DA@KEPAOAOG@OnEventTCPNetworkShut?5userid?5?$DN?5?$CF@ 004652dc     AttemperEngineSink.obj
 0002:0000130c       ??_C@_1CI@OCFAGKOG@Qs?$JF?m?$IP?$NOc?$KF_?$AC?$FO8?$AA?3?$AA?5?$AAw?$AAT?$AAa?$AAb?$AAl?$AAe?$AAI?$AAD?$AA?$DN?$AA?$CF?$AAd?$AA?$AA@ 0046530c     AttemperEngineSink.obj
 0002:00001338       ??_C@_1HG@OCCEEFOI@?$AAO?$AAn?$AAE?$AAv?$AAe?$AAn?$AAt?$AAT?$AAC?$AAP?$AAN?$AAe?$AAt?$AAw?$AAo?$AAr?$AAk?$AAR?$AAe?$AAa?$AAd?$AA?5?$AAw?$AAM?$AAa?$AAi?$AAn?$AAC?$AAm?$AAd?$AAI?$AAD@ 00465338     AttemperEngineSink.obj
 0002:000013b0       ??_C@_1JG@IPKMCPIH@?$AAp?$AAt?$AAd?$AAt?$AAd?$AAt?$AA?5?$AA?$CK?$AA?$CK?$AA?$CK?$AA?5?$AAO?$AAn?$AAE?$AAv?$AAe?$AAn?$AAt?$AAT?$AAC?$AAP?$AAN?$AAe?$AAt?$AAw?$AAo?$AAr?$AAk?$AAR?$AAe?$AAa?$AAd@ 004653b0     AttemperEngineSink.obj
 0002:00001448       ??_C@_1GA@MFDCIIHD@T?$HNN?dY?$AEt?$AG?$IP?TV?$NO?$AA?5?$AAf?$AAa?$AAl?$AAs?$AAe?$AA?5?$AA?5?$AA?5?$AAw?$AAM?$AAa?$AAi?$AAn?$AAC?$AAm?$AAd?$AAI?$AAD?$AA?5?$AA?$DN?$AA?5?$AA?$CF?$AAd?$AA?5?$AA?5@ 00465448     AttemperEngineSink.obj
 0002:000014a8       ??_C@_1HO@LENMBLFD@?$AAO?$AAn?$AAE?$AAv?$AAe?$AAn?$AAt?$AAT?$AAC?$AAP?$AAN?$AAe?$AAt?$AAw?$AAo?$AAr?$AAk?$AAR?$AAe?$AAa?$AAd?$AA?5?$AAw?$AAM?$AAa?$AAi?$AAn?$AAC?$AAm?$AAd?$AAI?$AAD@ 004654a8     AttemperEngineSink.obj
 0002:00001528       ??_C@_1HC@KBKDDHPP@?$AAO?$AAn?$AAE?$AAv?$AAe?$AAn?$AAt?$AAT?$AAC?$AAP?$AAN?$AAe?$AAt?$AAw?$AAo?$AAr?$AAk?$AAR?$AAe?$AAa?$AAd?$AA?5?$AAw?$AAM?$AAa?$AAi?$AAn?$AAC?$AAm?$AAd?$AAI?$AAD@ 00465528     AttemperEngineSink.obj
 0002:000015a0       ??_C@_1GM@NMHNKHBG@?$AAp?$AAt?$AAd?$AAt?$AA?5?$AA?$CK?$AA?$CK?$AA?$CK?$AA?5n8b?$APg?$ANR?$KBVh?$AA?5?$AAS?$AAe?$AAn?$AAd?$AAS?$AAy?$AAs?$AAt?$AAe?$AAm?$AAM?$AAe?$AAs?$AAs?$AAa?$AAg?$AAe@ 004655a0     AttemperEngineSink.obj
 0002:0000160c       ??_C@_00CNPNBAHC@?$AA@     0046560c     AttemperEngineSink.obj
 0002:00001610       ??_C@_1FM@DGCDEGO@?$AAp?$AAt?$AAd?$AAt?$AAa?$AAi?$AA?5?$AA?$CK?$AA?$CK?$AA?$CK?$AA?5?$IL?$LO?$HPn?$AA?5?$AAu?$AAs?$AAe?$AAr?$AAi?$AAd?$AA?5?$AA?$DN?$AA?5?$AA?$CF?$AAd?$AA?5N?3?$AA?5?$AAc?$AAb?$AAU?$AAs@ 00465610     AttemperEngineSink.obj
 0002:0000166c       ??_C@_1CM@HFGGIGFG@?$GA?$KI?$FN?r?$II?$KL?$HL?$KBt?$AGTX?$IL?wQ?zb?$DP?$JF?t?$AA?0?$AA1?2?$APe?vNKQ?$IFN?$AN?$IA?$PN?$IP?$NLQe?$PP?$AB?$AA?$AA@ 0046566c     AttemperEngineSink.obj
 0002:00001698       ??_C@_1DG@LOFKOCGN@b?$LBkI?$PP?$AMu1N?$IO?$HM?$PL?$HO?$NP?$HO?tb?$KEv?$IES?$JPV?$OA?$PP?$AM_SRMn8b?$APb?$DP?$JF?ty?$IBkbu?$CIb7?$IP?$NLQe?$PP?$AB?$AA?$AA@ 00465698     AttemperEngineSink.obj
 0002:000016d0       ??_C@_1DE@BFECIIAJ@b?$LBkI?$PP?$AM?$AAA?$AAId?3?$FO?$CG?$HLI?$HO?$KH?$HN?$CC_?$BFg?7?$IL?o?$PP?$AMN?$AN?$IA?$PN?$IP?$NLQe_SRMn8b?$APb?$DP?$JF?t?$PP?$AB?$AA?$AA@ 004656d0     AttemperEngineSink.obj
 0002:00001704       ??_C@_1DE@PFGNJNBM@b?$LBkI?$PP?$AM?$AAA?$AAIR?$AG?$JBMd?3?$FO?$CG?$JB?Q?$FO?$ABg?7?$IL?o?$PP?$AMN?$AN?$IA?$PN?$IP?$NLQe_SRMn8b?$APb?$DP?$JF?t?$PP?$AB?$AA?$AA@ 00465704     AttemperEngineSink.obj
 0002:00001738       ??_C@_1EO@OPCNIDJM@b?$LBkI?$PP?$AM?$GA?$KIv?$IEO?$BKTX?$HO?$KHR?$CLONN?$IO_SRMn8b?$APb?$DP?$JF?tv?$IEg?$AAON?$IP?$NLQeO?$BKTXgaN?v?$PP?$AMN?$AN?$IA?$PN?$IP?$NLQe_S@ 00465738     AttemperEngineSink.obj
 0002:00001788       ??_C@_1EO@PFAKIEOL@b?$LBkI?$PP?$AM?$GA?$KIv?$IEO?$BKTX?$HO?$KHR?$CL?$JK?XN?$IO_SRMn8b?$APb?$DP?$JF?tv?$IEg?$AA?$JK?X?$IP?$NLQeO?$BKTXgaN?v?$PP?$AMN?$AN?$IA?$PN?$IP?$NLQe_S@ 00465788     AttemperEngineSink.obj
 0002:000017d8       ??_C@_1CM@CLGLHJNN@v?nRM?$IL?en8b?$APb?$DP?$JF?tN?$LKep?$FN?rn?a?$PP?$AMf?$ICe?vN?$ANS?oR?$KAQe?$PP?$AB?$AA?5?$AA1?$AA?$AA@ 004657d8     AttemperEngineSink.obj
 0002:00001808       ??_C@_1JI@NJLCOGBK@?$AAp?$AAt?$AAd?$AAt?$AAa?$AAi?$AA?5?$AA?$CK?$AA?$CK?$AA?$CK?$AA?5?$AAO?$AAn?$AAD?$AAB?$AAA?$AAI?$AAL?$AAo?$AAg?$AAo?$AAn?$AAS?$AAu?$AAc?$AAc?$AAe?$AAs?$AAs?$AA?5Y?$AEt?$AG@ 00465808     AttemperEngineSink.obj
 0002:000018a0       ??_C@_1CM@DJNONGDD@v?nRM?$IL?en8b?$APb?$DP?$JF?tN?$LKep?$FN?rn?a?$PP?$AMf?$ICe?vN?$ANS?oR?$KAQe?$PP?$AB?$AA?5?$AA2?$AA?$AA@ 004658a0     AttemperEngineSink.obj
 0002:000018d0       ??_C@_1IM@PLDKKGLM@?$AAp?$AAt?$AAd?$AAt?$AAa?$AAi?$AA?5?$AA?$CK?$AA?$CK?$AA?$CK?$AA?5?$AAO?$AAn?$AAD?$AAB?$AAA?$AAI?$AAL?$AAo?$AAg?$AAo?$AAn?$AAS?$AAu?$AAc?$AAc?$AAe?$AAs?$AAs?$AA?5Y?$AEt?$AG@ 004658d0     AttemperEngineSink.obj
 0002:00001960       ??_C@_1HC@GEBFEOCM@?$AAp?$AAt?$AAd?$AAt?$AA?5?$AA?$CK?$AA?$CK?$AA?$CK?$AA?5v?$HL_UY1?$IN?$CF?$AA?5?$AA?5?$AAw?$AAK?$AAi?$AAn?$AAd?$AAI?$AAD?$AA?5?$AA?$DN?$AA?5?$AA?$CF?$AAd?$AA?5?$AA?5?$AAw?$AAS?$AAe@ 00465960     AttemperEngineSink.obj
 0002:000019d4       ??_C@_1DI@LGMKKKFL@?$FOsS?pepcn?$FO?$JDg?$ANR?$KB?$HO?DN?vrHg?0l?hQ?$IMO?a?$GAoN?$AO_SRM?$HO?DN?vrHg?0O?a?$GAoN?$ANN?$AA?$IB?t?$AA?$AA@ 004659d4     AttemperEngineSink.obj
 0002:00001a0c       ??_C@_1CG@FMGHCJID@?$AAp?$AAt?$AAd?$AAt?$AA?5?$AA?$CK?$AA?$CK?$AA?$CK?$AA?5S?Q?$JA?$AB?$AA?5?$AA1?$AA0?$AA4?$AA?5m?$II?$GAo?$AA?$AA@ 00465a0c     AttemperEngineSink.obj
 0002:00001a34       ??_C@_1DE@HADELAOP@?$AAG?$AAA?$AAM?$AAE?$AAS?$AAE?$AAR?$AAV?$AAE?$AAR?$AA?5?$AAu?$AAl?$AAI?$AAt?$AAe?$AAm?$AAI?$AAD?$AA?$DN?$AA?$CF?$AAI?$AA6?$AA4?$AAd?$AA?$AA@ 00465a34     AttemperEngineSink.obj
 0002:00001a68       ??_C@_1HI@ONBNOODN@?$AAG?$AAA?$AAM?$AAE?$AAS?$AAE?$AAR?$AAV?$AAE?$AAR?$AA?5?$AAG?$AAa?$AAm?$AAe?$AAS?$AAe?$AAr?$AAv?$AAe?$AAr?$AAW?$AAe?$AAb?$AAS?$AAh?$AAa?$AAr?$AAe?$AAS?$AAt?$AAo@ 00465a68     AttemperEngineSink.obj
 0002:00001ae0       ??_C@_1DK@EOEGJOHF@?$AAI?$AAN?$AAV?$AAA?$AAL?$AAI?$AAD?$AA_?$AAM?$AAo?$AAd?$AAi?$AAf?$AAy?$AAS?$AAu?$AAb?$AAI?$AAt?$AAe?$AAm?$AAT?$AAy?$AAp?$AAe?$AA?$DN?$AA?$CF?$AAd?$AA?$AA@ 00465ae0     AttemperEngineSink.obj
 0002:00001b1c       ??_C@_1DG@OPNNPOFC@?$AAG?$AAA?$AAM?$AAE?$AAS?$AAE?$AAR?$AAV?$AAE?$AAR?$AA?5?$AAu?$AAl?$AAI?$AAt?$AAe?$AAm?$AAI?$AAD?$AAA?$AA?$DN?$AA?$CF?$AAI?$AA6?$AA4?$AAd?$AA?$AA@ 00465b1c     AttemperEngineSink.obj
 0002:00001b58       ??_C@_1HK@PFAGCHMK@?$AAG?$AAA?$AAM?$AAE?$AAS?$AAE?$AAR?$AAV?$AAE?$AAR?$AA?5?$AAG?$AAa?$AAm?$AAe?$AAS?$AAe?$AAr?$AAv?$AAe?$AAr?$AAW?$AAe?$AAb?$AAS?$AAh?$AAa?$AAr?$AAe?$AAS?$AAt?$AAo@ 00465b58     AttemperEngineSink.obj
 0002:00001bd8       ??_C@_1EO@PLNKABJP@?$AAp?$AAt?$AAd?$AAt?$AA?5?$AA?$CK?$AA?$CK?$AA?$CK?$AA?5n8b?$APg?$ANR?$KBVh?$AA?5?$AAS?$AAU?$AAB?$AA_?$AAC?$AAS?$AA_?$AAS?$AA_?$AAS?$AAY?$AAS?$AAT?$AAE?$AAM?$AA_?$AAM@ 00465bd8     AttemperEngineSink.obj
 0002:00001c28       ??_C@_1EG@JNKGBCBE@?$AAp?$AAt?$AAd?$AAt?$AA?5?$AA?$CK?$AA?$CK?$AA?$CK?$AA?5n8b?$APg?$ANR?$KBVh?$AA?5?$AAS?$AAU?$AAB?$AA_?$AAG?$AAR?$AA_?$AAS?$AAE?$AAN?$AAD?$AA_?$AAM?$AAE?$AAS?$AAS?$AAA@ 00465c28     AttemperEngineSink.obj
 0002:00001c70       ??_C@_1BI@CDEPIKDB@?$IL?w?$IP?$JDQekcxnv?$IEb?$DP?$JF?t?$FL?Fx?$AB?$PP?$AB?$AA?$AA@ 00465c70     AttemperEngineSink.obj
 0002:00001c88       ??_C@_1BO@LLAAGLBG@?$IP?$NLQeb?$DP?$JF?t?$JF?$BJ?$IL?o?$PP?$AMb?$DP?$JF?t?$FN?rQs?$JF?m0?$AC?$PP?$AB?$AA?$AA@ 00465c88     AttemperEngineSink.obj
 0002:00001ca8       ??_C@_1DE@HLAKOMFE@?$IL?e?$FO?$BAS?w?$FN?rW?$CIkdb?$DP?$JF?tn8b?$AP?$PP?$AMN?$BEN?$ANQA?$IL?$LI?$IO?$CCQ?z?$PP?$AM?$IL?wT?$KI?$IL?b?$HL?$KBt?$AGTX?$PP?$AB?$AA?$AA@ 00465ca8     AttemperEngineSink.obj
 0002:00001cdc       ??_C@_1BI@GFHGFJMO@?$IL?w?$IP?$JDQekcxnv?$IEv?$HL_U?$FL?Fx?$AB?$PP?$AB?$AA?$AA@ 00465cdc     AttemperEngineSink.obj
 0002:00001cf4       ??_C@_1BE@ICMFHEPO@b?$LBkI?$AA?0?$JH?$FOl?UepcnS?$AF?$PP?$AB?$AA?$AA@ 00465cf4     AttemperEngineSink.obj
 0002:00001d08       ??_C@_1BC@OGIEMAAJ@b?$LBkI?$AA?0?$JB?MY?$ANv?$HL_U?$PP?$AB?$AA?$AA@ 00465d08     AttemperEngineSink.obj
 0002:00001d1c       ??_C@_1CM@IBHFCBEI@b?$LBkI?$PP?$AM?$GA?$KI?$IP?$JDQev?$IEb?$DP?$JF?t?$FL?Fx?$ABN?$ANkcxn?$PP?$AM?$IL?w?$JB?Me?$LA?$IP?$JDQe?$PP?$AB?$AA?$AA@ 00465d1c     AttemperEngineSink.obj
 0002:00001d48       ??_C@_1CM@DJGIMCLK@_?$IIb?$LBkI?$PP?$AM?$GA?$KIv?$IEv?$HL_U?$FL?Fx?$AB?$JF?$BJ?$IL?o?$PP?$AMN?$ANQA?$IL?$LI?$HO?g?$HO?m?$IP?$NLQe?$PP?$AB?$AA?$AA@ 00465d48     AttemperEngineSink.obj
 0002:00001d78       ??_C@_1JK@FIHFNNLC@?$AAp?$AAt?$AAd?$AAt?$AAa?$AAi?$AA?5?$AA?$CK?$AA?$CK?$AA?$CK?$AA?5?$AAO?$AAn?$AAT?$AAC?$AAP?$AAN?$AAe?$AAt?$AAw?$AAo?$AAr?$AAk?$AAS?$AAu?$AAb?$AAL?$AAo?$AAg?$AAo?$AAn?$AAA@ 00465d78     AttemperEngineSink.obj
 0002:00001e18       ??_C@_1FO@MCLKKMAP@?$AAp?$AAt?$AAd?$AAt?$AAa?$AAi?$AA?5?$AA?$CK?$AA?$CK?$AA?$CK?$AA?5?$AAO?$AAn?$AAT?$AAC?$AAP?$AAN?$AAe?$AAt?$AAw?$AAo?$AAr?$AAk?$AAS?$AAu?$AAb?$AAL?$AAo?$AAg?$AAo?$AAn?$AAA@ 00465e18     AttemperEngineSink.obj
 0002:00001e78       ??_C@_1EE@PJPDGCMD@?$AAp?$AAt?$AAd?$AAt?$AAd?$AAt?$AA?5?$AA?$CK?$AA?$CK?$AA?$CK?$AA?$CK?$AA?5?$AAS?$AAe?$AAn?$AAd?$AAR?$AAe?$AAq?$AAu?$AAe?$AAs?$AAt?$AAF?$AAa?$AAi?$AAl?$AAu?$AAr?$AAe?$AA?5?$AA?5@ 00465e78     AttemperEngineSink.obj
 0002:00001ebc       ??_C@_1DA@NMHJDHB@?$GA?$KIkcW?$CIn8b?$APN?9?$PP?$AMf?$ICe?vN?$AN?$IA?$PNy?$LL_?$AA?$PP?$AM?$IL?wQH?$HO?Sg__SRMn8b?$AP?$PP?$AB?$AA?$AA@ 00465ebc     AttemperEngineSink.obj
 0002:00001ef0       ??_C@_1EK@GPKACLDO@?$AAp?$AAt?$AAd?$AAt?$AAd?$AAt?$AA?5?$AA?$CK?$AA?$CK?$AA?$CK?$AA?$CK?$AA?5?$AAP?$AAe?$AAr?$AAf?$AAo?$AAr?$AAm?$AAS?$AAt?$AAa?$AAn?$AAd?$AAU?$AAp?$AAA?$AAc?$AAt?$AAi?$AAo?$AAn@ 00465ef0     AttemperEngineSink.obj
 0002:00001f40       ??_C@_1EE@OLEGMNCN@?$AAp?$AAt?$AAd?$AAt?$AAd?$AAt?$AA?5?$AA?$CK?$AA?$CK?$AA?$CK?$AA?$CK?$AA?5?$AAS?$AAe?$AAn?$AAd?$AAR?$AAe?$AAq?$AAu?$AAe?$AAs?$AAt?$AAF?$AAa?$AAi?$AAl?$AAu?$AAr?$AAe?$AA?5?$AA?5@ 00465f40     AttemperEngineSink.obj
 0002:00001f84       ??_C@_1CC@LPFFEINH@n8b?$AP?$FN?r?$IP?$NL?$IILR0g?$AAT?$AON?$AA?2?$EA?$AA?0N?$ANS?oR?$KAQe?$PP?$AB?$AA?$AA@ 00465f84     AttemperEngineSink.obj
 0002:00001fa8       ??_C@_1CI@OHOAINAC@?$AAp?$AAt?$AAd?$AAt?$AAd?$AAt?$AA?5?$AA?$CK?$AA?$CK?$AA?$CK?$AA?5g?$AAT?$AON?$AA?2?$EAWPN?$AL?$IP?TV?$NO?$AA?$AA@ 00465fa8     AttemperEngineSink.obj
 0002:00001fd0       ??_C@_1EO@LIAMNEPP@?$AAp?$AAt?$AAd?$AAt?$AAa?$AAi?$AAs?$AA?5?$AA?$CK?$AA?$CK?$AA?$CK?$AA?5?$AAO?$AAn?$AAT?$AAC?$AAP?$AAN?$AAe?$AAt?$AAw?$AAo?$AAr?$AAk?$AAS?$AAu?$AAb?$AAU?$AAs?$AAe?$AAr?$AAS@ 00465fd0     AttemperEngineSink.obj
 0002:00002020       ??_C@_1EI@DOEGDIJM@?$AAp?$AAt?$AAd?$AAt?$AAa?$AAi?$AAs?$AA?5?$AA?$CK?$AA?$CK?$AA?$CK?$AA?$CK?$AA?5?$AAS?$AAe?$AAn?$AAd?$AAR?$AAe?$AAq?$AAu?$AAe?$AAs?$AAt?$AAF?$AAa?$AAi?$AAl?$AAu?$AAr?$AAe?$AA?5@ 00466020     AttemperEngineSink.obj
 0002:00002068       ??_C@_1EG@FCJKEOFL@?$AAp?$AAt?$AAd?$AAt?$AAa?$AAi?$AAs?$AA?5?$AA?$CK?$AA?$CK?$AA?$CK?$AA?$CK?$AA?5?$AAS?$AAe?$AAn?$AAd?$AAR?$AAe?$AAq?$AAu?$AAe?$AAs?$AAt?$AAF?$AAa?$AAi?$AAl?$AAu?$AAr?$AAe?$AA?5@ 00466068     AttemperEngineSink.obj
 0002:000020b0       ??_C@_1EM@LLAGDLAP@?$AAp?$AAt?$AAd?$AAt?$AAa?$AAi?$AAs?$AA?5?$AA?$CK?$AA?$CK?$AA?$CK?$AA?$CK?$AA?5?$AAP?$AAe?$AAr?$AAf?$AAo?$AAr?$AAm?$AAS?$AAt?$AAa?$AAn?$AAd?$AAU?$AAp?$AAA?$AAc?$AAt?$AAi?$AAo@ 004660b0     AttemperEngineSink.obj
 0002:00002100       ??_C@_1GI@NBKAFKDK@?$AAp?$AAt?$AAd?$AAt?$AAa?$AAi?$AAs?$AA?5?$AA?$CK?$AA?$CK?$AA?$CK?$AA?5?$AAD?$AAr?$AAa?$AAw?$AAC?$AAo?$AAu?$AAn?$AAt?$AAL?$AAi?$AAm?$AAi?$AAt?$AA?5?$AA?$DN?$AA?5?$AA?$CF?$AAd?$AA?5@ 00466100     AttemperEngineSink.obj
 0002:00002168       ??_C@_1CK@FCMJNKAN@?$AAp?$AAt?$AAd?$AAt?$AAa?$AAi?$AAs?$AA?5?$AA?$CK?$AA?$CK?$AA?$CK?$AA?5g?$AAT?$AON?$AA?2?$EAWPN?$AL?$IP?TV?$NO?$AA?$AA@ 00466168     AttemperEngineSink.obj
 0002:00002194       ??_C@_1CK@MHFBIGGP@v?nRM?$IL?en8b?$APb?$DP?$JF?tN?$LKep?$FN?rn?a?$PP?$AMf?$ICe?vN?$ANS?oR?$KAQe?$PP?$AB?$AA3?$AA?$AA@ 00466194     AttemperEngineSink.obj
 0002:000021c0       ??_C@_1EM@PGGMCNBA@?$AAp?$AAt?$AAd?$AAt?$AAa?$AAi?$AAs?$AA?5?$AA?$CK?$AA?$CK?$AA?$CK?$AA?$CK?$AA?5?$AAS?$AAe?$AAn?$AAd?$AAR?$AAe?$AAq?$AAu?$AAe?$AAs?$AAt?$AAF?$AAa?$AAi?$AAl?$AAu?$AAr?$AAe?$AA?5@ 004661c0     AttemperEngineSink.obj
 0002:0000220c       ??_C@_1CG@KIGFJMJE@?$GA?$KIv?$IER?Kz?$OA?2?$BBN?$IO?$AA?5?$AA?$CF?$AAI?$AA6?$AA4?$AAd?$PP?$AMN?$AN?$IA?$PNWPN?$AL?$PP?$AB?$AA?$AA@ 0046620c     AttemperEngineSink.obj
 0002:00002234       ??_C@_1CI@BBHHMPC@?$GA?$KIv?$IEn8b?$AP?$FO?$AB?2?$BBN?$IO?$AA?5?$AA?$CF?$AAI?$AA6?$AA4?$AAd?$PP?$AMN?$AN?$IA?$PNWPN?$AL?$PP?$AB?$AA?$AA@ 00466234     AttemperEngineSink.obj
 0002:00002260       ??_C@_1EM@OENJICPO@?$AAp?$AAt?$AAd?$AAt?$AAa?$AAi?$AAs?$AA?5?$AA?$CK?$AA?$CK?$AA?$CK?$AA?$CK?$AA?5?$AAS?$AAe?$AAn?$AAd?$AAR?$AAe?$AAq?$AAu?$AAe?$AAs?$AAt?$AAF?$AAa?$AAi?$AAl?$AAu?$AAr?$AAe?$AA?5@ 00466260     AttemperEngineSink.obj
 0002:000022b0       ??_C@_1EM@FMGFOFJL@?$AAp?$AAt?$AAd?$AAt?$AAa?$AAi?$AAs?$AA?5?$AA?$CK?$AA?$CK?$AA?$CK?$AA?$CK?$AA?5?$AAS?$AAe?$AAn?$AAd?$AAR?$AAe?$AAq?$AAu?$AAe?$AAs?$AAt?$AAF?$AAa?$AAi?$AAl?$AAu?$AAr?$AAe?$AA?5@ 004662b0     AttemperEngineSink.obj
 0002:00002300       ??_C@_1FC@HCLBHFFN@?$AAp?$AAt?$AAd?$AAt?$AAa?$AAi?$AAs?$AA?5?$AA?$CK?$AA?$CK?$AA?$CK?$AA?5?$AAO?$AAn?$AAT?$AAC?$AAP?$AAN?$AAe?$AAt?$AAw?$AAo?$AAr?$AAk?$AAS?$AAu?$AAb?$AAU?$AAs?$AAe?$AAr?$AAS@ 00466300     AttemperEngineSink.obj
 0002:00002358       ??_C@_1EM@MBLCNNCC@?$AAp?$AAt?$AAd?$AAt?$AAa?$AAi?$AAs?$AA?5?$AA?$CK?$AA?$CK?$AA?$CK?$AA?$CK?$AA?5?$AAS?$AAe?$AAn?$AAd?$AAR?$AAe?$AAq?$AAu?$AAe?$AAs?$AAt?$AAF?$AAa?$AAi?$AAl?$AAu?$AAr?$AAe?$AA?5@ 00466358     AttemperEngineSink.obj
 0002:000023a8       ??_C@_1EG@MPENHGOC@?$AAp?$AAt?$AAd?$AAt?$AAa?$AAi?$AAs?$AA?5?$AA?$CK?$AA?$CK?$AA?$CK?$AA?$CK?$AA?5?$AAS?$AAe?$AAn?$AAd?$AAR?$AAe?$AAq?$AAu?$AAe?$AAs?$AAt?$AAF?$AAa?$AAi?$AAl?$AAu?$AAr?$AAe?$AA?5@ 004663a8     AttemperEngineSink.obj
 0002:000023f0       ??_C@_1BO@NHPFLGOE@?$JF?$BJ?$IL?ov?$IEb?$DP?$JF?t?$IL?wlB?$PP?$AM?$IL?wz?$ANT?$AOQ?$IN?$IL?U?$PP?$AB?$AA?$AA@ 004663f0     AttemperEngineSink.obj
 0002:00002410       ??_C@_1EG@HHPBBBIH@?$AAp?$AAt?$AAd?$AAt?$AAa?$AAi?$AAs?$AA?5?$AA?$CK?$AA?$CK?$AA?$CK?$AA?$CK?$AA?5?$AAS?$AAe?$AAn?$AAd?$AAR?$AAe?$AAq?$AAu?$AAe?$AAs?$AAt?$AAF?$AAa?$AAi?$AAl?$AAu?$AAr?$AAe?$AA?5@ 00466410     AttemperEngineSink.obj
 0002:00002458       ??_C@_1CK@FKIGLONG@v?nRM?$IL?en8b?$APb?$DP?$JF?tN?$LKep?$FN?rn?a?$PP?$AMf?$ICe?vN?$ANS?oR?$KAQe?$PP?$AB?$AA4?$AA?$AA@ 00466458     AttemperEngineSink.obj
 0002:00002484       ??_C@_1CK@OCDKNJLD@v?nRM?$IL?en8b?$APb?$DP?$JF?tN?$LKep?$FN?rn?a?$PP?$AMf?$ICe?vN?$ANS?oR?$KAQe?$PP?$AB?$AA5?$AA?$AA@ 00466484     AttemperEngineSink.obj
 0002:000024b0       ??_C@_1EM@HJAOLKEH@?$AAp?$AAt?$AAd?$AAt?$AAa?$AAi?$AAs?$AA?5?$AA?$CK?$AA?$CK?$AA?$CK?$AA?$CK?$AA?5?$AAS?$AAe?$AAn?$AAd?$AAR?$AAe?$AAq?$AAu?$AAe?$AAs?$AAt?$AAF?$AAa?$AAi?$AAl?$AAu?$AAr?$AAe?$AA?5@ 004664b0     AttemperEngineSink.obj
 0002:00002500       ??_C@_1EG@GFEELOGJ@?$AAp?$AAt?$AAd?$AAt?$AAa?$AAi?$AAs?$AA?5?$AA?$CK?$AA?$CK?$AA?$CK?$AA?$CK?$AA?5?$AAS?$AAe?$AAn?$AAd?$AAR?$AAe?$AAq?$AAu?$AAe?$AAs?$AAt?$AAF?$AAa?$AAi?$AAl?$AAu?$AAr?$AAe?$AA?5@ 00466500     AttemperEngineSink.obj
 0002:00002548       ??_C@_1CK@PAIPHGFN@v?nRM?$IL?en8b?$APb?$DP?$JF?tN?$LKep?$FN?rn?a?$PP?$AMf?$ICe?vN?$ANS?oR?$KAQe?$PP?$AB?$AA6?$AA?$AA@ 00466548     AttemperEngineSink.obj
 0002:00002574       ??_C@_1CK@EIDDBBDI@v?nRM?$IL?en8b?$APb?$DP?$JF?tN?$LKep?$FN?rn?a?$PP?$AMf?$ICe?vN?$ANS?oR?$KAQe?$PP?$AB?$AA7?$AA?$AA@ 00466574     AttemperEngineSink.obj
 0002:000025a0       ??_C@_1JI@GKNEKPKI@?$AAp?$AAt?$AAd?$AAt?$AAa?$AAi?$AAs?$AA?5?$AA?$CK?$AA?$CK?$AA?$CK?$AA?$CK?$AA?5?$AAS?$AAe?$AAn?$AAd?$AAR?$AAe?$AAq?$AAu?$AAe?$AAs?$AAt?$AAF?$AAa?$AAi?$AAl?$AAu?$AAr?$AAe?$AA?5@ 004665a0     AttemperEngineSink.obj
 0002:00002638       ??_C@_1CK@BAFAABGO@v?nRM?$IL?en8b?$APb?$DP?$JF?tN?$LKep?$FN?rn?a?$PP?$AMf?$ICe?vN?$ANS?oR?$KAQe?$PP?$AB?$AA8?$AA?$AA@ 00466638     AttemperEngineSink.obj
 0002:00002668       ??_C@_1EG@IFJLMJFK@?$AAp?$AAt?$AAd?$AAt?$AAa?$AAi?$AAs?$AA?5?$AA?$CK?$AA?$CK?$AA?$CK?$AA?$CK?$AA?5?$AAS?$AAe?$AAn?$AAd?$AAR?$AAe?$AAq?$AAu?$AAe?$AAs?$AAt?$AAF?$AAa?$AAi?$AAl?$AAu?$AAr?$AAe?$AA?5@ 00466668     AttemperEngineSink.obj
 0002:000026b0       ??_C@_1CK@KIOMGGAL@v?nRM?$IL?en8b?$APb?$DP?$JF?tN?$LKep?$FN?rn?a?$PP?$AMf?$ICe?vN?$ANS?oR?$KAQe?$PP?$AB?$AA9?$AA?$AA@ 004666b0     AttemperEngineSink.obj
 0002:000026e0       ??_C@_1EM@GLLLBFKJ@?$AAp?$AAt?$AAd?$AAt?$AAa?$AAi?$AAs?$AA?5?$AA?$CK?$AA?$CK?$AA?$CK?$AA?$CK?$AA?5?$AAS?$AAe?$AAn?$AAd?$AAR?$AAe?$AAq?$AAu?$AAe?$AAs?$AAt?$AAF?$AAa?$AAi?$AAl?$AAu?$AAr?$AAe?$AA?5@ 004666e0     AttemperEngineSink.obj
 0002:0000272c       ??_C@_1DC@GCBPAJJF@s?$KJ?$FL?$LGWPN?$ALY1?$IN?$CF?$AA?5?$AAl?$AAE?$AAn?$AAt?$AAe?$AAr?$AAL?$AAi?$AAm?$AAi?$AAt?$AAe?$AA?5?$AA?$DN?$AA?5?$AA?$CF?$AAd?$AA?$AA@ 0046672c     AttemperEngineSink.obj
 0002:00002760       ??_C@_1M@MJALICPJ@?$AAa?$AAig?$ANR?$KBVh?$AA?$AA@ 00466760     AttemperEngineSink.obj
 0002:00002770       ??_C@_1EG@FCMCFKAG@?$AAp?$AAt?$AAd?$AAt?$AAa?$AAi?$AA?5?$AA?$CK?$AA?$CK?$AA?$CKs?$KJ?$FL?$LGWPN?$ALY1?$IN?$CF?$AA?5?$AAl?$AAE?$AAn?$AAt?$AAe?$AAr?$AAL?$AAi?$AAm?$AAi?$AAt?$AAe?$AA?5?$AA?$DN?$AA?5@ 00466770     AttemperEngineSink.obj
 0002:000027b8       ??_C@_1CA@PFFHNGDN@_SRM?$FO?$KHOM?$FN?rg?7s?$KJ?$FL?$LG?$PP?$AMcb?$FO?$KHOMY1?$IN?$CF?$PP?$AB?$AA?$AA@ 004667b8     AttemperEngineSink.obj
 0002:000027d8       ??_C@_1EE@DMEHEKCM@?$AAp?$AAt?$AAd?$AAt?$AAd?$AAt?$AA?5?$AA?$CK?$AA?$CK?$AA?$CK?$AA?$CK?$AA?5?$AAS?$AAe?$AAn?$AAd?$AAR?$AAe?$AAq?$AAu?$AAe?$AAs?$AAt?$AAF?$AAa?$AAi?$AAl?$AAu?$AAr?$AAe?$AA?5?$AA?5@ 004667d8     AttemperEngineSink.obj
 0002:00002820       ??_C@_1EK@GBEINAHE@?$AAp?$AAt?$AAd?$AAt?$AAd?$AAt?$AA?5?$AA?$CK?$AA?$CK?$AA?$CK?$AA?$CK?$AA?5?$AAP?$AAe?$AAr?$AAf?$AAo?$AAr?$AAm?$AAS?$AAt?$AAa?$AAn?$AAd?$AAU?$AAp?$AAA?$AAc?$AAt?$AAi?$AAo?$AAn@ 00466820     AttemperEngineSink.obj
 0002:00002870       ??_C@_1EG@LDEAIFKL@?$AAp?$AAt?$AAd?$AAt?$AAd?$AAt?$AA?5?$AA?$CK?$AA?$CK?$AA?$CK?$AA?$CK?$AA?5?$AAS?$AAe?$AAn?$AAd?$AAR?$AAe?$AAq?$AAu?$AAe?$AAs?$AAt?$AAF?$AAa?$AAi?$AAl?$AAu?$AAr?$AAe?$AA?5?$AA?5@ 00466870     AttemperEngineSink.obj
 0002:000028b8       ??_C@_1O@FLBONMPG@cb?$FO?$KHOMY1?$IN?$CF?$PP?$AB?$AA?$AA@ 004668b8     AttemperEngineSink.obj
 0002:000028c8       ??_C@_1EG@LPMOCMO@?$AAp?$AAt?$AAd?$AAt?$AAd?$AAt?$AA?5?$AA?$CK?$AA?$CK?$AA?$CK?$AA?$CK?$AA?5?$AAS?$AAe?$AAn?$AAd?$AAR?$AAe?$AAq?$AAu?$AAe?$AAs?$AAt?$AAF?$AAa?$AAi?$AAl?$AAu?$AAr?$AAe?$AA?5?$AA?5@ 004668c8     AttemperEngineSink.obj
 0002:00002910       ??_C@_1EG@BJEJENCA@?$AAp?$AAt?$AAd?$AAt?$AAd?$AAt?$AA?5?$AA?$CK?$AA?$CK?$AA?$CK?$AA?$CK?$AA?5?$AAS?$AAe?$AAn?$AAd?$AAR?$AAe?$AAq?$AAu?$AAe?$AAs?$AAt?$AAF?$AAa?$AAi?$AAl?$AAu?$AAr?$AAe?$AA?5?$AA?5@ 00466910     AttemperEngineSink.obj
 0002:00002958       ??_C@_1DA@DEIECENH@?$HO?$KGb?$BIg?$CK?$HO?Sg_?$PP?$AMN?$AN?$IA?$PNy?$LL_?$AAn8b?$AP?$PP?$AM?$IL?wQH?$FL?$IMb?$BA?$HO?$KGb?$BIQ?$INy?$LL_?$AA?$PP?$AB?$AA?$AA@ 00466958     AttemperEngineSink.obj
 0002:00002988       ??_C@_1EI@OEMBLHOD@?$AAp?$AAt?$AAd?$AAt?$AAd?$AAt?$AA?5?$AA?$CK?$AA?$CK?$AA?$CK?$AA?$CK?$AA?5?$AAP?$AAe?$AAr?$AAf?$AAo?$AAr?$AAm?$AAL?$AAo?$AAo?$AAk?$AAo?$AAn?$AAS?$AAt?$AAa?$AAn?$AAd?$AAu?$AAp@ 00466988     AttemperEngineSink.obj
 0002:000029d0       ??_C@_1EK@DJCLMACC@?$AAp?$AAt?$AAd?$AAt?$AAd?$AAt?$AA?5?$AA?$CK?$AA?$CK?$AA?$CK?$AA?$CK?$AA?5?$AAP?$AAe?$AAr?$AAf?$AAo?$AAr?$AAm?$AAS?$AAt?$AAa?$AAn?$AAd?$AAU?$AAp?$AAA?$AAc?$AAt?$AAi?$AAo?$AAn@ 004669d0     AttemperEngineSink.obj
 0002:00002a1c       ??_C@_1CI@GNKBBOHK@b?$LBkI?$PP?$AM_SRMkdn8b?$APb?$DP?$JF?ty?$IBkbu?$CIb7Y?8S?$IF?$IAJY?$CJ?$PP?$AB?$AA?$AA@ 00466a1c     AttemperEngineSink.obj
 0002:00002a44       ??_C@_1DO@MMKIAMJK@b?$LBkI?$PP?$AM?$GA?$KIl?$KBg?7Y?8S?$IFS?Q?$IK?$AAv?$IEgC?$JGP?$PP?$AM?$IC?e?$JH?$AA?$IJ?$IB?$FO?4R?$KJ?$PP?$AM?$IL?w?$IAT?$HM?$PLn8b?$AP?$FL?$KCg?$ANT?$KI?$IL?b?$PP?$AB?$AA?$AA@ 00466a44     AttemperEngineSink.obj
 0002:00002a84       ??_C@_1CE@BEOEJEJN@b?$LBkI?$PP?$AM_SRMkdn8b?$APb?$DP?$JF?ty?$IBkbu?$CIb7y?A?$IAJ?$PP?$AB?$AA?$AA@ 00466a84     AttemperEngineSink.obj
 0002:00002aa8       ??_C@_1DC@GIDBKEPA@b?$LBkI?$PP?$AMkdn8b?$APb?$DP?$JF?tN?$ANQA?$IL?$LIW?$CIn8b?$APN?9N?$AOT?$AMhLv?$IEs?$KJ?$FL?$LGy?A?$IAJ?$PP?$AB?$AA?$AA@ 00466aa8     AttemperEngineSink.obj
 0002:00002adc       ??_C@_1DO@EJAPJDCN@b?$LBkI?$PP?$AM?$GA?$KIl?$KBg?7S?Q?$JA?$ABy?A?$IAJv?$IEgC?$JGP?$PP?$AM?$IC?e?$JH?$AA?$IJ?$IB?$FO?4R?$KJ?$PP?$AM?$IL?w?$IAT?$HM?$PLn8b?$AP?$FL?$KCg?$ANT?$KI?$IL?b?$PP?$AB?$AA?$AA@ 00466adc     AttemperEngineSink.obj
 0002:00002b1c       ??_C@_1CK@MOAGKHKL@?$AAp?$AAt?$AAd?$AAt?$AA?5?$AA?$CK?$AA?$CK?$AA?$CK?$AA?5e6R0O?$HPu?$CI?$JASQwm?$II?$GAo?$AA?5m?$II?$GAo?$AA?$AA@ 00466b1c     AttemperEngineSink.obj
 0002:00002b48       ??_C@_1BM@DEHPJIHI@k?T?$IN?$FLb?$DP?$JF?tN?$ANS?oN?eO?$HPu?$CIkdR?$JP?$IA?$PN?$PP?$AB?$AA?$AA@ 00466b48     AttemperEngineSink.obj
 0002:00002b64       ??_C@_1BM@NLIDFGDO@?$HO?CN?$GAb?$DP?$JF?tN?$ANS?oN?eO?$HPu?$CIkdR?$JP?$IA?$PN?$PP?$AB?$AA?$AA@ 00466b64     AttemperEngineSink.obj
 0002:00002b80       ??_C@_1CC@LEMHPABA@kdhLg?7s?$KJ?$FL?$LG?$IL?$LO?$HPnN?$IGN?$ANN?$AO?$GA?$KIT?$AMhLn8b?$AP?$PP?$AB?$AA?$AA@ 00466b80     AttemperEngineSink.obj
 0002:00002ba8       ??_C@_1EK@IBJHKHEH@?$AAp?$AAt?$AAd?$AAt?$AAd?$AAt?$AA?5?$AA?$CK?$AA?$CK?$AA?$CK?$AA?$CK?$AA?5?$AAP?$AAe?$AAr?$AAf?$AAo?$AAr?$AAm?$AAS?$AAt?$AAa?$AAn?$AAd?$AAU?$AAp?$AAA?$AAc?$AAt?$AAi?$AAo?$AAn@ 00466ba8     AttemperEngineSink.obj
 0002:00002bf4       ??_C@_1CC@KMBJHCEO@_?$IIb?$LBkI?$PP?$AM?$IO?$CCQ?z?$HL?$KBt?$AGTXf?1N?$AN?$II?$KLQA?$IL?$LIv?$IE?$PP?$AB?$AA?$AA@ 00466bf4     AttemperEngineSink.obj
 0002:00002c18       ??_C@_1BM@FHCKLCEM@_?$IIb?$LBkI?$PP?$AMv?$HON?$LKn8b?$APN?$AN?$IL?$LI?$IO?$CCN?$LK?$PP?$AB?$AA?$AA@ 00466c18     AttemperEngineSink.obj
 0002:00002c34       ??_C@_1DK@BGLCOEAN@u1N?$IOs?$KJ?$FL?$LG?$AA?5?$AA?$FL?$AA?5?$AA?$CF?$AAs?$AA?5?$AA?$FN?$AA?5kcW?$CIn8b?$APN?9?$AA?0?$GA?$KIN?$AN?$IA?$PN?2?$AG?$FL?$ID?$IO?$CCQ?zn8b?$AP?$PP?$AB?$AA?$AA@ 00466c34     AttemperEngineSink.obj
 0002:00002c70       ??_C@_1DO@CGHLDAIN@u1N?$IOs?$KJ?$FL?$LG?$AA?5?$AA?$FL?$AA?5?$AA?$CF?$AAs?$AA?5?$AA?$FN?$AA?5kcW?$CIO?$HPu?$CI?$JG2?$IO?$CCSa?$AA?0?$GA?$KIe?$OAl?U?2?$AG?$FL?$ID?$IO?$CCQ?zn8b?$AP?$PP?$AB?$AA?$AA@ 00466c70     AttemperEngineSink.obj
 0002:00002cb0       ??_C@_1BG@MOKAEOJI@O?$GA?$FN?r?$II?$KL?$AA?$CF?$AAs?$IL?wy?$LLhL?$FLP?$PP?$AB?$AA?$AA@ 00466cb0     AttemperEngineSink.obj
 0002:00002cc8       ??_C@_1EK@JDCCAIKJ@?$AAp?$AAt?$AAd?$AAt?$AAd?$AAt?$AA?5?$AA?$CK?$AA?$CK?$AA?$CK?$AA?$CK?$AA?5?$AAP?$AAe?$AAr?$AAf?$AAo?$AAr?$AAm?$AAS?$AAt?$AAa?$AAn?$AAd?$AAU?$AAp?$AAA?$AAc?$AAt?$AAi?$AAo?$AAn@ 00466cc8     AttemperEngineSink.obj
 0002:00002d14       ??_C@_1DG@POPBONGK@?$AAO?$AAn?$AAT?$AAC?$AAP?$AAN?$AAe?$AAt?$AAw?$AAo?$AAr?$AAk?$AAS?$AAu?$AAb?$AAU?$AAs?$AAe?$AAr?$AAI?$AAn?$AAf?$AAo?$AAR?$AAe?$AAq?$AA?$AA@ 00466d14     AttemperEngineSink.obj
 0002:00002d4c       ??_C@_1DI@BNMJOJC@?$AAO?$AAn?$AAT?$AAC?$AAP?$AAN?$AAe?$AAt?$AAw?$AAo?$AAr?$AAk?$AAS?$AAu?$AAb?$AAU?$AAs?$AAe?$AAr?$AAC?$AAh?$AAa?$AAi?$AAr?$AAR?$AAe?$AAq?$AA?$AA@ 00466d4c     AttemperEngineSink.obj
 0002:00002d88       ??_C@_1EG@KBPFCKEF@?$AAp?$AAt?$AAd?$AAt?$AAd?$AAt?$AA?5?$AA?$CK?$AA?$CK?$AA?$CK?$AA?$CK?$AA?5?$AAS?$AAe?$AAn?$AAd?$AAR?$AAe?$AAq?$AAu?$AAe?$AAs?$AAt?$AAF?$AAa?$AAi?$AAl?$AAu?$AAr?$AAe?$AA?5?$AA?5@ 00466d88     AttemperEngineSink.obj
 0002:00002dd0       ??_C@_1CM@CNNHLHGL@?$GA?$KIv?$IEn8b?$AP?$FO?$AB?2?$BBN?$IO?$AA?5?$AA?$CF?$AAI?$AA6?$AA4?$AAd?$PP?$AMN?$AN?$IA?$PN?$HO?g?$HO?mn8b?$AP?$PP?$AB?$AA?$AA@ 00466dd0     AttemperEngineSink.obj
 0002:00002dfc       ??_C@_1CO@PODFKGFA@?$GA?$KIv?$IEn8b?$APy?oR?$AG?2?$BBN?$IO?$AA?5?$AA?$CF?$AAI?$AA6?$AA4?$AAd?$PP?$AMN?$AN?$IA?$PN?$HO?g?$HO?mn8b?$AP?$PP?$AB?$AA?$AA@ 00466dfc     AttemperEngineSink.obj
 0002:00002e30       ??_C@_1EK@CLJOGPMM@?$AAp?$AAt?$AAd?$AAt?$AAd?$AAt?$AA?5?$AA?$CK?$AA?$CK?$AA?$CK?$AA?$CK?$AA?5?$AAP?$AAe?$AAr?$AAf?$AAo?$AAr?$AAm?$AAS?$AAt?$AAa?$AAn?$AAd?$AAU?$AAp?$AAA?$AAc?$AAt?$AAi?$AAo?$AAn@ 00466e30     AttemperEngineSink.obj
 0002:00002e80       ??_C@_1FC@CKJIOEKB@?$AAp?$AAt?$AAd?$AAt?$AA?5?$AA?$CK?$AA?$CK?$AA?$CKcbhL?$AA?5?$AAt?$AAa?$AAb?$AAl?$AAe?$AAi?$AAd?$AA?5?$AA?$DN?$AA?5?$AA?$CF?$AAd?$AA?5?$AAc?$AAh?$AAa?$AAr?$AAi?$AAd?$AA?5?$AA?$DN@ 00466e80     AttemperEngineSink.obj
 0002:00002ed8       ??_C@_1GE@KENDIIHK@?$AAp?$AAt?$AAd?$AAt?$AA?5?$AA?$CK?$AA?$CK?$AA?$CKcbhL?$AA?5?$AAt?$AAa?$AAb?$AAl?$AAe?$AAi?$AAd?$AA?5?$AA?$DN?$AA?5?$AA?$CF?$AAd?$AA?5?$AAc?$AAh?$AAa?$AAr?$AAi?$AAd?$AA?5?$AA?$DN@ 00466ed8     AttemperEngineSink.obj
 0002:00002f40       ??_C@_1EK@LGEJFHHF@?$AAp?$AAt?$AAd?$AAt?$AAd?$AAt?$AA?5?$AA?$CK?$AA?$CK?$AA?$CK?$AA?$CK?$AA?5?$AAP?$AAe?$AAr?$AAf?$AAo?$AAr?$AAm?$AAS?$AAt?$AAa?$AAn?$AAd?$AAU?$AAp?$AAA?$AAc?$AAt?$AAi?$AAo?$AAn@ 00466f40     AttemperEngineSink.obj
 0002:00002f90       ??_C@_1FG@OMIHNNA@?$AAp?$AAt?$AAd?$AAt?$AA?5?$AA?$CK?$AA?$CK?$AA?$CKcbhL?$AA?5?$AAt?$AAa?$AAb?$AAl?$AAe?$AAi?$AAd?$AA?5?$AA?$DN?$AA?5?$AA?$CF?$AAd?$AA?5?$AAc?$AAh?$AAa?$AAr?$AAi?$AAd?$AA?5?$AA?$DN@ 00466f90     AttemperEngineSink.obj
 0002:00002fe8       ??_C@_1EK@OPFDABA@?$AAp?$AAt?$AAd?$AAt?$AAd?$AAt?$AA?5?$AA?$CK?$AA?$CK?$AA?$CK?$AA?$CK?$AA?5?$AAP?$AAe?$AAr?$AAf?$AAo?$AAr?$AAm?$AAS?$AAt?$AAa?$AAn?$AAd?$AAU?$AAp?$AAA?$AAc?$AAt?$AAi?$AAo?$AAn@ 00466fe8     AttemperEngineSink.obj
 0002:00003038       ??_C@_1FI@DNCECHEC@?$AAp?$AAt?$AAd?$AAt?$AA?5?$AA?$CK?$AA?$CK?$AA?$CKcbhL?$AA?5?$AAt?$AAa?$AAb?$AAl?$AAe?$AAi?$AAd?$AA?5?$AA?$DN?$AA?5?$AA?$CF?$AAd?$AA?5?$AAc?$AAh?$AAa?$AAr?$AAi?$AAd?$AA?5?$AA?$DN@ 00467038     AttemperEngineSink.obj
 0002:00003090       ??_C@_1EG@IEJOHFJJ@?$AAp?$AAt?$AAd?$AAt?$AAd?$AAt?$AA?5?$AA?$CK?$AA?$CK?$AA?$CK?$AA?$CK?$AA?5?$AAS?$AAe?$AAn?$AAd?$AAR?$AAe?$AAq?$AAu?$AAe?$AAs?$AAt?$AAF?$AAa?$AAi?$AAl?$AAu?$AAr?$AAe?$AA?5?$AA?5@ 00467090     AttemperEngineSink.obj
 0002:000030d8       ??_C@_1BI@DIGFMJDA@l?$KBb?$HOR0S?o?$IP?$NLQev?$IEn8b?$APhL?$PP?$AB?$AA?$AA@ 004670d8     AttemperEngineSink.obj
 0002:000030f0       ??_C@_1CE@LKANBACF@kdb?$DP?$JF?ty?$IBkbb?$DP?$JF?t?$FLXk?$DO?$PP?$AM?$FLXQed?MO?2Y1?$IN?$CF?$PP?$AB?$AA?$AA@ 004670f0     AttemperEngineSink.obj
 0002:00003114       ??_C@_1CE@KOMDJAGL@kdb?$DP?$JF?ty?$IBkbn8b?$AP?$FLXk?$DO?$PP?$AM?$FLXQed?MO?2Y1?$IN?$CF?$PP?$AB?$AA?$AA@ 00467114     AttemperEngineSink.obj
 0002:00003138       ??_C@_1DC@JIDLKAKD@?$FLXQeY1?$IN?$CF?$PP?$AMu1N?$IO?$GA?$KIkcW?$CIn8b?$APN?9?$PP?$AMS?o?$FLXQe?$JI?$JN?$FO?$KGN?3?$AA?5?$AA?$CF?$AAs?$PP?$AB?$AA?$AA@ 00467138     AttemperEngineSink.obj
 0002:0000316c       ??_C@_1BM@KEAOJPHI@?$FLXQeY1?$IN?$CF?$PP?$AMd?3?$FO?$CGn8b?$AP?$FO?$ABN?$AN?$IN?$LD?$PP?$AB?$AA?$AA@ 0046716c     AttemperEngineSink.obj
 0002:00003188       ??_C@_1CE@BLADJELM@kdb?$DP?$JF?ty?$IBkbb?$DP?$JF?tS?Vk?$DO?$PP?$AMS?VQ?zd?MO?2Y1?$IN?$CF?$PP?$AB?$AA?$AA@ 00467188     AttemperEngineSink.obj
 0002:000031ac       ??_C@_1CE@PMNBEPC@kdb?$DP?$JF?ty?$IBkbn8b?$APS?Vk?$DO?$PP?$AMS?VQ?zd?MO?2Y1?$IN?$CF?$PP?$AB?$AA?$AA@ 004671ac     AttemperEngineSink.obj
 0002:000031d0       ??_C@_1CE@HOHIOCM@S?Vk?$DOY1?$IN?$CF?$PP?$AMS?Vk?$DOT?$AO?$IN?$IFQ?zWPN?$ALg?$AA?$JK?Xb?$BA?$HO?i?$PP?$AB?$AA?$AA@ 004671d0     AttemperEngineSink.obj
 0002:000031f4       ??_C@_1BI@BIGBKDGL@?$IL?w?$IP?$JDQekcxnv?$IEs?$KJ?$FL?$LG?$AAI?$AAD?$PP?$AB?$AA?$AA@ 004671f4     AttemperEngineSink.obj
 0002:0000320c       ??_C@_1DE@MGMIBMDF@_SRMn8b?$APg?$ANR?$KBVhb?$DP?$JF?tv?$IE?5?$BM?$IP?P?$IILP?$DM?5?$BNr?$LG?$GA?$AB?$JBM?$HPnepcnO?ne9b?$BAR?$JP?$AA?$AA@ 0046720c     AttemperEngineSink.obj
 0002:00003240       ??_C@_1DE@BPLJHFBJ@?$IP?$NMz?$ALO?ne9b?$DP?$JF?t?$JBM?$HPn?$JA?$BKw?e?$AA?5?$HL?$KBt?$AGTX?$AA?5?$AA?$CF?$AAs?$AA?5?$AA?$FL?$AA?5?$AA?$CF?$AAl?$AAd?$AA?5?$AA?$FN?$AA?$AA@ 00467240     AttemperEngineSink.obj
 0002:00003274       ??_C@_1BI@LICOLDLN@O?$GA?$FN?r?$II?$KL?$HL?$KBt?$AGTX?$IL?wy?$LLhL?$FLP?$PP?$AB?$AA?$AA@ 00467274     AttemperEngineSink.obj
 0002:00003290       ??_C@_1EK@BMEAJPPO@?$AAp?$AAt?$AAd?$AAt?$AAd?$AAt?$AA?5?$AA?$CK?$AA?$CK?$AA?$CK?$AA?$CK?$AA?5?$AAP?$AAe?$AAr?$AAf?$AAo?$AAr?$AAm?$AAS?$AAt?$AAa?$AAn?$AAd?$AAU?$AAp?$AAA?$AAc?$AAt?$AAi?$AAo?$AAn@ 00467290     AttemperEngineSink.obj
 0002:000032dc       ??_C@_1BO@LKBBNLGC@O?$GA?$FN?r?$II?$KL?$HL?$KBt?$AGTX?$IL?wy?$LLkdn8b?$APb?$DP?$JF?t?$PP?$AB?$AA?$AA@ 004672dc     AttemperEngineSink.obj
 0002:000032fc       ??_C@_1BI@ILONJILM@u?$CIb7?$IAJY?$CJgC?$JGP?$JBM?$HPnb?$BAR?$JP?$PP?$AB?$AA?$AA@ 004672fc     AttemperEngineSink.obj
 0002:00003318       ??_C@_1FE@PPBMGLII@?$AAp?$AAt?$AAd?$AAt?$AA?5?$AA?$CK?$AA?$CK?$AA?$CK?$AA?5n8b?$APg?$ANR?$KBVh?$AA?5?$AAO?$AAn?$AAT?$AAC?$AAP?$AAN?$AAe?$AAt?$AAw?$AAo?$AAr?$AAk?$AAS?$AAu?$AAb?$AAS?$AAe@ 00467318     AttemperEngineSink.obj
 0002:0000336c       ??_C@_1BO@JFCOPLGB@b?$LBkI?$PP?$AMkdhL?$FN?r?$II?$KL?$HL?$KBt?$AGTX?$IJ?cecn8b?$AP?$AA?$AA@ 0046736c     AttemperEngineSink.obj
 0002:0000338c       ??_C@_1M@OAAFDJJE@?$ILfTJ?$PP?$BK?$AA?$CF?$AAs?$AA?$AA@ 0046738c     AttemperEngineSink.obj
 0002:00003398       ??_C@_1CM@OELALNJB@k?$CC?$IP?N?$GA?$KI?$IP?$NLQe?5?$BM?$AA?$CF?$AAs?5?$BNn8b?$APb?$DP?$JF?t?$PP?$AMy?$FN?$GA?$KIn8b?$APa?7_?k?$PP?$AB?$AA?$AA@ 00467398     AttemperEngineSink.obj
 0002:000033c8       ??_C@_1EK@KEPMPIJL@?$AAp?$AAt?$AAd?$AAt?$AAd?$AAt?$AA?5?$AA?$CK?$AA?$CK?$AA?$CK?$AA?$CK?$AA?5?$AAP?$AAe?$AAr?$AAf?$AAo?$AAr?$AAm?$AAS?$AAt?$AAa?$AAn?$AAd?$AAU?$AAp?$AAA?$AAc?$AAt?$AAi?$AAo?$AAn@ 004673c8     AttemperEngineSink.obj
 0002:00003414       ??_C@_1CE@DAGAPOKK@?$AAu?$AAs?$AAe?$AAr?$AAs?$AAi?$AAd?$AA?5?$AA?$DN?$AA?5?$AA?$CF?$AAd?$AA?5y?$LL_?$AAb?$DP?$JF?t?$AA?$AA@ 00467414     AttemperEngineSink.obj
 0002:00003438       ??_C@_1EC@OFNOBBEG@?$AAp?$AAt?$AAd?$AAt?$AAa?$AAi?$AA?5?$AA?$CK?$AA?$CK?$AA?$CK?$AA?5?$IL?$LO?$HPn?$AA?5?$AAu?$AAs?$AAe?$AAr?$AAi?$AAd?$AA?5?$AA?$DN?$AA?5?$AA?$CF?$AAd?$AA?5N?3?$AA?5y?$LL_?$AAb?$DP?$JF?t@ 00467438     AttemperEngineSink.obj
 0002:0000347c       ??_C@_1DK@MBFFBHHP@?$IL?wl?ha?$AP?$PP?$AM?$GA?$KIv?$IE?$FO?$BAS?wW?$CIS?fN?$AAW0e?$LJ?$IP?$NLQeN?$IGkdn8b?$APb?$DP?$JF?t?$PP?$AM?$GA?$KI?$II?$KL?$IP?ky?$LL_?$AA?$PP?$AB?$AA?$AA@ 0046747c     AttemperEngineSink.obj
 0002:000034b8       ??_C@_1DM@OOHBFPEA@?$IL?wl?ha?$AP?$PP?$AM?$GA?$KIv?$IE?$FO?$BAS?wW?$CIS?fN?$AAW0e?$LJ?$IP?$NLQeN?$IGkdn8b?$APb?$DP?$JF?t?$PP?$AM?$FL?ye?$LJ?$II?$KL?$IP?ky?$LL_?$AA?$PP?$AB?$AA?$AA@ 004674b8     AttemperEngineSink.obj
 0002:000034f8       ??_7?$CWHArray@UtagDistributeInfo@@ABU1@@@6B@ 004674f8     AttemperEngineSink.obj
 0002:000034fc       ??_C@_1BA@KKMEJGIC@R?$AG?$JBMu?$CIb7?$AA1?$AA?$AN?$AA?6?$AA?$AA@ 004674fc     AttemperEngineSink.obj
 0002:0000350c       ??_C@_1BA@CEELJBGB@R?$AG?$JBMu?$CIb7?$AA2?$AA?$AN?$AA?6?$AA?$AA@ 0046750c     AttemperEngineSink.obj
 0002:0000351c       ??_C@_1BA@OIOBJBPP@R?$AG?$JBMu?$CIb7?$AA3?$AA?$AN?$AA?6?$AA?$AA@ 0046751c     AttemperEngineSink.obj
 0002:0000352c       ??_C@_1BG@PDMGEOIF@R?$AG?$JBMu?$CIb7?$AA4?$AA?9?$AA?$CF?$AAs?$AA?$AN?$AA?6?$AA?$AA@ 0046752c     AttemperEngineSink.obj
 0002:00003544       ??_C@_1M@OAHNMEPA@WPN?$ALY1?$IN?$CF?$PP?$AB?$AA?$AA@ 00467544     AttemperEngineSink.obj
 0002:00003550       ??_C@_1M@FENELPDM@R?$AG?$JBMu?$CIb7?$AA5?$AA?$AA@ 00467550     AttemperEngineSink.obj
 0002:0000355c       ??_C@_1M@EGGBBANC@R?$AG?$JBMu?$CIb7?$AA6?$AA?$AA@ 0046755c     AttemperEngineSink.obj
 0002:00003568       ??_C@_1M@PONNHHLH@R?$AG?$JBMu?$CIb7?$AA7?$AA?$AA@ 00467568     AttemperEngineSink.obj
 0002:00003578       ??_C@_1EK@FPGAMFLP@?$AAp?$AAt?$AAd?$AAt?$AAd?$AAt?$AA?5?$AA?$CK?$AA?$CK?$AA?$CK?$AA?$CK?$AA?5?$AAP?$AAe?$AAr?$AAf?$AAo?$AAr?$AAm?$AAS?$AAt?$AAa?$AAn?$AAd?$AAU?$AAp?$AAA?$AAc?$AAt?$AAi?$AAo?$AAn@ 00467578     AttemperEngineSink.obj
 0002:000035c4       ??_C@_1M@KGLOGHOB@R?$AG?$JBMu?$CIb7?$AA8?$AA?$AA@ 004675c4     AttemperEngineSink.obj
 0002:000035d0       ??_C@_1EK@OHNMKCNK@?$AAp?$AAt?$AAd?$AAt?$AAd?$AAt?$AA?5?$AA?$CK?$AA?$CK?$AA?$CK?$AA?$CK?$AA?5?$AAP?$AAe?$AAr?$AAf?$AAo?$AAr?$AAm?$AAS?$AAt?$AAa?$AAn?$AAd?$AAU?$AAp?$AAA?$AAc?$AAt?$AAi?$AAo?$AAn@ 004675d0     AttemperEngineSink.obj
 0002:0000361c       ??_C@_1CK@EIFOGBKM@?$AAD?$AAi?$AAs?$AAm?$AAi?$AAs?$AAs?$AAP?$AAe?$AAr?$AAs?$AAo?$AAn?$AAa?$AAl?$AAT?$AAa?$AAb?$AAl?$AAe?$AA?$AA@ 0046761c     AttemperEngineSink.obj
 0002:00003648       ??_C@_1CE@FPIOJIDB@?$AAC?$AAa?$AAn?$AAc?$AAe?$AAl?$AAC?$AAr?$AAe?$AAa?$AAt?$AAe?$AAT?$AAa?$AAb?$AAl?$AAe?$AA?$AA@ 00467648     AttemperEngineSink.obj
 0002:00003670       ??_C@_1EG@JGCLNKHH@?$AAp?$AAt?$AAd?$AAt?$AAd?$AAt?$AA?5?$AA?$CK?$AA?$CK?$AA?$CK?$AA?$CK?$AA?5?$AAS?$AAe?$AAn?$AAd?$AAR?$AAe?$AAq?$AAu?$AAe?$AAs?$AAt?$AAF?$AAa?$AAi?$AAl?$AAu?$AAr?$AAe?$AA?5?$AA?5@ 00467670     AttemperEngineSink.obj
 0002:000036b8       ??_C@_1KI@MILLJEFI@?$AAp?$AAt?$AAd?$AAt?$AA?5?$AA?$CK?$AA?$CK?$AA?$CK?$AA?5n8b?$APg?$ANR?$KBVh?$AA?5?$AAS?$AAe?$AAn?$AAd?$AAS?$AAy?$AAs?$AAt?$AAe?$AAm?$AAM?$AAe?$AAs?$AAs?$AAa?$AAg?$AAe@ 004676b8     AttemperEngineSink.obj
 0002:00003760       ??_C@_15GANGMFKL@?$AA?$CF?$AAs?$AA?$AA@ 00467760     AttemperEngineSink.obj
 0002:00003768       ??_C@_19LJJHNIFI@?$JA?$BKu?$CIe?e_?W?$AA?$AA@ 00467768     AttemperEngineSink.obj
 0002:00003778       ??_C@_1IA@KANJLNJK@?$AAp?$AAt?$AAd?$AAt?$AAa?$AAi?$AA?5?$AA?$CK?$AA?$CK?$AA?$CK?$AA?5?$AAO?$AAn?$AAT?$AAC?$AAP?$AAN?$AAe?$AAt?$AAw?$AAo?$AAr?$AAk?$AAS?$AAu?$AAb?$AAA?$AAI?$AAC?$AAr?$AAe?$AAa@ 00467778     AttemperEngineSink.obj
 0002:000037f8       ??_C@_1BI@FCMLLAGN@?$AA?$CF?$AAd?$AA?4?$AA?$CF?$AAd?$AA?4?$AA?$CF?$AAd?$AA?4?$AA?$CF?$AAd?$AA?$AA@ 004677f8     AttemperEngineSink.obj
 0002:00003810       ??_C@_1BE@BOMIKLLN@?$AA?$EA?$AAd?$AAw?$AAU?$AAs?$AAe?$AAr?$AAI?$AAD?$AA?$AA@ 00467810     AttemperEngineSink.obj
 0002:00003824       ??_C@_1BI@FCEICPKF@?$AA?$EA?$AAd?$AAw?$AAS?$AAe?$AAr?$AAv?$AAe?$AAr?$AAI?$AAD?$AA?$AA@ 00467824     AttemperEngineSink.obj
 0002:0000383c       ??_C@_1CE@GMDJPOLN@?$AA?$EA?$AAd?$AAw?$AAD?$AAr?$AAa?$AAw?$AAC?$AAo?$AAu?$AAn?$AAt?$AAL?$AAi?$AAm?$AAi?$AAt?$AA?$AA@ 0046783c     AttemperEngineSink.obj
 0002:00003860       ??_C@_1CC@EGAOFFJL@?$AA?$EA?$AAd?$AAw?$AAD?$AAr?$AAa?$AAw?$AAT?$AAi?$AAm?$AAe?$AAL?$AAi?$AAm?$AAi?$AAt?$AA?$AA@ 00467860     AttemperEngineSink.obj
 0002:00003884       ??_C@_1BG@GCFABKPI@?$AA?$EA?$AAc?$AAb?$AAP?$AAa?$AAy?$AAM?$AAo?$AAd?$AAe?$AA?$AA@ 00467884     AttemperEngineSink.obj
 0002:0000389c       ??_C@_1BK@IBEBNGFG@?$AA?$EA?$AAs?$AAt?$AAr?$AAC?$AAl?$AAi?$AAe?$AAn?$AAt?$AAI?$AAP?$AA?$AA@ 0046789c     AttemperEngineSink.obj
 0002:000038b8       ??_C@_1BI@LLOPIGMI@?$AA?$EA?$AAc?$AAb?$AAP?$AAl?$AAa?$AAy?$AAM?$AAo?$AAd?$AAe?$AA?$AA@ 004678b8     AttemperEngineSink.obj
 0002:000038d0       ??_C@_1BG@NGGGCJCM@?$AA?$EA?$AAd?$AAw?$AAG?$AAr?$AAo?$AAu?$AAp?$AAI?$AAD?$AA?$AA@ 004678d0     AttemperEngineSink.obj
 0002:000038e8       ??_C@_1BI@OGGAFGON@?$AA?$EA?$AAd?$AAw?$AAC?$AAo?$AAn?$AAf?$AAi?$AAg?$AAI?$AAD?$AA?$AA@ 004678e8     AttemperEngineSink.obj
 0002:00003900       ??_C@_1CE@NFCODDGE@?$AA?$EA?$AAs?$AAt?$AAr?$AAE?$AAr?$AAr?$AAo?$AAr?$AAD?$AAe?$AAs?$AAc?$AAr?$AAi?$AAb?$AAe?$AA?$AA@ 00467900     AttemperEngineSink.obj
 0002:00003924       ??_C@_1DA@OHILKFFG@?$AAG?$AAS?$AAP?$AA_?$AAG?$AAR?$AA_?$AAA?$AAI?$AAC?$AAr?$AAe?$AAa?$AAt?$AAe?$AAT?$AAa?$AAb?$AAl?$AAe?$AAF?$AAe?$AAe?$AA?$AA@ 00467924     AttemperEngineSink.obj
 0002:00003954       ??_C@_1BA@NDBPGNHA@?$AAD?$AAi?$AAa?$AAm?$AAo?$AAn?$AAd?$AA?$AA@ 00467954     AttemperEngineSink.obj
 0002:00003964       ??_C@_1BG@HHGGAOIO@?$AAI?$AAs?$AAJ?$AAo?$AAi?$AAn?$AAG?$AAa?$AAm?$AAe?$AA?$AA@ 00467964     AttemperEngineSink.obj
 0002:0000397c       ??_C@_1BI@LICIJHBP@?$AAR?$AAo?$AAo?$AAm?$AAC?$AAa?$AAr?$AAd?$AAF?$AAe?$AAe?$AA?$AA@ 0046797c     AttemperEngineSink.obj
 0002:00003994       ??_C@_1BA@MBKKNNGG@?$AAT?$AAa?$AAx?$AAM?$AAo?$AAd?$AAe?$AA?$AA@ 00467994     AttemperEngineSink.obj
 0002:000039a4       ??_C@_1BC@BMHPIGEB@?$AAT?$AAa?$AAx?$AAC?$AAo?$AAu?$AAn?$AAt?$AA?$AA@ 004679a4     AttemperEngineSink.obj
 0002:000039b8       ??_C@_1CC@BFICGOJI@?$AAL?$AAe?$AAs?$AAs?$AAS?$AAc?$AAo?$AAr?$AAe?$AAD?$AAi?$AAs?$AAm?$AAi?$AAs?$AAs?$AA?$AA@ 004679b8     AttemperEngineSink.obj
 0002:000039dc       ??_C@_1BG@DJKMAHHD@?$AAC?$AAo?$AAn?$AAf?$AAi?$AAg?$AAN?$AAa?$AAm?$AAe?$AA?$AA@ 004679dc     AttemperEngineSink.obj
 0002:000039f8       ??_C@_1IK@NNPOPOFG@?$AAp?$AAt?$AAd?$AAt?$AAa?$AAi?$AA?5?$AA?$CK?$AA?$CK?$AA?$CK?$AA?5?$AAO?$AAn?$AAT?$AAC?$AAP?$AAN?$AAe?$AAt?$AAw?$AAo?$AAr?$AAk?$AAS?$AAu?$AAb?$AAA?$AAI?$AAC?$AAr?$AAe?$AAa@ 004679f8     AttemperEngineSink.obj
 0002:00003a88       ??_C@_1JA@MDBDPFFH@?$AAp?$AAt?$AAd?$AAt?$AAa?$AAi?$AA?5?$AA?$CK?$AA?$CK?$AA?$CK?$AA?5?$AAO?$AAn?$AAT?$AAC?$AAP?$AAN?$AAe?$AAt?$AAw?$AAo?$AAr?$AAk?$AAS?$AAu?$AAb?$AAA?$AAI?$AAC?$AAr?$AAe?$AAa@ 00467a88     AttemperEngineSink.obj
 0002:00003b18       ??_C@_0CM@KFJMBONO@CDataBaseEngineSink?3?3OnRequestAI@ 00467b18     AttemperEngineSink.obj
 0002:00003b44       ??_C@_1BA@GINNKFNG@?$AA?$CF?$AAs?$AA?5?$AA?5?$AA?5?$AA?$CF?$AAs?$AA?$AA@ 00467b44     AttemperEngineSink.obj
 0002:00003b54       ??_C@_1BK@KIJEFICF@epcn?$FO?$JD_?$AC?$FO8?$PP?$AM?$IL?wz?$ANT?$AOQ?$IN?$IL?U?$PP?$AB?$AA?$AA@ 00467b54     AttemperEngineSink.obj
 0002:00003b70       __real@3ff8000000000000    00467b70     AttemperEngineSink.obj
 0002:00003b78       __real@4059000000000000    00467b78     AttemperEngineSink.obj
 0002:00003c50       ??_7IDataBaseEngineSink@@6B@ 00467c50     DataBaseEngineSink.obj
 0002:00003c70       ??_7?$CTempldateHelper@UIDataBase@@@@6B@ 00467c70     DataBaseEngineSink.obj
 0002:00003c78       ??_7CDataBaseHelper@@6B@   00467c78     DataBaseEngineSink.obj
 0002:00003c7c       ??_C@_0P@IKJBDFNG@CreateDataBase?$AA@ 00467c7c     DataBaseEngineSink.obj
 0002:00003c8c       ??_C@_1CC@JLPEDCPB@?$AAK?$AAe?$AAr?$AAn?$AAe?$AAl?$AAE?$AAn?$AAg?$AAi?$AAn?$AAe?$AA?4?$AAd?$AAl?$AAl?$AA?$AA@ 00467c8c     DataBaseEngineSink.obj
 0002:00003cb4       ??_7IGameDataBaseEngine@@6B@ 00467cb4     DataBaseEngineSink.obj
 0002:00003cd8       ??_7CDataBaseEngineSink@@6BIDataBaseEngineSink@@@ 00467cd8     DataBaseEngineSink.obj
 0002:00003cfc       ??_7CDataBaseEngineSink@@6BIGameDataBaseEngine@@@ 00467cfc     DataBaseEngineSink.obj
 0002:00003d1c       ??_C@_1CE@PFAGCBLD@n8b?$APepcn?$FO?$JDbi?2U?$JE?$KJ?$FLP_?$BFd?N?$FL?y?$IMa?$JBM?$HPnY1?$IN?$CF?$AA?$AA@ 00467d1c     DataBaseEngineSink.obj
 0002:00003d40       ??_C@_0CL@EMJCKBGA@CDataBaseEngineSink?3?3OnDataBaseE@ 00467d40     DataBaseEngineSink.obj
 0002:00003d70       ??_C@_1FM@PDJNGMIP@?$AAO?$AAn?$AAD?$AAa?$AAt?$AAa?$AAB?$AAa?$AAs?$AAe?$AAE?$AAn?$AAg?$AAi?$AAn?$AAe?$AAR?$AAe?$AAq?$AAu?$AAe?$AAs?$AAt?$AA?5?$AAw?$AAR?$AAe?$AAq?$AAu?$AAe?$AAs?$AAt@ 00467d70     DataBaseEngineSink.obj
 0002:00003dd0       ??_C@_1GE@FEJCDCDB@?$AAO?$AAn?$AAD?$AAa?$AAt?$AAa?$AAB?$AAa?$AAs?$AAe?$AAE?$AAn?$AAg?$AAi?$AAn?$AAe?$AAR?$AAe?$AAq?$AAu?$AAe?$AAs?$AAt?$AA?5?$AAw?$AAR?$AAe?$AAq?$AAu?$AAe?$AAs?$AAt@ 00467dd0     DataBaseEngineSink.obj
 0002:00003e38       ??_C@_1FI@CFMFMEML@?$AAO?$AAn?$AAD?$AAa?$AAt?$AAa?$AAB?$AAa?$AAs?$AAe?$AAE?$AAn?$AAg?$AAi?$AAn?$AAe?$AAR?$AAe?$AAq?$AAu?$AAe?$AAs?$AAt?$AA?5?$AAw?$AAR?$AAe?$AAq?$AAu?$AAe?$AAs?$AAt@ 00467e38     DataBaseEngineSink.obj
 0002:00003e90       ??_C@_1BK@PABAKEFJ@?$AA?$EA?$AAs?$AAt?$AAr?$AAP?$AAa?$AAs?$AAs?$AAw?$AAo?$AAr?$AAd?$AA?$AA@ 00467e90     DataBaseEngineSink.obj
 0002:00003eac       ??_C@_1BM@PACJFBAH@?$AA?$EA?$AAs?$AAt?$AAr?$AAM?$AAa?$AAc?$AAh?$AAi?$AAn?$AAe?$AAI?$AAD?$AA?$AA@ 00467eac     DataBaseEngineSink.obj
 0002:00003ec8       ??_C@_1BC@BMCCJPHH@?$AA?$EA?$AAw?$AAK?$AAi?$AAn?$AAd?$AAI?$AAD?$AA?$AA@ 00467ec8     DataBaseEngineSink.obj
 0002:00003edc       ??_C@_1BG@KLECKPBD@?$AA?$EA?$AAw?$AAS?$AAe?$AAr?$AAv?$AAe?$AAr?$AAI?$AAD?$AA?$AA@ 00467edc     DataBaseEngineSink.obj
 0002:00003ef4       ??_C@_1BG@MAGCBIHE@?$AA?$EA?$AAd?$AAw?$AAM?$AAa?$AAt?$AAc?$AAh?$AAI?$AAD?$AA?$AA@ 00467ef4     DataBaseEngineSink.obj
 0002:00003f0c       ??_C@_1BE@EAIDJNHN@?$AA?$EA?$AAl?$AAM?$AAa?$AAt?$AAc?$AAh?$AAN?$AAo?$AA?$AA@ 00467f0c     DataBaseEngineSink.obj
 0002:00003f20       ??_C@_1BK@CCODMCGE@?$AA?$EA?$AAc?$AAb?$AAM?$AAa?$AAt?$AAc?$AAh?$AAT?$AAy?$AAp?$AAe?$AA?$AA@ 00467f20     DataBaseEngineSink.obj
 0002:00003f3c       ??_C@_1CM@IAGMJDKF@?$AAG?$AAS?$AAP?$AA_?$AAG?$AAR?$AA_?$AAE?$AAf?$AAf?$AAi?$AAc?$AAa?$AAc?$AAy?$AAU?$AAs?$AAe?$AAr?$AAI?$AAD?$AA?$AA@ 00467f3c     DataBaseEngineSink.obj
 0002:00003f68       ??_C@_1DI@NDDBKMIH@u1N?$IOepcn?$FO?$JDd?MO?2_?$AC?$FO8?$PP?$AM?$IL?w?$GA?$KIz?$ANT?$AO?$JB?M?$IL?Ub?$BG?$JA?7b?iS?fN?$AAg?$ANR?$KBVhv?$HL_U?$PP?$AB?$AA?$AA@ 00467f68     DataBaseEngineSink.obj
 0002:00003fa0       ??_C@_1HK@PBBIFFOG@?$AAp?$AAt?$AAd?$AAt?$AAa?$AAi?$AA?5?$AA?$CK?$AA?$CK?$AA?$CK?$AA?5?$AAO?$AAn?$AAR?$AAe?$AAq?$AAu?$AAe?$AAs?$AAt?$AAL?$AAo?$AAg?$AAo?$AAn?$AAA?$AAI?$AA?5e6R0?$IL?wlB@ 00467fa0     DataBaseEngineSink.obj
 0002:0000401c       ??_C@_1CE@MOFELNPN@?$AAG?$AAS?$AAP?$AA_?$AAG?$AAR?$AA_?$AAE?$AAf?$AAf?$AAi?$AAc?$AAa?$AAc?$AAy?$AAA?$AAI?$AA?$AA@ 0046801c     DataBaseEngineSink.obj
 0002:00004040       ??_C@_1CE@IKDDMLGE@?$AA?$EA?$AAc?$AAb?$AAP?$AAe?$AAr?$AAs?$AAo?$AAn?$AAa?$AAl?$AAS?$AAe?$AAr?$AAv?$AAe?$AAr?$AA?$AA@ 00468040     DataBaseEngineSink.obj
 0002:00004064       ??_C@_1CM@FAHHHLFI@?$AAG?$AAS?$AAP?$AA_?$AAG?$AAR?$AA_?$AAE?$AAf?$AAf?$AAi?$AAc?$AAa?$AAc?$AAy?$AAM?$AAo?$AAb?$AAi?$AAl?$AAe?$AA?$AA@ 00468064     DataBaseEngineSink.obj
 0002:00004090       ??_C@_0CK@MGDIICLE@CDataBaseEngineSink?3?3OnRequestLo@ 00468090     DataBaseEngineSink.obj
 0002:000040bc       ??_C@_1BK@KCJKLEK@?$AA?$EA?$AAs?$AAt?$AAr?$AAA?$AAc?$AAc?$AAo?$AAu?$AAn?$AAt?$AAs?$AA?$AA@ 004680bc     DataBaseEngineSink.obj
 0002:000040d8       ??_C@_1DA@PLAJAGLM@?$AAG?$AAS?$AAP?$AA_?$AAG?$AAR?$AA_?$AAE?$AAf?$AAf?$AAi?$AAc?$AAa?$AAc?$AAy?$AAA?$AAc?$AAc?$AAo?$AAu?$AAn?$AAt?$AAs?$AA?$AA@ 004680d8     DataBaseEngineSink.obj
 0002:00004108       ??_C@_0CM@KPLBNJDB@CDataBaseEngineSink?3?3OnRequestLo@ 00468108     DataBaseEngineSink.obj
 0002:00004134       ??_C@_1BK@NODPIDCN@?$AA?$EA?$AAd?$AAw?$AAD?$AAB?$AAQ?$AAu?$AAe?$AAs?$AAt?$AAI?$AAD?$AA?$AA@ 00468134     DataBaseEngineSink.obj
 0002:00004150       ??_C@_1BM@DAHECHPC@?$AA?$EA?$AAd?$AAw?$AAI?$AAn?$AAo?$AAu?$AAt?$AAI?$AAn?$AAd?$AAe?$AAx?$AA?$AA@ 00468150     DataBaseEngineSink.obj
 0002:0000416c       ??_C@_1BA@KJPOHCDH@?$AA?$EA?$AAl?$AAS?$AAc?$AAo?$AAr?$AAe?$AA?$AA@ 0046816c     DataBaseEngineSink.obj
 0002:0000417c       ??_C@_1BA@KOIJLNNG@?$AA?$EA?$AAl?$AAG?$AAr?$AAa?$AAd?$AAe?$AA?$AA@ 0046817c     DataBaseEngineSink.obj
 0002:0000418c       ??_C@_1BC@CBFKKDKO@?$AA?$EA?$AAl?$AAI?$AAn?$AAs?$AAu?$AAr?$AAe?$AA?$AA@ 0046818c     DataBaseEngineSink.obj
 0002:000041a0       ??_C@_1BE@BHKILLJH@?$AA?$EA?$AAl?$AAR?$AAe?$AAv?$AAe?$AAn?$AAu?$AAe?$AA?$AA@ 004681a0     DataBaseEngineSink.obj
 0002:000041b4       ??_C@_1CE@MMDKLDIP@?$AA?$EA?$AAl?$AAC?$AAh?$AAi?$AAp?$AAS?$AAe?$AAr?$AAi?$AAa?$AAl?$AAS?$AAc?$AAo?$AAr?$AAe?$AA?$AA@ 004681b4     DataBaseEngineSink.obj
 0002:000041d8       ??_C@_1BG@OCNECDCK@?$AA?$EA?$AAl?$AAW?$AAi?$AAn?$AAC?$AAo?$AAu?$AAn?$AAt?$AA?$AA@ 004681d8     DataBaseEngineSink.obj
 0002:000041f0       ??_C@_1BI@HKMEPNPG@?$AA?$EA?$AAl?$AAL?$AAo?$AAs?$AAt?$AAC?$AAo?$AAu?$AAn?$AAt?$AA?$AA@ 004681f0     DataBaseEngineSink.obj
 0002:00004208       ??_C@_1BI@CHPBIGJB@?$AA?$EA?$AAl?$AAD?$AAr?$AAa?$AAw?$AAC?$AAo?$AAu?$AAn?$AAt?$AA?$AA@ 00468208     DataBaseEngineSink.obj
 0002:00004220       ??_C@_1BI@IJFMAKMK@?$AA?$EA?$AAl?$AAF?$AAl?$AAe?$AAe?$AAC?$AAo?$AAu?$AAn?$AAt?$AA?$AA@ 00468220     DataBaseEngineSink.obj
 0002:00004238       ??_C@_1CA@ECCBIMGG@?$AA?$EA?$AAl?$AAI?$AAn?$AAt?$AAe?$AAg?$AAr?$AAa?$AAl?$AAC?$AAo?$AAu?$AAn?$AAt?$AA?$AA@ 00468238     DataBaseEngineSink.obj
 0002:00004258       ??_C@_1BI@DHGJDNDO@?$AA?$EA?$AAl?$AAU?$AAs?$AAe?$AAr?$AAM?$AAe?$AAd?$AAa?$AAl?$AA?$AA@ 00468258     DataBaseEngineSink.obj
 0002:00004270       ??_C@_1BK@GAKLDLJN@?$AA?$EA?$AAl?$AAE?$AAx?$AAp?$AAe?$AAr?$AAi?$AAe?$AAn?$AAc?$AAe?$AA?$AA@ 00468270     DataBaseEngineSink.obj
 0002:0000428c       ??_C@_1BK@HCFNDECD@?$AA?$EA?$AAl?$AAL?$AAo?$AAv?$AAe?$AAL?$AAi?$AAn?$AAe?$AAs?$AAs?$AA?$AA@ 0046828c     DataBaseEngineSink.obj
 0002:000042a8       ??_C@_1CC@JNEAFCNK@?$AA?$EA?$AAd?$AAw?$AAP?$AAl?$AAa?$AAy?$AAT?$AAi?$AAm?$AAe?$AAC?$AAo?$AAu?$AAn?$AAt?$AA?$AA@ 004682a8     DataBaseEngineSink.obj
 0002:000042cc       ??_C@_1CM@KJPONIHC@?$AAG?$AAS?$AAP?$AA_?$AAG?$AAR?$AA_?$AAW?$AAr?$AAi?$AAt?$AAe?$AAG?$AAa?$AAm?$AAe?$AAS?$AAc?$AAo?$AAr?$AAe?$AA?$AA@ 004682cc     DataBaseEngineSink.obj
 0002:000042f8       ??_C@_0CN@JLMFBEAP@CDataBaseEngineSink?3?3OnRequestWr@ 004682f8     DataBaseEngineSink.obj
 0002:00004328       ??_C@_1JM@FOMONHHI@Q?$JJR?$AG?$AA?5?$AAU?$AAs?$AAe?$AAr?$AAI?$AAD?$AA?5?$AA?$DN?$AA?5?$AA?$CF?$AAd?$AA?5?$AAl?$AAS?$AAc?$AAo?$AAr?$AAe?$AA?5?$AA?$DN?$AA?5?$AA?$CF?$AAI?$AA6?$AA4?$AAd?$AA?5?$AAl?$AAG@ 00468328     DataBaseEngineSink.obj
 0002:000043c4       ??_C@_1CG@GKGMMJHA@?$AA?$EA?$AAd?$AAw?$AAO?$AAn?$AAL?$AAi?$AAn?$AAe?$AAT?$AAi?$AAm?$AAe?$AAC?$AAo?$AAu?$AAn?$AAt?$AA?$AA@ 004683c4     DataBaseEngineSink.obj
 0002:000043ec       ??_C@_1BO@MLFLPGKD@?$AA?$EA?$AAd?$AAw?$AAD?$AAa?$AAy?$AAP?$AAl?$AAa?$AAy?$AAT?$AAi?$AAm?$AAe?$AA?$AA@ 004683ec     DataBaseEngineSink.obj
 0002:0000440c       ??_C@_1BO@JBGGKNGG@?$AA?$EA?$AAd?$AAw?$AAL?$AAe?$AAa?$AAv?$AAe?$AAR?$AAe?$AAa?$AAs?$AAo?$AAn?$AA?$AA@ 0046840c     DataBaseEngineSink.obj
 0002:0000442c       ??_C@_1BM@MBNEMFCB@?$AA?$EA?$AAl?$AAR?$AAe?$AAc?$AAo?$AAr?$AAd?$AAS?$AAc?$AAo?$AAr?$AAe?$AA?$AA@ 0046842c     DataBaseEngineSink.obj
 0002:00004448       ??_C@_1BM@MGKDAKMA@?$AA?$EA?$AAl?$AAR?$AAe?$AAc?$AAo?$AAr?$AAd?$AAG?$AAr?$AAa?$AAd?$AAe?$AA?$AA@ 00468448     DataBaseEngineSink.obj
 0002:00004464       ??_C@_1BO@GIMHFIHM@?$AA?$EA?$AAl?$AAR?$AAe?$AAc?$AAo?$AAr?$AAd?$AAI?$AAn?$AAs?$AAu?$AAr?$AAe?$AA?$AA@ 00468464     DataBaseEngineSink.obj
 0002:00004484       ??_C@_1CA@IOMJHOAD@?$AA?$EA?$AAl?$AAR?$AAe?$AAc?$AAo?$AAr?$AAd?$AAR?$AAe?$AAv?$AAe?$AAn?$AAu?$AAe?$AA?$AA@ 00468484     DataBaseEngineSink.obj
 0002:000044a4       ??_C@_1DA@JHAAPOFF@?$AA?$EA?$AAl?$AAR?$AAe?$AAc?$AAo?$AAr?$AAd?$AAC?$AAh?$AAi?$AAp?$AAS?$AAe?$AAr?$AAi?$AAa?$AAl?$AAS?$AAc?$AAo?$AAr?$AAe?$AA?$AA@ 004684a4     DataBaseEngineSink.obj
 0002:000044d4       ??_C@_1CC@BMPHMDGK@?$AA?$EA?$AAl?$AAR?$AAe?$AAc?$AAo?$AAr?$AAd?$AAW?$AAi?$AAn?$AAC?$AAo?$AAu?$AAn?$AAt?$AA?$AA@ 004684d4     DataBaseEngineSink.obj
 0002:000044f8       ??_C@_1CE@CKLHKOKI@?$AA?$EA?$AAl?$AAR?$AAe?$AAc?$AAo?$AAr?$AAd?$AAL?$AAo?$AAs?$AAt?$AAC?$AAo?$AAu?$AAn?$AAt?$AA?$AA@ 004684f8     DataBaseEngineSink.obj
 0002:0000451c       ??_C@_1CE@HHICNFMP@?$AA?$EA?$AAl?$AAR?$AAe?$AAc?$AAo?$AAr?$AAd?$AAD?$AAr?$AAa?$AAw?$AAC?$AAo?$AAu?$AAn?$AAt?$AA?$AA@ 0046851c     DataBaseEngineSink.obj
 0002:00004540       ??_C@_1CE@NJCPFJJE@?$AA?$EA?$AAl?$AAR?$AAe?$AAc?$AAo?$AAr?$AAd?$AAF?$AAl?$AAe?$AAe?$AAC?$AAo?$AAu?$AAn?$AAt?$AA?$AA@ 00468540     DataBaseEngineSink.obj
 0002:00004564       ??_C@_1CE@GHBKGOGA@?$AA?$EA?$AAl?$AAR?$AAe?$AAc?$AAo?$AAr?$AAd?$AAU?$AAs?$AAe?$AAr?$AAM?$AAe?$AAd?$AAa?$AAl?$AA?$AA@ 00468564     DataBaseEngineSink.obj
 0002:00004588       ??_C@_1CG@LGPBBLHK@?$AA?$EA?$AAl?$AAR?$AAe?$AAc?$AAo?$AAr?$AAd?$AAE?$AAx?$AAp?$AAe?$AAr?$AAi?$AAe?$AAn?$AAc?$AAe?$AA?$AA@ 00468588     DataBaseEngineSink.obj
 0002:000045b0       ??_C@_1CG@KEAHBEME@?$AA?$EA?$AAl?$AAR?$AAe?$AAc?$AAo?$AAr?$AAd?$AAL?$AAo?$AAv?$AAe?$AAL?$AAi?$AAn?$AAe?$AAs?$AAs?$AA?$AA@ 004685b0     DataBaseEngineSink.obj
 0002:000045d8       ??_C@_1CO@JEAMKDAJ@?$AA?$EA?$AAd?$AAw?$AAR?$AAe?$AAc?$AAo?$AAr?$AAd?$AAP?$AAl?$AAa?$AAy?$AAT?$AAi?$AAm?$AAe?$AAC?$AAo?$AAu?$AAn?$AAt?$AA?$AA@ 004685d8     DataBaseEngineSink.obj
 0002:00004608       ??_C@_1CC@DICPBFGL@?$AA?$EA?$AAl?$AAV?$AAa?$AAr?$AAi?$AAa?$AAt?$AAi?$AAo?$AAn?$AAS?$AAc?$AAo?$AAr?$AAe?$AA?$AA@ 00468608     DataBaseEngineSink.obj
 0002:0000462c       ??_C@_1CC@DPFINKIK@?$AA?$EA?$AAl?$AAV?$AAa?$AAr?$AAi?$AAa?$AAt?$AAi?$AAo?$AAn?$AAG?$AAr?$AAa?$AAd?$AAe?$AA?$AA@ 0046862c     DataBaseEngineSink.obj
 0002:00004650       ??_C@_1CE@OEICNENM@?$AA?$EA?$AAl?$AAV?$AAa?$AAr?$AAi?$AAa?$AAt?$AAi?$AAo?$AAn?$AAI?$AAn?$AAs?$AAu?$AAr?$AAe?$AA?$AA@ 00468650     DataBaseEngineSink.obj
 0002:00004674       ??_C@_1CG@MEMAIBKE@?$AA?$EA?$AAl?$AAV?$AAa?$AAr?$AAi?$AAa?$AAt?$AAi?$AAo?$AAn?$AAR?$AAe?$AAv?$AAe?$AAn?$AAu?$AAe?$AA?$AA@ 00468674     DataBaseEngineSink.obj
 0002:0000469c       ??_C@_1DG@BEOMHBOO@?$AA?$EA?$AAl?$AAV?$AAa?$AAr?$AAi?$AAa?$AAt?$AAi?$AAo?$AAn?$AAC?$AAh?$AAi?$AAp?$AAS?$AAe?$AAr?$AAi?$AAa?$AAl?$AAS?$AAc?$AAo?$AAr?$AAe?$AA?$AA@ 0046869c     DataBaseEngineSink.obj
 0002:000046d4       ??_C@_1CI@NALDEMMA@?$AA?$EA?$AAl?$AAV?$AAa?$AAr?$AAi?$AAa?$AAt?$AAi?$AAo?$AAn?$AAW?$AAi?$AAn?$AAC?$AAo?$AAu?$AAn?$AAt?$AA?$AA@ 004686d4     DataBaseEngineSink.obj
 0002:000046fc       ??_C@_1CK@DFIKIDO@?$AA?$EA?$AAl?$AAV?$AAa?$AAr?$AAi?$AAa?$AAt?$AAi?$AAo?$AAn?$AAL?$AAo?$AAs?$AAt?$AAC?$AAo?$AAu?$AAn?$AAt?$AA?$AA@ 004686fc     DataBaseEngineSink.obj
 0002:00004728       ??_C@_1CK@FOGNNDFJ@?$AA?$EA?$AAl?$AAV?$AAa?$AAr?$AAi?$AAa?$AAt?$AAi?$AAo?$AAn?$AAD?$AAr?$AAa?$AAw?$AAC?$AAo?$AAu?$AAn?$AAt?$AA?$AA@ 00468728     DataBaseEngineSink.obj
 0002:00004754       ??_C@_1CK@PAMAFPAC@?$AA?$EA?$AAl?$AAV?$AAa?$AAr?$AAi?$AAa?$AAt?$AAi?$AAo?$AAn?$AAF?$AAl?$AAe?$AAe?$AAC?$AAo?$AAu?$AAn?$AAt?$AA?$AA@ 00468754     DataBaseEngineSink.obj
 0002:00004780       ??_C@_1DC@EOJECHC@?$AA?$EA?$AAl?$AAV?$AAa?$AAr?$AAi?$AAa?$AAt?$AAi?$AAo?$AAn?$AAI?$AAn?$AAt?$AAe?$AAg?$AAr?$AAa?$AAl?$AAC?$AAo?$AAu?$AAn?$AAt?$AA?$AA@ 00468780     DataBaseEngineSink.obj
 0002:000047b4       ??_C@_1CK@EOPFGIPG@?$AA?$EA?$AAl?$AAV?$AAa?$AAr?$AAi?$AAa?$AAt?$AAi?$AAo?$AAn?$AAU?$AAs?$AAe?$AAr?$AAM?$AAe?$AAd?$AAa?$AAl?$AA?$AA@ 004687b4     DataBaseEngineSink.obj
 0002:000047e0       ??_C@_1CM@HIIJLKDM@?$AA?$EA?$AAl?$AAV?$AAa?$AAr?$AAi?$AAa?$AAt?$AAi?$AAo?$AAn?$AAE?$AAx?$AAp?$AAe?$AAr?$AAi?$AAe?$AAn?$AAc?$AAe?$AA?$AA@ 004687e0     DataBaseEngineSink.obj
 0002:0000480c       ??_C@_1CM@GKHPLFIC@?$AA?$EA?$AAl?$AAV?$AAa?$AAr?$AAi?$AAa?$AAt?$AAi?$AAo?$AAn?$AAL?$AAo?$AAv?$AAe?$AAL?$AAi?$AAn?$AAe?$AAs?$AAs?$AA?$AA@ 0046880c     DataBaseEngineSink.obj
 0002:00004838       ??_C@_1DE@BELBJDOG@?$AA?$EA?$AAd?$AAw?$AAV?$AAa?$AAr?$AAi?$AAa?$AAt?$AAi?$AAo?$AAn?$AAP?$AAl?$AAa?$AAy?$AAT?$AAi?$AAm?$AAe?$AAC?$AAo?$AAu?$AAn?$AAt?$AA?$AA@ 00468838     DataBaseEngineSink.obj
 0002:0000486c       ??_C@_1CE@HEJNPFFG@?$AA?$EA?$AAc?$AAb?$AAI?$AAs?$AAP?$AAe?$AAr?$AAs?$AAo?$AAn?$AAa?$AAl?$AAR?$AAo?$AAo?$AAm?$AA?$AA@ 0046886c     DataBaseEngineSink.obj
 0002:00004890       ??_C@_1CO@HGJEFIG@?$AAG?$AAS?$AAP?$AA_?$AAG?$AAR?$AA_?$AAL?$AAe?$AAa?$AAv?$AAe?$AAG?$AAa?$AAm?$AAe?$AAS?$AAe?$AAr?$AAv?$AAe?$AAr?$AA?$AA@ 00468890     DataBaseEngineSink.obj
 0002:000048c0       ??_C@_0CO@HMPMMKID@CDataBaseEngineSink?3?3OnRequestLe@ 004688c0     DataBaseEngineSink.obj
 0002:000048f0       ??_C@_1CE@MJCCEBIN@?$AA?$EA?$AAd?$AAw?$AAP?$AAe?$AAr?$AAs?$AAo?$AAn?$AAa?$AAl?$AAR?$AAo?$AAo?$AAm?$AAI?$AAD?$AA?$AA@ 004688f0     DataBaseEngineSink.obj
 0002:00004914       ??_C@_1BG@KKFEAAPD@?$AA?$EA?$AAd?$AAw?$AAM?$AAa?$AAt?$AAc?$AAh?$AAN?$AAo?$AA?$AA@ 00468914     DataBaseEngineSink.obj
 0002:0000492c       ??_C@_1BM@PLLMGOMC@?$AA?$EA?$AAd?$AAw?$AAR?$AAo?$AAo?$AAm?$AAH?$AAo?$AAs?$AAt?$AAI?$AAD?$AA?$AA@ 0046892c     DataBaseEngineSink.obj
 0002:00004948       ??_C@_1BO@MBDACKLE@?$AA?$EA?$AAd?$AAw?$AAP?$AAe?$AAr?$AAs?$AAo?$AAn?$AAa?$AAl?$AAT?$AAa?$AAx?$AA?$AA@ 00468948     DataBaseEngineSink.obj
 0002:00004968       ??_C@_1CK@MLEFNLL@?$AA?$EA?$AAs?$AAt?$AAr?$AAP?$AAe?$AAr?$AAs?$AAo?$AAn?$AAa?$AAl?$AAR?$AAo?$AAo?$AAm?$AAG?$AAU?$AAI?$AAD?$AA?$AA@ 00468968     DataBaseEngineSink.obj
 0002:00004994       ??_C@_1DM@JNKGGLFH@?$AAG?$AAS?$AAP?$AA_?$AAG?$AAR?$AA_?$AAW?$AAr?$AAi?$AAt?$AAe?$AAP?$AAe?$AAr?$AAs?$AAo?$AAn?$AAa?$AAl?$AAG?$AAa?$AAm?$AAe?$AAS?$AAc?$AAo?$AAr?$AAe?$AA?$AA@ 00468994     DataBaseEngineSink.obj
 0002:000049d0       ??_C@_1O@BBNPAFAM@?$AA?$EA?$AAs?$AAt?$AAr?$AAI?$AAD?$AA?$AA@ 004689d0     DataBaseEngineSink.obj
 0002:000049e0       ??_C@_1BG@JFDMHPLO@?$AA?$EA?$AAl?$AAG?$AAa?$AAm?$AAe?$AAs?$AAN?$AAu?$AAm?$AA?$AA@ 004689e0     DataBaseEngineSink.obj
 0002:000049f8       ??_C@_1BI@FOMPKDLN@?$AA?$EA?$AAc?$AAb?$AAG?$AAa?$AAm?$AAe?$AAM?$AAo?$AAd?$AAe?$AA?$AA@ 004689f8     DataBaseEngineSink.obj
 0002:00004a10       ??_C@_1BK@IHOAKHFI@?$AA?$EA?$AAc?$AAb?$AAL?$AAo?$AAo?$AAp?$AAC?$AAo?$AAu?$AAn?$AAt?$AA?$AA@ 00468a10     DataBaseEngineSink.obj
 0002:00004a2c       ??_C@_1DG@BLHNDKMF@?$AAG?$AAS?$AAP?$AA_?$AAG?$AAR?$AA_?$AAW?$AAr?$AAi?$AAt?$AAe?$AAR?$AAe?$AAc?$AAo?$AAr?$AAd?$AAB?$AAa?$AAc?$AAk?$AAI?$AAn?$AAf?$AAo?$AA?$AA@ 00468a2c     DataBaseEngineSink.obj
 0002:00004a64       ??_C@_0DF@CGMOPKIG@CDataBaseEngineSink?3?3OnRequestWr@ 00468a64     DataBaseEngineSink.obj
 0002:00004a9c       ??_C@_1BE@ELLGJMIM@?$AA?$EA?$AAw?$AAT?$AAa?$AAb?$AAl?$AAe?$AAI?$AAD?$AA?$AA@ 00468a9c     DataBaseEngineSink.obj
 0002:00004ab0       ??_C@_1BI@DEFMEDPI@?$AA?$EA?$AAw?$AAU?$AAs?$AAe?$AAr?$AAC?$AAo?$AAu?$AAn?$AAt?$AA?$AA@ 00468ab0     DataBaseEngineSink.obj
 0002:00004ac8       ??_C@_1BO@BENAEGPO@?$AA?$EA?$AAw?$AAA?$AAn?$AAd?$AAr?$AAo?$AAi?$AAd?$AAC?$AAo?$AAu?$AAn?$AAt?$AA?$AA@ 00468ac8     DataBaseEngineSink.obj
 0002:00004ae8       ??_C@_1BK@MOAOLHEF@?$AA?$EA?$AAl?$AAW?$AAa?$AAs?$AAt?$AAe?$AAC?$AAo?$AAu?$AAn?$AAt?$AA?$AA@ 00468ae8     DataBaseEngineSink.obj
 0002:00004b04       ??_C@_1BO@GHJFGPEB@?$AA?$EA?$AAl?$AAR?$AAe?$AAv?$AAe?$AAn?$AAu?$AAe?$AAC?$AAo?$AAu?$AAn?$AAt?$AA?$AA@ 00468b04     DataBaseEngineSink.obj
 0002:00004b24       ??_C@_1CC@LLPDFIMK@?$AA?$EA?$AAS?$AAy?$AAs?$AAt?$AAe?$AAm?$AAT?$AAi?$AAm?$AAe?$AAS?$AAt?$AAa?$AAr?$AAt?$AA?$AA@ 00468b24     DataBaseEngineSink.obj
 0002:00004b48       ??_C@_1CI@PJOKFJKL@?$AA?$EA?$AAS?$AAy?$AAs?$AAt?$AAe?$AAm?$AAT?$AAi?$AAm?$AAe?$AAC?$AAo?$AAn?$AAc?$AAl?$AAu?$AAd?$AAe?$AA?$AA@ 00468b48     DataBaseEngineSink.obj
 0002:00004b70       ??_C@_1CM@HOOKMOA@?$AAG?$AAS?$AAP?$AA_?$AAG?$AAR?$AA_?$AAR?$AAe?$AAc?$AAo?$AAr?$AAd?$AAD?$AAr?$AAa?$AAw?$AAI?$AAn?$AAf?$AAo?$AA?$AA@ 00468b70     DataBaseEngineSink.obj
 0002:00004b9c       ??_C@_1O@BKLBICLA@?$AAD?$AAr?$AAa?$AAw?$AAI?$AAD?$AA?$AA@ 00468b9c     DataBaseEngineSink.obj
 0002:00004bac       ??_C@_1BE@DPNLJENG@?$AA?$EA?$AAd?$AAw?$AAD?$AAr?$AAa?$AAw?$AAI?$AAD?$AA?$AA@ 00468bac     DataBaseEngineSink.obj
 0002:00004bc0       ??_C@_1BE@BJPHIEKB@?$AA?$EA?$AAw?$AAC?$AAh?$AAa?$AAi?$AAr?$AAI?$AAD?$AA?$AA@ 00468bc0     DataBaseEngineSink.obj
 0002:00004bd4       ??_C@_1BK@NIIBPDMP@?$AA?$EA?$AAw?$AAS?$AAe?$AAr?$AAv?$AAe?$AAr?$AAT?$AAy?$AAp?$AAe?$AA?$AA@ 00468bd4     DataBaseEngineSink.obj
 0002:00004bf0       ??_C@_1CO@DODAJILD@?$AAG?$AAS?$AAP?$AA_?$AAG?$AAR?$AA_?$AAR?$AAe?$AAc?$AAo?$AAr?$AAd?$AAD?$AAr?$AAa?$AAw?$AAS?$AAc?$AAo?$AAr?$AAe?$AA?$AA@ 00468bf0     DataBaseEngineSink.obj
 0002:00004c20       ??_C@_0CO@PMJFKAHH@CDataBaseEngineSink?3?3OnRequestGa@ 00468c20     DataBaseEngineSink.obj
 0002:00004c50       ??_C@_1BE@MAKOBCEO@?$AA?$EA?$AAd?$AAw?$AAR?$AAo?$AAo?$AAm?$AAI?$AAD?$AA?$AA@ 00468c50     DataBaseEngineSink.obj
 0002:00004c64       ??_C@_1BK@MCAMCBBE@?$AA?$EA?$AAd?$AAw?$AAT?$AAu?$AAr?$AAn?$AAI?$AAn?$AAd?$AAe?$AAx?$AA?$AA@ 00468c64     DataBaseEngineSink.obj
 0002:00004c80       ??_C@_1DG@NGANGEGL@?$AAG?$AAS?$AAP?$AA_?$AAG?$AAR?$AA_?$AAR?$AAe?$AAc?$AAo?$AAr?$AAd?$AAG?$AAr?$AAo?$AAu?$AAp?$AAD?$AAr?$AAa?$AAw?$AAI?$AAn?$AAf?$AAo?$AA?$AA@ 00468c80     DataBaseEngineSink.obj
 0002:00004cb8       ??_C@_1BAC@KPIGOMPB@?$AAp?$AAt?$AAd?$AAt?$AAa?$AAi?$AA?5?$AA?$CL?$AA?$CL?$AA?$CL?$AA?$CL?$AA?$CL?$AA?$CL?$AA?$CL?$AA?$CL?$AA?$CL?$AA?$CL?$AA?$CL?$AA?5?$AAG?$AAS?$AAP?$AA_?$AAG?$AAR?$AA_?$AAR?$AAe?$AAc?$AAo?$AAr?$AAd@ 00468cb8     DataBaseEngineSink.obj
 0002:00004dbc       ??_C@_1DI@HDPIECFC@?$AAG?$AAS?$AAP?$AA_?$AAG?$AAR?$AA_?$AAR?$AAe?$AAc?$AAo?$AAr?$AAd?$AAG?$AAr?$AAo?$AAu?$AAp?$AAD?$AAr?$AAa?$AAw?$AAS?$AAc?$AAo?$AAr?$AAe?$AA?$AA@ 00468dbc     DataBaseEngineSink.obj
 0002:00004df4       ??_C@_0CP@IPBMOBDB@CDataBaseEngineSink?3?3OnRequestGr@ 00468df4     DataBaseEngineSink.obj
 0002:00004e24       ??_C@_1CK@FCIBLKLG@?$AAG?$AAS?$AAP?$AA_?$AAG?$AAR?$AA_?$AAL?$AAo?$AAa?$AAd?$AAP?$AAa?$AAr?$AAa?$AAm?$AAe?$AAt?$AAe?$AAr?$AA?$AA@ 00468e24     DataBaseEngineSink.obj
 0002:00004e50       ??_C@_1BM@PJJMKADM@?$AAC?$AAl?$AAi?$AAe?$AAn?$AAt?$AAV?$AAe?$AAr?$AAs?$AAi?$AAo?$AAn?$AA?$AA@ 00468e50     DataBaseEngineSink.obj
 0002:00004e6c       ??_C@_1BM@JAONAJA@?$AAS?$AAe?$AAr?$AAv?$AAe?$AAr?$AAV?$AAe?$AAr?$AAs?$AAi?$AAo?$AAn?$AA?$AA@ 00468e6c     DataBaseEngineSink.obj
 0002:00004e88       ??_C@_1CK@PCONFGAG@?$AAD?$AAa?$AAy?$AAW?$AAi?$AAn?$AAL?$AAo?$AAs?$AAt?$AAS?$AAc?$AAo?$AAr?$AAe?$AAL?$AAi?$AAm?$AAi?$AAt?$AA?$AA@ 00468e88     DataBaseEngineSink.obj
 0002:00004eb4       ??_C@_1CC@PDPMKIKD@?$AAD?$AAa?$AAy?$AAP?$AAl?$AAa?$AAy?$AAT?$AAi?$AAm?$AAe?$AAL?$AAi?$AAm?$AAi?$AAt?$AA?$AA@ 00468eb4     DataBaseEngineSink.obj
 0002:00004ed8       ??_C@_0CM@KGJLJCFF@CDataBaseEngineSink?3?3OnRequestLo@ 00468ed8     DataBaseEngineSink.obj
 0002:00004f04       ??_C@_1CM@BEIJBDPH@?$AAG?$AAS?$AAP?$AA_?$AAG?$AAR?$AA_?$AAG?$AAa?$AAm?$AAe?$AAC?$AAo?$AAl?$AAu?$AAm?$AAn?$AAI?$AAt?$AAe?$AAm?$AA?$AA@ 00468f04     DataBaseEngineSink.obj
 0002:00004f30       ??_C@_1BI@EFMLEAGL@?$AAC?$AAo?$AAl?$AAu?$AAm?$AAn?$AAW?$AAi?$AAd?$AAt?$AAh?$AA?$AA@ 00468f30     DataBaseEngineSink.obj
 0002:00004f48       ??_C@_1BK@FFLFOKAC@?$AAD?$AAa?$AAt?$AAa?$AAD?$AAe?$AAs?$AAc?$AAr?$AAi?$AAb?$AAe?$AA?$AA@ 00468f48     DataBaseEngineSink.obj
 0002:00004f64       ??_C@_1BG@HHJCFDBG@?$AAC?$AAo?$AAl?$AAu?$AAm?$AAn?$AAN?$AAa?$AAm?$AAe?$AA?$AA@ 00468f64     DataBaseEngineSink.obj
 0002:00004f7c       ??_C@_0CN@LJMNCEOE@CDataBaseEngineSink?3?3OnRequestLo@ 00468f7c     DataBaseEngineSink.obj
 0002:00004fac       ??_C@_1CA@GIOAGCGG@?$AA?$EA?$AAd?$AAw?$AAA?$AAn?$AAd?$AAr?$AAo?$AAi?$AAd?$AAC?$AAo?$AAu?$AAn?$AAt?$AA?$AA@ 00468fac     DataBaseEngineSink.obj
 0002:00004fcc       ??_C@_1CO@EJCCGLGI@?$AAG?$AAS?$AAP?$AA_?$AAG?$AAR?$AA_?$AAL?$AAo?$AAa?$AAd?$AAA?$AAn?$AAd?$AAr?$AAo?$AAi?$AAd?$AAU?$AAs?$AAe?$AAr?$AA?$AA@ 00468fcc     DataBaseEngineSink.obj
 0002:00004ffc       ??_C@_1O@DLKCLNNL@?$AAU?$AAs?$AAe?$AAr?$AAI?$AAD?$AA?$AA@ 00468ffc     DataBaseEngineSink.obj
 0002:0000500c       ??_C@_0CO@KOKOIFGC@CDataBaseEngineSink?3?3OnRequestLo@ 0046900c     DataBaseEngineSink.obj
 0002:0000503c       ??_C@_1DI@CNNOPIML@?$AAG?$AAS?$AAP?$AA_?$AAG?$AAR?$AA_?$AAL?$AAo?$AAa?$AAd?$AAA?$AAn?$AAd?$AAr?$AAo?$AAi?$AAd?$AAC?$AAo?$AAn?$AAf?$AAi?$AAg?$AAu?$AAr?$AAe?$AA?$AA@ 0046903c     DataBaseEngineSink.obj
 0002:00005074       ??_C@_1BI@MPLCBMAL@?$AAS?$AAe?$AAr?$AAv?$AAi?$AAc?$AAe?$AAM?$AAo?$AAd?$AAe?$AA?$AA@ 00469074     DataBaseEngineSink.obj
 0002:0000508c       ??_C@_1BK@OHGPPGFD@?$AAA?$AAn?$AAd?$AAr?$AAo?$AAi?$AAd?$AAC?$AAo?$AAu?$AAn?$AAt?$AA?$AA@ 0046908c     DataBaseEngineSink.obj
 0002:000050a8       ??_C@_1CC@GCHHLALO@?$AAS?$AAw?$AAi?$AAt?$AAc?$AAh?$AAM?$AAi?$AAn?$AAI?$AAn?$AAn?$AAi?$AAn?$AAg?$AAs?$AA?$AA@ 004690a8     DataBaseEngineSink.obj
 0002:000050cc       ??_C@_1CC@NPHDIGJB@?$AAS?$AAw?$AAi?$AAt?$AAc?$AAh?$AAM?$AAa?$AAx?$AAI?$AAn?$AAn?$AAi?$AAn?$AAg?$AAs?$AA?$AA@ 004690cc     DataBaseEngineSink.obj
 0002:000050f0       ??_C@_1CC@PMMDIEEH@?$AAA?$AAI?$AAH?$AAa?$AAn?$AAg?$AAi?$AAn?$AAg?$AAM?$AAi?$AAn?$AAR?$AAa?$AAt?$AAe?$AA?$AA@ 004690f0     DataBaseEngineSink.obj
 0002:00005114       ??_C@_1CC@CMLPNCGN@?$AAA?$AAI?$AAH?$AAa?$AAn?$AAg?$AAi?$AAn?$AAg?$AAM?$AAa?$AAx?$AAR?$AAa?$AAt?$AAe?$AA?$AA@ 00469114     DataBaseEngineSink.obj
 0002:00005138       ??_C@_1DE@EDHJKPKP@?$AAA?$AAI?$AAC?$AAa?$AAr?$AAr?$AAy?$AAS?$AAc?$AAo?$AAr?$AAe?$AAM?$AAi?$AAn?$AAM?$AAu?$AAl?$AAt?$AAi?$AAp?$AAl?$AAe?$AA?$CF?$AAd?$AA?$AA@ 00469138     DataBaseEngineSink.obj
 0002:0000516c       ??_C@_1DE@NJAGKPHO@?$AAA?$AAI?$AAC?$AAa?$AAr?$AAr?$AAy?$AAS?$AAc?$AAo?$AAr?$AAe?$AAM?$AAa?$AAx?$AAM?$AAu?$AAl?$AAt?$AAi?$AAp?$AAl?$AAe?$AA?$CF?$AAd?$AA?$AA@ 0046916c     DataBaseEngineSink.obj
 0002:000051a0       ??_C@_1CG@NNNMDCLH@?$AAA?$AAI?$AAS?$AAc?$AAo?$AAr?$AAe?$AAL?$AAe?$AAv?$AAe?$AAl?$AAR?$AAa?$AAt?$AAe?$AA?$CF?$AAd?$AA?$AA@ 004691a0     DataBaseEngineSink.obj
 0002:000051c8       ??_C@_1DA@PEIJIAOF@?$AAd?$AAw?$AAA?$AAI?$AAS?$AAc?$AAo?$AAr?$AAe?$AAF?$AAl?$AAo?$AAa?$AAt?$AAM?$AAi?$AAn?$AAR?$AAa?$AAt?$AAe?$AA?$CF?$AAd?$AA?$AA@ 004691c8     DataBaseEngineSink.obj
 0002:000051f8       ??_C@_1DA@FGGOHJJD@?$AAd?$AAw?$AAA?$AAI?$AAS?$AAc?$AAo?$AAr?$AAe?$AAF?$AAl?$AAo?$AAa?$AAt?$AAM?$AAa?$AAx?$AAR?$AAa?$AAt?$AAe?$AA?$CF?$AAd?$AA?$AA@ 004691f8     DataBaseEngineSink.obj
 0002:00005228       ??_C@_0DD@MMLAFNDG@CDataBaseEngineSink?3?3OnRequestLo@ 00469228     DataBaseEngineSink.obj
 0002:0000525c       ??_C@_1CM@OPGMPFPI@?$AAG?$AAS?$AAP?$AA_?$AAG?$AAR?$AA_?$AAG?$AAa?$AAm?$AAe?$AAC?$AAh?$AAa?$AAt?$AAP?$AAh?$AAr?$AAa?$AAs?$AAe?$AA?$AA@ 0046925c     DataBaseEngineSink.obj
 0002:00005288       ??_C@_1O@MJGPMFAG@?$AAS?$AAo?$AAr?$AAt?$AAI?$AAD?$AA?$AA@ 00469288     DataBaseEngineSink.obj
 0002:00005298       ??_C@_1CC@DEHPAHEH@?$AAC?$AAh?$AAa?$AAt?$AAP?$AAh?$AAr?$AAa?$AAs?$AAe?$AAS?$AAt?$AAr?$AAi?$AAn?$AAg?$AA?$AA@ 00469298     DataBaseEngineSink.obj
 0002:000052bc       ??_C@_1BM@FNPHAEBJ@?$AAC?$AAh?$AAa?$AAt?$AAT?$AAy?$AAp?$AAe?$AAI?$AAn?$AAd?$AAe?$AAx?$AA?$AA@ 004692bc     DataBaseEngineSink.obj
 0002:000052d8       ??_C@_1BG@HPKLAIMG@?$AAC?$AAh?$AAa?$AAt?$AAC?$AAh?$AAa?$AAn?$AAc?$AAe?$AA?$AA@ 004692d8     DataBaseEngineSink.obj
 0002:000052f0       ??_C@_0CL@JOMHKIAP@CDataBaseEngineSink?3?3OnRequestLo@ 004692f0     DataBaseEngineSink.obj
 0002:0000531c       ??_C@_1BM@HDGKCPKC@?$AA?$EA?$AAs?$AAt?$AAr?$AAL?$AAo?$AAg?$AAo?$AAn?$AAP?$AAa?$AAs?$AAs?$AA?$AA@ 0046931c     DataBaseEngineSink.obj
 0002:00005338       ??_C@_1BO@COHJGPAF@?$AA?$EA?$AAs?$AAt?$AAr?$AAI?$AAn?$AAs?$AAu?$AAr?$AAe?$AAP?$AAa?$AAs?$AAs?$AA?$AA@ 00469338     DataBaseEngineSink.obj
 0002:00005358       ??_C@_1DA@EKKNKMBC@?$AAG?$AAS?$AAP?$AA_?$AAG?$AAR?$AA_?$AAU?$AAs?$AAe?$AAr?$AAE?$AAn?$AAa?$AAb?$AAl?$AAe?$AAI?$AAn?$AAs?$AAu?$AAr?$AAe?$AA?$AA@ 00469358     DataBaseEngineSink.obj
 0002:00005388       ??_C@_0CP@PANKEFEH@CDataBaseEngineSink?3?3OnRequestUs@ 00469388     DataBaseEngineSink.obj
 0002:000053b8       ??_C@_1CE@COHBEIBN@u1N?$IOepcn?$FO?$JDd?MO?2_?$AC?$FO8?$PP?$AM?$IL?w?$GA?$KIz?$ANT?$AO?$JB?M?$IL?U?$PP?$AB?$AA?$AA@ 004693b8     DataBaseEngineSink.obj
 0002:000053dc       ??_C@_1BI@BJLKOGPM@?$AA?$EA?$AAl?$AAS?$AAa?$AAv?$AAe?$AAS?$AAc?$AAo?$AAr?$AAe?$AA?$AA@ 004693dc     DataBaseEngineSink.obj
 0002:000053f4       ??_C@_1CK@ECNFHLGE@?$AAG?$AAS?$AAP?$AA_?$AAG?$AAR?$AA_?$AAU?$AAs?$AAe?$AAr?$AAS?$AAa?$AAv?$AAe?$AAS?$AAc?$AAo?$AAr?$AAe?$AA?$AA@ 004693f4     DataBaseEngineSink.obj
 0002:00005420       ??_C@_0CM@LEHHJIMF@CDataBaseEngineSink?3?3OnRequestUs@ 00469420     DataBaseEngineSink.obj
 0002:0000544c       ??_C@_1BI@BHJDDMKI@?$AA?$EA?$AAl?$AAT?$AAa?$AAk?$AAe?$AAS?$AAc?$AAo?$AAr?$AAe?$AA?$AA@ 0046944c     DataBaseEngineSink.obj
 0002:00005464       ??_C@_1CK@EMPMKBDA@?$AAG?$AAS?$AAP?$AA_?$AAG?$AAR?$AA_?$AAU?$AAs?$AAe?$AAr?$AAT?$AAa?$AAk?$AAe?$AAS?$AAc?$AAo?$AAr?$AAe?$AA?$AA@ 00469464     DataBaseEngineSink.obj
 0002:00005490       ??_C@_0CM@LBBFKHEG@CDataBaseEngineSink?3?3OnRequestUs@ 00469490     DataBaseEngineSink.obj
 0002:000054bc       ??_C@_1CA@EPJGPKK@?$AA?$EA?$AAl?$AAT?$AAr?$AAa?$AAn?$AAs?$AAf?$AAe?$AAr?$AAS?$AAc?$AAo?$AAr?$AAe?$AA?$AA@ 004694bc     DataBaseEngineSink.obj
 0002:000054dc       ??_C@_1BE@BMJOFINJ@?$AA?$EA?$AAd?$AAw?$AAG?$AAa?$AAm?$AAe?$AAI?$AAD?$AA?$AA@ 004694dc     DataBaseEngineSink.obj
 0002:000054f0       ??_C@_1CA@LPHGFIBO@?$AA?$EA?$AAs?$AAt?$AAr?$AAT?$AAr?$AAa?$AAn?$AAs?$AAR?$AAe?$AAm?$AAa?$AAr?$AAk?$AA?$AA@ 004694f0     DataBaseEngineSink.obj
 0002:00005510       ??_C@_1DC@MAOCJEEH@?$AAG?$AAS?$AAP?$AA_?$AAG?$AAR?$AA_?$AAU?$AAs?$AAe?$AAr?$AAT?$AAr?$AAa?$AAn?$AAs?$AAf?$AAe?$AAr?$AAS?$AAc?$AAo?$AAr?$AAe?$AA?$AA@ 00469510     DataBaseEngineSink.obj
 0002:00005544       ??_C@_0DA@JNEBPLMI@CDataBaseEngineSink?3?3OnRequestUs@ 00469544     DataBaseEngineSink.obj
 0002:00005574       ??_C@_1DG@NPFHCHKH@?$AAG?$AAS?$AAP?$AA_?$AAG?$AAR?$AA_?$AAQ?$AAu?$AAe?$AAr?$AAy?$AAU?$AAs?$AAe?$AAr?$AAI?$AAn?$AAs?$AAu?$AAr?$AAe?$AAI?$AAn?$AAf?$AAo?$AA?$AA@ 00469574     DataBaseEngineSink.obj
 0002:000055ac       ??_C@_1BO@BGDLHBIA@?$AAE?$AAn?$AAj?$AAo?$AAi?$AAn?$AAT?$AAr?$AAa?$AAn?$AAs?$AAf?$AAe?$AAr?$AA?$AA@ 004695ac     DataBaseEngineSink.obj
 0002:000055cc       ??_C@_1BI@JILBJGGF@?$AAR?$AAe?$AAv?$AAe?$AAn?$AAu?$AAe?$AAT?$AAa?$AAk?$AAe?$AA?$AA@ 004695cc     DataBaseEngineSink.obj
 0002:000055e4       ??_C@_1CA@NKEMNEHI@?$AAR?$AAe?$AAv?$AAe?$AAn?$AAu?$AAe?$AAT?$AAr?$AAa?$AAn?$AAs?$AAf?$AAe?$AAr?$AA?$AA@ 004695e4     DataBaseEngineSink.obj
 0002:00005604       ??_C@_1CM@PBAFACPA@?$AAR?$AAe?$AAv?$AAe?$AAn?$AAu?$AAe?$AAT?$AAr?$AAa?$AAn?$AAs?$AAf?$AAe?$AAr?$AAM?$AAe?$AAm?$AAb?$AAe?$AAr?$AA?$AA@ 00469604     DataBaseEngineSink.obj
 0002:00005630       ??_C@_1BC@IALIAPNC@?$AAS?$AAe?$AAr?$AAv?$AAe?$AAr?$AAI?$AAD?$AA?$AA@ 00469630     DataBaseEngineSink.obj
 0002:00005644       ??_C@_1M@LGMGBHPD@?$AAS?$AAc?$AAo?$AAr?$AAe?$AA?$AA@ 00469644     DataBaseEngineSink.obj
 0002:00005650       ??_C@_1O@LDBEDLAL@?$AAI?$AAn?$AAs?$AAu?$AAr?$AAe?$AA?$AA@ 00469650     DataBaseEngineSink.obj
 0002:00005660       ??_C@_1CK@IBGJDHCI@?$AAT?$AAr?$AAa?$AAn?$AAs?$AAf?$AAe?$AAr?$AAP?$AAr?$AAe?$AAr?$AAe?$AAq?$AAu?$AAi?$AAs?$AAi?$AAt?$AAe?$AA?$AA@ 00469660     DataBaseEngineSink.obj
 0002:0000568c       ??_C@_1BE@ECAPCJHK@?$AAU?$AAs?$AAe?$AAr?$AAR?$AAi?$AAg?$AAh?$AAt?$AA?$AA@ 0046968c     DataBaseEngineSink.obj
 0002:000056a0       ??_C@_1BM@HEEODKGC@?$AAB?$AAa?$AAn?$AAk?$AAO?$AAP?$AAB?$AAu?$AAt?$AAt?$AAo?$AAn?$AA1?$AA?$AA@ 004696a0     DataBaseEngineSink.obj
 0002:000056bc       ??_C@_1BM@GGPLJFIM@?$AAB?$AAa?$AAn?$AAk?$AAO?$AAP?$AAB?$AAu?$AAt?$AAt?$AAo?$AAn?$AA2?$AA?$AA@ 004696bc     DataBaseEngineSink.obj
 0002:000056d8       ??_C@_1BM@NOEHPCOJ@?$AAB?$AAa?$AAn?$AAk?$AAO?$AAP?$AAB?$AAu?$AAt?$AAt?$AAo?$AAn?$AA3?$AA?$AA@ 004696d8     DataBaseEngineSink.obj
 0002:000056f4       ??_C@_0CO@GLIMKCDC@CDataBaseEngineSink?3?3OnRequestQu@ 004696f4     DataBaseEngineSink.obj
 0002:00005724       ??_C@_1BM@LDLPGOLA@?$AA?$EA?$AAc?$AAb?$AAB?$AAy?$AAN?$AAi?$AAc?$AAk?$AAN?$AAa?$AAm?$AAe?$AA?$AA@ 00469724     DataBaseEngineSink.obj
 0002:00005740       ??_C@_1DK@JPDGJIHO@?$AAG?$AAS?$AAP?$AA_?$AAG?$AAR?$AA_?$AAQ?$AAu?$AAe?$AAr?$AAy?$AAT?$AAr?$AAa?$AAn?$AAs?$AAf?$AAe?$AAr?$AAU?$AAs?$AAe?$AAr?$AAI?$AAn?$AAf?$AAo?$AA?$AA@ 00469740     DataBaseEngineSink.obj
 0002:0000577c       ??_C@_1O@DJPEEOLP@?$AAG?$AAa?$AAm?$AAe?$AAI?$AAD?$AA?$AA@ 0046977c     DataBaseEngineSink.obj
 0002:0000578c       ??_C@_1BC@ELPACKDN@?$AAA?$AAc?$AAc?$AAo?$AAu?$AAn?$AAt?$AAs?$AA?$AA@ 0046978c     DataBaseEngineSink.obj
 0002:000057a0       ??_C@_0DE@LJCJKDHO@CDataBaseEngineSink?3?3OnRequestQu@ 004697a0     DataBaseEngineSink.obj
 0002:000057d4       ??_C@_1BC@CBHIHJOH@?$AA?$EA?$AAw?$AAT?$AAa?$AAs?$AAk?$AAI?$AAD?$AA?$AA@ 004697d4     DataBaseEngineSink.obj
 0002:000057e8       ??_C@_1CE@PBAFDFCA@?$AAG?$AAS?$AAP?$AA_?$AAG?$AAR?$AA_?$AAT?$AAa?$AAs?$AAk?$AAG?$AAi?$AAv?$AAe?$AAU?$AAp?$AA?$AA@ 004697e8     DataBaseEngineSink.obj
 0002:0000580c       ??_C@_0CJ@ILCACMNL@CDataBaseEngineSink?3?3OnRequestTa@ 0046980c     DataBaseEngineSink.obj
 0002:00005838       ??_C@_1CA@GEFDMBPI@?$AAG?$AAS?$AAP?$AA_?$AAG?$AAR?$AA_?$AAT?$AAa?$AAs?$AAk?$AAT?$AAa?$AAk?$AAe?$AA?$AA@ 00469838     DataBaseEngineSink.obj
 0002:00005858       ??_C@_0CH@BNKPKJJC@CDataBaseEngineSink?3?3OnRequestTa@ 00469858     DataBaseEngineSink.obj
 0002:00005880       ??_C@_1CE@LIEELKCC@?$AAG?$AAS?$AAP?$AA_?$AAG?$AAR?$AA_?$AAT?$AAa?$AAs?$AAk?$AAR?$AAe?$AAw?$AAa?$AAr?$AAd?$AA?$AA@ 00469880     DataBaseEngineSink.obj
 0002:000058a4       ??_C@_1M@CBBPKDNE@?$AAI?$AAn?$AAg?$AAo?$AAt?$AA?$AA@ 004698a4     DataBaseEngineSink.obj
 0002:000058b0       ??_C@_0CJ@GIKKGGBO@CDataBaseEngineSink?3?3OnRequestTa@ 004698b0     DataBaseEngineSink.obj
 0002:000058dc       ??_C@_1DC@OEFLHJLL@?$AAG?$AAS?$AAP?$AA_?$AAG?$AAR?$AA_?$AAQ?$AAu?$AAe?$AAr?$AAy?$AAG?$AAa?$AAm?$AAe?$AAT?$AAa?$AAs?$AAk?$AAI?$AAn?$AAf?$AAo?$AA?$AA@ 004698dc     DataBaseEngineSink.obj
 0002:00005910       ??_C@_1O@PMKPEGB@?$AAT?$AAa?$AAs?$AAk?$AAI?$AAD?$AA?$AA@ 00469910     DataBaseEngineSink.obj
 0002:00005920       ??_C@_1BC@FLLPCPDL@?$AAT?$AAa?$AAs?$AAk?$AAT?$AAy?$AAp?$AAe?$AA?$AA@ 00469920     DataBaseEngineSink.obj
 0002:00005934       ??_C@_1BC@NKKLCCJA@?$AAU?$AAs?$AAe?$AAr?$AAT?$AAy?$AAp?$AAe?$AA?$AA@ 00469934     DataBaseEngineSink.obj
 0002:00005948       ??_C@_1O@DCJABCPB@?$AAK?$AAi?$AAn?$AAd?$AAI?$AAD?$AA?$AA@ 00469948     DataBaseEngineSink.obj
 0002:00005958       ??_C@_1BA@OCIMIEJC@?$AAI?$AAn?$AAn?$AAi?$AAn?$AAg?$AAs?$AA?$AA@ 00469958     DataBaseEngineSink.obj
 0002:00005968       ??_C@_1BC@GMLEAKIG@?$AAT?$AAi?$AAm?$AAe?$AAT?$AAy?$AAp?$AAe?$AA?$AA@ 00469968     DataBaseEngineSink.obj
 0002:0000597c       ??_C@_0CL@CDCPNHPC@CDataBaseEngineSink?3?3OnRequestLo@ 0046997c     DataBaseEngineSink.obj
 0002:000059a8       ??_C@_1CO@GNLMMFCN@?$AAG?$AAS?$AAP?$AA_?$AAG?$AAR?$AA_?$AAG?$AAa?$AAm?$AAe?$AAT?$AAa?$AAs?$AAk?$AAF?$AAo?$AAr?$AAw?$AAa?$AAr?$AAd?$AA?$AA@ 004699a8     DataBaseEngineSink.obj
 0002:000059d8       ??_C@_0CK@DACEJILB@CDataBaseEngineSink?3?3OnRequestTa@ 004699d8     DataBaseEngineSink.obj
 0002:00005a04       ??_C@_0CM@BKBDBKAO@CDataBaseEngineSink?3?3OnRequestTa@ 00469a04     DataBaseEngineSink.obj
 0002:00005a30       ??_C@_1BO@LLHNGEAP@?$AA?$EA?$AAc?$AAb?$AAM?$AAe?$AAm?$AAb?$AAe?$AAr?$AAO?$AAr?$AAd?$AAe?$AAr?$AA?$AA@ 00469a30     DataBaseEngineSink.obj
 0002:00005a50       ??_C@_1BM@PAGEINEO@?$AA?$EA?$AAP?$AAu?$AAr?$AAc?$AAh?$AAa?$AAs?$AAe?$AAT?$AAi?$AAm?$AAe?$AA?$AA@ 00469a50     DataBaseEngineSink.obj
 0002:00005a6c       ??_C@_1CE@FHJENCPG@?$AA?$EA?$AAs?$AAt?$AAr?$AAN?$AAo?$AAt?$AAi?$AAf?$AAy?$AAC?$AAo?$AAn?$AAt?$AAe?$AAn?$AAt?$AA?$AA@ 00469a6c     DataBaseEngineSink.obj
 0002:00005a90       ??_C@_1CM@DMADGIMI@?$AAG?$AAS?$AAP?$AA_?$AAG?$AAR?$AA_?$AAP?$AAu?$AAr?$AAc?$AAh?$AAa?$AAs?$AAe?$AAM?$AAe?$AAm?$AAb?$AAe?$AAr?$AA?$AA@ 00469a90     DataBaseEngineSink.obj
 0002:00005abc       ??_C@_1BE@CGMCLDPA@?$AAC?$AAu?$AAr?$AAr?$AAS?$AAc?$AAo?$AAr?$AAe?$AA?$AA@ 00469abc     DataBaseEngineSink.obj
 0002:00005ad0       ??_C@_1BE@KIINLKLF@?$AAC?$AAu?$AAr?$AAr?$AAB?$AAe?$AAa?$AAn?$AAs?$AA?$AA@ 00469ad0     DataBaseEngineSink.obj
 0002:00005ae4       ??_C@_1BI@HCCBJOJ@?$AAM?$AAe?$AAm?$AAb?$AAe?$AAr?$AAO?$AAr?$AAd?$AAe?$AAr?$AA?$AA@ 00469ae4     DataBaseEngineSink.obj
 0002:00005afc       ??_C@_0CN@OJICCHJJ@CDataBaseEngineSink?3?3OnRequestPu@ 00469afc     DataBaseEngineSink.obj
 0002:00005b2c       ??_C@_1BO@JPKDPNOP@?$AA?$EA?$AAE?$AAx?$AAc?$AAh?$AAa?$AAn?$AAg?$AAe?$AAI?$AAn?$AAg?$AAo?$AAt?$AA?$AA@ 00469b2c     DataBaseEngineSink.obj
 0002:00005b4c       ??_C@_1DI@ECCOHBJD@?$AAG?$AAS?$AAP?$AA_?$AAG?$AAR?$AA_?$AAE?$AAx?$AAc?$AAh?$AAa?$AAn?$AAg?$AAe?$AAS?$AAc?$AAo?$AAr?$AAe?$AAB?$AAy?$AAI?$AAn?$AAg?$AAo?$AAt?$AA?$AA@ 00469b4c     DataBaseEngineSink.obj
 0002:00005b84       ??_C@_1BG@EJICJPDN@?$AAC?$AAu?$AAr?$AAr?$AAI?$AAn?$AAs?$AAu?$AAr?$AAe?$AA?$AA@ 00469b84     DataBaseEngineSink.obj
 0002:00005b9c       ??_C@_1BE@LBBLAHNH@?$AAC?$AAu?$AAr?$AAr?$AAI?$AAn?$AAg?$AAo?$AAt?$AA?$AA@ 00469b9c     DataBaseEngineSink.obj
 0002:00005bb0       ??_C@_0DD@ECBHPPGI@CDataBaseEngineSink?3?3OnRequestEx@ 00469bb0     DataBaseEngineSink.obj
 0002:00005be4       ??_C@_1BO@IGDFEAIN@?$AA?$EA?$AAE?$AAx?$AAc?$AAh?$AAa?$AAn?$AAg?$AAe?$AAB?$AAe?$AAa?$AAn?$AAs?$AA?$AA@ 00469be4     DataBaseEngineSink.obj
 0002:00005c04       ??_C@_1DI@FLLIMMPB@?$AAG?$AAS?$AAP?$AA_?$AAG?$AAR?$AA_?$AAE?$AAx?$AAc?$AAh?$AAa?$AAn?$AAg?$AAe?$AAS?$AAc?$AAo?$AAr?$AAe?$AAB?$AAy?$AAB?$AAe?$AAa?$AAn?$AAs?$AA?$AA@ 00469c04     DataBaseEngineSink.obj
 0002:00005c3c       ??_C@_0DD@DEOIJNJG@CDataBaseEngineSink?3?3OnRequestEx@ 00469c3c     DataBaseEngineSink.obj
 0002:00005c70       ??_C@_1CM@GIDADBNK@?$AAG?$AAS?$AAP?$AA_?$AAG?$AAR?$AA_?$AAC?$AAr?$AAe?$AAa?$AAt?$AAe?$AAT?$AAa?$AAb?$AAl?$AAe?$AAF?$AAe?$AAe?$AA?$AA@ 00469c70     DataBaseEngineSink.obj
 0002:00005c9c       ??_C@_0CK@PCMMMPAB@CDataBaseEngineSink?3?3OnRequestCr@ 00469c9c     DataBaseEngineSink.obj
 0002:00005cc8       ??_C@_1BI@EOBGOBCN@?$AA?$EA?$AAl?$AAC?$AAe?$AAl?$AAl?$AAS?$AAc?$AAo?$AAr?$AAe?$AA?$AA@ 00469cc8     DataBaseEngineSink.obj
 0002:00005ce0       ??_C@_1BI@FGBLHECF@?$AA?$EA?$AAs?$AAz?$AAP?$AAa?$AAs?$AAs?$AAW?$AAo?$AAr?$AAd?$AA?$AA@ 00469ce0     DataBaseEngineSink.obj
 0002:00005cf8       ??_C@_1CM@IOCJAGNJ@?$AA?$EA?$AAw?$AAJ?$AAo?$AAi?$AAn?$AAG?$AAa?$AAm?$AAe?$AAP?$AAe?$AAo?$AAp?$AAl?$AAe?$AAC?$AAo?$AAu?$AAn?$AAt?$AA?$AA@ 00469cf8     DataBaseEngineSink.obj
 0002:00005d24       ??_C@_1BG@IDBHOLGB@?$AA?$EA?$AAd?$AAw?$AAR?$AAo?$AAo?$AAm?$AAT?$AAa?$AAx?$AA?$AA@ 00469d24     DataBaseEngineSink.obj
 0002:00005d3c       ??_C@_1BO@FELMOMCG@?$AA?$EA?$AAs?$AAt?$AAr?$AAC?$AAl?$AAi?$AAe?$AAn?$AAt?$AAA?$AAd?$AAd?$AAr?$AA?$AA@ 00469d3c     DataBaseEngineSink.obj
 0002:00005d5c       ??_C@_1BO@JALANBAB@?$AA?$EA?$AAl?$AAN?$AAe?$AAe?$AAd?$AAR?$AAo?$AAo?$AAm?$AAC?$AAa?$AAr?$AAd?$AA?$AA@ 00469d5c     DataBaseEngineSink.obj
 0002:00005d7c       ??_C@_1BE@DMLBLEKC@?$AA?$EA?$AAl?$AAG?$AAr?$AAo?$AAu?$AAp?$AAI?$AAD?$AA?$AA@ 00469d7c     DataBaseEngineSink.obj
 0002:00005d90       ??_C@_1CA@IIMBLIOK@?$AA?$EA?$AAl?$AAM?$AAi?$AAn?$AAE?$AAn?$AAt?$AAe?$AAr?$AAS?$AAc?$AAo?$AAr?$AAe?$AA?$AA@ 00469d90     DataBaseEngineSink.obj
 0002:00005db0       ??_C@_1DE@IABMDEHL@?$AAG?$AAS?$AAP?$AA_?$AAG?$AAR?$AA_?$AAI?$AAn?$AAs?$AAe?$AAr?$AAt?$AAC?$AAr?$AAe?$AAa?$AAt?$AAe?$AAR?$AAe?$AAc?$AAo?$AAr?$AAd?$AA?$AA@ 00469db0     DataBaseEngineSink.obj
 0002:00005de4       ??_C@_0DB@JIAHEJMG@CDataBaseEngineSink?3?3OnRequsetIn@ 00469de4     DataBaseEngineSink.obj
 0002:00005e18       ??_C@_19HHMHINIL@?$AA?$CF?$AA0?$AA2?$AAX?$AA?$AA@ 00469e18     DataBaseEngineSink.obj
 0002:00005e24       ??_C@_1DC@GLGMHPOP@?$AA?$EA?$AAs?$AAt?$AAr?$AAC?$AAo?$AAn?$AAf?$AAi?$AAg?$AAS?$AAu?$AAb?$AAS?$AAt?$AAo?$AAr?$AAa?$AAg?$AAe?$AAI?$AAt?$AAe?$AAm?$AA?$AA@ 00469e24     DataBaseEngineSink.obj
 0002:00005e58       ??_C@_1CM@MAAKKOEC@?$AA?$EA?$AAs?$AAt?$AAr?$AAC?$AAu?$AAr?$AAS?$AAu?$AAb?$AAS?$AAt?$AAo?$AAr?$AAa?$AAg?$AAe?$AAI?$AAt?$AAe?$AAm?$AA?$AA@ 00469e58     DataBaseEngineSink.obj
 0002:00005e84       ??_C@_1CG@KGPLMCPJ@?$AA?$EA?$AAl?$AAC?$AAo?$AAn?$AAf?$AAi?$AAg?$AAS?$AAy?$AAs?$AAS?$AAt?$AAo?$AAr?$AAa?$AAg?$AAe?$AA?$AA@ 00469e84     DataBaseEngineSink.obj
 0002:00005eac       ??_C@_1CM@DENKCOJN@?$AA?$EA?$AAl?$AAC?$AAo?$AAn?$AAf?$AAi?$AAg?$AAP?$AAl?$AAa?$AAy?$AAe?$AAr?$AAS?$AAt?$AAo?$AAr?$AAa?$AAg?$AAe?$AA?$AA@ 00469eac     DataBaseEngineSink.obj
 0002:00005ed8       ??_C@_1CG@MDAFNKJK@?$AA?$EA?$AAl?$AAC?$AAo?$AAn?$AAf?$AAi?$AAg?$AAP?$AAa?$AAr?$AAa?$AAm?$AAe?$AAt?$AAe?$AAr?$AAK?$AA?$AA@ 00469ed8     DataBaseEngineSink.obj
 0002:00005f00       ??_C@_1CA@BBADBPKK@?$AA?$EA?$AAl?$AAC?$AAu?$AAr?$AAR?$AAe?$AAs?$AAe?$AAt?$AAC?$AAo?$AAu?$AAn?$AAt?$AA?$AA@ 00469f00     DataBaseEngineSink.obj
 0002:00005f20       ??_C@_1EE@BDFENIPP@?$AAG?$AAS?$AAP?$AA_?$AAG?$AAS?$AA_?$AAM?$AAo?$AAd?$AAi?$AAf?$AAy?$AAC?$AAo?$AAn?$AAf?$AAi?$AAg?$AAS?$AAu?$AAb?$AAS?$AAt?$AAo?$AAr?$AAa?$AAg?$AAe?$AAI?$AAt?$AAe@ 00469f20     DataBaseEngineSink.obj
 0002:00005f64       ??_C@_0DJ@EALPKKON@CDataBaseEngineSink?3?3OnRequestMo@ 00469f64     DataBaseEngineSink.obj
 0002:00005fa0       ??_C@_1DO@BBGNLCD@?$AAG?$AAS?$AAP?$AA_?$AAG?$AAS?$AA_?$AAM?$AAo?$AAd?$AAi?$AAf?$AAy?$AAC?$AAu?$AAr?$AAS?$AAu?$AAb?$AAS?$AAt?$AAo?$AAr?$AAa?$AAg?$AAe?$AAI?$AAt?$AAe?$AAm?$AA?$AA@ 00469fa0     DataBaseEngineSink.obj
 0002:00005fe0       ??_C@_0DG@GDAEENGI@CDataBaseEngineSink?3?3OnRequestMo@ 00469fe0     DataBaseEngineSink.obj
 0002:00006018       ??_C@_1DI@JNGCOBAL@?$AAG?$AAS?$AAP?$AA_?$AAG?$AAS?$AA_?$AAL?$AAo?$AAa?$AAd?$AAS?$AAh?$AAa?$AAr?$AAe?$AAS?$AAt?$AAo?$AAr?$AAa?$AAg?$AAe?$AAI?$AAt?$AAe?$AAm?$AA?$AA@ 0046a018     DataBaseEngineSink.obj
 0002:00006050       ??_C@_1BA@BBBFHFDG@?$AAG?$AAr?$AAo?$AAu?$AAp?$AAI?$AAD?$AA?$AA@ 0046a050     DataBaseEngineSink.obj
 0002:00006060       ??_C@_1BC@MHIKODMF@?$AAP?$AAl?$AAa?$AAy?$AAM?$AAo?$AAd?$AAe?$AA?$AA@ 0046a060     DataBaseEngineSink.obj
 0002:00006074       ??_C@_1CK@IEPGEPDI@?$AAC?$AAo?$AAn?$AAf?$AAi?$AAg?$AAS?$AAu?$AAb?$AAS?$AAt?$AAo?$AAr?$AAa?$AAg?$AAe?$AAI?$AAt?$AAe?$AAm?$AA?$AA@ 0046a074     DataBaseEngineSink.obj
 0002:000060a0       ??_C@_1CE@OPLJLLBO@?$AAC?$AAu?$AAr?$AAS?$AAu?$AAb?$AAS?$AAt?$AAo?$AAr?$AAa?$AAg?$AAe?$AAI?$AAt?$AAe?$AAm?$AA?$AA@ 0046a0a0     DataBaseEngineSink.obj
 0002:000060c4       ??_C@_0DD@LNBFBFGO@CDataBaseEngineSink?3?3OnRequestLo@ 0046a0c4     DataBaseEngineSink.obj
 0002:000060f8       ??_C@_0DO@HPJBNEPM@CDataBaseEngineSink?3?3OnRequestLo@ 0046a0f8     DataBaseEngineSink.obj
 0002:00006138       ??_C@_1CO@FPBJJF@?$AAG?$AAS?$AAP?$AA_?$AAG?$AAR?$AA_?$AAC?$AAr?$AAe?$AAa?$AAt?$AAe?$AAT?$AAa?$AAb?$AAl?$AAe?$AAQ?$AAu?$AAi?$AAt?$AA?$AA@ 0046a138     DataBaseEngineSink.obj
 0002:00006168       ??_C@_0DA@COMBFLNK@CDataBaseEngineSink?3?3OnRequestCa@ 0046a168     DataBaseEngineSink.obj
 0002:00006198       ??_C@_1BE@BHPKAEJH@?$AA?$EA?$AAd?$AAw?$AAK?$AAi?$AAn?$AAd?$AAI?$AAD?$AA?$AA@ 0046a198     DataBaseEngineSink.obj
 0002:000061ac       ??_C@_1CG@CMFLCHAE@?$AAG?$AAS?$AAP?$AA_?$AAG?$AAS?$AA_?$AAP?$AAa?$AAy?$AAR?$AAo?$AAo?$AAm?$AAC?$AAa?$AAr?$AAd?$AA?$AA@ 0046a1ac     DataBaseEngineSink.obj
 0002:000061d4       ??_C@_17CBOOHCCE@?$AAF?$AAe?$AAe?$AA?$AA@ 0046a1d4     DataBaseEngineSink.obj
 0002:000061dc       ??_C@_0CK@JELDIHFB@CDataBaseEngineSink?3?3OnRequestPa@ 0046a1dc     DataBaseEngineSink.obj
 0002:00006208       ??_C@_0DE@HCHBNBGO@CDataBaseEngineSink?3?3OnRequestHo@ 0046a208     DataBaseEngineSink.obj
 0002:0000623c       ??_C@_1BK@OJGGCMJN@?$AA?$EA?$AAl?$AAR?$AAo?$AAo?$AAm?$AAH?$AAo?$AAs?$AAt?$AAI?$AAD?$AA?$AA@ 0046a23c     DataBaseEngineSink.obj
 0002:00006258       ??_C@_1BG@OFDBBGNN@?$AA?$EA?$AAl?$AAT?$AAa?$AAx?$AAC?$AAo?$AAu?$AAn?$AAt?$AA?$AA@ 0046a258     DataBaseEngineSink.obj
 0002:00006270       ??_C@_1CI@KEAGNDNL@?$AA?$EA?$AAc?$AAb?$AAP?$AAe?$AAr?$AAs?$AAo?$AAn?$AAa?$AAl?$AAR?$AAo?$AAo?$AAm?$AAI?$AAn?$AAf?$AAo?$AA?$AA@ 0046a270     DataBaseEngineSink.obj
 0002:00006298       ??_C@_1DG@OCKNPDFF@?$AAG?$AAS?$AAP?$AA_?$AAG?$AAR?$AA_?$AAD?$AAi?$AAs?$AAs?$AAu?$AAm?$AAe?$AAP?$AAe?$AAr?$AAs?$AAo?$AAn?$AAa?$AAl?$AAR?$AAo?$AAo?$AAm?$AA?$AA@ 0046a298     DataBaseEngineSink.obj
 0002:000062d0       ??_C@_1BI@IFGJDIFF@?$AAD?$AAi?$AAs?$AAs?$AAu?$AAm?$AAe?$AAD?$AAa?$AAt?$AAe?$AA?$AA@ 0046a2d0     DataBaseEngineSink.obj
 0002:000062e8       ??_C@_0CK@LFPKHGBF@CDataBaseEngineSink?3?3OnRequsetDi@ 0046a2e8     DataBaseEngineSink.obj
 0002:00006318       ??_C@_1EC@DOICCFAG@?$AAG?$AAS?$AAP?$AA_?$AAG?$AAS?$AA_?$AAL?$AAo?$AAa?$AAd?$AAP?$AAe?$AAr?$AAs?$AAo?$AAn?$AAa?$AAl?$AAR?$AAo?$AAo?$AAm?$AAP?$AAa?$AAr?$AAa?$AAm?$AAe?$AAt?$AAe?$AAr@ 0046a318     DataBaseEngineSink.obj
 0002:0000635c       ??_C@_1CA@LOMAILDA@?$AAP?$AAe?$AAr?$AAs?$AAo?$AAn?$AAa?$AAl?$AAR?$AAo?$AAo?$AAm?$AAT?$AAa?$AAx?$AA?$AA@ 0046a35c     DataBaseEngineSink.obj
 0002:0000637c       ??_C@_1BE@BNAALPKA@?$AAM?$AAi?$AAn?$AAP?$AAe?$AAo?$AAp?$AAl?$AAe?$AA?$AA@ 0046a37c     DataBaseEngineSink.obj
 0002:00006390       ??_C@_1BE@LPOHEGNG@?$AAM?$AAa?$AAx?$AAP?$AAe?$AAo?$AAp?$AAl?$AAe?$AA?$AA@ 0046a390     DataBaseEngineSink.obj
 0002:000063a4       ??_C@_1BK@JNOPIBIK@?$AAM?$AAi?$AAn?$AAC?$AAe?$AAl?$AAl?$AAS?$AAc?$AAo?$AAr?$AAe?$AA?$AA@ 0046a3a4     DataBaseEngineSink.obj
 0002:000063c0       ??_C@_1BK@JEOEKNPF@?$AAM?$AAa?$AAx?$AAC?$AAe?$AAl?$AAl?$AAS?$AAc?$AAo?$AAr?$AAe?$AA?$AA@ 0046a3c0     DataBaseEngineSink.obj
 0002:000063dc       ??_C@_1BM@FEDCDNGG@?$AAM?$AAi?$AAn?$AAE?$AAn?$AAt?$AAe?$AAr?$AAS?$AAc?$AAo?$AAr?$AAe?$AA?$AA@ 0046a3dc     DataBaseEngineSink.obj
 0002:000063f8       ??_C@_1BM@MOENDNLH@?$AAM?$AAa?$AAx?$AAE?$AAn?$AAt?$AAe?$AAr?$AAS?$AAc?$AAo?$AAr?$AAe?$AA?$AA@ 0046a3f8     DataBaseEngineSink.obj
 0002:00006414       ??_C@_1BO@DJJOPBKA@?$AAC?$AAa?$AAn?$AAC?$AAr?$AAe?$AAa?$AAt?$AAe?$AAC?$AAo?$AAu?$AAn?$AAt?$AA?$AA@ 0046a414     DataBaseEngineSink.obj
 0002:00006434       ??_C@_1BM@FMCLNKO@?$AAP?$AAl?$AAa?$AAy?$AAT?$AAi?$AAm?$AAe?$AAL?$AAi?$AAm?$AAi?$AAt?$AA?$AA@ 0046a434     DataBaseEngineSink.obj
 0002:00006450       ??_C@_1BM@NNLMAPOF@?$AAP?$AAl?$AAa?$AAy?$AAT?$AAu?$AAr?$AAn?$AAC?$AAo?$AAu?$AAn?$AAt?$AA?$AA@ 0046a450     DataBaseEngineSink.obj
 0002:0000646c       ??_C@_1CI@KAHONNPG@?$AAT?$AAi?$AAm?$AAe?$AAA?$AAf?$AAt?$AAe?$AAr?$AAB?$AAe?$AAg?$AAi?$AAn?$AAC?$AAo?$AAu?$AAn?$AAt?$AA?$AA@ 0046a46c     DataBaseEngineSink.obj
 0002:00006494       ??_C@_1CC@DOEAEKCF@?$AAT?$AAi?$AAm?$AAe?$AAO?$AAf?$AAf?$AAL?$AAi?$AAn?$AAe?$AAC?$AAo?$AAu?$AAn?$AAt?$AA?$AA@ 0046a494     DataBaseEngineSink.obj
 0002:000064b8       ??_C@_1CC@LDIJHPMD@?$AAT?$AAi?$AAm?$AAe?$AAN?$AAo?$AAt?$AAB?$AAe?$AAg?$AAi?$AAn?$AAG?$AAa?$AAm?$AAe?$AA?$AA@ 0046a4b8     DataBaseEngineSink.obj
 0002:000064dc       ??_C@_1DI@HHGJAOKE@?$AAT?$AAi?$AAm?$AAe?$AAN?$AAo?$AAt?$AAB?$AAe?$AAg?$AAi?$AAn?$AAA?$AAf?$AAt?$AAe?$AAr?$AAC?$AAr?$AAe?$AAa?$AAt?$AAe?$AAR?$AAo?$AAo?$AAm?$AA?$AA@ 0046a4dc     DataBaseEngineSink.obj
 0002:00006514       ??_C@_1BM@DHDIIPGF@?$AAB?$AAe?$AAg?$AAi?$AAn?$AAF?$AAr?$AAe?$AAe?$AAT?$AAi?$AAm?$AAe?$AA?$AA@ 0046a514     DataBaseEngineSink.obj
 0002:00006530       ??_C@_1BI@OJDKMEAG@?$AAE?$AAn?$AAd?$AAF?$AAr?$AAe?$AAe?$AAT?$AAi?$AAm?$AAe?$AA?$AA@ 0046a530     DataBaseEngineSink.obj
 0002:00006548       ??_C@_1CG@IOCDBCIJ@?$AAT?$AAi?$AAm?$AAe?$AAR?$AAe?$AAs?$AAp?$AAo?$AAn?$AAd?$AAD?$AAi?$AAs?$AAm?$AAi?$AAs?$AAs?$AA?$AA@ 0046a548     DataBaseEngineSink.obj
 0002:00006570       ??_C@_0DE@KBOJGAM@CDataBaseEngineSink?3?3OnRequestLo@ 0046a570     DataBaseEngineSink.obj
 0002:000065a8       ??_C@_1FM@FGOHEOHD@?$AA?$CF?$AAs?$AA?5?$AA?5?$AA?5?$AAG?$AAS?$AAP?$AA_?$AAG?$AAS?$AA_?$AAL?$AAo?$AAa?$AAd?$AAP?$AAe?$AAr?$AAs?$AAo?$AAn?$AAa?$AAl?$AAR?$AAo?$AAo?$AAm?$AAP?$AAa?$AAr?$AAa@ 0046a5a8     DataBaseEngineSink.obj
 0002:00006604       ??_C@_1DO@CKALCFDD@?$AAG?$AAS?$AAP?$AA_?$AAM?$AAB?$AA_?$AAG?$AAe?$AAt?$AAP?$AAe?$AAr?$AAs?$AAo?$AAn?$AAa?$AAl?$AAF?$AAe?$AAe?$AAP?$AAa?$AAr?$AAa?$AAm?$AAe?$AAt?$AAe?$AAr?$AA?$AA@ 0046a604     DataBaseEngineSink.obj
 0002:00006644       ??_C@_1BC@NDMOHNBJ@?$AAI?$AAn?$AAi?$AAS?$AAc?$AAo?$AAr?$AAe?$AA?$AA@ 0046a644     DataBaseEngineSink.obj
 0002:00006658       ??_C@_1BM@BDFNEPPP@?$AAD?$AAr?$AAa?$AAw?$AAT?$AAi?$AAm?$AAe?$AAL?$AAi?$AAm?$AAi?$AAt?$AA?$AA@ 0046a658     DataBaseEngineSink.obj
 0002:00006674       ??_C@_1BO@JAMKPMDH@?$AAD?$AAr?$AAa?$AAw?$AAC?$AAo?$AAu?$AAn?$AAt?$AAL?$AAi?$AAm?$AAi?$AAt?$AA?$AA@ 0046a674     DataBaseEngineSink.obj
 0002:00006694       ??_C@_1BC@CCKKMGLA@?$AAG?$AAa?$AAm?$AAe?$AAM?$AAo?$AAd?$AAe?$AA?$AA@ 0046a694     DataBaseEngineSink.obj
 0002:000066a8       ??_C@_1EA@PIFCHJHP@?$AAG?$AAS?$AAP?$AA_?$AAG?$AAP?$AA_?$AAL?$AAo?$AAa?$AAd?$AAG?$AAa?$AAm?$AAe?$AAP?$AAr?$AAo?$AAp?$AAe?$AAr?$AAt?$AAy?$AAT?$AAy?$AAp?$AAe?$AAI?$AAt?$AAe?$AAm?$AA?$AA@ 0046a6a8     DataBaseEngineSink.obj
 0002:000066e8       ??_C@_1O@PLGDMGFC@?$AAT?$AAy?$AAp?$AAe?$AAI?$AAD?$AA?$AA@ 0046a6e8     DataBaseEngineSink.obj
 0002:000066f8       ??_C@_1BC@HLEBFCNF@?$AAT?$AAy?$AAp?$AAe?$AAN?$AAa?$AAm?$AAe?$AA?$AA@ 0046a6f8     DataBaseEngineSink.obj
 0002:00006710       ??_C@_1EC@ONCLCMBN@?$AAG?$AAS?$AAP?$AA_?$AAG?$AAP?$AA_?$AAL?$AAo?$AAa?$AAd?$AAG?$AAa?$AAm?$AAe?$AAP?$AAr?$AAo?$AAp?$AAe?$AAr?$AAt?$AAy?$AAR?$AAe?$AAl?$AAa?$AAt?$AAI?$AAt?$AAe?$AAm@ 0046a710     DataBaseEngineSink.obj
 0002:00006754       ??_C@_1BG@EPCCBALE@?$AAP?$AAr?$AAo?$AAp?$AAe?$AAr?$AAt?$AAy?$AAI?$AAD?$AA?$AA@ 0046a754     DataBaseEngineSink.obj
 0002:0000676c       ??_C@_1DI@FPCBKOJL@?$AAG?$AAS?$AAP?$AA_?$AAG?$AAP?$AA_?$AAL?$AAo?$AAa?$AAd?$AAG?$AAa?$AAm?$AAe?$AAP?$AAr?$AAo?$AAp?$AAe?$AAr?$AAt?$AAy?$AAI?$AAt?$AAe?$AAm?$AA?$AA@ 0046a76c     DataBaseEngineSink.obj
 0002:000067a4       ??_C@_15HCBMMKJC@?$AAI?$AAD?$AA?$AA@ 0046a7a4     DataBaseEngineSink.obj
 0002:000067ac       ??_C@_19DDDBNODA@?$AAK?$AAi?$AAn?$AAd?$AA?$AA@ 0046a7ac     DataBaseEngineSink.obj
 0002:000067b8       ??_C@_1BM@CIOCFFMO@?$AAE?$AAx?$AAc?$AAh?$AAa?$AAn?$AAg?$AAe?$AAR?$AAa?$AAt?$AAi?$AAo?$AA?$AA@ 0046a7b8     DataBaseEngineSink.obj
 0002:000067d4       ??_C@_1BK@KJNLPGBF@?$AAE?$AAx?$AAc?$AAh?$AAa?$AAn?$AAg?$AAe?$AAT?$AAy?$AAp?$AAe?$AA?$AA@ 0046a7d4     DataBaseEngineSink.obj
 0002:000067f0       ??_C@_1BA@MDBFNIKC@?$AAU?$AAs?$AAe?$AAA?$AAr?$AAe?$AAa?$AA?$AA@ 0046a7f0     DataBaseEngineSink.obj
 0002:00006800       ??_C@_1BI@HGAOJMIN@?$AAS?$AAe?$AAr?$AAv?$AAi?$AAc?$AAe?$AAA?$AAr?$AAe?$AAa?$AA?$AA@ 0046a800     DataBaseEngineSink.obj
 0002:00006818       ??_C@_1BO@JKLEMKHM@?$AAS?$AAe?$AAn?$AAd?$AAL?$AAo?$AAv?$AAe?$AAL?$AAi?$AAn?$AAe?$AAs?$AAs?$AA?$AA@ 0046a818     DataBaseEngineSink.obj
 0002:00006838       ??_C@_1BO@JICEIHLD@?$AAR?$AAe?$AAc?$AAv?$AAL?$AAo?$AAv?$AAe?$AAL?$AAi?$AAn?$AAe?$AAs?$AAs?$AA?$AA@ 0046a838     DataBaseEngineSink.obj
 0002:00006858       ??_C@_1BO@NKHEGNFF@?$AAU?$AAs?$AAe?$AAR?$AAe?$AAs?$AAu?$AAl?$AAt?$AAs?$AAG?$AAo?$AAl?$AAd?$AA?$AA@ 0046a858     DataBaseEngineSink.obj
 0002:00006878       ??_C@_1CI@BCFDMLEP@?$AAU?$AAs?$AAe?$AAR?$AAe?$AAs?$AAu?$AAl?$AAt?$AAs?$AAV?$AAa?$AAl?$AAi?$AAd?$AAT?$AAi?$AAm?$AAe?$AA?$AA@ 0046a878     DataBaseEngineSink.obj
 0002:000068a0       ??_C@_1EC@DMMHCDP@?$AAU?$AAs?$AAe?$AAR?$AAe?$AAs?$AAu?$AAl?$AAt?$AAs?$AAV?$AAa?$AAl?$AAi?$AAd?$AAT?$AAi?$AAm?$AAe?$AAS?$AAc?$AAo?$AAr?$AAe?$AAM?$AAu?$AAl?$AAt?$AAi?$AAp?$AAl?$AAe@ 0046a8a0     DataBaseEngineSink.obj
 0002:000068e4       ??_C@_1CM@IBIEMMHA@?$AAU?$AAs?$AAe?$AAR?$AAe?$AAs?$AAu?$AAl?$AAt?$AAs?$AAG?$AAi?$AAf?$AAt?$AAP?$AAa?$AAc?$AAk?$AAa?$AAg?$AAe?$AA?$AA@ 0046a8e4     DataBaseEngineSink.obj
 0002:00006910       ??_C@_1BE@KKHOPAFH@?$AAR?$AAe?$AAc?$AAo?$AAm?$AAm?$AAe?$AAn?$AAd?$AA?$AA@ 0046a910     DataBaseEngineSink.obj
 0002:00006924       ??_C@_19DINFBLAK@?$AAN?$AAa?$AAm?$AAe?$AA?$AA@ 0046a924     DataBaseEngineSink.obj
 0002:00006930       ??_C@_1CA@OAOLNNKI@?$AAR?$AAe?$AAg?$AAu?$AAl?$AAa?$AAt?$AAi?$AAo?$AAn?$AAs?$AAI?$AAn?$AAf?$AAo?$AA?$AA@ 0046a930     DataBaseEngineSink.obj
 0002:00006950       ??_C@_1BK@EFOIHDMC@?$AAP?$AAl?$AAa?$AAt?$AAf?$AAo?$AAr?$AAm?$AAK?$AAi?$AAn?$AAd?$AA?$AA@ 0046a950     DataBaseEngineSink.obj
 0002:0000696c       ??_C@_1DO@MDACGHBN@?$AAG?$AAS?$AAP?$AA_?$AAG?$AAP?$AA_?$AAL?$AAo?$AAa?$AAd?$AAG?$AAa?$AAm?$AAe?$AAP?$AAr?$AAo?$AAp?$AAe?$AAr?$AAt?$AAy?$AAS?$AAu?$AAb?$AAI?$AAt?$AAe?$AAm?$AA?$AA@ 0046a96c     DataBaseEngineSink.obj
 0002:000069ac       ??_C@_1BA@BIILEOOO@?$AAO?$AAw?$AAn?$AAe?$AAr?$AAI?$AAD?$AA?$AA@ 0046a9ac     DataBaseEngineSink.obj
 0002:000069bc       ??_C@_1M@NBCIMFHI@?$AAC?$AAo?$AAu?$AAn?$AAt?$AA?$AA@ 0046a9bc     DataBaseEngineSink.obj
 0002:000069c8       ??_C@_0CP@JCHNBLEB@CDataBaseEngineSink?3?3OnRequestLo@ 0046a9c8     DataBaseEngineSink.obj
 0002:000069f8       ??_C@_1BM@PNOGJMDE@?$AA?$EA?$AAd?$AAw?$AAP?$AAr?$AAo?$AAp?$AAe?$AAr?$AAt?$AAy?$AAI?$AAD?$AA?$AA@ 0046a9f8     DataBaseEngineSink.obj
 0002:00006a14       ??_C@_1BG@EEJBKCJB@?$AA?$EA?$AAc?$AAb?$AAU?$AAs?$AAe?$AAK?$AAi?$AAn?$AAd?$AA?$AA@ 0046aa14     DataBaseEngineSink.obj
 0002:00006a2c       ??_C@_1BK@LKHOCIJD@?$AA?$EA?$AAd?$AAw?$AAP?$AAr?$AAo?$AAp?$AAC?$AAo?$AAu?$AAn?$AAt?$AA?$AA@ 0046aa2c     DataBaseEngineSink.obj
 0002:00006a48       ??_C@_1CO@BAPIOJKO@?$AAG?$AAS?$AAP?$AA_?$AAG?$AAP?$AA_?$AAB?$AAu?$AAy?$AAG?$AAa?$AAm?$AAe?$AAP?$AAr?$AAo?$AAp?$AAe?$AAr?$AAt?$AAy?$AA?$AA@ 0046aa48     DataBaseEngineSink.obj
 0002:00006a78       ??_C@_1BE@NCJDDJNF@?$AAI?$AAt?$AAe?$AAm?$AAC?$AAo?$AAu?$AAn?$AAt?$AA?$AA@ 0046aa78     DataBaseEngineSink.obj
 0002:00006a8c       ??_C@_1BI@IPAEOBHH@?$AAI?$AAn?$AAs?$AAu?$AAr?$AAe?$AAS?$AAc?$AAo?$AAr?$AAe?$AA?$AA@ 0046aa8c     DataBaseEngineSink.obj
 0002:00006aa4       ??_C@_0CO@MPKMHGDB@CDataBaseEngineSink?3?3OnRequestBu@ 0046aaa4     DataBaseEngineSink.obj
 0002:00006ad4       ??_C@_1BA@NHNNGDKA@?$AA?$EA?$AAd?$AAw?$AAK?$AAi?$AAn?$AAd?$AA?$AA@ 0046aad4     DataBaseEngineSink.obj
 0002:00006ae4       ??_C@_1DC@BECOLCKM@?$AAG?$AAS?$AAP?$AA_?$AAG?$AAP?$AA_?$AAQ?$AAu?$AAe?$AAr?$AAy?$AAU?$AAs?$AAe?$AAr?$AAB?$AAa?$AAc?$AAk?$AAp?$AAa?$AAc?$AAk?$AA?$AA@ 0046aae4     DataBaseEngineSink.obj
 0002:00006b18       ??_C@_1BG@JEBCBEOK@?$AAG?$AAo?$AAo?$AAd?$AAs?$AAC?$AAo?$AAu?$AAn?$AAt?$AA?$AA@ 0046ab18     DataBaseEngineSink.obj
 0002:00006b30       ??_C@_1BA@IGLONEDE@?$AAG?$AAo?$AAo?$AAd?$AAs?$AAI?$AAD?$AA?$AA@ 0046ab30     DataBaseEngineSink.obj
 0002:00006b40       ??_C@_0CP@HIDLIGIE@CDataBaseEngineSink?3?3OnRequestPr@ 0046ab40     DataBaseEngineSink.obj
 0002:00006b70       ??_C@_1BM@DICJLGLH@?$AA?$EA?$AAd?$AAw?$AAR?$AAe?$AAc?$AAv?$AAU?$AAs?$AAe?$AAr?$AAI?$AAD?$AA?$AA@ 0046ab70     DataBaseEngineSink.obj
 0002:00006b8c       ??_C@_1BE@FEMJBOAL@?$AA?$EA?$AAd?$AAw?$AAP?$AAr?$AAo?$AAp?$AAI?$AAD?$AA?$AA@ 0046ab8c     DataBaseEngineSink.obj
 0002:00006ba0       ??_C@_1BO@LLDHLGHA@?$AAG?$AAS?$AAP?$AA_?$AAG?$AAP?$AA_?$AAU?$AAs?$AAe?$AAP?$AAr?$AAo?$AAp?$AA?$AA@ 0046aba0     DataBaseEngineSink.obj
 0002:00006bc0       ??_C@_1BO@BCALAHGO@?$AAR?$AAe?$AAm?$AAa?$AAi?$AAn?$AAd?$AAe?$AAr?$AAC?$AAo?$AAu?$AAn?$AAt?$AA?$AA@ 0046abc0     DataBaseEngineSink.obj
 0002:00006be0       ??_C@_1BA@EAHCKKEJ@?$AAU?$AAs?$AAe?$AAT?$AAi?$AAm?$AAe?$AA?$AA@ 0046abe0     DataBaseEngineSink.obj
 0002:00006bf0       ??_C@_0CK@BKABFICD@CDataBaseEngineSink?3?3OnRequestPr@ 0046abf0     DataBaseEngineSink.obj
 0002:00006c1c       ??_C@_1DA@NGNDJECO@?$AAG?$AAS?$AAP?$AA_?$AAG?$AAP?$AA_?$AAQ?$AAu?$AAe?$AAr?$AAy?$AAS?$AAe?$AAn?$AAd?$AAP?$AAr?$AAe?$AAs?$AAe?$AAn?$AAt?$AA?$AA@ 0046ac1c     DataBaseEngineSink.obj
 0002:00006c4c       ??_C@_1BO@NDIONEEC@?$AAR?$AAe?$AAc?$AAe?$AAi?$AAv?$AAe?$AAr?$AAU?$AAs?$AAe?$AAr?$AAI?$AAD?$AA?$AA@ 0046ac4c     DataBaseEngineSink.obj
 0002:00006c6c       ??_C@_1O@HBKDAIGN@?$AAP?$AAr?$AAo?$AAp?$AAI?$AAD?$AA?$AA@ 0046ac6c     DataBaseEngineSink.obj
 0002:00006c7c       ??_C@_1BE@OBGODFJK@?$AAP?$AAr?$AAo?$AAp?$AAC?$AAo?$AAu?$AAn?$AAt?$AA?$AA@ 0046ac7c     DataBaseEngineSink.obj
 0002:00006c90       ??_C@_1BC@OIPJKPA@?$AAS?$AAe?$AAn?$AAd?$AAT?$AAi?$AAm?$AAe?$AA?$AA@ 0046ac90     DataBaseEngineSink.obj
 0002:00006ca4       ??_C@_0CP@MNEJCLKP@CDataBaseEngineSink?3?3OnRequestQu@ 0046aca4     DataBaseEngineSink.obj
 0002:00006cd4       ??_C@_1CK@PNNKJDDO@?$AA?$EA?$AAs?$AAt?$AAr?$AAR?$AAe?$AAc?$AAe?$AAi?$AAv?$AAe?$AAr?$AAN?$AAi?$AAc?$AAk?$AAN?$AAa?$AAm?$AAe?$AA?$AA@ 0046acd4     DataBaseEngineSink.obj
 0002:00006d00       ??_C@_1CE@CNCLCFKM@?$AA?$EA?$AAd?$AAw?$AAR?$AAe?$AAc?$AAe?$AAi?$AAv?$AAe?$AAr?$AAG?$AAa?$AAm?$AAe?$AAI?$AAD?$AA?$AA@ 0046ad00     DataBaseEngineSink.obj
 0002:00006d28       ??_C@_1EC@BDGKNJAA@?$AAG?$AAS?$AAP?$AA_?$AAG?$AAP?$AA_?$AAU?$AAs?$AAe?$AAr?$AAS?$AAe?$AAn?$AAd?$AAP?$AAr?$AAe?$AAs?$AAe?$AAn?$AAt?$AAB?$AAy?$AAN?$AAi?$AAc?$AAk?$AAN?$AAa?$AAm?$AAe@ 0046ad28     DataBaseEngineSink.obj
 0002:00006d6c       ??_C@_1DG@MAMILGLL@?$AAG?$AAS?$AAP?$AA_?$AAG?$AAP?$AA_?$AAU?$AAs?$AAe?$AAr?$AAS?$AAe?$AAn?$AAd?$AAP?$AAr?$AAe?$AAs?$AAe?$AAn?$AAt?$AAB?$AAy?$AAI?$AAD?$AA?$AA@ 0046ad6c     DataBaseEngineSink.obj
 0002:00006da4       ??_C@_1BG@IKONDKDH@?$AAR?$AAe?$AAc?$AAv?$AAU?$AAs?$AAe?$AAr?$AAI?$AAD?$AA?$AA@ 0046ada4     DataBaseEngineSink.obj
 0002:00006dbc       ??_C@_0CO@GBFGHFMF@CDataBaseEngineSink?3?3OnRequestPr@ 0046adbc     DataBaseEngineSink.obj
 0002:00006dec       ??_C@_1BI@BJEGHHPF@?$AA?$EA?$AAs?$AAz?$AAP?$AAa?$AAs?$AAs?$AAw?$AAo?$AAr?$AAd?$AA?$AA@ 0046adec     DataBaseEngineSink.obj
 0002:00006e04       ??_C@_1CM@FOCAFKMP@?$AAG?$AAS?$AAP?$AA_?$AAG?$AAP?$AA_?$AAG?$AAe?$AAt?$AAS?$AAe?$AAn?$AAd?$AAP?$AAr?$AAe?$AAs?$AAe?$AAn?$AAt?$AA?$AA@ 0046ae04     DataBaseEngineSink.obj
 0002:00006e30       ??_C@_0CN@JNKPIKNE@CDataBaseEngineSink?3?3OnRequestGe@ 0046ae30     DataBaseEngineSink.obj
 0002:00006e60       ??_C@_1DA@JLHEIMAN@?$AAG?$AAS?$AAP?$AA_?$AAG?$AAP?$AA_?$AAL?$AAo?$AAa?$AAd?$AAU?$AAs?$AAe?$AAr?$AAG?$AAa?$AAm?$AAe?$AAB?$AAu?$AAf?$AAf?$AA?$AA@ 0046ae60     DataBaseEngineSink.obj
 0002:00006e90       ??_C@_0CL@HMGPGIKL@CDataBaseEngineSink?3?3OnRequestLo@ 0046ae90     DataBaseEngineSink.obj
 0002:00006ebc       ??_C@_1DG@JOLKCPGE@?$AAG?$AAS?$AAP?$AA_?$AAG?$AAP?$AA_?$AAL?$AAo?$AAa?$AAd?$AAU?$AAs?$AAe?$AAr?$AAG?$AAa?$AAm?$AAe?$AAT?$AAr?$AAu?$AAm?$AAp?$AAe?$AAt?$AA?$AA@ 0046aebc     DataBaseEngineSink.obj
 0002:00006ef4       ??_C@_1BK@HPBOKCOP@?$AAT?$AAr?$AAu?$AAm?$AAp?$AAe?$AAt?$AAC?$AAo?$AAu?$AAn?$AAt?$AA?$AA@ 0046aef4     DataBaseEngineSink.obj
 0002:00006f10       ??_C@_1BI@LDHFGGBF@?$AAT?$AAy?$AAp?$AAh?$AAo?$AAn?$AAC?$AAo?$AAu?$AAn?$AAt?$AA?$AA@ 0046af10     DataBaseEngineSink.obj
 0002:00006f28       ??_C@_0CO@EGJFHNDI@CDataBaseEngineSink?3?3OnRequestLo@ 0046af28     DataBaseEngineSink.obj
 0002:00006f58       ??_C@_1DG@CIJKMOHE@?$AAG?$AAS?$AAP?$AA_?$AAG?$AAP?$AA_?$AAL?$AAo?$AAa?$AAd?$AAM?$AAe?$AAm?$AAb?$AAe?$AAr?$AAP?$AAa?$AAr?$AAa?$AAm?$AAe?$AAt?$AAe?$AAr?$AA?$AA@ 0046af58     DataBaseEngineSink.obj
 0002:00006f90       ??_C@_1BC@GCGODHPE@?$AAT?$AAa?$AAs?$AAk?$AAR?$AAa?$AAt?$AAe?$AA?$AA@ 0046af90     DataBaseEngineSink.obj
 0002:00006fa4       ??_C@_1BC@GPPGNHPN@?$AAS?$AAh?$AAo?$AAp?$AAR?$AAa?$AAt?$AAe?$AA?$AA@ 0046afa4     DataBaseEngineSink.obj
 0002:00006fb8       ??_C@_1BG@FMFGBAB@?$AAI?$AAn?$AAs?$AAu?$AAr?$AAe?$AAR?$AAa?$AAt?$AAe?$AA?$AA@ 0046afb8     DataBaseEngineSink.obj
 0002:00006fd0       ??_C@_1BG@JKEONEBH@?$AAD?$AAa?$AAy?$AAP?$AAr?$AAe?$AAs?$AAe?$AAn?$AAt?$AA?$AA@ 0046afd0     DataBaseEngineSink.obj
 0002:00006fe8       ??_C@_1BE@NIPGJIHA@?$AAD?$AAa?$AAy?$AAG?$AAi?$AAf?$AAt?$AAI?$AAD?$AA?$AA@ 0046afe8     DataBaseEngineSink.obj
 0002:00006ffc       ??_C@_1BG@CFPCEBOJ@?$AAM?$AAe?$AAm?$AAb?$AAe?$AAr?$AAN?$AAa?$AAm?$AAe?$AA?$AA@ 0046affc     DataBaseEngineSink.obj
 0002:00007014       ??_C@_0DC@HJENCEP@CDataBaseEngineSink?3?3OnRequestMe@ 0046b014     DataBaseEngineSink.obj
 0002:00007048       ??_C@_1CO@GHGHIPGL@?$AAG?$AAS?$AAP?$AA_?$AAG?$AAP?$AA_?$AAM?$AAe?$AAm?$AAb?$AAe?$AAr?$AAQ?$AAu?$AAe?$AAr?$AAy?$AAI?$AAn?$AAf?$AAo?$AA?$AA@ 0046b048     DataBaseEngineSink.obj
 0002:00007078       ??_C@_1BA@DDDLNJJL@?$AAP?$AAr?$AAe?$AAs?$AAe?$AAn?$AAt?$AA?$AA@ 0046b078     DataBaseEngineSink.obj
 0002:00007088       ??_C@_19JFEHOLEM@?$AAG?$AAi?$AAf?$AAt?$AA?$AA@ 0046b088     DataBaseEngineSink.obj
 0002:00007094       ??_C@_1CO@DMHPPIOF@?$AAG?$AAS?$AAP?$AA_?$AAG?$AAP?$AA_?$AAM?$AAe?$AAm?$AAb?$AAe?$AAr?$AAG?$AAi?$AAf?$AAt?$AAQ?$AAu?$AAe?$AAr?$AAy?$AA?$AA@ 0046b094     DataBaseEngineSink.obj
 0002:000070c4       ??_C@_0CO@JKBFHBG@CDataBaseEngineSink?3?3OnRequestMe@ 0046b0c4     DataBaseEngineSink.obj
 0002:000070f4       ??_C@_1DA@DEEDIJAK@?$AAG?$AAS?$AAP?$AA_?$AAG?$AAP?$AA_?$AAM?$AAe?$AAm?$AAb?$AAe?$AAr?$AAD?$AAa?$AAy?$AAP?$AAr?$AAe?$AAs?$AAe?$AAn?$AAt?$AA?$AA@ 0046b0f4     DataBaseEngineSink.obj
 0002:00007124       ??_C@_0CP@EGKDDCPM@CDataBaseEngineSink?3?3OnRequestMe@ 0046b124     DataBaseEngineSink.obj
 0002:00007154       ??_C@_1CK@FFIDFOKG@?$AAG?$AAS?$AAP?$AA_?$AAG?$AAP?$AA_?$AAM?$AAe?$AAm?$AAb?$AAe?$AAr?$AAD?$AAa?$AAy?$AAG?$AAi?$AAf?$AAt?$AA?$AA@ 0046b154     DataBaseEngineSink.obj
 0002:00007180       ??_C@_0CM@GBGIFFIB@CDataBaseEngineSink?3?3OnRequestMe@ 0046b180     DataBaseEngineSink.obj
 0002:000071ac       ??_C@_1DC@NGCEKKMB@?$AAG?$AAS?$AAP?$AA_?$AAG?$AAP?$AA_?$AAL?$AAo?$AAa?$AAd?$AAC?$AAh?$AAe?$AAc?$AAk?$AAI?$AAn?$AAR?$AAe?$AAw?$AAa?$AAr?$AAd?$AA?$AA@ 0046b1ac     DataBaseEngineSink.obj
 0002:000071e0       ??_C@_1M@GFEMECE@?$AAD?$AAa?$AAy?$AAI?$AAD?$AA?$AA@ 0046b1e0     DataBaseEngineSink.obj
 0002:000071ec       ??_C@_1BG@DPFEGNAF@?$AAR?$AAe?$AAw?$AAa?$AAr?$AAd?$AAG?$AAo?$AAl?$AAd?$AA?$AA@ 0046b1ec     DataBaseEngineSink.obj
 0002:00007204       ??_C@_0CK@FNAFJCAP@CDataBaseEngineSink?3?3OnRequestLo@ 0046b204     DataBaseEngineSink.obj
 0002:00007230       ??_C@_1DA@NJHPKKGF@?$AAG?$AAS?$AAP?$AA_?$AAG?$AAR?$AA_?$AAC?$AAh?$AAe?$AAc?$AAk?$AAI?$AAn?$AAQ?$AAu?$AAe?$AAr?$AAy?$AAI?$AAn?$AAf?$AAo?$AA?$AA@ 0046b230     DataBaseEngineSink.obj
 0002:00007260       ??_C@_1BG@GNOOCLBA@?$AAS?$AAe?$AAr?$AAi?$AAe?$AAs?$AAD?$AAa?$AAt?$AAe?$AA?$AA@ 0046b260     DataBaseEngineSink.obj
 0002:00007278       ??_C@_1BO@ICNGDIOA@?$AAT?$AAo?$AAd?$AAa?$AAy?$AAC?$AAh?$AAe?$AAc?$AAk?$AAI?$AAn?$AAe?$AAd?$AA?$AA@ 0046b278     DataBaseEngineSink.obj
 0002:00007298       ??_C@_0CP@LGOLPPK@CDataBaseEngineSink?3?3OnRequestCh@ 0046b298     DataBaseEngineSink.obj
 0002:000072c8       ??_C@_1CG@KGEAILBM@?$AAG?$AAS?$AAP?$AA_?$AAG?$AAR?$AA_?$AAC?$AAh?$AAe?$AAc?$AAk?$AAI?$AAn?$AAD?$AAo?$AAn?$AAe?$AA?$AA@ 0046b2c8     DataBaseEngineSink.obj
 0002:000072f0       ??_C@_0CK@GAMLIDKL@CDataBaseEngineSink?3?3OnRequestCh@ 0046b2f0     DataBaseEngineSink.obj
 0002:0000731c       ??_C@_1CM@HBNLDFGF@?$AAG?$AAS?$AAP?$AA_?$AAG?$AAP?$AA_?$AAL?$AAo?$AAa?$AAd?$AAB?$AAa?$AAs?$AAe?$AAE?$AAn?$AAs?$AAu?$AAr?$AAe?$AA?$AA@ 0046b31c     DataBaseEngineSink.obj
 0002:00007348       ??_C@_1BE@HAFGNHOP@?$AAT?$AAa?$AAk?$AAe?$AAT?$AAi?$AAm?$AAe?$AAs?$AA?$AA@ 0046b348     DataBaseEngineSink.obj
 0002:0000735c       ??_C@_1BI@ICLFMINE@?$AAS?$AAc?$AAo?$AAr?$AAe?$AAA?$AAm?$AAo?$AAu?$AAn?$AAt?$AA?$AA@ 0046b35c     DataBaseEngineSink.obj
 0002:00007374       ??_C@_1BO@JLHPLCEB@?$AAS?$AAc?$AAo?$AAr?$AAe?$AAC?$AAo?$AAn?$AAd?$AAi?$AAt?$AAi?$AAo?$AAn?$AA?$AA@ 0046b374     DataBaseEngineSink.obj
 0002:00007394       ??_C@_0CN@BCCKMKAP@CDataBaseEngineSink?3?3OnRequestLo@ 0046b394     DataBaseEngineSink.obj
 0002:000073c4       ??_C@_1CM@PABEPCDE@?$AAG?$AAS?$AAP?$AA_?$AAG?$AAP?$AA_?$AAT?$AAa?$AAk?$AAe?$AAB?$AAa?$AAs?$AAe?$AAE?$AAn?$AAs?$AAu?$AAr?$AAe?$AA?$AA@ 0046b3c4     DataBaseEngineSink.obj
 0002:000073f0       ??_C@_0CN@PDKAOGAO@CDataBaseEngineSink?3?3OnRequestTa@ 0046b3f0     DataBaseEngineSink.obj
 0002:00007420       ??_C@_1CC@HAKOLJC@?$AA?$EA?$AAs?$AAt?$AAr?$AAU?$AAs?$AAe?$AAr?$AAG?$AAa?$AAm?$AAe?$AAD?$AAa?$AAt?$AAa?$AA?$AA@ 0046b420     DataBaseEngineSink.obj
 0002:00007444       ??_C@_1DC@HKEEGOGD@?$AAG?$AAS?$AAP?$AA_?$AAG?$AAR?$AA_?$AAW?$AAr?$AAi?$AAt?$AAe?$AAU?$AAs?$AAe?$AAr?$AAG?$AAa?$AAm?$AAe?$AAD?$AAa?$AAt?$AAa?$AA?$AA@ 0046b444     DataBaseEngineSink.obj
 0002:00007478       ??_C@_0DA@OPFFIGFI@CDataBaseEngineSink?3?3OnRequestWr@ 0046b478     DataBaseEngineSink.obj
 0002:000074a8       ??_C@_1BG@ILCPGLIH@?$AA?$EA?$AAI?$AAn?$AAi?$AAt?$AAS?$AAc?$AAo?$AAr?$AAe?$AA?$AA@ 0046b4a8     DataBaseEngineSink.obj
 0002:000074c0       ??_C@_1BM@IPFCHFGN@?$AA?$EA?$AAc?$AAb?$AAS?$AAi?$AAg?$AAn?$AAu?$AAp?$AAM?$AAo?$AAd?$AAe?$AA?$AA@ 0046b4c0     DataBaseEngineSink.obj
 0002:000074dc       ??_C@_1CA@CNLPILGD@?$AA?$EA?$AAw?$AAM?$AAa?$AAx?$AAS?$AAi?$AAg?$AAn?$AAu?$AAp?$AAU?$AAs?$AAe?$AAr?$AA?$AA@ 0046b4dc     DataBaseEngineSink.obj
 0002:000074fc       ??_C@_1CI@FCMFAMBI@?$AAG?$AAS?$AAP?$AA_?$AAG?$AAR?$AA_?$AAU?$AAs?$AAe?$AAr?$AAM?$AAa?$AAt?$AAc?$AAh?$AAF?$AAe?$AAe?$AA?$AA@ 0046b4fc     DataBaseEngineSink.obj
 0002:00007524       ??_C@_1BE@MAFMELEJ@?$AAU?$AAs?$AAe?$AAr?$AAI?$AAn?$AAg?$AAo?$AAt?$AA?$AA@ 0046b524     DataBaseEngineSink.obj
 0002:00007538       ??_C@_1BG@HCBNAGIO@?$AAS?$AAi?$AAg?$AAn?$AAu?$AAp?$AAM?$AAo?$AAd?$AAe?$AA?$AA@ 0046b538     DataBaseEngineSink.obj
 0002:00007550       ??_C@_0CK@HDOEOIAJ@CDataBaseEngineSink?3?3OnRequestMa@ 0046b550     DataBaseEngineSink.obj
 0002:0000757c       ??_C@_1CK@KBPLNKLN@?$AAG?$AAS?$AAP?$AA_?$AAG?$AAR?$AA_?$AAU?$AAs?$AAe?$AAr?$AAM?$AAa?$AAt?$AAc?$AAh?$AAQ?$AAu?$AAi?$AAt?$AA?$AA@ 0046b57c     DataBaseEngineSink.obj
 0002:000075a8       ??_C@_0CM@JAAGFEIO@CDataBaseEngineSink?3?3OnRequestMa@ 0046b5a8     DataBaseEngineSink.obj
 0002:000075d4       ??_C@_1DA@EDNAHKPA@?$AAG?$AAS?$AAP?$AA_?$AAG?$AAR?$AA_?$AAM?$AAa?$AAt?$AAc?$AAh?$AAS?$AAi?$AAg?$AAn?$AAu?$AAp?$AAS?$AAt?$AAa?$AAr?$AAt?$AA?$AA@ 0046b5d4     DataBaseEngineSink.obj
 0002:00007604       ??_C@_0CP@KNNGPFBD@CDataBaseEngineSink?3?3OnRequestMa@ 0046b604     DataBaseEngineSink.obj
 0002:00007634       ??_C@_1DC@OAFDCDJN@?$AAG?$AAS?$AAP?$AA_?$AAG?$AAR?$AA_?$AAM?$AAa?$AAt?$AAc?$AAh?$AAQ?$AAu?$AAe?$AAr?$AAy?$AAQ?$AAu?$AAa?$AAl?$AAi?$AAf?$AAy?$AA?$AA@ 0046b634     DataBaseEngineSink.obj
 0002:00007668       ??_C@_0DA@DKOKPFGG@CDataBaseEngineSink?3?3OnRequestMa@ 0046b668     DataBaseEngineSink.obj
 0002:00007698       ??_C@_1BM@GHCOFLDJ@?$AA?$EA?$AAl?$AAS?$AAa?$AAf?$AAe?$AAC?$AAa?$AAr?$AAd?$AAF?$AAe?$AAe?$AA?$AA@ 0046b698     DataBaseEngineSink.obj
 0002:000076b4       ??_C@_1DA@FLPAMND@?$AAG?$AAS?$AAP?$AA_?$AAG?$AAR?$AA_?$AAM?$AAa?$AAt?$AAc?$AAh?$AAB?$AAu?$AAy?$AAS?$AAa?$AAf?$AAe?$AAC?$AAa?$AAr?$AAd?$AA?$AA@ 0046b6b4     DataBaseEngineSink.obj
 0002:000076e4       ??_C@_0CP@PIBJAAA@CDataBaseEngineSink?3?3OnRequestMa@ 0046b6e4     DataBaseEngineSink.obj
 0002:00007714       ??_C@_1BO@JJHDBPGG@epcn?$FO?$JD_?$AC?$FO8?$PP?$AMO?$NN?$JGiSa?$IN?9NpY1?$IN?$CF?$PP?$AB?$AA?$AA@ 0046b714     DataBaseEngineSink.obj
 0002:00007734       ??_C@_1CE@BEDOMGNP@?$AAG?$AAS?$AAP?$AA_?$AAG?$AAR?$AA_?$AAM?$AAa?$AAt?$AAc?$AAh?$AAS?$AAt?$AAa?$AAr?$AAt?$AA?$AA@ 0046b734     DataBaseEngineSink.obj
 0002:00007758       ??_C@_0CJ@NJMHJMAB@CDataBaseEngineSink?3?3OnRequestMa@ 0046b758     DataBaseEngineSink.obj
 0002:00007784       ??_C@_1BM@OHBPHAPK@?$AA?$EA?$AAd?$AAw?$AAA?$AAn?$AAd?$AAr?$AAo?$AAi?$AAd?$AAI?$AAD?$AA1?$AA?$AA@ 0046b784     DataBaseEngineSink.obj
 0002:000077a0       ??_C@_1BM@PFKKNPBE@?$AA?$EA?$AAd?$AAw?$AAA?$AAn?$AAd?$AAr?$AAo?$AAi?$AAd?$AAI?$AAD?$AA2?$AA?$AA@ 0046b7a0     DataBaseEngineSink.obj
 0002:000077bc       ??_C@_1BM@ENBGLIHB@?$AA?$EA?$AAd?$AAw?$AAA?$AAn?$AAd?$AAr?$AAo?$AAi?$AAd?$AAI?$AAD?$AA3?$AA?$AA@ 0046b7bc     DataBaseEngineSink.obj
 0002:000077d8       ??_C@_1BC@NDPJBJDI@?$AA?$EA?$AAw?$AAR?$AAa?$AAd?$AAi?$AAo?$AA1?$AA?$AA@ 0046b7d8     DataBaseEngineSink.obj
 0002:000077ec       ??_C@_1BC@MBEMLGNG@?$AA?$EA?$AAw?$AAR?$AAa?$AAd?$AAi?$AAo?$AA2?$AA?$AA@ 0046b7ec     DataBaseEngineSink.obj
 0002:00007800       ??_C@_1BC@HJPANBLD@?$AA?$EA?$AAw?$AAR?$AAa?$AAd?$AAi?$AAo?$AA3?$AA?$AA@ 0046b800     DataBaseEngineSink.obj
 0002:00007814       ??_C@_1DC@OFFBNKEI@?$AAG?$AAS?$AAP?$AA_?$AAG?$AAR?$AA_?$AAM?$AAa?$AAt?$AAc?$AAh?$AAA?$AAn?$AAd?$AAr?$AAo?$AAi?$AAd?$AAD?$AAe?$AAb?$AAu?$AAg?$AA?$AA@ 0046b814     DataBaseEngineSink.obj
 0002:00007848       ??_C@_0DA@DNODHCME@CDataBaseEngineSink?3?3OnRequestMa@ 0046b848     DataBaseEngineSink.obj
 0002:00007878       ??_C@_1BO@MMBHFFDH@?$AA?$EA?$AAc?$AAb?$AAM?$AAa?$AAt?$AAc?$AAh?$AAR?$AAo?$AAu?$AAn?$AAd?$AAs?$AA?$AA@ 0046b878     DataBaseEngineSink.obj
 0002:00007898       ??_C@_1BI@CJIILLOM@?$AA?$EA?$AAw?$AAP?$AAr?$AAo?$AAm?$AAo?$AAt?$AAi?$AAo?$AAn?$AA?$AA@ 0046b898     DataBaseEngineSink.obj
 0002:000078b0       ??_C@_1BK@NAECOFBP@?$AA?$EA?$AAc?$AAb?$AAP?$AAl?$AAa?$AAy?$AAC?$AAo?$AAu?$AAn?$AAt?$AA?$AA@ 0046b8b0     DataBaseEngineSink.obj
 0002:000078cc       ??_C@_1BM@LMKAMJIJ@?$AA?$EA?$AAb?$AAM?$AAa?$AAt?$AAc?$AAh?$AAF?$AAi?$AAn?$AAi?$AAs?$AAh?$AA?$AA@ 0046b8cc     DataBaseEngineSink.obj
 0002:000078e8       ??_C@_1CA@FAAEPNGJ@?$AA?$EA?$AAM?$AAa?$AAt?$AAc?$AAh?$AAS?$AAt?$AAa?$AAr?$AAt?$AAT?$AAi?$AAm?$AAe?$AA?$AA@ 0046b8e8     DataBaseEngineSink.obj
 0002:00007908       ??_C@_1BM@CPOJEHID@?$AA?$EA?$AAM?$AAa?$AAt?$AAc?$AAh?$AAE?$AAn?$AAd?$AAT?$AAi?$AAm?$AAe?$AA?$AA@ 0046b908     DataBaseEngineSink.obj
 0002:00007924       ??_C@_1CO@GOGEDION@?$AAG?$AAS?$AAP?$AA_?$AAG?$AAR?$AA_?$AAM?$AAa?$AAt?$AAc?$AAh?$AAR?$AAo?$AAu?$AAn?$AAd?$AAs?$AAO?$AAv?$AAe?$AAr?$AA?$AA@ 0046b924     DataBaseEngineSink.obj
 0002:00007954       ??_C@_1O@CFFILFIP@?$AAR?$AAa?$AAn?$AAk?$AAI?$AAD?$AA?$AA@ 0046b954     DataBaseEngineSink.obj
 0002:00007964       ??_C@_1BI@JLHHLFIK@?$AAR?$AAe?$AAw?$AAa?$AAr?$AAd?$AAI?$AAn?$AAg?$AAo?$AAt?$AA?$AA@ 0046b964     DataBaseEngineSink.obj
 0002:0000797c       ??_C@_1CC@DPLJNDKC@?$AAR?$AAe?$AAw?$AAa?$AAr?$AAd?$AAE?$AAx?$AAp?$AAe?$AAr?$AAi?$AAe?$AAn?$AAc?$AAe?$AA?$AA@ 0046b97c     DataBaseEngineSink.obj
 0002:000079a0       ??_C@_0CO@OHJONKDP@CDataBaseEngineSink?3?3OnRequestMa@ 0046b9a0     DataBaseEngineSink.obj
 0002:000079d0       ??_C@_1CC@IAODFJFJ@?$AAG?$AAS?$AAP?$AA_?$AAG?$AAR?$AA_?$AAM?$AAa?$AAt?$AAc?$AAh?$AAO?$AAv?$AAe?$AAr?$AA?$AA@ 0046b9d0     DataBaseEngineSink.obj
 0002:000079f4       ??_C@_0CI@EOLOHCBI@CDataBaseEngineSink?3?3OnRequestMa@ 0046b9f4     DataBaseEngineSink.obj
 0002:00007a1c       ??_C@_1CG@HOMOPPFG@?$AAG?$AAS?$AAP?$AA_?$AAG?$AAR?$AA_?$AAM?$AAa?$AAt?$AAc?$AAh?$AAC?$AAa?$AAn?$AAc?$AAe?$AAl?$AA?$AA@ 0046ba1c     DataBaseEngineSink.obj
 0002:00007a44       ??_C@_0CK@PNECLCCL@CDataBaseEngineSink?3?3OnRequestMa@ 0046ba44     DataBaseEngineSink.obj
 0002:00007a70       ??_C@_1BK@JPEKKDNK@?$AA?$EA?$AAl?$AAR?$AAe?$AAw?$AAa?$AAr?$AAd?$AAG?$AAo?$AAl?$AAd?$AA?$AA@ 0046ba70     DataBaseEngineSink.obj
 0002:00007a8c       ??_C@_1BM@OBALCDPD@?$AA?$EA?$AAl?$AAR?$AAe?$AAw?$AAa?$AAr?$AAd?$AAI?$AAn?$AAg?$AAo?$AAt?$AA?$AA@ 0046ba8c     DataBaseEngineSink.obj
 0002:00007aa8       ??_C@_1CA@PBEONFEN@?$AA?$EA?$AAd?$AAw?$AAR?$AAe?$AAw?$AAa?$AAr?$AAd?$AAT?$AAi?$AAc?$AAk?$AAe?$AAt?$AA?$AA@ 0046baa8     DataBaseEngineSink.obj
 0002:00007ac8       ??_C@_1CG@MEIMKOKA@?$AAG?$AAS?$AAP?$AA_?$AAG?$AAR?$AA_?$AAM?$AAa?$AAt?$AAc?$AAh?$AAR?$AAe?$AAw?$AAa?$AAr?$AAd?$AA?$AA@ 0046bac8     DataBaseEngineSink.obj
 0002:00007af0       ??_C@_1CM@BIFBHKLN@?$AAG?$AAS?$AAP?$AA_?$AAG?$AAR?$AA_?$AAM?$AAa?$AAt?$AAc?$AAh?$AAE?$AAl?$AAi?$AAm?$AAi?$AAn?$AAa?$AAt?$AAe?$AA?$AA@ 0046baf0     DataBaseEngineSink.obj
 0002:00007b1c       ??_C@_0CN@BJHIPMDN@CDataBaseEngineSink?3?3OnRequestMa@ 0046bb1c     DataBaseEngineSink.obj
 0002:00007b4c       ??_C@_1BI@MLGGMNDB@?$AA?$EA?$AAl?$AAI?$AAn?$AAi?$AAt?$AAS?$AAc?$AAo?$AAr?$AAe?$AA?$AA@ 0046bb4c     DataBaseEngineSink.obj
 0002:00007b64       ??_C@_1DC@IJHDBOHF@?$AAG?$AAS?$AAP?$AA_?$AAG?$AAR?$AA_?$AAM?$AAa?$AAt?$AAc?$AAh?$AAR?$AAe?$AAc?$AAo?$AAr?$AAd?$AAG?$AAr?$AAa?$AAd?$AAe?$AAs?$AA?$AA@ 0046bb64     DataBaseEngineSink.obj
 0002:00007b98       ??_C@_0DA@LGEIPJHK@CDataBaseEngineSink?3?3OnRequestMa@ 0046bb98     DataBaseEngineSink.obj
 0002:00007bc8       ??_C@_1BG@CAPMBLID@?$AA?$EA?$AAC?$AAu?$AAl?$AAl?$AAS?$AAc?$AAo?$AAr?$AAe?$AA?$AA@ 0046bbc8     DataBaseEngineSink.obj
 0002:00007be0       ??_C@_1BI@CIOGAMGA@?$AA?$EA?$AAl?$AAR?$AAe?$AAv?$AAi?$AAv?$AAe?$AAF?$AAe?$AAe?$AA?$AA@ 0046bbe0     DataBaseEngineSink.obj
 0002:00007bf8       ??_C@_1BO@MBMHAAKL@?$AA?$EA?$AAc?$AAb?$AAR?$AAe?$AAv?$AAi?$AAv?$AAe?$AAT?$AAi?$AAm?$AAe?$AAs?$AA?$AA@ 0046bbf8     DataBaseEngineSink.obj
 0002:00007c18       ??_C@_1CO@JOCLPDFF@?$AAG?$AAS?$AAP?$AA_?$AAG?$AAR?$AA_?$AAM?$AAa?$AAt?$AAc?$AAh?$AAU?$AAs?$AAe?$AAr?$AAR?$AAe?$AAv?$AAi?$AAv?$AAe?$AA?$AA@ 0046bc18     DataBaseEngineSink.obj
 0002:00007c48       ??_C@_0CO@NFHHLNKA@CDataBaseEngineSink?3?3OnRequestMa@ 0046bc48     DataBaseEngineSink.obj
 0002:00007c78       ??_C@_1BI@CAGDHOJO@epcn?$FO?$JD_?$AC?$FO8?$PP?$AMY?$ANm?$DLY1?$IN?$CF?$PP?$AB?$AA?$AA@ 0046bc78     DataBaseEngineSink.obj
 0002:00007c90       ??_C@_1DI@GMGLMMGD@?$AAG?$AAS?$AAP?$AA_?$AAG?$AAR?$AA_?$AAM?$AAa?$AAt?$AAc?$AAh?$AAQ?$AAu?$AAe?$AAr?$AAy?$AAR?$AAe?$AAv?$AAi?$AAv?$AAe?$AAI?$AAn?$AAf?$AAo?$AA?$AA@ 0046bc90     DataBaseEngineSink.obj
 0002:00007cc8       ??_C@_1BO@MGIHAKON@?$AAS?$AAa?$AAf?$AAe?$AAC?$AAa?$AAr?$AAd?$AAR?$AAe?$AAv?$AAi?$AAv?$AAe?$AA?$AA@ 0046bcc8     DataBaseEngineSink.obj
 0002:00007ce8       ??_C@_1BI@HNJIHNEN@?$AAR?$AAe?$AAv?$AAi?$AAv?$AAe?$AAT?$AAi?$AAm?$AAe?$AAs?$AA?$AA@ 0046bce8     DataBaseEngineSink.obj
 0002:00007d00       ??_C@_0DD@JIKGAJMG@CDataBaseEngineSink?3?3OnRequestMa@ 0046bd00     DataBaseEngineSink.obj
 0002:00007d34       ??_C@_1DG@CCCNAKFC@?$AAG?$AAS?$AAP?$AA_?$AAG?$AAR?$AA_?$AAL?$AAo?$AAa?$AAd?$AAG?$AAr?$AAo?$AAw?$AAL?$AAe?$AAv?$AAe?$AAl?$AAC?$AAo?$AAn?$AAf?$AAi?$AAg?$AA?$AA@ 0046bd34     DataBaseEngineSink.obj
 0002:00007d6c       ??_C@_1BA@NFLKLKMG@?$AAL?$AAe?$AAv?$AAe?$AAl?$AAI?$AAD?$AA?$AA@ 0046bd6c     DataBaseEngineSink.obj
 0002:00007d7c       ??_C@_1BG@MALFPFEC@?$AAE?$AAx?$AAp?$AAe?$AAr?$AAi?$AAe?$AAn?$AAc?$AAe?$AA?$AA@ 0046bd7c     DataBaseEngineSink.obj
 0002:00007d94       ??_C@_0DC@PMLOHGEK@CDataBaseEngineSink?3?3OnRequestLo@ 0046bd94     DataBaseEngineSink.obj
 0002:00007dc8       ??_C@_1CI@EMNNFIJ@?$AA?$EA?$AAs?$AAt?$AAr?$AAU?$AAp?$AAg?$AAr?$AAa?$AAd?$AAe?$AAD?$AAe?$AAs?$AAc?$AAr?$AAi?$AAb?$AAe?$AA?$AA@ 0046bdc8     DataBaseEngineSink.obj
 0002:00007df0       ??_C@_1CM@FJMANMLF@?$AAG?$AAS?$AAP?$AA_?$AAG?$AAP?$AA_?$AAQ?$AAu?$AAe?$AAr?$AAy?$AAG?$AAr?$AAo?$AAw?$AAL?$AAe?$AAv?$AAe?$AAl?$AA?$AA@ 0046bdf0     DataBaseEngineSink.obj
 0002:00007e1c       ??_C@_1BI@INBNLGNE@?$AAC?$AAu?$AAr?$AAr?$AAL?$AAe?$AAv?$AAe?$AAl?$AAI?$AAD?$AA?$AA@ 0046be1c     DataBaseEngineSink.obj
 0002:00007e34       ??_C@_1CE@IIBPHGAI@?$AAU?$AAp?$AAg?$AAr?$AAa?$AAd?$AAe?$AAE?$AAx?$AAp?$AAe?$AAr?$AAi?$AAe?$AAn?$AAc?$AAe?$AA?$AA@ 0046be34     DataBaseEngineSink.obj
 0002:00007e58       ??_C@_1BI@EBLJGMOB@?$AAR?$AAe?$AAw?$AAa?$AAr?$AAd?$AAM?$AAe?$AAd?$AAa?$AAl?$AA?$AA@ 0046be58     DataBaseEngineSink.obj
 0002:00007e70       ??_C@_1CI@DCHCHGCJ@?$AA?$EA?$AAs?$AAt?$AAr?$AAU?$AAp?$AAG?$AAr?$AAa?$AAd?$AAe?$AAD?$AAe?$AAs?$AAc?$AAr?$AAi?$AAb?$AAe?$AA?$AA@ 0046be70     DataBaseEngineSink.obj
 0002:00007e98       ??_C@_0DG@OCMGMCGE@CDataBaseEngineSink?3?3OnRequestQu@ 0046be98     DataBaseEngineSink.obj
 0002:00007ed0       ??_C@_1BI@EAKMOPAB@?$AA?$EA?$AAd?$AAw?$AAA?$AAd?$AAd?$AAR?$AAi?$AAg?$AAh?$AAt?$AA?$AA@ 0046bed0     DataBaseEngineSink.obj
 0002:00007ee8       ??_C@_1BO@CBGJIGFO@?$AA?$EA?$AAd?$AAw?$AAR?$AAe?$AAm?$AAo?$AAv?$AAe?$AAR?$AAi?$AAg?$AAh?$AAt?$AA?$AA@ 0046bee8     DataBaseEngineSink.obj
 0002:00007f08       ??_C@_1CO@EGNKHPMO@?$AAG?$AAS?$AAP?$AA_?$AAG?$AAR?$AA_?$AAM?$AAa?$AAn?$AAa?$AAg?$AAe?$AAU?$AAs?$AAe?$AAr?$AAR?$AAi?$AAg?$AAh?$AAt?$AA?$AA@ 0046bf08     DataBaseEngineSink.obj
 0002:00007f38       ??_C@_0CO@CBHLJOKM@CDataBaseEngineSink?3?3OnRequestMa@ 0046bf38     DataBaseEngineSink.obj
 0002:00007f68       ??_C@_1DE@OALNPKBO@?$AAG?$AAS?$AAP?$AA_?$AAG?$AAR?$AA_?$AAL?$AAo?$AAa?$AAd?$AAS?$AAe?$AAn?$AAs?$AAi?$AAt?$AAi?$AAv?$AAe?$AAW?$AAo?$AAr?$AAd?$AAs?$AA?$AA@ 0046bf68     DataBaseEngineSink.obj
 0002:00007f9c       ??_C@_1BO@MLBDKGNJ@?$AAS?$AAe?$AAn?$AAs?$AAi?$AAt?$AAi?$AAv?$AAe?$AAW?$AAo?$AAr?$AAd?$AAs?$AA?$AA@ 0046bf9c     DataBaseEngineSink.obj
 0002:00007fbc       ??_C@_0DB@NNIKPNDN@CDataBaseEngineSink?3?3OnRequestLo@ 0046bfbc     DataBaseEngineSink.obj
 0002:00007ff0       ??_C@_1BM@PMDDDFJG@?$AA?$EA?$AAc?$AAb?$AAA?$AAl?$AAl?$AAA?$AAn?$AAd?$AAr?$AAo?$AAi?$AAd?$AA?$AA@ 0046bff0     DataBaseEngineSink.obj
 0002:0000800c       ??_C@_1DC@PALHKLLE@?$AAG?$AAS?$AAP?$AA_?$AAG?$AAR?$AA_?$AAU?$AAn?$AAl?$AAo?$AAc?$AAk?$AAA?$AAn?$AAd?$AAr?$AAo?$AAi?$AAd?$AAU?$AAs?$AAe?$AAr?$AA?$AA@ 0046c00c     DataBaseEngineSink.obj
 0002:00008040       ??_C@_0DA@OJHNEFOD@CDataBaseEngineSink?3?3OnRequestUn@ 0046c040     DataBaseEngineSink.obj
 0002:00008070       ??_C@_1O@LKDCJPHK@?$AAF?$AAa?$AAc?$AAe?$AAI?$AAD?$AA?$AA@ 0046c070     DataBaseEngineSink.obj
 0002:00008080       ??_C@_1BC@ILLBKBPD@?$AAC?$AAu?$AAs?$AAt?$AAo?$AAm?$AAI?$AAD?$AA?$AA@ 0046c080     DataBaseEngineSink.obj
 0002:00008094       ??_C@_1BC@FCKCDPHF@?$AAN?$AAi?$AAc?$AAk?$AAN?$AAa?$AAm?$AAe?$AA?$AA@ 0046c094     DataBaseEngineSink.obj
 0002:000080a8       ??_C@_1BE@DBKHKHNO@?$AAG?$AAr?$AAo?$AAu?$AAp?$AAN?$AAa?$AAm?$AAe?$AA?$AA@ 0046c0a8     DataBaseEngineSink.obj
 0002:000080bc       ??_C@_1O@LIEBKMGN@?$AAG?$AAe?$AAn?$AAd?$AAe?$AAr?$AA?$AA@ 0046c0bc     DataBaseEngineSink.obj
 0002:000080cc       ??_C@_1BI@ICGCIKDG@?$AAM?$AAa?$AAs?$AAt?$AAe?$AAr?$AAO?$AAr?$AAd?$AAe?$AAr?$AA?$AA@ 0046c0cc     DataBaseEngineSink.obj
 0002:000080e4       ??_C@_1BG@ENAEGFM@?$AAU?$AAn?$AAd?$AAe?$AAr?$AAW?$AAr?$AAi?$AAt?$AAe?$AA?$AA@ 0046c0e4     DataBaseEngineSink.obj
 0002:000080fc       ??_C@_15PKFOONMJ@?$AAQ?$AAQ?$AA?$AA@ 0046c0fc     DataBaseEngineSink.obj
 0002:00008104       ??_C@_1M@FOEMDGM@?$AAE?$AAM?$AAa?$AAi?$AAl?$AA?$AA@ 0046c104     DataBaseEngineSink.obj
 0002:00008110       ??_C@_1BE@CEOAGOPA@?$AAS?$AAe?$AAa?$AAt?$AAP?$AAh?$AAo?$AAn?$AAe?$AA?$AA@ 0046c110     DataBaseEngineSink.obj
 0002:00008124       ??_C@_1BI@HLBOINEL@?$AAM?$AAo?$AAb?$AAi?$AAl?$AAe?$AAP?$AAh?$AAo?$AAn?$AAe?$AA?$AA@ 0046c124     DataBaseEngineSink.obj
 0002:0000813c       ??_C@_1BM@MAPDBAMB@?$AAD?$AAw?$AAe?$AAl?$AAl?$AAi?$AAn?$AAg?$AAP?$AAl?$AAa?$AAc?$AAe?$AA?$AA@ 0046c13c     DataBaseEngineSink.obj
 0002:00008158       ??_C@_1BG@JABMBKAO@?$AAP?$AAo?$AAs?$AAt?$AAa?$AAl?$AAC?$AAo?$AAd?$AAe?$AA?$AA@ 0046c158     DataBaseEngineSink.obj
 0002:00008170       ??_C@_1BK@EILLNHOO@?$AAG?$AAr?$AAo?$AAu?$AAp?$AAI?$AAD?$AAA?$AAr?$AAr?$AAa?$AAy?$AA?$AA@ 0046c170     DataBaseEngineSink.obj
 0002:0000818c       ??_C@_1BG@JBEFOBDN@?$AAG?$AAr?$AAo?$AAu?$AAp?$AAS?$AAc?$AAo?$AAr?$AAe?$AA?$AA@ 0046c18c     DataBaseEngineSink.obj
 0002:000081a4       ??_C@_1O@HNEIIJNA@?$AAD?$AAi?$AAm?$AAa?$AAn?$AAd?$AA?$AA@ 0046c1a4     DataBaseEngineSink.obj
 0002:000081b4       ??_C@_1CC@PJEIGKEI@?$AAH?$AAi?$AAs?$AAt?$AAo?$AAr?$AAy?$AAK?$AAi?$AAn?$AAd?$AAI?$AAD?$AAW?$AAi?$AAn?$AA?$AA@ 0046c1b4     DataBaseEngineSink.obj
 0002:000081d8       ??_C@_1BC@BLJKLDLG@?$AAW?$AAi?$AAn?$AAC?$AAo?$AAu?$AAn?$AAt?$AA?$AA@ 0046c1d8     DataBaseEngineSink.obj
 0002:000081ec       ??_C@_1BE@FHDPFCOK@?$AAL?$AAo?$AAs?$AAt?$AAC?$AAo?$AAu?$AAn?$AAt?$AA?$AA@ 0046c1ec     DataBaseEngineSink.obj
 0002:00008200       ??_C@_1BE@KAKCJIN@?$AAD?$AAr?$AAa?$AAw?$AAC?$AAo?$AAu?$AAn?$AAt?$AA?$AA@ 0046c200     DataBaseEngineSink.obj
 0002:00008214       ??_C@_1BE@KEKHKFNG@?$AAF?$AAl?$AAe?$AAe?$AAC?$AAo?$AAu?$AAn?$AAt?$AA?$AA@ 0046c214     DataBaseEngineSink.obj
 0002:00008228       ??_C@_1BM@JONCAJOK@?$AAI?$AAn?$AAt?$AAe?$AAg?$AAr?$AAa?$AAl?$AAC?$AAo?$AAu?$AAn?$AAt?$AA?$AA@ 0046c228     DataBaseEngineSink.obj
 0002:00008244       ??_C@_1BA@BBKGNCFH@?$AAA?$AAg?$AAe?$AAn?$AAt?$AAI?$AAD?$AA?$AA@ 0046c244     DataBaseEngineSink.obj
 0002:00008254       ??_C@_1BI@NIOBFHNK@?$AAM?$AAa?$AAs?$AAt?$AAe?$AAr?$AAR?$AAi?$AAg?$AAh?$AAt?$AA?$AA@ 0046c254     DataBaseEngineSink.obj
 0002:0000826c       ??_C@_1BI@BENGBDCH@?$AAD?$AAa?$AAy?$AAP?$AAl?$AAa?$AAy?$AAT?$AAi?$AAm?$AAe?$AA?$AA@ 0046c26c     DataBaseEngineSink.obj
 0002:00008284       ??_C@_1CA@BPBHHFOA@?$AAD?$AAa?$AAy?$AAW?$AAi?$AAn?$AAL?$AAo?$AAs?$AAt?$AAS?$AAc?$AAo?$AAr?$AAe?$AA?$AA@ 0046c284     DataBaseEngineSink.obj
 0002:000082a4       ??_C@_1BG@ICLAKLHC@?$AAI?$AAn?$AAo?$AAu?$AAt?$AAI?$AAn?$AAd?$AAe?$AAx?$AA?$AA@ 0046c2a4     DataBaseEngineSink.obj
 0002:000082bc       ??_C@_1DC@EHPAIHBP@?$AAG?$AAS?$AAP?$AA_?$AAG?$AAR?$AA_?$AAQ?$AAu?$AAe?$AAr?$AAy?$AAU?$AAs?$AAe?$AAr?$AAG?$AAa?$AAm?$AAe?$AAD?$AAa?$AAt?$AAa?$AA?$AA@ 0046c2bc     DataBaseEngineSink.obj
 0002:000082f0       ??_C@_1BK@NPFMKOED@?$AAU?$AAs?$AAe?$AAr?$AAG?$AAa?$AAm?$AAe?$AAD?$AAa?$AAt?$AAa?$AA?$AA@ 0046c2f0     DataBaseEngineSink.obj
 0002:0000830c       ??_C@_0CK@GJNGIALF@CDataBaseEngineSink?3?3OnLogonDisp@ 0046c30c     DataBaseEngineSink.obj
 0002:00008338       ??_C@_1BG@HAJPMIFE@?$AA?$CF?$AAs?$AA?5?$AA?5?$AA?5?$AA?$CF?$AAs?$AA?5Q?z?$JF?$BJ?$AA?$AA@ 0046c338     DataBaseEngineSink.obj
 0002:00008350       ??_C@_0CF@NHCJNGHJ@CDataBaseEngineSink?3?3OnAILogonRe@ 0046c350     DataBaseEngineSink.obj
 0002:00008378       ??_C@_1FO@CIOELNA@?$AAp?$AAt?$AAd?$AAt?$AAa?$AAi?$AA?5?$AA?$CK?$AA?$CK?$AA?$CK?$AA?5?$AAO?$AAn?$AAR?$AAe?$AAq?$AAu?$AAe?$AAs?$AAt?$AAL?$AAo?$AAg?$AAo?$AAn?$AAA?$AAI?$AA?5Y?$AEt?$AG?$FL?$IMb?$BA@ 0046c378     DataBaseEngineSink.obj
 0002:000083d8       ??_C@_1BI@MBDDDCIF@?$AAS?$AAo?$AAu?$AAr?$AAc?$AAe?$AAS?$AAc?$AAo?$AAr?$AAe?$AA?$AA@ 0046c3d8     DataBaseEngineSink.obj
 0002:000083f0       ??_C@_1BK@IBHFEGMJ@?$AAS?$AAo?$AAu?$AAr?$AAc?$AAe?$AAI?$AAn?$AAs?$AAu?$AAr?$AAe?$AA?$AA@ 0046c3f0     DataBaseEngineSink.obj
 0002:0000840c       ??_C@_1BM@EPLHGJMJ@?$AAI?$AAn?$AAs?$AAu?$AAr?$AAe?$AAR?$AAe?$AAv?$AAe?$AAn?$AAu?$AAe?$AA?$AA@ 0046c40c     DataBaseEngineSink.obj
 0002:00008428       ??_C@_1BO@DCMLGJHA@?$AAV?$AAa?$AAr?$AAi?$AAa?$AAt?$AAi?$AAo?$AAn?$AAS?$AAc?$AAo?$AAr?$AAe?$AA?$AA@ 0046c428     DataBaseEngineSink.obj
 0002:00008448       ??_C@_1CA@BEAHCILF@?$AAV?$AAa?$AAr?$AAi?$AAa?$AAt?$AAi?$AAo?$AAn?$AAI?$AAn?$AAs?$AAu?$AAr?$AAe?$AA?$AA@ 0046c448     DataBaseEngineSink.obj
 0002:00008468       ??_C@_1BG@HCBFCOHE@?$AA?$EA?$AAd?$AAw?$AAT?$AAa?$AAb?$AAl?$AAe?$AAI?$AAD?$AA?$AA@ 0046c468     DataBaseEngineSink.obj
 0002:00008480       ??_C@_1BG@CAFEDGFJ@?$AA?$EA?$AAd?$AAw?$AAC?$AAh?$AAa?$AAi?$AAr?$AAI?$AAD?$AA?$AA@ 0046c480     DataBaseEngineSink.obj
 0002:00008498       ??_C@_1BI@CHAPOMKD@?$AA?$EA?$AAs?$AAz?$AAR?$AAo?$AAo?$AAm?$AAG?$AAU?$AAI?$AAD?$AA?$AA@ 0046c498     DataBaseEngineSink.obj
 0002:000084b0       ??_C@_1JI@OPJMMFBF@?$AAp?$AAt?$AAd?$AAt?$AAa?$AAi?$AA?5?$AA?$CK?$AA?$CK?$AA?$CK?$AA?$CK?$AA?5?$AAO?$AAn?$AAR?$AAe?$AAq?$AAu?$AAe?$AAs?$AAt?$AAW?$AAr?$AAi?$AAt?$AAe?$AAJ?$AAo?$AAi?$AAn?$AAI?$AAn@ 0046c4b0     DataBaseEngineSink.obj
 0002:00008548       ??_C@_1EC@HJHICPLH@?$AAG?$AAS?$AAP?$AA_?$AAG?$AAR?$AA_?$AAW?$AAr?$AAi?$AAt?$AAe?$AAP?$AAe?$AAr?$AAs?$AAo?$AAn?$AAa?$AAl?$AAR?$AAo?$AAo?$AAm?$AAJ?$AAo?$AAi?$AAn?$AAI?$AAn?$AAf?$AAo@ 0046c548     DataBaseEngineSink.obj
 0002:0000858c       ??_C@_0CM@MOMEALMP@CDataBaseEngineSink?3?3OnRequestWr@ 0046c58c     DataBaseEngineSink.obj
 0002:000085b8       ??_C@_1BO@MNBFBJBC@?$AA?$EA?$AAs?$AAz?$AAV?$AAi?$AAd?$AAe?$AAo?$AAN?$AAu?$AAm?$AAb?$AAe?$AAr?$AA?$AA@ 0046c5b8     DataBaseEngineSink.obj
 0002:000085d8       ??_C@_0CP@CHBEJABO@VideoPlayerInfo?5?$CK?$CK?$CK?$CK?$CK?5?V?$LE?P?P?P?$LE?5?$LC?N?S@ 0046c5d8     DataBaseEngineSink.obj
 0002:00008608       ??_C@_1DK@KNHPGDLI@?$AAG?$AAS?$AAP?$AA_?$AAG?$AAR?$AA_?$AAR?$AAe?$AAc?$AAo?$AAr?$AAd?$AAV?$AAi?$AAd?$AAe?$AAo?$AAP?$AAl?$AAa?$AAy?$AAe?$AAr?$AAI?$AAn?$AAf?$AAo?$AA?$AA@ 0046c608     DataBaseEngineSink.obj
 0002:00008644       ??_C@_0DD@LHPHFEEL@CDataBaseEngineSink?3?3OnRequestWr@ 0046c644     DataBaseEngineSink.obj
 0002:00008678       ??_C@_1BK@HOKHKNNJ@?$AA?$EA?$AAs?$AAz?$AAV?$AAi?$AAd?$AAe?$AAo?$AAD?$AAa?$AAt?$AAa?$AA?$AA@ 0046c678     DataBaseEngineSink.obj
 0002:00008694       ??_C@_0CJ@PDKCICIH@VideoData?5?$CK?$CK?$CK?$CK?$CK?5?V?$LE?P?P?P?$LE?5?$LC?N?S?k?S?N?O?$LH?5@ 0046c694     DataBaseEngineSink.obj
 0002:000086c0       ??_C@_1DG@LAKNEHDI@?$AAG?$AAS?$AAP?$AA_?$AAG?$AAR?$AA_?$AAR?$AAe?$AAc?$AAo?$AAr?$AAd?$AAV?$AAi?$AAd?$AAe?$AAo?$AAD?$AAa?$AAt?$AAa?$AAI?$AAn?$AAf?$AAo?$AA?$AA@ 0046c6c0     DataBaseEngineSink.obj
 0002:000086f8       ??_C@_0DB@PHLKNEOL@CDataBaseEngineSink?3?3OnRequestWr@ 0046c6f8     DataBaseEngineSink.obj
 0002:00008730       ??_C@_1GK@MMPHMNHM@?$AAp?$AAt?$AAd?$AAt?$AAa?$AAi?$AA?5?$AA?$CK?$AA?$CK?$AA?$CK?$AA?5?$AAO?$AAn?$AAR?$AAe?$AAq?$AAu?$AAe?$AAs?$AAt?$AAW?$AAr?$AAi?$AAt?$AAe?$AAG?$AAr?$AAo?$AAu?$AAp?$AAB?$AAa@ 0046c730     DataBaseEngineSink.obj
 0002:0000879c       ??_C@_1BK@DIGHMHCI@?$AA?$EA?$AAc?$AAb?$AAB?$AAi?$AAg?$AAW?$AAi?$AAn?$AAn?$AAe?$AAr?$AA?$AA@ 0046c79c     DataBaseEngineSink.obj
 0002:000087b8       ??_C@_1BI@EDNAEGKM@?$AA?$EA?$AAs?$AAy?$AAs?$AAE?$AAn?$AAd?$AAT?$AAi?$AAm?$AAe?$AA?$AA@ 0046c7b8     DataBaseEngineSink.obj
 0002:000087d0       ??_C@_1DE@PLCKKDML@?$AAG?$AAS?$AAP?$AA_?$AAG?$AAR?$AA_?$AAR?$AAe?$AAc?$AAo?$AAr?$AAd?$AAG?$AAr?$AAo?$AAu?$AAp?$AAR?$AAe?$AAv?$AAe?$AAn?$AAu?$AAe?$AA?$AA@ 0046c7d0     DataBaseEngineSink.obj
 0002:00008804       ??_C@_1BM@FHAGJGFJ@?$AA?$EA?$AAs?$AAz?$AAS?$AAe?$AAr?$AAv?$AAe?$AAr?$AAN?$AAa?$AAm?$AAe?$AA?$AA@ 0046c804     DataBaseEngineSink.obj
 0002:00008820       ??_C@_1BI@ODNEHJA@?$AA?$EA?$AAw?$AAD?$AAr?$AAa?$AAw?$AAC?$AAo?$AAu?$AAn?$AAt?$AA?$AA@ 0046c820     DataBaseEngineSink.obj
 0002:00008838       ??_C@_1BG@NPPIBCPE@?$AA?$EA?$AAd?$AAw?$AAO?$AAw?$AAn?$AAe?$AAr?$AAI?$AAD?$AA?$AA@ 0046c838     DataBaseEngineSink.obj
 0002:00008850       ??_C@_1BO@KMCLEOEG@?$AA?$EA?$AAd?$AAw?$AAB?$AAi?$AAg?$AAW?$AAi?$AAn?$AAn?$AAe?$AAr?$AAI?$AAD?$AA?$AA@ 0046c850     DataBaseEngineSink.obj
 0002:00008870       ??_C@_1BM@FGDGAKEL@?$AA?$EA?$AAl?$AAR?$AAo?$AAo?$AAm?$AAR?$AAe?$AAv?$AAe?$AAn?$AAu?$AAe?$AA?$AA@ 0046c870     DataBaseEngineSink.obj
 0002:0000888c       ??_C@_1BO@MAKMKIPM@?$AA?$EA?$AAS?$AAy?$AAs?$AAt?$AAe?$AAm?$AAT?$AAi?$AAm?$AAe?$AAE?$AAn?$AAd?$AA?$AA@ 0046c88c     DataBaseEngineSink.obj
 0002:000088b0       ??_C@_1KG@BAGLGEEJ@?$AAp?$AAt?$AAd?$AAt?$AAa?$AAi?$AA?5?$AA?$CK?$AA?$CK?$AA?$CK?$AA?5?$AAO?$AAn?$AAR?$AAe?$AAq?$AAu?$AAe?$AAs?$AAt?$AAW?$AAr?$AAi?$AAt?$AAe?$AAG?$AAr?$AAo?$AAu?$AAp?$AAB?$AAa@ 0046c8b0     DataBaseEngineSink.obj
 0002:00008958       ??_C@_1DG@DEALKICM@?$AAG?$AAS?$AAP?$AA_?$AAG?$AAR?$AA_?$AAR?$AAe?$AAc?$AAo?$AAr?$AAd?$AAG?$AAr?$AAo?$AAu?$AAp?$AAR?$AAo?$AAo?$AAm?$AAI?$AAn?$AAf?$AAo?$AA?$AA@ 0046c958     DataBaseEngineSink.obj
 0002:00008990       ??_C@_0DD@BFOALOOK@CDataBaseEngineSink?3?3OnRequestWr@ 0046c990     DataBaseEngineSink.obj
 0002:000089c4       ??_C@_1BG@LMEJJCAF@?5?$BM?$AA?$CF?$AAs?5?$BNj?$CBWWR?$KA?$IP?$HNY1?$IN?$CF?$AA?$AA@ 0046c9c4     DataBaseEngineSink.obj
 0002:000089dc       ??_C@_1CC@DBKAILEF@b?$HON?$ANR0?$HO?DN?vR?$BL?$FO?zQ?$PNep?5?$BM?$AA?$CF?$AAs?5?$BN?$AA?3?$AA?$CF?$AAd?$AA?$AA@ 0046c9dc     DataBaseEngineSink.obj
 0002:00008a00       ??_C@_1BO@HLLMCBHF@?$IM?$ADu?$CIQ?$PNep?5?$BM?$AA?$CF?$AAs?5?$BNu?$BPb?$BA?$FL?y?$IMaY1?$IN?$CF?$AA?$AA@ 0046ca00     DataBaseEngineSink.obj
 0002:00008a20       ??_C@_1BM@FLLBPNEC@u1N?$IO?5?$BM?$AA?$CF?$AAs?5?$BN?$PP?$AM?$HO?DN?vR?$BL?$FO?zY1?$IN?$CF?$AA?$AA@ 0046ca20     DataBaseEngineSink.obj
 0002:00008a3c       ??_C@_1DE@BMGKBGBP@?$HO?DN?vR?$BL?$FO?zQ?$PNep?5?$BM?$AA?$CF?$AAs?5?$BNN?$KHu?$BPg?$CKw?e_?$AC?$FO8?$JF?$BJ?$IL?o?$PP?$AM?$HO?DN?vR?$BL?$FO?zY1?$IN?$CF?$AA?$AA@ 0046ca3c     DataBaseEngineSink.obj
 0002:00008a94       ??_7CCriticalSection@@6B@  0046ca94     DBCorrespondManager.obj
 0002:00008ab8       ??_7IServiceModule@@6B@    0046cab8     DBCorrespondManager.obj
 0002:00008acc       ??_7IDBCorrespondManager@@6B@ 0046cacc     DBCorrespondManager.obj
 0002:00008af0       ??_7?$CList@PAUtagDBRequestHead@@ABQAU1@@@6B@ 0046caf0     DBCorrespondManager.obj
 0002:00008b08       ??_7?$CWHArray@KABK@@6B@   0046cb08     DBCorrespondManager.obj
 0002:00008b10       ??_7CDBCorrespondManager@@6B@ 0046cb10     DBCorrespondManager.obj
 0002:00008b30       ?BLOCK_SIZE@CDistributeNodePool@@2HB 0046cb30     DistributeManager.obj
 0002:00008b38       ??_7CDistributeManager@@6B@ 0046cb38     DistributeManager.obj
 0002:00008b40       ??_7?$CMap@KKPAVCGamePropertyTypeItem@NGamePropertyListManager@@AAPAV12@@@6B@ 0046cb40     GamePropertyListManager.obj
 0002:00008b58       ??_7?$CMap@KKPAVCGamePropertyRelatItem@NGamePropertyListManager@@AAPAV12@@@6B@ 0046cb58     GamePropertyListManager.obj
 0002:00008b70       ??_7?$CMap@KKPAVCGamePropertyItem@NGamePropertyListManager@@AAPAV12@@@6B@ 0046cb70     GamePropertyListManager.obj
 0002:00008b88       ??_7?$CMap@KKPAVCGamePropertySubItem@NGamePropertyListManager@@AAPAV12@@@6B@ 0046cb88     GamePropertyListManager.obj
 0002:00008ba0       ??_7?$CWHArray@PAVCGamePropertyTypeItem@NGamePropertyListManager@@ABQAV12@@@6B@ 0046cba0     GamePropertyListManager.obj
 0002:00008ba8       ??_7?$CWHArray@PAVCGamePropertyRelatItem@NGamePropertyListManager@@ABQAV12@@@6B@ 0046cba8     GamePropertyListManager.obj
 0002:00008bb0       ??_7?$CWHArray@PAVCGamePropertyItem@NGamePropertyListManager@@ABQAV12@@@6B@ 0046cbb0     GamePropertyListManager.obj
 0002:00008bb8       ??_7?$CWHArray@PAVCGamePropertySubItem@NGamePropertyListManager@@ABQAV12@@@6B@ 0046cbb8     GamePropertyListManager.obj
 0002:00008bc0       ??_7CGamePropertyListManager@NGamePropertyListManager@@6B@ 0046cbc0     GamePropertyListManager.obj
 0002:00008c50       ??_7CGameServerApp@@6B@    0046cc50     GameServer.obj
 0002:00008f04       ??_7?$CTempldateHelper@UIGameServiceManager@@@@6B@ 0046cf04     GameServerDlg.obj
 0002:00008f0c       ??_7CGameServiceManagerHelper@@6B@ 0046cf0c     GameServerDlg.obj
 0002:00008f14       ??_7IServiceUnitsSink@@6B@ 0046cf14     GameServerDlg.obj
 0002:00008f1c       ??_7CGameServerDlg@@6BCDialog@@@ 0046cf1c     GameServerDlg.obj
 0002:000090b4       ??_7CGameServerDlg@@6BIServiceUnitsSink@@@ 0046d0b4     GameServerDlg.obj
 0002:000090b8       ??_C@_1BM@NILCJG@?$AAE?$AAx?$AAc?$AAe?$AAp?$AAt?$AAi?$AAo?$AAn?$AA?4?$AAd?$AAm?$AAp?$AA?$AA@ 0046d0b8     GameServerDlg.obj
 0002:000090d4       ??_C@_1CA@OFKBHIFC@n8b?$APg?$ANR?$KBVh?$AA?5?$AA?9?$AA?9?$AA?5?$AA?$FL?$AA?5P?2kb?$AA?5?$AA?$FN?$AA?$AA@ 0046d0d4     GameServerDlg.obj
 0002:000090f4       ??_C@_1CO@CDOEIMCO@n8b?$APg?$ANR?$KBVhkcW?$CI?$IP?P?$IILN?9?$PP?$AM?$GA?$KIxn?$FL?$JO?$IJ?$IBQs?$JF?mg?$ANR?$KBVhT?$BH?$PP?$BP?$AA?$AA@ 0046d0f4     GameServerDlg.obj
 0002:00009124       ??_C@_1O@IJIFADAE@g?$ANR?$KBP?2kbb?$BAR?$JP?$AA?$AA@ 0046d124     GameServerDlg.obj
 0002:00009134       ??_C@_1BG@FOAKAJPP@kcW?$CIR?$BNY?KS?$BG?$HO?DN?v?$AA?4?$AA?4?$AA?4?$AA?$AA@ 0046d134     GameServerDlg.obj
 0002:0000914c       ??_C@_1O@BPIKNHON@g?$ANR?$KBT?1R?$KIb?$BAR?$JP?$AA?$AA@ 0046d14c     GameServerDlg.obj
 0002:0000915c       ??_C@_1BI@MFCHLPEI@?$AAS?$AAE?$AAR?$AAV?$AAE?$AAR?$AA_?$AAI?$AAC?$AAO?$AAN?$AA?$AA@ 0046d15c     GameServerDlg.obj
 0002:00009174       ??_C@_15NIMPECFC@P?2kb?$AA?$AA@ 0046d174     GameServerDlg.obj
 0002:0000917c       ??_C@_17JMINCHJF@R?$BNY?KS?$BG?$AA?$AA@ 0046d17c     GameServerDlg.obj
 0002:00009184       ??_C@_15FBFBMIIN@?$IP?P?$IIL?$AA?$AA@ 0046d184     GameServerDlg.obj
 0002:0000918c       ??_C@_1M@MEBHICEP@n8b?$APg?$ANR?$KBVh?$AA?$AA@ 0046d18c     GameServerDlg.obj
 0002:00009198       ??_C@_1DG@HHKENNFG@?$AA?$FL?$AA?5?$AA?$CF?$AAs?$AA?5?$AA?$FN?$AA?5?$AA?9?$AA?9?$AA?5?$AA?$FL?$AA?5?$AA?$CF?$AAs?$AA?5?$AA?$FN?$AA?5?$AA?9?$AA?9?$AA?5?$AA?$FL?$AA?5?$AA?$CF?$AAs?$AA?5?$AA?$FN?$AA?$AA@ 0046d198     GameServerDlg.obj
 0002:000091d0       ??_C@_19IJBIMOKG@?$IB?jR?$KI?$JA?$AC?$JBM?$AA?$AA@ 0046d1d0     GameServerDlg.obj
 0002:000091dc       ??_C@_1CA@BKPKMOOO@?$AA?$FL?$AA?5?$AA?$CF?$AAs?$AA?5?$AA?$FN?$AA?5b?$DP?$JF?tS?BepR?$KA?$IP?$HNb?$BAR?$JP?$AA?$AA@ 0046d1dc     GameServerDlg.obj
 0002:000091fc       ??_C@_1CA@EACKMOBP@b?$DP?$JF?t?$JBM?$HPnS?BepN?$AN?$FLXW?$CIb?$BG?$IA?$AFR?$KA?$IP?$HNY1?$IN?$CF?$AA?$AA@ 0046d1fc     GameServerDlg.obj
 0002:0000921c       ??_C@_1CO@JECIHIDO@?$AA?$CF?$AAs?$AA?2?$AAS?$AAe?$AAr?$AAv?$AAe?$AAr?$AAP?$AAa?$AAr?$AAa?$AAm?$AAe?$AAt?$AAe?$AAr?$AA?4?$AAi?$AAn?$AAi?$AA?$AA@ 0046d21c     GameServerDlg.obj
 0002:0000924c       ??_C@_1O@LIGBHIOD@?$AAD?$AAB?$AAP?$AAo?$AAr?$AAt?$AA?$AA@ 0046d24c     GameServerDlg.obj
 0002:0000925c       ??_C@_1BG@PJMMGEKF@?$AAP?$AAl?$AAa?$AAt?$AAf?$AAo?$AAr?$AAm?$AAD?$AAB?$AA?$AA@ 0046d25c     GameServerDlg.obj
 0002:00009274       ??_C@_1O@NNIDDADJ@?$AAD?$AAB?$AAA?$AAd?$AAd?$AAr?$AA?$AA@ 0046d274     GameServerDlg.obj
 0002:00009284       ??_C@_1O@EOOEPKDM@?$AAD?$AAB?$AAU?$AAs?$AAe?$AAr?$AA?$AA@ 0046d284     GameServerDlg.obj
 0002:00009294       ??_C@_1O@PLGAIBMN@?$AAD?$AAB?$AAP?$AAa?$AAs?$AAs?$AA?$AA@ 0046d294     GameServerDlg.obj
 0002:000092a4       ??_C@_1O@IOKJFLDO@?$AAD?$AAB?$AAN?$AAa?$AAm?$AAe?$AA?$AA@ 0046d2a4     GameServerDlg.obj
 0002:000092b4       ??_C@_0BJ@EBOMCPGB@CreateGameServiceManager?$AA@ 0046d2b4     GameServerDlg.obj
 0002:000092d0       ??_C@_1CK@FCGLNLEK@g?$ANR?$KB?$HO?DN?vN?$AN?$FLXW?$CIb?$BG?$IA?$AFR?$KA?$IP?$HNY1?$IN?$CF?$PP?$AM?$JBM?$HPnb?$DP?$JF?tY1?$IN?$CF?$AA?$AA@ 0046d2d0     GameServerDlg.obj
 0002:000092fc       ??_C@_1BM@KCDCOAID@?$AA?$FL?$AA?$CF?$AAs?$AA?$FN?$AA?5k?T?$IN?$FL?$JBM?$HPnR?$KA?$IP?$HNb?$BAR?$JP?$AA?$AA@ 0046d2fc     GameServerDlg.obj
 0002:00009318       ??_C@_19KDPAPKN@Qs?$JF?me?e_?W?$AA?$AA@ 0046d318     GameServerDlg.obj
 0002:00009324       ??_C@_19INGKDONB@_?$AAT?1e?e_?W?$AA?$AA@ 0046d324     GameServerDlg.obj
 0002:00009330       ??_C@_1CK@IAOAFHOF@g?$ANR?$KBkcW?$CI?$IP?P?$IILN?9?$PP?$AM?$HM?$PL?$HO?$NP?$IJ?$IBlBl?h?$JF?$AAV?$NO?$IL?$NN?$IL?wlBY1?$IN?$CF?$AA?$AA@ 0046d330     GameServerDlg.obj
 0002:0000935c       ??_C@_1BG@EPNOICJP@?$AA?1?$AAS?$AAe?$AAr?$AAv?$AAe?$AAr?$AAI?$AAD?$AA?3?$AA?$AA@ 0046d35c     GameServerDlg.obj
 0002:000093b8       ??_7CInitParameter@@6B@    0046d3b8     InitParameter.obj
 0002:000093bc       ??_C@_1BE@FGIIFIPG@?$AAA?$AAu?$AAt?$AAo?$AAS?$AAt?$AAa?$AAr?$AAt?$AA?$AA@ 0046d3bc     InitParameter.obj
 0002:000093d0       ??_C@_19NLLMBBJO@?$AAT?$AAi?$AAm?$AAe?$AA?$AA@ 0046d3d0     InitParameter.obj
 0002:000093dc       ??_C@_1BI@BGAAOEPC@?$AAS?$AAe?$AAr?$AAv?$AAi?$AAc?$AAe?$AAN?$AAa?$AAm?$AAe?$AA?$AA@ 0046d3dc     InitParameter.obj
 0002:000093f4       ??_C@_1BG@JDPLOEDD@?$AAS?$AAe?$AAr?$AAv?$AAe?$AAr?$AAI?$AAn?$AAf?$AAo?$AA?$AA@ 0046d3f4     InitParameter.obj
 0002:0000940c       ??_C@_1BI@EFCKIPPF@?$AAS?$AAe?$AAr?$AAv?$AAi?$AAc?$AAe?$AAA?$AAd?$AAd?$AAr?$AA?$AA@ 0046d40c     InitParameter.obj
 0002:00009424       ??_C@_1BI@CAMIMHCP@?$AAS?$AAe?$AAr?$AAv?$AAi?$AAc?$AAe?$AAP?$AAo?$AAr?$AAt?$AA?$AA@ 0046d424     InitParameter.obj
 0002:0000943c       ??_C@_1BG@EBJDKCKE@?$AAC?$AAo?$AAr?$AAr?$AAe?$AAs?$AAp?$AAo?$AAn?$AAd?$AA?$AA@ 0046d43c     InitParameter.obj
 0002:00009454       ??_C@_1BO@HHNINJKB@?$AAC?$AAo?$AAr?$AAr?$AAe?$AAs?$AAp?$AAo?$AAn?$AAd?$AAA?$AAd?$AAd?$AAr?$AA?$AA@ 0046d454     InitParameter.obj
 0002:00009474       ??_C@_1CO@MCLLELH@?$AAP?$AAe?$AAr?$AAs?$AAo?$AAn?$AAa?$AAl?$AAR?$AAo?$AAo?$AAm?$AAC?$AAo?$AAr?$AAr?$AAe?$AAs?$AAp?$AAo?$AAn?$AAd?$AA?$AA@ 0046d474     InitParameter.obj
 0002:000094a4       ??_C@_1DG@NHBIELHN@?$AAP?$AAe?$AAr?$AAs?$AAo?$AAn?$AAa?$AAl?$AAR?$AAo?$AAo?$AAm?$AAC?$AAo?$AAr?$AAr?$AAe?$AAs?$AAp?$AAo?$AAn?$AAd?$AAA?$AAd?$AAd?$AAr?$AA?$AA@ 0046d4a4     InitParameter.obj
 0002:000094dc       ??_C@_1BE@CJPPCOFH@?$AAL?$AAo?$AAg?$AAS?$AAe?$AAr?$AAv?$AAe?$AAr?$AA?$AA@ 0046d4dc     InitParameter.obj
 0002:000094f0       ??_C@_1BM@JPPOLJCD@?$AAL?$AAo?$AAg?$AAS?$AAe?$AAr?$AAv?$AAe?$AAr?$AAA?$AAd?$AAd?$AAr?$AA?$AA@ 0046d4f0     InitParameter.obj
 0002:0000950c       ??_C@_1CE@GFMBCIAH@?$AAA?$AAn?$AAd?$AAr?$AAo?$AAi?$AAd?$AAD?$AAi?$AAs?$AAt?$AAr?$AAi?$AAb?$AAu?$AAt?$AAe?$AA?$AA@ 0046d50c     InitParameter.obj
 0002:00009530       ??_C@_1CM@KHLKMEK@?$AAA?$AAn?$AAd?$AAr?$AAo?$AAi?$AAd?$AAD?$AAi?$AAs?$AAt?$AAr?$AAi?$AAb?$AAu?$AAt?$AAe?$AAA?$AAd?$AAd?$AAr?$AA?$AA@ 0046d530     InitParameter.obj
 0002:0000955c       ??_C@_1BG@BMFOGPEA@?$AAT?$AAr?$AAe?$AAa?$AAs?$AAu?$AAr?$AAe?$AAD?$AAB?$AA?$AA@ 0046d55c     InitParameter.obj
 0002:00009574       ??_C@_1CO@CLNPHLHE@?$AA?$CF?$AAs?$AA?2?$AAM?$AAo?$AAb?$AAi?$AAl?$AAe?$AAP?$AAa?$AAr?$AAa?$AAm?$AAe?$AAt?$AAe?$AAr?$AA?4?$AAi?$AAn?$AAi?$AA?$AA@ 0046d574     InitParameter.obj
 0002:000095a4       ??_C@_1DE@JCIBBFBN@g?$CKb?$HOR0?$AAM?$AAo?$AAb?$AAi?$AAl?$AAe?$AAP?$AAa?$AAr?$AAa?$AAm?$AAe?$AAt?$AAe?$AAr?$AA?4?$AAi?$AAn?$AAie?$IHN?v?$AA?$CB?$AA?$AA@ 0046d5a4     InitParameter.obj
 0002:000095d8       ??_C@_1CE@OGKPPJGB@?$AAV?$AAi?$AAs?$AAi?$AAb?$AAl?$AAe?$AAT?$AAa?$AAb?$AAl?$AAe?$AAC?$AAo?$AAu?$AAn?$AAt?$AA?$AA@ 0046d5d8     InitParameter.obj
 0002:000095fc       ??_C@_1CG@JGDFFIEE@?$AAE?$AAv?$AAe?$AAr?$AAy?$AAS?$AAe?$AAn?$AAd?$AAP?$AAa?$AAg?$AAe?$AAC?$AAo?$AAu?$AAn?$AAt?$AA?$AA@ 0046d5fc     InitParameter.obj
 0002:00009624       ??_C@_13BBDEGPLJ@?$AA?$CK?$AA?$AA@ 0046d624     SensitiveWordsFilter.obj
 0002:00009628       ??_C@_19BGBPOGGN@?$AA2?$AA5?$AAq?$AAp?$AA?$AA@ 0046d628     SensitiveWordsFilter.obj
 0002:00009634       ??_C@_19PGKPEHFN@?$AA2?$AA5?$PP1?$PP0?$AA?$AA@ 0046d634     SensitiveWordsFilter.obj
 0002:00009640       ??_C@_19JLPNGAKA@?$PP?$BC?$PP?$BF?$PP1?$PP0?$AA?$AA@ 0046d640     SensitiveWordsFilter.obj
 0002:0000964c       ??_C@_19DDJDIKLN@?$AA2?$AA5?$AAq?$PP0?$AA?$AA@ 0046d64c     SensitiveWordsFilter.obj
 0002:00009658       ??_C@_19NDCDCLIN@?$AA2?$AA5?$PP1?$AAp?$AA?$AA@ 0046d658     SensitiveWordsFilter.obj
 0002:00009664       ??_C@_1M@GOGAOBDP@?$AAf?$AAo?$AAx?$AAu?$AAc?$AA?$AA@ 0046d664     SensitiveWordsFilter.obj
 0002:00009674       ??_7?$CMap@GGPAVCGameTypeItem@NServerListManager@@AAPAV12@@@6B@ 0046d674     ServerListManager.obj
 0002:0000968c       ??_7?$CMap@GGPAVCGameKindItem@NServerListManager@@AAPAV12@@@6B@ 0046d68c     ServerListManager.obj
 0002:000096a4       ??_7?$CMap@GGPAVCGameNodeItem@NServerListManager@@AAPAV12@@@6B@ 0046d6a4     ServerListManager.obj
 0002:000096bc       ??_7?$CMap@GGPAVCGamePageItem@NServerListManager@@AAPAV12@@@6B@ 0046d6bc     ServerListManager.obj
 0002:000096d4       ??_7?$CMap@GGPAVCGameServerItem@NServerListManager@@AAPAV12@@@6B@ 0046d6d4     ServerListManager.obj
 0002:000096ec       ??_7?$CWHArray@PAVCGameTypeItem@NServerListManager@@ABQAV12@@@6B@ 0046d6ec     ServerListManager.obj
 0002:000096f4       ??_7?$CWHArray@PAVCGameKindItem@NServerListManager@@ABQAV12@@@6B@ 0046d6f4     ServerListManager.obj
 0002:000096fc       ??_7?$CWHArray@PAVCGameNodeItem@NServerListManager@@ABQAV12@@@6B@ 0046d6fc     ServerListManager.obj
 0002:00009704       ??_7?$CWHArray@PAVCGamePageItem@NServerListManager@@ABQAV12@@@6B@ 0046d704     ServerListManager.obj
 0002:0000970c       ??_7?$CWHArray@PAVCGameServerItem@NServerListManager@@ABQAV12@@@6B@ 0046d70c     ServerListManager.obj
 0002:00009714       ??_7CServerListManager@NServerListManager@@6B@ 0046d714     ServerListManager.obj
 0002:0000986c       ??_C@_15KNBIKKIN@?$AA?$CF?$AAd?$AA?$AA@ 0046d86c     ServiceUnits.obj
 0002:00009878       ??_7?$CTempldateHelper@UITimerEngine@@@@6B@ 0046d878     ServiceUnits.obj
 0002:00009880       ??_7CTimerEngineHelper@@6B@ 0046d880     ServiceUnits.obj
 0002:00009884       ??_C@_0BC@PLOLBCGN@CreateTimerEngine?$AA@ 0046d884     ServiceUnits.obj
 0002:0000989c       ??_7?$CTempldateHelper@UIDataBaseEngine@@@@6B@ 0046d89c     ServiceUnits.obj
 0002:000098a4       ??_7CDataBaseEngineHelper@@6B@ 0046d8a4     ServiceUnits.obj
 0002:000098a8       ??_C@_0BF@FHMKIOLL@CreateDataBaseEngine?$AA@ 0046d8a8     ServiceUnits.obj
 0002:000098c4       ??_7?$CTempldateHelper@UIAttemperEngine@@@@6B@ 0046d8c4     ServiceUnits.obj
 0002:000098cc       ??_7CAttemperEngineHelper@@6B@ 0046d8cc     ServiceUnits.obj
 0002:000098d0       ??_C@_0BF@PBPGMLEA@CreateAttemperEngine?$AA@ 0046d8d0     ServiceUnits.obj
 0002:000098ec       ??_7?$CTempldateHelper@UITCPSocketService@@@@6B@ 0046d8ec     ServiceUnits.obj
 0002:000098f4       ??_7CTCPSocketServiceHelper@@6B@ 0046d8f4     ServiceUnits.obj
 0002:000098f8       ??_C@_0BH@FPPDPKKP@CreateTCPSocketService?$AA@ 0046d8f8     ServiceUnits.obj
 0002:00009914       ??_7?$CTempldateHelper@UITCPNetworkEngine@@@@6B@ 0046d914     ServiceUnits.obj
 0002:0000991c       ??_7CTCPNetworkEngineHelper@@6B@ 0046d91c     ServiceUnits.obj
 0002:00009920       ??_C@_0BH@LEGJPFFH@CreateTCPNetworkEngine?$AA@ 0046d920     ServiceUnits.obj
 0002:0000993c       ??_7?$CTempldateHelper@UIMatchServiceManager@@@@6B@ 0046d93c     ServiceUnits.obj
 0002:00009944       ??_7CMatchServiceManagerHelper@@6B@ 0046d944     ServiceUnits.obj
 0002:00009948       ??_C@_0BK@LKNHFFBP@CreateMatchServiceManager?$AA@ 0046d948     ServiceUnits.obj
 0002:00009964       ??_C@_1CC@IFJAGMAK@?$AAM?$AAa?$AAt?$AAc?$AAh?$AAS?$AAe?$AAr?$AAv?$AAi?$AAc?$AAe?$AA?4?$AAd?$AAl?$AAl?$AA?$AA@ 0046d964     ServiceUnits.obj
 0002:0000998c       ??_7?$CTempldateHelper@UIPersonalRoomServiceManager@@@@6B@ 0046d98c     ServiceUnits.obj
 0002:00009994       ??_7CPersonalRoomServiceManagerHelper@@6B@ 0046d994     ServiceUnits.obj
 0002:00009998       ??_C@_0CB@MNMPKPAH@CreatePersonalRoomServiceManager@ 0046d998     ServiceUnits.obj
 0002:000099c0       ??_7CServiceUnits@@6B@     0046d9c0     ServiceUnits.obj
 0002:00009b2c       ??_C@_1CM@LLHMNMHO@?$IP?Xg?7s?$KJ?$FL?$LGW?$CIn8b?$APN?9?$PP?$AMf?1T?$CG?$JA?$BKw?en8b?$APN?9v?$IEs?$KJ?$FL?$LGQ?$JJR?$AG?$AA?$AA@ 0046db2c     ServiceUnits.obj
 0002:00009b58       ??_C@_1BC@OAHMGDOC@?$HO?$KGb?$BIg?$ANR?$KBT?1R?$KIY1?$IN?$CF?$AA?$AA@ 0046db58     ServiceUnits.obj
 0002:00009b6c       ??_C@_1BC@LMOMDMFM@e?e_?Wc?$KFS?cR?$BL?$FO?zY1?$IN?$CF?$AA?$AA@ 0046db6c     ServiceUnits.obj
 0002:00009b80       ??_C@_1DM@PBBOFFAI@n8b?$APj?$CBWWv?$IE?$HO?Q?$FL?$JK?$AA?5?$AAD?$AAL?$AAL?$AA?5T?$AN?$FLWN?$AO?$JBM?$HPnj?$CBWW?$AA?5?$AAD?$AAL?$AAL?$AA?5T?$AN?$FLWN?$ANN?$AA?$IB?t?$AA?$AA@ 0046db80     ServiceUnits.obj
 0002:00009bbc       ??_C@_1BK@JCPGEGJA@n8b?$APj?$CBWW?$IM?$ADet?$JBM?$HPnS?BepY1?$IN?$CF?$AA?$AA@ 0046dbbc     ServiceUnits.obj
 0002:00009bd8       ??_C@_1CI@DKKABHFJ@n8b?$APj?$CBWWN?$ANe?1c?$AB?$JBM?$HPnN?9c?$AH?$FL?$JKv?$IEb?$DP?$JF?tj?$CB_?$AP?$HM?$HLW?$IL?$AA?$AA@ 0046dbd8     ServiceUnits.obj
 0002:00009c00       ??_C@_1BA@OCHPIHOG@g?$CKR?$KA?$IP?$HNk?T?$IN?$FL?$JBM?$HPn?$AA?$AA@ 0046dc00     ServiceUnits.obj
 0002:00009c10       ??_C@_1O@PBJBFEBK@g?$ANR?$KBT?1R?$KIY1?$IN?$CF?$AA?$AA@ 0046dc10     ServiceUnits.obj
 0002:00009c20       ??_C@_1CC@LLMFFKOA@?$AA?$EA?$AAs?$AAt?$AAr?$AAD?$AAa?$AAt?$AAa?$AAB?$AAa?$AAs?$AAe?$AAA?$AAd?$AAd?$AAr?$AA?$AA@ 0046dc20     ServiceUnits.obj
 0002:00009c44       ??_C@_1DA@CBNJJLNC@?$AAG?$AAS?$AAP?$AA_?$AAG?$AAS?$AA_?$AAL?$AAo?$AAa?$AAd?$AAD?$AAa?$AAt?$AAa?$AAB?$AAa?$AAs?$AAe?$AAI?$AAn?$AAf?$AAo?$AA?$AA@ 0046dc44     ServiceUnits.obj
 0002:00009c74       ??_C@_1BM@ELLLKKHD@?$AAE?$AAr?$AAr?$AAo?$AAr?$AAD?$AAe?$AAs?$AAc?$AAr?$AAi?$AAb?$AAe?$AA?$AA@ 0046dc74     ServiceUnits.obj
 0002:00009c90       ??_C@_1BG@BHCCDNNO@?$AAD?$AAB?$AAP?$AAa?$AAs?$AAs?$AAw?$AAo?$AAr?$AAd?$AA?$AA@ 0046dc90     ServiceUnits.obj
 0002:00009ca8       ??_C@_1BE@FLKKJHC@?$AA?$CF?$AAs?$AA?2?$AA?$CF?$AAd?$AA?4?$AAi?$AAn?$AAi?$AA?$AA@ 0046dca8     ServiceUnits.obj
 0002:00009cbc       ??_C@_1BA@NPJPKIM@?$AAE?$AAn?$AAa?$AAb?$AAl?$AAe?$AAd?$AA?$AA@ 0046dcbc     ServiceUnits.obj
 0002:00009ccc       ??_C@_1O@PFBIKACK@?$AAE?$AAn?$AAa?$AAb?$AAl?$AAe?$AA?$AA@ 0046dccc     ServiceUnits.obj
 0002:00009ce0       ??_C@_1EC@JFOMMJIJ@?$AAG?$AAS?$AAP?$AA_?$AAG?$AAS?$AA_?$AAC?$AAl?$AAo?$AAs?$AAe?$AAR?$AAo?$AAo?$AAm?$AAW?$AAr?$AAi?$AAt?$AAe?$AAD?$AAi?$AAs?$AAs?$AAu?$AAm?$AAe?$AAT?$AAi?$AAm?$AAe@ 0046dce0     ServiceUnits.obj
 0002:00009d28       ??_C@_1FE@PGLGNMFK@?$AAC?$AAr?$AAe?$AAa?$AAt?$AAe?$AAG?$AAa?$AAm?$AAe?$AAS?$AAe?$AAr?$AAv?$AAe?$AAr?$AA?5R?$BL?$FO?z?$AA?5?$AAP?$AAl?$AAa?$AAt?$AAf?$AAo?$AAr?$AAm?$AAD?$AAB?$AAM?$AAo@ 0046dd28     ServiceUnits.obj
 0002:00009d7c       ??_C@_1CK@IFEAEOBG@?$AAG?$AAS?$AAP?$AA_?$AAG?$AAS?$AA_?$AAU?$AAn?$AAL?$AAo?$AAc?$AAk?$AA_?$AAS?$AAe?$AAr?$AAv?$AAe?$AAr?$AA?$AA@ 0046dd7c     ServiceUnits.obj
 0002:00009da8       ??_C@_0CA@JMANIIDP@CServiceUnits?3?3UnLockServerUser?$AA@ 0046dda8     ServiceUnits.obj
 0002:00009fa8       ??_7ITableFrame@@6B@       0046dfa8     TableFrame.obj
 0002:0000a10c       ??_7ICompilationSink@@6B@  0046e10c     TableFrame.obj
 0002:0000a11c       ??_7?$CWHArray@PAUIServerUserItem@@ABQAU1@@@6B@ 0046e11c     TableFrame.obj
 0002:0000a124       ??_7?$CWHArray@PAUtagGameScoreRecord@@ABQAU1@@@6B@ 0046e124     TableFrame.obj
 0002:0000a12c       ??_7?$CWHArray@PAUtagGroupScoreRecord@@ABQAU1@@@6B@ 0046e12c     TableFrame.obj
 0002:0000a134       ??_7?$CMap@KK_JAA_J@@6B@   0046e134     TableFrame.obj
 0002:0000a14c       ??_7CTableFrame@@6BITableFrame@@@ 0046e14c     TableFrame.obj
 0002:0000a328       ??_7CTableFrame@@6BICompilationSink@@@ 0046e328     TableFrame.obj
 0002:0000a338       ??_C@_1HM@JJMFPHNL@?$AAs?$AAt?$AAa?$AAr?$AAt?$AAg?$AAa?$AAm?$AAe?$AA?5?$AAu?$AAs?$AAe?$AAr?$AAi?$AAd?$AA?5?$AA?$DN?$AA?5?$AA?$CF?$AAd?$AA?5?$AAr?$AAo?$AAo?$AAm?$AAi?$AAd?$AA?5?$AA?$DN?$AA?5?$AA?$CF@ 0046e338     TableFrame.obj
 0002:0000a3b8       ??_C@_1IE@JEPMLDEK@?$AAp?$AAt?$AAd?$AAt?$AAa?$AAi?$AA?5?$AA?$CK?$AA?$CK?$AA?$CK?$AA?$CK?$AA?5g?$EAc?$IJ?$FL?$JKe?vVh?$AA?5?$AAI?$AAD?$AAI?$AA_?$AAP?$AAE?$AAR?$AAS?$AAO?$AAN?$AAA?$AAL?$AA_?$AAA@ 0046e3b8     TableFrame.obj
 0002:0000a440       ??_C@_1IE@BPFLIAKF@?$AAp?$AAt?$AAd?$AAt?$AAa?$AAi?$AA?5?$AA?$CK?$AA?$CK?$AA?$CK?$AA?$CK?$AA?5?$AAu?$AAs?$AAr?$AAi?$AAd?$AA?5?$AA?$DN?$AA?5?$AA?$CF?$AAd?$AA?5?$AAr?$AAo?$AAo?$AAm?$AAi?$AAd?$AA?5?$AA?$DN?$AA?5@ 0046e440     TableFrame.obj
 0002:0000a4c8       ??_C@_1GG@FMHIHADG@?$AAp?$AAt?$AAd?$AAt?$AAa?$AAi?$AAp?$AA?5?$AA?$CK?$AA?$CK?$AA?$CK?$AA?5?$AAC?$AAo?$AAn?$AAc?$AAl?$AAu?$AAd?$AAe?$AAG?$AAa?$AAm?$AAe?$AA?5?$AAg?$AAr?$AAo?$AAu?$AAp?$AAi?$AAd@ 0046e4c8     TableFrame.obj
 0002:0000a530       ??_C@_1DI@HHPFFBDJ@?$AAp?$AAt?$AAd?$AAt?$AAa?$AAi?$AA?5?$AA?$CK?$AA?$CK?$AA?$CK?$AA?$CK?$AA?5?$AAC?$AAo?$AAn?$AAc?$AAl?$AAu?$AAd?$AAe?$AAG?$AAa?$AAm?$AAe?$AA?5?$AA?5?$AA2?$AA?$AA@ 0046e530     TableFrame.obj
 0002:0000a568       ??_C@_1EI@PDOKHCOC@?$AAp?$AAt?$AAd?$AAt?$AAd?$AAt?$AA?5?$AA?$CK?$AA?$CK?$AA?$CK?$AA?$CK?$AA?5?$AAP?$AAe?$AAr?$AAf?$AAo?$AAr?$AAm?$AAS?$AAt?$AAa?$AAn?$AAd?$AAU?$AAp?$AAA?$AAc?$AAt?$AAi?$AAo?$AAn@ 0046e568     TableFrame.obj
 0002:0000a5b0       ??_C@_17DHDCGOJ@u1N?$IO?5?$BI?$AA?$AA@ 0046e5b0     TableFrame.obj
 0002:0000a5b8       ??_C@_1EI@OBFPNNAM@?$AAp?$AAt?$AAd?$AAt?$AAd?$AAt?$AA?5?$AA?$CK?$AA?$CK?$AA?$CK?$AA?$CK?$AA?5?$AAP?$AAe?$AAr?$AAf?$AAo?$AAr?$AAm?$AAS?$AAt?$AAa?$AAn?$AAd?$AAU?$AAp?$AAA?$AAc?$AAt?$AAi?$AAo?$AAn@ 0046e5b8     TableFrame.obj
 0002:0000a600       ??_C@_17BKOPMMHI@?$AA?0?$AA?$CF?$AAs?$AA?$AA@ 0046e600     TableFrame.obj
 0002:0000a608       ??_C@_1CO@MHAOECNI@u1N?$IO?$HM?$PL?$HO?$NP?$HO?tb?$KE?$PP?$AM_SRMn8b?$APhL?$FLPy?$IBkbu?$CIb7?$HO?g?$HO?mn8b?$AP?$PP?$AB?$AA?$AA@ 0046e608     TableFrame.obj
 0002:0000a638       ??_C@_1EI@FJODLKGJ@?$AAp?$AAt?$AAd?$AAt?$AAd?$AAt?$AA?5?$AA?$CK?$AA?$CK?$AA?$CK?$AA?$CK?$AA?5?$AAP?$AAe?$AAr?$AAf?$AAo?$AAr?$AAm?$AAS?$AAt?$AAa?$AAn?$AAd?$AAU?$AAp?$AAA?$AAc?$AAt?$AAi?$AAo?$AAn@ 0046e638     TableFrame.obj
 0002:0000a680       ??_C@_1EI@HMIIOFLF@?$AAp?$AAt?$AAd?$AAt?$AAd?$AAt?$AA?5?$AA?$CK?$AA?$CK?$AA?$CK?$AA?$CK?$AA?5?$AAP?$AAe?$AAr?$AAf?$AAo?$AAr?$AAm?$AAS?$AAt?$AAa?$AAn?$AAd?$AAU?$AAp?$AAA?$AAc?$AAt?$AAi?$AAo?$AAn@ 0046e680     TableFrame.obj
 0002:0000a6c8       ??_C@_1CG@LPCLDCDM@?$AA?8v?$IER?Kz?$OA?2?$BBN?$IO?$AA?$CF?$AAI?$AA6?$AA4?$AAd?$PP?$AMb?$DP?$JF?t?$IB?jR?$KI?$IJ?cec?$AA?$AA@ 0046e6c8     TableFrame.obj
 0002:0000a6f0       ??_C@_1DK@FNLPCLML@?$AAp?$AAt?$AAd?$AAt?$AAa?$AAi?$AA?5?$AA?$CK?$AA?$CK?$AA?$CK?$AA?$CK?$AA?5?$AA?5?$AAO?$AAn?$AAE?$AAv?$AAe?$AAn?$AAt?$AAG?$AAa?$AAm?$AAe?$AAE?$AAn?$AAd?$AA?5?$AA?$AA@ 0046e6f0     TableFrame.obj
 0002:0000a730       ??_C@_1FA@BEHJFJJ@?$AAp?$AAt?$AAd?$AAt?$AAa?$AAi?$AA?5?$AA?$CK?$AA?$CK?$AA?$CK?$AA?$CK?$AA?5?$AA?5?$AAO?$AAn?$AAE?$AAv?$AAe?$AAn?$AAt?$AAG?$AAa?$AAm?$AAe?$AAE?$AAn?$AAd?$AA?5?$AAr?$AAo?$AAo?$AAm@ 0046e730     TableFrame.obj
 0002:0000a780       ??_C@_1EC@DCKAGAKD@?$AAp?$AAt?$AAd?$AAt?$AAd?$AAt?$AA?5?$AA?$CK?$AA?$CK?$AA?$CK?$AA?5?$INwz?K?$AA?5?$AA3?$AA?5?$AAu?$AAs?$AAe?$AAr?$AAi?$AAd?$AA?5?$AA?$DN?$AA?5?$AA?$CF?$AAd?$AA?5N?3zzr?$LG?$GA?$AB@ 0046e780     TableFrame.obj
 0002:0000a7c8       ??_C@_1EI@GODNEKFL@?$AAp?$AAt?$AAd?$AAt?$AAd?$AAt?$AA?5?$AA?$CK?$AA?$CK?$AA?$CK?$AA?$CK?$AA?5?$AAP?$AAe?$AAr?$AAf?$AAo?$AAr?$AAm?$AAS?$AAt?$AAa?$AAn?$AAd?$AAU?$AAp?$AAA?$AAc?$AAt?$AAi?$AAo?$AAn@ 0046e7c8     TableFrame.obj
 0002:0000a810       ??_C@_1FM@KEKOBEFG@?$AAp?$AAt?$AAd?$AAt?$AAa?$AAi?$AA?5?$AA?$CK?$AA?$CK?$AA?$CK?$AA?5?$IL?$LO?$HPn?$IB?jR?$KIQ?FY?$AHe?v?$JF?t?$AA?5?$AAm?$AA_?$AAd?$AAw?$AAP?$AAe?$AAr?$AAs?$AAo?$AAn?$AAa?$AAl@ 0046e810     TableFrame.obj
 0002:0000a870       ??_C@_1FI@JLMCPLII@?$AAp?$AAt?$AAd?$AAt?$AAa?$AAi?$AA?5?$AA?$CK?$AA?$CK?$AA?$CK?$AA?5?$IL?$LO?$HPn?$IB?jR?$KIQ?FY?$AHe?v?$JF?t?$AA?5?$AAm?$AA_?$AAw?$AAA?$AAu?$AAt?$AAo?$AAR?$AAe?$AAa?$AAd?$AAy@ 0046e870     TableFrame.obj
 0002:0000a8c8       ??_C@_1DI@BEMOKLMJ@?$AA?$FL?$AA?5?$AA?$CF?$AAs?$AA?5?$AA?$FN?$AA?5O?$HPu?$CIN?$IG?$AA?$FL?$AA?5V?$NLP?$ANy?oR?$AGSa?$AA?5?$AA?$FN?$PP?$AM_?$JHR?$AG?$HP?$PLV?$NLP?$AN?$PP?$AB?$AA?$CJ?$AA?$AA@ 0046e8c8     TableFrame.obj
 0002:0000a900       ??_C@_1DE@MCKKDNLE@?$AA?$FL?$AA?5?$AA?$CF?$AAs?$AA?5?$AA?$FN?$AA?5O?$HPu?$CIN?$IG?$AA?$FL?$AA?5S?LP?$ANy?oR?$AGSa?$AA?5?$AA?$FN?$PP?$AM_?$JHR?$AG?$HP?$PLP?$AN?$PP?$AB?$AA?$AA@ 0046e900     TableFrame.obj
 0002:0000a934       ??_C@_1DC@BHKBAEOD@?$AA?$FL?$AA?5?$AA?$CF?$AAs?$AA?5?$AA?$FN?$AA?5O?$HPu?$CIN?$IG?$AA?$FL?$AA?5b?$KE?$IO?$KL?$HL?$CGSa?$AA?5?$AA?$FN?$PP?$AMy?oR?$AGN?$ANS?X?$PP?$AB?$AA?$AA@ 0046e934     TableFrame.obj
 0002:0000a968       ??_C@_1MC@GEDPCEDB@?$AAp?$AAt?$AAd?$AAt?$AAa?$AAi?$AA?5?$AA?$CL?$AA?$CL?$AA?$CL?$AA?$CL?$AA?$CL?$AA?$CL?$AA?$CL?$AA?$CL?$AA?$CL?$AA?$CL?$AA?$CL?$AA?5?$AAW?$AAr?$AAi?$AAt?$AAe?$AAU?$AAs?$AAe?$AAr?$AAS?$AAc?$AAo?$AAr@ 0046e968     TableFrame.obj
 0002:0000aa30       ??_C@_1MA@BCMECJNG@?$AAp?$AAt?$AAd?$AAt?$AAa?$AAi?$AA?5?$AA?$CL?$AA?$CL?$AA?$CL?$AA?$CL?$AA?$CL?$AA?$CL?$AA?$CL?$AA?$CL?$AA?$CL?$AA?$CL?$AA?$CL?$AA?5?$AAW?$AAr?$AAi?$AAt?$AAe?$AAU?$AAs?$AAe?$AAr?$AAS?$AAc?$AAo?$AAr@ 0046ea30     TableFrame.obj
 0002:0000aaf0       ??_C@_1DE@HPHOGJGK@n8b?$APg?$ANQ?$JJR?$AG?$JA?$BKw?eY?8?$IATv?$NP?$AA?$CF?$AAds?$KJ?$FL?$LG?$AA?$CF?$AAd?$AA?0R?$AGep?$AA?$CF?$AAI?$AA6?$AA4?$AAd?$AA?6?$AA?$AA@ 0046eaf0     TableFrame.obj
 0002:0000ab24       ??_C@_1BI@GBHIFIAE@Y?8?$IATv?$NP?$IL?$LA_U?$FL?y?$IMaR?$BL?$FO?zY1?$IN?$CF?$AA?$AA@ 0046eb24     TableFrame.obj
 0002:0000ab40       ??_C@_1NA@BJBFIOGF@?$AAp?$AAt?$AAd?$AAt?$AAa?$AAi?$AA?5?$AA?$CL?$AA?$CL?$AA?$CL?$AA?$CL?$AA?$CL?$AA?$CL?$AA?$CL?$AA?$CL?$AA?$CL?$AA?$CL?$AA?$CL?$AA?5?$AAW?$AAr?$AAi?$AAt?$AAe?$AAU?$AAs?$AAe?$AAr?$AAS?$AAc?$AAo?$AAr@ 0046eb40     TableFrame.obj
 0002:0000ac10       ??_C@_1BG@FLKPFMIO@n8b?$AP?$IL?$LA_U?$FL?y?$IMaR?$BL?$FO?zY1?$IN?$CF?$AA?$AA@ 0046ec10     TableFrame.obj
 0002:0000ac28       ??_C@_1GE@FKMFFBCC@?$AAp?$AAt?$AAd?$AAt?$AA?5?$AA?$CK?$AA?$CK?$AA?$CK?$AA?5?$AAl?$AAS?$AAe?$AAr?$AAv?$AAi?$AAc?$AAe?$AAF?$AAa?$AAt?$AAe?$AA?5?$AA?$DN?$AA?5?$AA?$CF?$AAI?$AA6?$AA4?$AAd?$AA?5?$AA?5?$AAl@ 0046ec28     TableFrame.obj
 0002:0000ac90       ??_C@_1GA@FIMAMFNL@?$AAp?$AAt?$AAd?$AAt?$AAd?$AAt?$AA?5?$AA?$CK?$AA?$CK?$AA?$CK?$AA?5n8b?$APg?$ANR?$KBVhS?Q?$JA?$ABm?$II?$GAo?$AA?5?$AAm?$AAa?$AAi?$AAn?$AAI?$AAD?$AA?5?$AA?$DN?$AA?5?$AA?$CF?$AAd@ 0046ec90     TableFrame.obj
 0002:0000acf0       ??_C@_1EI@KGDJDIJI@?$AAp?$AAt?$AAd?$AAt?$AAd?$AAt?$AA?5?$AA?$CK?$AA?$CK?$AA?$CK?$AA?5n8b?$APg?$ANR?$KBVhS?Q?$JA?$ABm?$II?$GAo?$AA?5?$AAw?$AAS?$AAu?$AAb?$AAC?$AAm?$AAd?$AAI?$AAD?$AA?5?$AA?$DN@ 0046ecf0     TableFrame.obj
 0002:0000ad38       ??_C@_1JE@IGHKJBGK@?$AAp?$AAt?$AAd?$AAt?$AAd?$AAt?$AA?5?$AA?$CK?$AA?$CK?$AA?$CK?$AA?5?$AAS?$AAe?$AAn?$AAd?$AAL?$AAo?$AAo?$AAk?$AAo?$AAn?$AAD?$AAa?$AAt?$AAa?$AA?5e?A?$IJ?Bs?$KJ?$FL?$LG?$AA?5?$AAu@ 0046ed38     TableFrame.obj
 0002:0000add0       ??_C@_1JG@IIEHMAKC@?$AAp?$AAt?$AAd?$AAt?$AAd?$AAt?$AA?5?$AA?$CK?$AA?$CK?$AA?$CK?$AA?5?$AAS?$AAe?$AAn?$AAd?$AAL?$AAo?$AAo?$AAk?$AAo?$AAn?$AAD?$AAa?$AAt?$AAa?$AA?5e?A?$IJ?Bs?$KJ?$FL?$LG?$AA?5?$AAu@ 0046edd0     TableFrame.obj
 0002:0000ae68       ??_C@_1HE@CEIKPEAA@?$AAp?$AAt?$AAd?$AAt?$AAd?$AAt?$AA?5?$AA?$CK?$AA?$CK?$AA?$CK?$AA?5?$AA?$CK?$AA?$CK?$AA?$CK?$AA?$CK?$AA?$CK?$AA?$CK?$AA?$CK?$AA?$CK?$AA?$CK?$AA?$CK?$AA?$CK?$AA?$CK?$AA?$CK?$AA?5?$HO?Y?$AA?5?$AAu?$AAs?$AAe?$AAr?$AAi@ 0046ee68     TableFrame.obj
 0002:0000aedc       ??_C@_1CC@MMCFFHJI@b?$LBkI?$PP?$AM_SRMn8b?$APb?$DP?$JF?ty?$IBkbn8b?$AP?$IAJY?$CJ?$PP?$AB?$AA?$AA@ 0046eedc     TableFrame.obj
 0002:0000af00       ??_C@_1DO@CLEGOOPM@b?$LBkI?$PP?$AM?$GA?$KIl?$KBg?7n8b?$AP?$IAJY?$CJv?$IEgC?$JGP?$PP?$AM?$IC?e?$JH?$AA?$IJ?$IB?$FO?4R?$KJ?$PP?$AM?$IL?w?$IAT?$HM?$PLn8b?$AP?$FL?$KCg?$ANT?$KI?$IL?b?$PP?$AB?$AA?$AA@ 0046ef00     TableFrame.obj
 0002:0000af40       ??_C@_1GC@MPCECLGC@?$AAp?$AAt?$AAd?$AAt?$AA?5?$AA?$CK?$AA?$CK?$AA?$CK?$AA?5?$AAw?$AAC?$AAh?$AAa?$AAi?$AAr?$AAI?$AAD?$AA?5?$AA?$DN?$AA?5?$AA?$CF?$AAd?$AA?0?$AA?5?$AAU?$AAs?$AAe?$AAr?$AAI?$AAD?$AA?5?$AA?$DN@ 0046ef40     TableFrame.obj
 0002:0000afa8       ??_C@_1GC@LNNOGPBM@?$AAp?$AAt?$AAd?$AAt?$AAd?$AAt?$AA?5?$AA?$CK?$AA?$CK?$AA?$CK?$AA?5?$AAO?$AAn?$AAE?$AAv?$AAe?$AAn?$AAt?$AAU?$AAs?$AAe?$AAr?$AAO?$AAf?$AAf?$AAL?$AAi?$AAn?$AAe?$AA?5?$AAu?$AAs@ 0046efa8     TableFrame.obj
 0002:0000b010       ??_C@_1EI@NGIBCNDO@?$AAp?$AAt?$AAd?$AAt?$AAd?$AAt?$AA?5?$AA?$CK?$AA?$CK?$AA?$CK?$AA?$CK?$AA?5?$AAP?$AAe?$AAr?$AAf?$AAo?$AAr?$AAm?$AAS?$AAt?$AAa?$AAn?$AAd?$AAU?$AAp?$AAA?$AAc?$AAt?$AAi?$AAo?$AAn@ 0046f010     TableFrame.obj
 0002:0000b058       ??_C@_1EI@IOOCDNGI@?$AAp?$AAt?$AAd?$AAt?$AAd?$AAt?$AA?5?$AA?$CK?$AA?$CK?$AA?$CK?$AA?$CK?$AA?5?$AAP?$AAe?$AAr?$AAf?$AAo?$AAr?$AAm?$AAS?$AAt?$AAa?$AAn?$AAd?$AAU?$AAp?$AAA?$AAc?$AAt?$AAi?$AAo?$AAn@ 0046f058     TableFrame.obj
 0002:0000b0a0       ??_C@_1CO@NNMJFOCC@?$AAp?$AAt?$AAd?$AAt?$AAa?$AAi?$AA?5?$AA?$CK?$AA?$CK?$AA?$CK?$AA?5e?v?$JF?tR0?$AA?5?$IB?jR?$KI?$AA?5_?$AAY?Kn8b?$AP?$AA?$AA@ 0046f0a0     TableFrame.obj
 0002:0000b0d0       ??_C@_1GG@FFGJPGPA@?$AAp?$AAt?$AAd?$AAt?$AAa?$AAi?$AA?5?$AA?$CK?$AA?$CK?$AA?$CK?$AA?5?$AAI?$AAD?$AAI?$AA_?$AAA?$AAU?$AAT?$AAO?$AA_?$AAR?$AAE?$AAA?$AAD?$AAY?$AA_?$AAT?$AAI?$AAM?$AAE?$AA?5?$IB?j@ 0046f0d0     TableFrame.obj
 0002:0000b138       ??_C@_1HM@NKFIPJKG@?$AAp?$AAt?$AAd?$AAt?$AAa?$AAi?$AA?5?$AA?$CK?$AA?$CK?$AA?$CK?$AA?5?$AAO?$AAn?$AAE?$AAv?$AAe?$AAn?$AAt?$AAS?$AAo?$AAc?$AAk?$AAe?$AAt?$AAF?$AAr?$AAa?$AAm?$AAe?$AA?5?$AA2?$AA?5@ 0046f138     TableFrame.obj
 0002:0000b1b8       ??_C@_1EI@DGFOFKAN@?$AAp?$AAt?$AAd?$AAt?$AAd?$AAt?$AA?5?$AA?$CK?$AA?$CK?$AA?$CK?$AA?$CK?$AA?5?$AAP?$AAe?$AAr?$AAf?$AAo?$AAr?$AAm?$AAS?$AAt?$AAa?$AAn?$AAd?$AAU?$AAp?$AAA?$AAc?$AAt?$AAi?$AAo?$AAn@ 0046f1b8     TableFrame.obj
 0002:0000b200       ??_C@_1EK@HFMEIJCG@?$AAp?$AAt?$AAd?$AAt?$AAa?$AAi?$AA?5?$AA?$CK?$AA?$CK?$AA?$CK?$AA?$CK?$AA?5?$AAP?$AAe?$AAr?$AAf?$AAo?$AAr?$AAm?$AAS?$AAt?$AAa?$AAn?$AAd?$AAU?$AAp?$AAA?$AAc?$AAt?$AAi?$AAo?$AAn@ 0046f200     TableFrame.obj
 0002:0000b250       ??_C@_1FO@OBHDGMPC@?$AAp?$AAt?$AAd?$AAt?$AAa?$AAi?$AAs?$AA?5?$AA?$CK?$AA?$CK?$AA?$CK?$AA?$CK?$AA?5?$AA?5?$AAI?$AAD?$AAI?$AA_?$AAP?$AAE?$AAR?$AAS?$AAO?$AAN?$AAA?$AAL?$AA_?$AAB?$AAE?$AAF?$AAO?$AAR@ 0046f250     TableFrame.obj
 0002:0000b2b0       ??_C@_1JC@EPFKKOBC@?$AAp?$AAt?$AAd?$AAt?$AAa?$AAi?$AA?5?$AA?$CK?$AA?$CK?$AA?$CK?$AA?$CK?$AA?5?$AA?5?$AAI?$AAD?$AAI?$AA_?$AAP?$AAE?$AAR?$AAS?$AAO?$AAN?$AAA?$AAL?$AA_?$AAB?$AAE?$AAF?$AAO?$AAR?$AAE@ 0046f2b0     TableFrame.obj
 0002:0000b348       ??_C@_1EM@GCCFBNCK@?$AAp?$AAt?$AAd?$AAt?$AAa?$AAi?$AA?5?$AA?$CK?$AA?$CK?$AA?$CK?$AA?$CK?$AA?5?$AAP?$AAe?$AAr?$AAf?$AAo?$AAr?$AAm?$AAS?$AAt?$AAa?$AAn?$AAd?$AAU?$AAp?$AAA?$AAc?$AAt?$AAi?$AAo?$AAn@ 0046f348     TableFrame.obj
 0002:0000b398       ??_C@_1EO@PDAANIOH@?$AAp?$AAt?$AAd?$AAt?$AAa?$AAi?$AA?5?$AA?$CK?$AA?$CK?$AA?$CK?$AA?5g?$CK_?$AAY?K?$IN?$IFe?v?$IJ?cec?$AA?5?$AAu?$AAs?$AAe?$AAr?$AAi?$AAd?$AA?5?$AA?$DN?$AA?5?$AA?$CF?$AAd?$AA?5N?3@ 0046f398     TableFrame.obj
 0002:0000b3e8       ??_C@_1HE@ENFLKKJ@?$AAp?$AAt?$AAd?$AAt?$AAa?$AAi?$AAs?$AA?5?$AA?$CK?$AA?$CK?$AA?$CK?$AA?$CK?$AA?5?$AA?5?$AAI?$AAD?$AAI?$AA_?$AAP?$AAE?$AAR?$AAS?$AAO?$AAN?$AAA?$AAL?$AA_?$AAA?$AAF?$AAT?$AAE?$AAR@ 0046f3e8     TableFrame.obj
 0002:0000b460       ??_C@_1IM@LGFEEPND@?$AAp?$AAt?$AAd?$AAt?$AAa?$AAi?$AAs?$AA?5?$AA?$CK?$AA?$CK?$AA?$CK?$AA?$CK?$AA?5?$AA?5?$AAI?$AAD?$AAI?$AA_?$AAP?$AAE?$AAR?$AAS?$AAO?$AAN?$AAA?$AAL?$AA_?$AAA?$AAF?$AAT?$AAE?$AAR@ 0046f460     TableFrame.obj
 0002:0000b4ec       ??_C@_1CE@FEACJFIF@?$AAp?$AAt?$AAd?$AAt?$AAd?$AAt?$AA?5?$AA?$CK?$AA?$CK?$AA?$CK?$AA?5e6R0W?3fom?$II?$GAo?$AA?$AA@ 0046f4ec     TableFrame.obj
 0002:0000b510       ??_C@_1EG@COJHLNBC@?$AAp?$AAt?$AAd?$AAt?$AAd?$AAt?$AA?5?$AA?$CK?$AA?$CK?$AA?$CK?$AA?$CK?$AA?5?$AAS?$AAe?$AAn?$AAd?$AAR?$AAe?$AAq?$AAu?$AAe?$AAs?$AAt?$AAF?$AAa?$AAi?$AAl?$AAu?$AAr?$AAe?$AA?5?$AA?5@ 0046f510     TableFrame.obj
 0002:0000b558       ??_C@_1BK@KMFOIPJN@b?$DP?$JF?t?$IP?Xg?$CKR?$BL?$FO?z?$PP?$AMe?$OAl?U?$IP?$NLQe?$PP?$AB?$AA?$AA@ 0046f558     TableFrame.obj
 0002:0000b574       ??_C@_1O@JBLOHPJD@b?$DP?$JF?t?$FN?r?$HO?O?$IJ?cec?$AA?$AA@ 0046f574     TableFrame.obj
 0002:0000b584       ??_C@_1CI@EHCDPJEL@k?$CC?$IP?N?$GA?$KI?$IP?$NLQe?5?$BM?$AA?$CF?$AAs?5?$BNn8b?$AP?$PP?$AMy?$FN?$GA?$KIn8b?$APa?7_?k?$PP?$AB?$AA?$AA@ 0046f584     TableFrame.obj
 0002:0000b5b0       ??_C@_1EA@DDEONGAF@?$AAp?$AAt?$AAd?$AAt?$AAd?$AAt?$AA?5?$AA?$CK?$AA?$CK?$AA?$CK?$AA?5?$AAO?$AAn?$AAE?$AAv?$AAe?$AAn?$AAt?$AAS?$AAo?$AAc?$AAk?$AAe?$AAt?$AAF?$AAr?$AAa?$AAm?$AAe?$AA?5?$AA3?$AA?$AA@ 0046f5b0     TableFrame.obj
 0002:0000b5f0       ??_C@_1EC@POBLICPF@?$AAp?$AAt?$AAd?$AAt?$AAa?$AAi?$AA?5?$AA?$CK?$AA?$CK?$AA?$CK?$AA?5?$AAu?$AAs?$AAe?$AAr?$AAi?$AAd?$AA?5?$AA?$DN?$AA?5?$AA?$CF?$AAd?$AA?5Q?FY?$AH?$AA?5n8b?$AP?$FN?r?$HO?O_?$AAY?K@ 0046f5f0     TableFrame.obj
 0002:0000b634       ??_C@_1DK@HOLIOGKH@?$AAp?$AAt?$AAd?$AAt?$AAa?$AAi?$AA?5?$AA?$CK?$AA?$CK?$AA?$CK?$AA?5?$AAu?$AAs?$AAe?$AAr?$AAi?$AAd?$AA?5?$AA?$DN?$AA?5?$AA?$CF?$AAd?$AA?5s?$KJ?$FL?$LGN?$ANN?$AA?$IB?t?$AA?$AA@ 0046f634     TableFrame.obj
 0002:0000b670       ??_C@_1DE@HNJOEALM@?$AAp?$AAt?$AAd?$AAt?$AAa?$AAi?$AA?5?$AA?$CK?$AA?$CK?$AA?$CK?$AA?5?$AAu?$AAs?$AAe?$AAr?$AAi?$AAd?$AA?5?$AA?$DN?$AA?5?$AA?$CF?$AAd?$AA?5Q?FY?$AH?$AA?$AA@ 0046f670     TableFrame.obj
 0002:0000b6a8       ??_C@_1GG@GEALKDFB@?$AAp?$AAt?$AAd?$AAt?$AAa?$AAi?$AA?5?$AA?$CK?$AA?$CK?$AA?$CK?$AA?5?$AAu?$AAs?$AAe?$AAr?$AAi?$AAd?$AA?5?$AA?$DN?$AA?5?$AA?$CF?$AAd?$AA?5s?$KJ?$FL?$LGN?$ANf?1?$AAs?$AAi?$AAtr?$LG?$GA?$AB@ 0046f6a8     TableFrame.obj
 0002:0000b710       ??_C@_1EC@KHEAGHPA@?$AAp?$AAt?$AAd?$AAt?$AAa?$AAi?$AA?5?$AA?$CK?$AA?$CK?$AA?$CK?$AA?5?$AAu?$AAs?$AAe?$AAr?$AAi?$AAd?$AA?5?$AA?$DN?$AA?5?$AA?$CF?$AAd?$AA?5Q?FY?$AH?$AA?5b?$DP?$JF?t?$FN?r?$HO?O?$IJ?cec@ 0046f710     TableFrame.obj
 0002:0000b758       ??_C@_1EK@JKNEONFA@?$AAp?$AAt?$AAd?$AAt?$AAd?$AAt?$AA?5?$AA?$CK?$AA?$CK?$AA?$CK?$AA?$CK?$AA?5?$AAP?$AAe?$AAr?$AAf?$AAo?$AAr?$AAm?$AAS?$AAt?$AAa?$AAn?$AAd?$AAU?$AAp?$AAA?$AAc?$AAt?$AAi?$AAo?$AAn@ 0046f758     TableFrame.obj
 0002:0000b7a4       ??_C@_1CK@CIHLMPCM@?$GA?$KIv?$IER?Kz?$OA?2?$BBN?$IO?$AA?5?$AA?$CF?$AAI?$AA6?$AA4?$AAd?$PP?$AMN?$AN?$IA?$PN?$HO?g?$HO?mn8b?$AP?$PP?$AB?$AA?$AA@ 0046f7a4     TableFrame.obj
 0002:0000b7d0       ??_C@_1LK@HHGJBLEC@?$AAp?$AAt?$AAd?$AAt?$AAa?$AAi?$AA?5?$AA?$CK?$AA?$CK?$AA?$CK?$AA?5?$AAA?$AAI?$AA?5?$AAu?$AAs?$AAe?$AAr?$AAi?$AAd?$AA?5?$AA?$DN?$AA?5?$AA?$CF?$AAd?$AA?5Q?FY?$AH?$AA?5s?$KJ?$FL?$LG?$JB?Q@ 0046f7d0     TableFrame.obj
 0002:0000b890       ??_C@_1KO@EEMKAFCN@?$AAp?$AAt?$AAd?$AAt?$AAa?$AAi?$AA?5?$AA?$CK?$AA?$CK?$AA?$CK?$AA?5?$AAu?$AAs?$AAe?$AAr?$AAi?$AAd?$AA?5?$AA?$DN?$AA?5?$AA?$CF?$AAd?$AA?5Q?FY?$AH?$AA?5s?$KJ?$FL?$LG?$JB?Q?$FO?$ABN?$AN?$IN?$LD@ 0046f890     TableFrame.obj
 0002:0000b940       ??_C@_1DO@JKKEBCKP@_?$IIb?$LBkI?$PP?$AM?$GA?$KI?$FN?r?$HN?1y?oW?$CI?$HO?$LPe?v?$JF?t?$AA?$CF?$AAd?2?$APe?v?$PP?$AM?$IL?wT?$AIt?$AG?$FL?$IJc?$JCn8b?$APe?v?$JF?t?$PP?$AM?$IM?$CC?$IM?$CC?$PP?$AB?$AA?$AA@ 0046f940     TableFrame.obj
 0002:0000b980       ??_C@_1EK@IIGBECLO@?$AAp?$AAt?$AAd?$AAt?$AAd?$AAt?$AA?5?$AA?$CK?$AA?$CK?$AA?$CK?$AA?$CK?$AA?5?$AAP?$AAe?$AAr?$AAf?$AAo?$AAr?$AAm?$AAS?$AAt?$AAa?$AAn?$AAd?$AAU?$AAp?$AAA?$AAc?$AAt?$AAi?$AAo?$AAn@ 0046f980     TableFrame.obj
 0002:0000b9cc       ??_C@_1BO@KNNDLMAG@?$AAW?$AAH?$AAQ?$AAJ?$AAT?$AAr?$AAe?$AAa?$AAs?$AAu?$AAr?$AAe?$AAD?$AAB?$AA?$AA@ 0046f9cc     TableFrame.obj
 0002:0000b9ec       ??_C@_1DA@DBLFMJOD@_?$IIb?$LBkI?$PP?$AM?$GA?$KI?$FN?r?$IN?$IF?$IP?GN?Je?e?$IP?$JD?$INb?$GA?$DL?$JGPR6?$PP?$AMe?$OAl?UQ?$IN?$HO?g?$HO?mn8b?$AP?$AA?$AA@ 0046f9ec     TableFrame.obj
 0002:0000ba20       ??_C@_1EM@MLFGKPAB@?$AAp?$AAt?$AAd?$AAt?$AAd?$AAt?$AA?5?$AA?$CK?$AA?$CK?$AA?$CK?$AA?$CK?$AA?5?$AAP?$AAe?$AAr?$AAf?$AAo?$AAr?$AAm?$AAS?$AAt?$AAa?$AAn?$AAd?$AAU?$AAp?$AAA?$AAc?$AAt?$AAi?$AAo?$AAn@ 0046fa20     TableFrame.obj
 0002:0000ba6c       ??_C@_1BM@MHHCOLCM@?$HM?$PL?$HO?$NP?$JB?Me?$LAR?$AG?$JBMhL?$FLP?$PP?$AM?$IL?wz?$ANT?$AO?$PP?$AB?$AA?$AA@ 0046fa6c     TableFrame.obj
 0002:0000ba88       ??_C@_1GA@CEENIKI@?$AAp?$AAt?$AAd?$AAt?$AAa?$AAi?$AA?5?$AA?$CK?$AA?$CK?$AA?$CK?$AA?5?$AAu?$AAs?$AAe?$AAr?$AAi?$AAd?$AA?5?$AA?$DN?$AA?5?$AA?$CF?$AAd?$AA?5Q?FY?$AH?$AA?5?$AAm?$AA_?$AAd?$AAw?$AAG?$AAr@ 0046fa88     TableFrame.obj
 0002:0000bae8       ??_C@_1GA@LKLEHAGN@?$AAp?$AAt?$AAd?$AAt?$AAa?$AAi?$AA?5?$AA?$CK?$AA?$CK?$AA?$CK?$AA?5?$AA?5?$AAm?$AA_?$AAd?$AAw?$AAG?$AAr?$AAo?$AAu?$AAp?$AAI?$AAD?$AA?5?$AA?$DN?$AA?5?$AA?$CF?$AAd?$AA?5?$AAr?$AAo?$AAo@ 0046fae8     TableFrame.obj
 0002:0000bb48       ??_C@_1GA@PLDKFNMM@?$AAp?$AAt?$AAd?$AAt?$AAa?$AAi?$AA?5?$AA?$CK?$AA?$CK?$AA?$CK?$AA?5?$AA?5?$AAm?$AA_?$AAd?$AAw?$AAG?$AAr?$AAo?$AAu?$AAp?$AAI?$AAD?$AA?5?$AA?$DN?$AA?5?$AA?$CF?$AAd?$AA?5?$AAr?$AAo?$AAo@ 0046fb48     TableFrame.obj
 0002:0000bba8       ??_C@_1CK@HEFPNBIC@?$AAp?$AAt?$AAd?$AAt?$AAd?$AAt?$AA?5?$AA?$CK?$AA?$CK?$AA?$CK?$AA?5c?$KHR6T?$HNN?d?$AA?5_?$AAY?Kn8b?$AP?$AA?$AA@ 0046fba8     TableFrame.obj
 0002:0000bbd4       ??_C@_1DG@MBEMDCJL@n8b?$APg?$ANR?$KBVhSs?2?$AGQs?$JF?m?$PP?$AM?$IL?wy?$LL_?$AAn8b?$AP?$PP?$AMg?$ANR?$KBz?o?2?$AG_?3R6?$IJ?cecn8b?$AP?$AA?$AA@ 0046fbd4     TableFrame.obj
 0002:0000bc0c       ??_C@_1CK@FMIHPPDH@?$AA?$CF?$AAs?$AA?2?$AAP?$AAe?$AAr?$AAs?$AAo?$AAn?$AAa?$AAl?$AAT?$AAa?$AAb?$AAl?$AAe?$AA?4?$AAi?$AAn?$AAi?$AA?$AA@ 0046fc0c     TableFrame.obj
 0002:0000bc38       ??_C@_1BO@LDEGLNJM@?$AAP?$AAl?$AAa?$AAy?$AAe?$AAr?$AAW?$AAa?$AAi?$AAt?$AAT?$AAi?$AAm?$AAe?$AA?$AA@ 0046fc38     TableFrame.obj
 0002:0000bc58       ??_C@_1CG@DLDFLMNB@?$AAT?$AAa?$AAb?$AAl?$AAe?$AAO?$AAw?$AAn?$AAe?$AAr?$AAW?$AAa?$AAi?$AAt?$AAT?$AAi?$AAm?$AAe?$AA?$AA@ 0046fc58     TableFrame.obj
 0002:0000bc80       ??_C@_1CE@HOMDFNII@?$AAG?$AAa?$AAm?$AAe?$AAS?$AAt?$AAa?$AAr?$AAt?$AAO?$AAv?$AAe?$AAr?$AAT?$AAi?$AAm?$AAe?$AA?$AA@ 0046fc80     TableFrame.obj
 0002:0000bca8       ??_C@_1EK@GHHBCGMI@?$AAp?$AAt?$AAd?$AAt?$AAa?$AAi?$AA?5?$AA?$CK?$AA?$CK?$AA?$CK?$AA?$CK?$AA?5?$AAP?$AAe?$AAr?$AAf?$AAo?$AAr?$AAm?$AAS?$AAt?$AAa?$AAn?$AAd?$AAU?$AAp?$AAA?$AAc?$AAt?$AAi?$AAo?$AAn@ 0046fca8     TableFrame.obj
 0002:0000bcf8       ??_C@_1EA@CHFHNKJL@?$AAP?$AAe?$AAr?$AAf?$AAo?$AAr?$AAm?$AAS?$AAt?$AAa?$AAn?$AAd?$AAU?$AAp?$AAA?$AAc?$AAt?$AAi?$AAo?$AAn?$AA?5?$INwz?KY1?$IN?$CF?$AA?5s?$KJ?$FL?$LGN?$AN?$FLXW?$CI?$AA?$AA@ 0046fcf8     TableFrame.obj
 0002:0000bd38       ??_C@_1EI@ONDJEKLF@?$AAP?$AAe?$AAr?$AAf?$AAo?$AAr?$AAm?$AAS?$AAt?$AAa?$AAn?$AAd?$AAU?$AAp?$AAA?$AAc?$AAt?$AAi?$AAo?$AAn?$AA?5?$AAu?$AAs?$AAe?$AAr?$AAi?$AAd?$AA?5?$AA?$DN?$AA?5?$AA?$CF?$AAd@ 0046fd38     TableFrame.obj
 0002:0000bd80       ??_C@_1FM@HAIGGMPJ@?$AAP?$AAe?$AAr?$AAf?$AAo?$AAr?$AAm?$AAS?$AAt?$AAa?$AAn?$AAd?$AAU?$AAp?$AAA?$AAc?$AAt?$AAi?$AAo?$AAn?$AA?5?$AAu?$AAs?$AAe?$AAr?$AAi?$AAd?$AA?5?$AA?$DN?$AA?5?$AA?$CF?$AAd@ 0046fd80     TableFrame.obj
 0002:0000bde0       ??_C@_1GG@JLHIIAJN@?$AAP?$AAe?$AAr?$AAf?$AAo?$AAr?$AAm?$AAS?$AAt?$AAa?$AAn?$AAd?$AAU?$AAp?$AAA?$AAc?$AAt?$AAi?$AAo?$AAn?$AA?5?$AAu?$AAs?$AAe?$AAr?$AAi?$AAd?$AA?5?$AA?$DN?$AA?5?$AA?$CF?$AAd@ 0046fde0     TableFrame.obj
 0002:0000be48       ??_C@_0CG@LPMNBOIA@PerformStandUpAction?5userid?5?$DN?5?$CFd@ 0046fe48     TableFrame.obj
 0002:0000be70       ??_C@_1FE@DBFGEKMG@?$AAp?$AAt?$AAd?$AAt?$AAa?$AAi?$AAs?$AA?5?$AA?$CK?$AA?$CK?$AA?$CK?$AA?$CK?$AA?5?$AA?5?$AAG?$AAO?$AA_?$AAB?$AAA?$AAN?$AAG?$AA_?$AAK?$AAI?$AAN?$AAD?$AA_?$AAI?$AAD?$AA?5?$AAr?$AAo@ 0046fe70     TableFrame.obj
 0002:0000bec4       ??_C@_0DF@GEDJDIDD@PerformStandUpAction?5userid?5?$DN?5?$CFd@ 0046fec4     TableFrame.obj
 0002:0000bf00       ??_C@_1HK@NFGEGILA@?$AAP?$AAe?$AAr?$AAf?$AAo?$AAr?$AAm?$AAS?$AAt?$AAa?$AAn?$AAd?$AAU?$AAp?$AAA?$AAc?$AAt?$AAi?$AAo?$AAn?$AA?5?$AAu?$AAs?$AAe?$AAr?$AAi?$AAd?$AA?5?$AA?$DN?$AA?5?$AA?$CF?$AAd@ 0046ff00     TableFrame.obj
 0002:0000bf7c       ??_C@_0DE@OHKEKPLK@PerformStandUpAction?5userid?5?$DN?5?$CFd@ 0046ff7c     TableFrame.obj
 0002:0000bfb0       ??_C@_1EO@GOAEFMCF@?$AAP?$AAe?$AAr?$AAf?$AAo?$AAr?$AAm?$AAS?$AAt?$AAa?$AAn?$AAd?$AAU?$AAp?$AAA?$AAc?$AAt?$AAi?$AAo?$AAn?$AA?5?$AAu?$AAs?$AAe?$AAr?$AAi?$AAd?$AA?5?$AA?$DN?$AA?5?$AA?$CF?$AAd@ 0046ffb0     TableFrame.obj
 0002:0000c000       ??_C@_0CG@CBCDPEOM@PerformStandUpAction?5userid?5?$DN?5?$CFd@ 00470000     TableFrame.obj
 0002:0000c028       ??_C@_1CA@NIPDBBBH@?$AAp?$AAt?$AAd?$AAt?$AAa?$AAi?$AA?5?$AA?$CK?$AA?$CK?$AA?$CK?$AA?5?$INwz?Kb?$BAR?$JP?$AA?$AA@ 00470028     TableFrame.obj
 0002:0000c048       ??_C@_1DO@EKMFNMLF@k?T?$IN?$FLN?9Q?zs?$LAs?$KJ?$FL?$LG?$AA?3?$AA?5?$AA?$CF?$AAd?$INwz?Ke?vr?$LG?$GA?$ABN?3?$AAU?$AAS?$AA_?$AAO?$AAF?$AAF?$AAL?$AAI?$AAN?$AAEv?$IE?$GA?EQ?$LF?$AA?$AA@ 00470048     TableFrame.obj
 0002:0000c088       ??_C@_1KM@KEEIJLMG@?$AAP?$AAe?$AAr?$AAf?$AAo?$AAr?$AAm?$AAS?$AAt?$AAa?$AAn?$AAd?$AAU?$AAp?$AAA?$AAc?$AAt?$AAi?$AAo?$AAn?$AA?5?$AAu?$AAs?$AAe?$AAr?$AAi?$AAd?$AA?5?$AA?$DN?$AA?5?$AA?$CF?$AAd@ 00470088     TableFrame.obj
 0002:0000c138       ??_C@_1EC@MNCDFDLK@?$AAp?$AAt?$AAd?$AAt?$AAa?$AAi?$AA?5?$AA?$CK?$AA?$CK?$AA?$CK?$AA?5?$INwz?K?$AA?5?$AA1?$AA?5?$AAu?$AAs?$AAe?$AAr?$AAi?$AAd?$AA?5?$AA?$DN?$AA?5?$AA?$CF?$AAd?$AA?5N?3zzr?$LG?$GA?$AB@ 00470138     TableFrame.obj
 0002:0000c180       ??_C@_1EC@IAMLFDNN@?$AAp?$AAt?$AAd?$AAt?$AAa?$AAi?$AA?5?$AA?$CK?$AA?$CK?$AA?$CK?$AA?5?$INwz?K?$AA?5?$AA2?$AA?5?$AAu?$AAs?$AAe?$AAr?$AAi?$AAd?$AA?5?$AA?$DN?$AA?5?$AA?$CF?$AAd?$AA?5N?3zzr?$LG?$GA?$AB@ 00470180     TableFrame.obj
 0002:0000c1c4       ??_C@_0DI@OKCGEIGM@PerformStandUpAction?5userid?5?$DN?5?$CFd@ 004701c4     TableFrame.obj
 0002:0000c200       ??_C@_1IM@CDFNBLPI@?$AAP?$AAe?$AAr?$AAf?$AAo?$AAr?$AAm?$AAS?$AAt?$AAa?$AAn?$AAd?$AAU?$AAp?$AAA?$AAc?$AAt?$AAi?$AAo?$AAn?$AA?5?$AAu?$AAs?$AAe?$AAr?$AAi?$AAd?$AA?5?$AA?$DN?$AA?5?$AA?$CF?$AAd@ 00470200     TableFrame.obj
 0002:0000c28c       ??_C@_1CI@BGKPGHAP@u1s?$KJ?$FL?$LGy?$LL_?$AA?$PP?$AM?$HM?$PL?$HO?$NP?$JB?Me?$LAR?$AG?$JBMhL?$FLP?$PP?$AM?$IL?wz?$ANT?$AO?$PP?$AB?$AA?$AA@ 0047028c     TableFrame.obj
 0002:0000c2b4       ??_C@_1DE@MKCLINFA@?$AAp?$AAt?$AAd?$AAt?$AAd?$AAt?$AA?5?$AA?$CK?$AA?$CK?$AA?$CK?$AA?5n8b?$APS?jRiN?$AAN?$CKN?$LK?$AA?5S?Vm?$II_?$AAY?Kc?7?$JE?$KO?$AA?$AA@ 004702b4     TableFrame.obj
 0002:0000c2e8       ??_C@_1CI@GBIHLPJI@?$AAp?$AAt?$AAd?$AAt?$AAd?$AAt?$AA?5?$AA?$CK?$AA?$CK?$AA?$CK?$AA?5S?Q?$JA?$AB_?$AAY?KT?$HNN?d?$AA?5?$AA2?$AA?$AA@ 004702e8     TableFrame.obj
 0002:0000c310       ??_C@_1EG@MOEIMKCB@?$AAp?$AAt?$AAd?$AAt?$AAd?$AAt?$AA?5?$AA?$CK?$AA?$CK?$AA?$CK?$AA?$CK?$AA?5?$AAS?$AAe?$AAn?$AAd?$AAR?$AAe?$AAq?$AAu?$AAe?$AAs?$AAt?$AAF?$AAa?$AAi?$AAl?$AAu?$AAr?$AAe?$AA?5?$AA?5@ 00470310     TableFrame.obj
 0002:0000c358       ??_C@_1CC@JMHBLPAD@b?$LBkI?$PP?$AM_SRMn8b?$APb?$DP?$JF?ty?$IBkbu?$CIb7e?A?$IJ?B?$PP?$AB?$AA?$AA@ 00470358     TableFrame.obj
 0002:0000c380       ??_C@_1EG@DFNEPHAF@?$AAp?$AAt?$AAd?$AAt?$AAd?$AAt?$AA?5?$AA?$CK?$AA?$CK?$AA?$CK?$AA?$CK?$AA?5?$AAS?$AAe?$AAn?$AAd?$AAR?$AAe?$AAq?$AAu?$AAe?$AAs?$AAt?$AAF?$AAa?$AAi?$AAl?$AAu?$AAr?$AAe?$AA?5?$AA?5@ 00470380     TableFrame.obj
 0002:0000c3c8       ??_C@_1KK@JDBLMJFF@?$AAp?$AAt?$AAd?$AAt?$AAa?$AAi?$AA?5?$AA?$CK?$AA?$CK?$AA?$CK?$AA?$CK?$AA?5?$AAp?$AAt?$AAd?$AAt?$AAa?$AAi?$AA?5?$AA?$CK?$AA?$CK?$AA?$CK?$AA?5?$AAP?$AAe?$AAr?$AAf?$AAo?$AAr?$AAm?$AAS?$AAi@ 004703c8     TableFrame.obj
 0002:0000c474       ??_C@_19JHGMICLL@?$AA?$DL?$AA?$CF?$AAs?$AA?$DL?$AA?$AA@ 00470474     TableFrame.obj
 0002:0000c480       ??_C@_1KM@BLGBKLBO@?$AAp?$AAt?$AAd?$AAt?$AAa?$AAi?$AA?5?$AA?$CK?$AA?$CK?$AA?$CK?$AA?$CK?$AA?5?$AAp?$AAt?$AAd?$AAt?$AAa?$AAi?$AA?5?$AA?$CK?$AA?$CK?$AA?$CK?$AA?5?$AAS?$AAe?$AAn?$AAd?$AAR?$AAe?$AAq?$AAu?$AAe@ 00470480     TableFrame.obj
 0002:0000c52c       ??_C@_1CM@NKKCDCAA@?$JH?$FOY?8?$IATv?$NPb?$BATXN?$ANS?o?$IP?$NLQeY?8?$IATv?$NPQ?$IFR?$BL?$FO?zv?$IEb?$DP?$JF?tT?f?$PP?$AB?$AA?$AA@ 0047052c     TableFrame.obj
 0002:0000c558       ??_C@_1EG@DAEPFHMK@?$AAp?$AAt?$AAd?$AAt?$AAa?$AAi?$AA?5?$AA?$CK?$AA?$CK?$AA?$CK?$AA?$CK?$AA?5?$AAS?$AAe?$AAn?$AAd?$AAR?$AAe?$AAq?$AAu?$AAe?$AAs?$AAt?$AAF?$AAa?$AAi?$AAl?$AAu?$AAr?$AAe?$AA?5?$AA?5@ 00470558     TableFrame.obj
 0002:0000c5a0       ??_C@_1BG@CHICKGEN@?$HO?$KGb?$BIb?$DP?$JF?t?$FN?r?$HO?O?$IJ?cec?$AA1?$PP?$AB?$AA?$AA@ 004705a0     TableFrame.obj
 0002:0000c5b8       ??_C@_1EG@IIPDDAKP@?$AAp?$AAt?$AAd?$AAt?$AAa?$AAi?$AA?5?$AA?$CK?$AA?$CK?$AA?$CK?$AA?$CK?$AA?5?$AAS?$AAe?$AAn?$AAd?$AAR?$AAe?$AAq?$AAu?$AAe?$AAs?$AAt?$AAF?$AAa?$AAi?$AAl?$AAu?$AAr?$AAe?$AA?5?$AA?5@ 004705b8     TableFrame.obj
 0002:0000c600       ??_C@_1BG@KBBGNEOD@?$HO?$KGb?$BIb?$DP?$JF?t?$FN?r?$HO?O?$IJ?cec?$AA2?$PP?$AB?$AA?$AA@ 00470600     TableFrame.obj
 0002:0000c618       ??_C@_1DK@JNCPPDGH@i?$AF?$FLP?$FN?r?$HO?O?$II?$KL?$AA?5?$AA?$FL?$AA?5?$AA?$CF?$AAs?$AA?5?$AA?$FN?$AA?5cw?$IN?$LDQHv?$HLN?$IG?$PP?$AMN?$ALk?$CBR?$KIO?2?$IJ?$IB_?kp?$LJN?$IG?$PP?$AB?$AA?$AA@ 00470618     TableFrame.obj
 0002:0000c658       ??_C@_1EG@BFCEAIBG@?$AAp?$AAt?$AAd?$AAt?$AAa?$AAi?$AA?5?$AA?$CK?$AA?$CK?$AA?$CK?$AA?$CK?$AA?5?$AAS?$AAe?$AAn?$AAd?$AAR?$AAe?$AAq?$AAu?$AAe?$AAs?$AAt?$AAF?$AAa?$AAi?$AAl?$AAu?$AAr?$AAe?$AA?5?$AA?5@ 00470658     TableFrame.obj
 0002:0000c6a0       ??_C@_1EI@CPJMHCGA@?$AAp?$AAt?$AAd?$AAt?$AAa?$AAi?$AA?5?$AA?$CK?$AA?$CK?$AA?$CK?$AA?$CK?$AA?5?$AAP?$AAe?$AAr?$AAf?$AAo?$AAr?$AAm?$AAS?$AAi?$AAt?$AAD?$AAo?$AAw?$AAn?$AAA?$AAc?$AAt?$AAi?$AAo?$AAn@ 004706a0     TableFrame.obj
 0002:0000c6e8       ??_C@_1FO@PLEFDINA@?$AAp?$AAt?$AAd?$AAt?$AAa?$AAi?$AA?5?$AA?$CK?$AA?$CK?$AA?$CK?$AAP?$AAe?$AAr?$AAf?$AAo?$AAr?$AAm?$AAS?$AAi?$AAt?$AAD?$AAo?$AAw?$AAn?$AAA?$AAc?$AAt?$AAi?$AAo?$AAn?$AA?5?$AAu@ 004706e8     TableFrame.obj
 0002:0000c748       ??_C@_1EI@JHCABFAF@?$AAp?$AAt?$AAd?$AAt?$AAa?$AAi?$AA?5?$AA?$CK?$AA?$CK?$AA?$CK?$AA?$CK?$AA?5?$AAP?$AAe?$AAr?$AAf?$AAo?$AAr?$AAm?$AAS?$AAi?$AAt?$AAD?$AAo?$AAw?$AAn?$AAA?$AAc?$AAt?$AAi?$AAo?$AAn@ 00470748     TableFrame.obj
 0002:0000c790       ??_C@_1CI@OOENJKOE@?$GA?$KIv?$IE?$JE?$LLw?sep?$JB?O?2?$BBN?$IO?$AA?5?$AA?$CF?$AAd?$PP?$AMN?$AN?$IA?$PN?$HO?g?$HO?mn8b?$AP?$PP?$AB?$AA?$AA@ 00470790     TableFrame.obj
 0002:0000c7b8       ??_C@_1EI@KPHCNLM@?$AAp?$AAt?$AAd?$AAt?$AAa?$AAi?$AA?5?$AA?$CK?$AA?$CK?$AA?$CK?$AA?$CK?$AA?5?$AAP?$AAe?$AAr?$AAf?$AAo?$AAr?$AAm?$AAS?$AAi?$AAt?$AAD?$AAo?$AAw?$AAn?$AAA?$AAc?$AAt?$AAi?$AAo?$AAn@ 004707b8     TableFrame.obj
 0002:0000c800       ??_C@_1EG@KNJIGPHD@?$AAp?$AAt?$AAd?$AAt?$AAa?$AAi?$AA?5?$AA?$CK?$AA?$CK?$AA?$CK?$AA?$CK?$AA?5?$AAS?$AAe?$AAn?$AAd?$AAR?$AAe?$AAq?$AAu?$AAe?$AAs?$AAt?$AAF?$AAa?$AAi?$AAl?$AAu?$AAr?$AAe?$AA?5?$AA?5@ 00470800     TableFrame.obj
 0002:0000c848       ??_C@_1BG@FOAOINFD@b?$LBkI?$PP?$AM?$HO?$KGb?$BI?$FN?r?$HO?O_?$AAY?K?$PP?$AB?$AA?$AA@ 00470848     TableFrame.obj
 0002:0000c860       ??_C@_1EG@LPCNMAJN@?$AAp?$AAt?$AAd?$AAt?$AAa?$AAi?$AA?5?$AA?$CK?$AA?$CK?$AA?$CK?$AA?$CK?$AA?5?$AAS?$AAe?$AAn?$AAd?$AAR?$AAe?$AAq?$AAu?$AAe?$AAs?$AAt?$AAF?$AAa?$AAi?$AAl?$AAu?$AAr?$AAe?$AA?5?$AA?5@ 00470860     TableFrame.obj
 0002:0000c8a8       ??_C@_1BO@IEPKLLKF@b?$LBkI?$PP?$AM_SRMn8b?$APhL?$FLPN?$LKep?$FN?rn?a?$PP?$AB?$AA?$AA@ 004708a8     TableFrame.obj
 0002:0000c8c8       ??_C@_1EG@HJBKHPI@?$AAp?$AAt?$AAd?$AAt?$AAa?$AAi?$AA?5?$AA?$CK?$AA?$CK?$AA?$CK?$AA?$CK?$AA?5?$AAS?$AAe?$AAn?$AAd?$AAR?$AAe?$AAq?$AAu?$AAe?$AAs?$AAt?$AAF?$AAa?$AAi?$AAl?$AAu?$AAr?$AAe?$AA?5?$AA?5@ 004708c8     TableFrame.obj
 0002:0000c910       ??_C@_1CC@CIFDKMMM@b?$LBkI?$PP?$AM_SRMn8b?$APhL?$FLPy?$IBkbu?$CIb7?$IP?$NLQe?$PP?$AB?$AA?$AA@ 00470910     TableFrame.obj
 0002:0000c938       ??_C@_1EI@LCELEKNJ@?$AAp?$AAt?$AAd?$AAt?$AAa?$AAi?$AA?5?$AA?$CK?$AA?$CK?$AA?$CK?$AA?$CK?$AA?5?$AAP?$AAe?$AAr?$AAf?$AAo?$AAr?$AAm?$AAS?$AAi?$AAt?$AAD?$AAo?$AAw?$AAn?$AAA?$AAc?$AAt?$AAi?$AAo?$AAn@ 00470938     TableFrame.obj
 0002:0000c980       ??_C@_1EG@FPPCLHKO@?$AAp?$AAt?$AAd?$AAt?$AAa?$AAi?$AA?5?$AA?$CK?$AA?$CK?$AA?$CK?$AA?$CK?$AA?5?$AAS?$AAe?$AAn?$AAd?$AAR?$AAe?$AAq?$AAu?$AAe?$AAs?$AAt?$AAF?$AAa?$AAi?$AAl?$AAu?$AAr?$AAe?$AA?5?$AA?5@ 00470980     TableFrame.obj
 0002:0000c9c8       ??_C@_1EG@OHEONAML@?$AAp?$AAt?$AAd?$AAt?$AAa?$AAi?$AA?5?$AA?$CK?$AA?$CK?$AA?$CK?$AA?$CK?$AA?5?$AAS?$AAe?$AAn?$AAd?$AAR?$AAe?$AAq?$AAu?$AAe?$AAs?$AAt?$AAF?$AAa?$AAi?$AAl?$AAu?$AAr?$AAe?$AA?5?$AA?5@ 004709c8     TableFrame.obj
 0002:0000ca10       ??_C@_1CG@IMGGAKIA@n8b?$AP?$FN?r?$HO?O_?$AAY?KN?$IG?$PP?$AMs?$LAW?$CIN?$AN?$IA?$PN?$IP?$NLQen8b?$APhL?$PP?$AB?$AA?$AA@ 00470a10     TableFrame.obj
 0002:0000ca38       ??_C@_1EG@POIICEKA@?$AAp?$AAt?$AAd?$AAt?$AAd?$AAt?$AA?5?$AA?$CK?$AA?$CK?$AA?$CK?$AA?$CK?$AA?5?$AAS?$AAe?$AAn?$AAd?$AAR?$AAe?$AAq?$AAu?$AAe?$AAs?$AAt?$AAF?$AAa?$AAi?$AAl?$AAu?$AAr?$AAe?$AA?5?$AA?5@ 00470a38     TableFrame.obj
 0002:0000ca80       ??_C@_1BG@MKAOLJKL@?$FL?Fx?$AB?$II?$KLO?$HPu?$CI?$AA?0?$FN?r?$IP?Gg?$BP?$PP?$AB?$AA?$AA@ 00470a80     TableFrame.obj
 0002:0000ca98       ??_C@_1EG@EGDEEDMF@?$AAp?$AAt?$AAd?$AAt?$AAd?$AAt?$AA?5?$AA?$CK?$AA?$CK?$AA?$CK?$AA?$CK?$AA?5?$AAS?$AAe?$AAn?$AAd?$AAR?$AAe?$AAq?$AAu?$AAe?$AAs?$AAt?$AAF?$AAa?$AAi?$AAl?$AAu?$AAr?$AAe?$AA?5?$AA?5@ 00470a98     TableFrame.obj
 0002:0000cae0       ??_C@_1CA@CKILCIHP@b?$DP?$JF?t?$FL?Fx?$ABN?$ANkcxn?$PP?$AMN?$AN?$IA?$PNR?$KAQen8b?$AP?$PP?$AB?$AA?$AA@ 00470ae0     TableFrame.obj
 0002:0000cb00       ??_C@_1CG@OKKLFLBA@n8b?$APhL?$IP?$NLQe?$FL?Fx?$ABN?$ANkcxn?$PP?$AMN?$AN?$IA?$PNR?$KAQen8b?$AP?$PP?$AB?$AA?$AA@ 00470b00     TableFrame.obj
 0002:0000cb28       ??_C@_1EI@KAPOOFDH@?$AAp?$AAt?$AAd?$AAt?$AAa?$AAi?$AA?5?$AA?$CK?$AA?$CK?$AA?$CK?$AA?$CK?$AA?5?$AAP?$AAe?$AAr?$AAf?$AAo?$AAr?$AAm?$AAS?$AAi?$AAt?$AAD?$AAo?$AAw?$AAn?$AAA?$AAc?$AAt?$AAi?$AAo?$AAn@ 00470b28     TableFrame.obj
 0002:0000cb70       ??_C@_1EG@PLBDIEGP@?$AAp?$AAt?$AAd?$AAt?$AAa?$AAi?$AA?5?$AA?$CK?$AA?$CK?$AA?$CK?$AA?$CK?$AA?5?$AAS?$AAe?$AAn?$AAd?$AAR?$AAe?$AAq?$AAu?$AAe?$AAs?$AAt?$AAF?$AAa?$AAi?$AAl?$AAu?$AAr?$AAe?$AA?5?$AA?5@ 00470b70     TableFrame.obj
 0002:0000cbb8       ??_C@_1EK@PKKGBOHB@?$AAp?$AAt?$AAd?$AAt?$AAa?$AAi?$AA?5?$AA?$CK?$AA?$CK?$AA?$CK?$AA?$CK?$AA?5?$AAP?$AAe?$AAr?$AAf?$AAo?$AAr?$AAm?$AAS?$AAt?$AAa?$AAn?$AAd?$AAU?$AAp?$AAA?$AAc?$AAt?$AAi?$AAo?$AAn@ 00470bb8     TableFrame.obj
 0002:0000cc08       ??_C@_1EI@BIECICFC@?$AAp?$AAt?$AAd?$AAt?$AAa?$AAi?$AA?5?$AA?$CK?$AA?$CK?$AA?$CK?$AA?$CK?$AA?5?$AAP?$AAe?$AAr?$AAf?$AAo?$AAr?$AAm?$AAS?$AAi?$AAt?$AAD?$AAo?$AAw?$AAn?$AAA?$AAc?$AAt?$AAi?$AAo?$AAn@ 00470c08     TableFrame.obj
 0002:0000cc50       ??_C@_1EK@ECBKHJBE@?$AAp?$AAt?$AAd?$AAt?$AAa?$AAi?$AA?5?$AA?$CK?$AA?$CK?$AA?$CK?$AA?$CK?$AA?5?$AAP?$AAe?$AAr?$AAf?$AAo?$AAr?$AAm?$AAS?$AAt?$AAa?$AAn?$AAd?$AAU?$AAp?$AAA?$AAc?$AAt?$AAi?$AAo?$AAn@ 00470c50     TableFrame.obj
 0002:0000cca0       ??_C@_1EM@MAICFEEE@?$AAp?$AAt?$AAd?$AAt?$AAa?$AAi?$AA?5?$AA?$CK?$AA?$CK?$AA?$CK?$AA?$CK?$AA?5?$AAP?$AAe?$AAr?$AAf?$AAo?$AAr?$AAm?$AAS?$AAt?$AAa?$AAn?$AAd?$AAU?$AAp?$AAA?$AAc?$AAt?$AAi?$AAo?$AAn@ 00470ca0     TableFrame.obj
 0002:0000ccf0       ??_C@_1EM@NCDHPLKK@?$AAp?$AAt?$AAd?$AAt?$AAa?$AAi?$AA?5?$AA?$CK?$AA?$CK?$AA?$CK?$AA?$CK?$AA?5?$AAP?$AAe?$AAr?$AAf?$AAo?$AAr?$AAm?$AAS?$AAt?$AAa?$AAn?$AAd?$AAU?$AAp?$AAA?$AAc?$AAt?$AAi?$AAo?$AAn@ 00470cf0     TableFrame.obj
 0002:0000cd40       ??_C@_1EG@EDKPODAK@?$AAp?$AAt?$AAd?$AAt?$AAa?$AAi?$AA?5?$AA?$CK?$AA?$CK?$AA?$CK?$AA?$CK?$AA?5?$AAS?$AAe?$AAn?$AAd?$AAR?$AAe?$AAq?$AAu?$AAe?$AAs?$AAt?$AAF?$AAa?$AAi?$AAl?$AAu?$AAr?$AAe?$AA?5?$AA?5@ 00470d40     TableFrame.obj
 0002:0000cd88       ??_C@_1EI@EACBJCAE@?$AAp?$AAt?$AAd?$AAt?$AAa?$AAi?$AA?5?$AA?$CK?$AA?$CK?$AA?$CK?$AA?$CK?$AA?5?$AAP?$AAe?$AAr?$AAf?$AAo?$AAr?$AAm?$AAS?$AAi?$AAt?$AAD?$AAo?$AAw?$AAn?$AAA?$AAc?$AAt?$AAi?$AAo?$AAn@ 00470d88     TableFrame.obj
 0002:0000cdd0       ??_C@_1EG@NOHINLLD@?$AAp?$AAt?$AAd?$AAt?$AAa?$AAi?$AA?5?$AA?$CK?$AA?$CK?$AA?$CK?$AA?$CK?$AA?5?$AAS?$AAe?$AAn?$AAd?$AAR?$AAe?$AAq?$AAu?$AAe?$AAs?$AAt?$AAF?$AAa?$AAi?$AAl?$AAu?$AAr?$AAe?$AA?5?$AA?5@ 00470dd0     TableFrame.obj
 0002:0000ce18       ??_C@_1EI@PIJNPFGB@?$AAp?$AAt?$AAd?$AAt?$AAa?$AAi?$AA?5?$AA?$CK?$AA?$CK?$AA?$CK?$AA?$CK?$AA?5?$AAP?$AAe?$AAr?$AAf?$AAo?$AAr?$AAm?$AAS?$AAi?$AAt?$AAD?$AAo?$AAw?$AAn?$AAA?$AAc?$AAt?$AAi?$AAo?$AAn@ 00470e18     TableFrame.obj
 0002:0000ce60       ??_C@_1JG@KMDGOCJK@?$AAp?$AAt?$AAd?$AAt?$AAa?$AAi?$AA?5?$AA?$CK?$AA?$CK?$AA?$CK?$AAP?$AAe?$AAr?$AAf?$AAo?$AAr?$AAm?$AAS?$AAi?$AAt?$AAD?$AAo?$AAw?$AAn?$AAA?$AAc?$AAt?$AAi?$AAo?$AAn?$AA?5?$AAu@ 00470e60     TableFrame.obj
 0002:0000cef8       ??_C@_1JG@OGEPNELB@?$AAp?$AAt?$AAd?$AAt?$AAa?$AAi?$AA?5?$AA?$CK?$AA?$CK?$AA?$CK?$AAP?$AAe?$AAr?$AAf?$AAo?$AAr?$AAm?$AAS?$AAi?$AAt?$AAD?$AAo?$AAw?$AAn?$AAA?$AAc?$AAt?$AAi?$AAo?$AAn?$AA?5?$AAu@ 00470ef8     TableFrame.obj
 0002:0000cf90       ??_C@_1JM@FHDJDHIO@?$AAp?$AAt?$AAd?$AAt?$AAa?$AAi?$AA?5?$AA?$CK?$AA?$CK?$AA?$CK?$AAP?$AAe?$AAr?$AAf?$AAo?$AAr?$AAm?$AAS?$AAi?$AAt?$AAD?$AAo?$AAw?$AAn?$AAA?$AAc?$AAt?$AAi?$AAo?$AAn?$AA?5?$AAu@ 00470f90     TableFrame.obj
 0002:0000d02c       ??_C@_1CK@IDGHLOIE@?$AAp?$AAt?$AAd?$AAt?$AAd?$AAt?$AA?5?$AA?$CK?$AA?$CK?$AA?$CK?$AA?5_?$AAY?Kh?$MAmK?$AA?5?$AA1?$AA1?$AA1?$AA1?$AA?$AA@ 0047102c     TableFrame.obj
 0002:0000d058       ??_C@_1DA@JPJDAMCO@?$AAp?$AAt?$AAd?$AAt?$AAd?$AAt?$AA?5?$AA?$CK?$AA?$CK?$AA?$CK?$AA?5_?$AAY?Kh?$MAmK?$AA?5?$AA3?$AA3?$AA3?$AA3?$AA?5?$AA1?$AA1?$AA?$AA@ 00471058     TableFrame.obj
 0002:0000d088       ??_C@_1CK@CCHGAAEE@?$AAp?$AAt?$AAd?$AAt?$AAd?$AAt?$AA?5?$AA?$CK?$AA?$CK?$AA?$CK?$AA?5_?$AAY?Kh?$MAmK?$AA?5?$AA3?$AA3?$AA3?$AA3?$AA?$AA@ 00471088     TableFrame.obj
 0002:0000d0b4       ??_C@_1CK@HCPONPCE@?$AAp?$AAt?$AAd?$AAt?$AAd?$AAt?$AA?5?$AA?$CK?$AA?$CK?$AA?$CK?$AA?5_?$AAY?Kh?$MAmK?$AA?5?$AA2?$AA2?$AA2?$AA2?$AA?$AA@ 004710b4     TableFrame.obj
 0002:0000d0e0       ??_C@_1OG@FMFDCBLM@?$AAp?$AAt?$AAd?$AAt?$AAd?$AAt?$AA?5?$AA?$CK?$AA?$CK?$AA?$CK?$AA?5_?$AAY?Kh?$MAmK?$AA?5?$AAw?$AAR?$AAe?$AAa?$AAd?$AAy?$AAU?$AAs?$AAe?$AAr?$AAC?$AAo?$AAu?$AAn?$AAt?$AA?5@ 004710e0     TableFrame.obj
 0002:0000d1c8       ??_C@_1EG@NLODHLHM@?$AAp?$AAt?$AAd?$AAt?$AAd?$AAt?$AA?5?$AA?$CK?$AA?$CK?$AA?$CK?$AA?$CK?$AA?5?$AAS?$AAe?$AAn?$AAd?$AAR?$AAe?$AAq?$AAu?$AAe?$AAs?$AAt?$AAF?$AAa?$AAi?$AAl?$AAu?$AAr?$AAe?$AA?5?$AA?5@ 004711c8     TableFrame.obj
 0002:0000d210       ??_C@_1GM@OJDACML@kdn8b?$APhLs?$KJ?$FL?$LG?$IL?$LO?$HPnN?$IGN?$AN?$IN?$NPv?xT?$AM?$AA?5?$AAI?$AAP?$AA?5W0W?$EAv?$IEs?$KJ?$FL?$LGn8b?$AP?$PP?$AM?$GA?$KI?$AA?5?$AAI?$AAP?$AA?5W0W?$EA@ 00471210     TableFrame.obj
 0002:0000d280       ??_C@_1EG@GDFPBMBJ@?$AAp?$AAt?$AAd?$AAt?$AAd?$AAt?$AA?5?$AA?$CK?$AA?$CK?$AA?$CK?$AA?$CK?$AA?5?$AAS?$AAe?$AAn?$AAd?$AAR?$AAe?$AAq?$AAu?$AAe?$AAs?$AAt?$AAF?$AAa?$AAi?$AAl?$AAu?$AAr?$AAe?$AA?5?$AA?5@ 00471280     TableFrame.obj
 0002:0000d2c8       ??_C@_1GA@HHLCMCPE@?$GA?$KI?$IL?$LO?$HPnN?$IGN?$AN?$IN?$NPv?xT?$AM?$AA?5?$AAI?$AAP?$AA?5W0W?$EAv?$IEs?$KJ?$FL?$LGn8b?$AP?$PP?$AMkdn8b?$APhL?$FLXW?$CIN?$AO?$GA?$KI?$AA?5?$AAI?$AAP?$AA?5@ 004712c8     TableFrame.obj
 0002:0000d328       ??_C@_1EG@DLDMAMEP@?$AAp?$AAt?$AAd?$AAt?$AAd?$AAt?$AA?5?$AA?$CK?$AA?$CK?$AA?$CK?$AA?$CK?$AA?5?$AAS?$AAe?$AAn?$AAd?$AAR?$AAe?$AAq?$AAu?$AAe?$AAs?$AAt?$AAF?$AAa?$AAi?$AAl?$AAu?$AAr?$AAe?$AA?5?$AA?5@ 00471328     TableFrame.obj
 0002:0000d370       ??_C@_1FM@PEBAOMDP@?$GA?$KI?$IL?$LO?$HPnN?$IGN?$AN?$IN?$NPv?xT?$AM?$AA?5?$AAI?$AAP?$AA?5W0W?$EAv?$IEs?$KJ?$FL?$LGn8b?$AP?$PP?$AMkdn8b?$APhL?$FLXW?$CI?$AA?5?$AAI?$AAP?$AA?5W0W?$EA@ 00471370     TableFrame.obj
 0002:0000d3cc       ??_C@_1DK@MEKBPNCO@?$GA?$KIv?$IE?$JA?$AD?$IN?Qs?$IHY?$CK?$JK?X?$PP?$AMN?$AO?$AA?5?$AA?$CF?$AAs?$AA?5?$IL?$LO?$HPnv?$IE?$IL?$LO?$HPnN?$AN?$HL?$CG?$PP?$AMN?$AN?$IA?$PNR?$KAQen8b?$AP?$PP?$AB?$AA?$AA@ 004713cc     TableFrame.obj
 0002:0000d408       ??_C@_1EG@IDIAGLCK@?$AAp?$AAt?$AAd?$AAt?$AAd?$AAt?$AA?5?$AA?$CK?$AA?$CK?$AA?$CK?$AA?$CK?$AA?5?$AAS?$AAe?$AAn?$AAd?$AAR?$AAe?$AAq?$AAu?$AAe?$AAs?$AAt?$AAF?$AAa?$AAi?$AAl?$AAu?$AAr?$AAe?$AA?5?$AA?5@ 00471408     TableFrame.obj
 0002:0000d450       ??_C@_1DI@IDNLJNNG@?$GA?$KIv?$IE?$IA?$NMs?$IHY?$CKON?$PP?$AMN?$AO?$AA?5?$AA?$CF?$AAs?$AA?5?$IL?$LO?$HPnv?$IE?$IL?$LO?$HPnN?$AN?$HL?$CG?$PP?$AMN?$AN?$IA?$PNR?$KAQen8b?$AP?$PP?$AB?$AA?$AA@ 00471450     TableFrame.obj
 0002:0000d488       ??_C@_1EG@ODINBEBI@?$AAp?$AAt?$AAd?$AAt?$AAd?$AAt?$AA?5?$AA?$CK?$AA?$CK?$AA?$CK?$AA?$CK?$AA?5?$AAS?$AAe?$AAn?$AAd?$AAR?$AAe?$AAq?$AAu?$AAe?$AAs?$AAt?$AAF?$AAa?$AAi?$AAl?$AAu?$AAr?$AAe?$AA?5?$AA?5@ 00471488     TableFrame.obj
 0002:0000d4d0       ??_C@_1DI@HHIHMFDI@?$GA?$KIv?$IEy?oR?$AGY?$CK?$JK?X?$PP?$AMN?$AO?$AA?5?$AA?$CF?$AAs?$AA?5?$IL?$LO?$HPnv?$IE?$IL?$LO?$HPnN?$AN?$HL?$CG?$PP?$AMN?$AN?$IA?$PNR?$KAQen8b?$AP?$PP?$AB?$AA?$AA@ 004714d0     TableFrame.obj
 0002:0000d508       ??_C@_1EG@FLDBHDHN@?$AAp?$AAt?$AAd?$AAt?$AAd?$AAt?$AA?5?$AA?$CK?$AA?$CK?$AA?$CK?$AA?$CK?$AA?5?$AAS?$AAe?$AAn?$AAd?$AAR?$AAe?$AAq?$AAu?$AAe?$AAs?$AAt?$AAF?$AAa?$AAi?$AAl?$AAu?$AAr?$AAe?$AA?5?$AA?5@ 00471508     TableFrame.obj
 0002:0000d550       ??_C@_1DI@OHGCJPPJ@?$GA?$KIv?$IEy?oR?$AGY?$CKON?$PP?$AMN?$AO?$AA?5?$AA?$CF?$AAs?$AA?5?$IL?$LO?$HPnv?$IE?$IL?$LO?$HPnN?$AN?$HL?$CG?$PP?$AMN?$AN?$IA?$PNR?$KAQen8b?$AP?$PP?$AB?$AA?$AA@ 00471550     TableFrame.obj
 0002:0000d588       ??_C@_1EG@EJIENMJD@?$AAp?$AAt?$AAd?$AAt?$AAd?$AAt?$AA?5?$AA?$CK?$AA?$CK?$AA?$CK?$AA?$CK?$AA?5?$AAS?$AAe?$AAn?$AAd?$AAR?$AAe?$AAq?$AAu?$AAe?$AAs?$AAt?$AAF?$AAa?$AAi?$AAl?$AAu?$AAr?$AAe?$AA?5?$AA?5@ 00471588     TableFrame.obj
 0002:0000d5d0       ??_C@_1EE@NHNJHGAA@R?$KAQen8b?$AP?$IB?s?2?$BB?$JH?$AA?$IJ?$IB?$AA?5?$AA?$CF?$AAI?$AA6?$AA4?$AAd?$AA?5v?$IEn8b?$AP?$FO?$AB?$PP?$AM?$GA?$KIv?$IEn8b?$AP?$FO?$ABN?$ANY?$BP?$PP?$AMN?$AN?$IA?$PNR?$KAQe@ 004715d0     TableFrame.obj
 0002:0000d618       ??_C@_1EE@OGNEGFA@R?$KAQen8b?$AP?$IB?s?2?$BB?$JH?$AA?$IJ?$IB?$AA?5?$AA?$CF?$AAI?$AA6?$AA4?$AAd?$AA?5v?$IEk?T?$IN?$FL?$FO?$AB?$PP?$AM?$GA?$KIv?$IEk?T?$IN?$FL?$FO?$ABN?$ANY?$BP?$PP?$AMN?$AN?$IA?$PNR?$KAQe@ 00471618     TableFrame.obj
 0002:0000d660       ??_C@_1EE@IAHPDLDN@R?$KAQen8b?$AP?$IB?s?2?$BB?$JH?$AA?$IJ?$IB?$AA?5?$AA?$CF?$AAI?$AA6?$AA4?$AAd?$AA?5v?$IEn8b?$APy?oR?$AG?$PP?$AM?$GA?$KIv?$IEy?oR?$AGN?$ANY?$BP?$PP?$AMN?$AN?$IA?$PNR?$KAQe@ 00471660     TableFrame.obj
 0002:0000d6a8       ??_C@_1EG@PBDILLPG@?$AAp?$AAt?$AAd?$AAt?$AAd?$AAt?$AA?5?$AA?$CK?$AA?$CK?$AA?$CK?$AA?$CK?$AA?5?$AAS?$AAe?$AAn?$AAd?$AAR?$AAe?$AAq?$AAu?$AAe?$AAs?$AAt?$AAF?$AAa?$AAi?$AAl?$AAu?$AAr?$AAe?$AA?5?$AA?5@ 004716a8     TableFrame.obj
 0002:0000d6f0       ??_C@_1EC@HHPCPLHF@R?$KAQen8b?$APg?$AA?$JK?XN?3?$AA?5?$AA?$CF?$AAI?$AA6?$AA4?$AAd?$AA?5v?$IEn8b?$AP?$FO?$AB?$PP?$AM?$GA?$KIv?$IEn8b?$AP?$FO?$AB?$IN?$IFQ?z?$PP?$AMN?$AN?$IA?$PNR?$KAQe?$PP?$AB@ 004716f0     TableFrame.obj
 0002:0000d738       ??_C@_1EC@KOEGMLCF@R?$KAQen8b?$APg?$AA?$JK?XN?3?$AA?5?$AA?$CF?$AAI?$AA6?$AA4?$AAd?$AA?5v?$IEk?T?$IN?$FL?$FO?$AB?$PP?$AM?$GA?$KIv?$IEk?T?$IN?$FL?$FO?$AB?$IN?$IFQ?z?$PP?$AMN?$AN?$IA?$PNR?$KAQe?$PP?$AB@ 00471738     TableFrame.obj
 0002:0000d780       ??_C@_1EC@CAFELGEI@R?$KAQen8b?$APg?$AA?$JK?XN?3?$AA?5?$AA?$CF?$AAI?$AA6?$AA4?$AAd?$AA?5v?$IEn8b?$APy?oR?$AG?$PP?$AM?$GA?$KIv?$IEy?oR?$AG?$IN?$IFQ?z?$PP?$AMN?$AN?$IA?$PNR?$KAQe?$PP?$AB@ 00471780     TableFrame.obj
 0002:0000d7c8       ??_C@_1EG@GMOPIDEP@?$AAp?$AAt?$AAd?$AAt?$AAd?$AAt?$AA?5?$AA?$CK?$AA?$CK?$AA?$CK?$AA?$CK?$AA?5?$AAS?$AAe?$AAn?$AAd?$AAR?$AAe?$AAq?$AAu?$AAe?$AAs?$AAt?$AAF?$AAa?$AAi?$AAl?$AAu?$AAr?$AAe?$AA?5?$AA?5@ 004717c8     TableFrame.obj
 0002:0000d810       ??_C@_1BK@EEKJECBM@?$AAp?$AAt?$AAd?$AAt?$AAj?$AAl?$AA?5?$AA?$CK?$AA?$CK?$AA?$CK?$AA?5?$AA5?$AA?$AA@ 00471810     TableFrame.obj
 0002:0000d830       ??_C@_1FG@BCEIMPJK@?$AAp?$AAt?$AAd?$AAt?$AAj?$AAl?$AA?5?$AA?$CK?$AA?$CK?$AA?$CK?$AA?5?$AAR?$AAe?$AAc?$AAo?$AAr?$AAd?$AAG?$AAa?$AAm?$AAe?$AAS?$AAc?$AAo?$AAr?$AAe?$AA?5?$AAw?$AAU?$AAs?$AAe?$AAr@ 00471830     TableFrame.obj
 0002:0000d888       ??_C@_1BK@FGBMONPC@?$AAp?$AAt?$AAd?$AAt?$AAj?$AAl?$AA?5?$AA?$CK?$AA?$CK?$AA?$CK?$AA?5?$AA6?$AA?$AA@ 00471888     TableFrame.obj
 0002:0000d8a8       ??_C@_1NE@EELEMEGM@?$AAp?$AAt?$AAd?$AAt?$AAa?$AAi?$AA?5?$AA?$CL?$AA?$CL?$AA?$CL?$AA?$CL?$AA?$CL?$AA?$CL?$AA?$CL?$AA?$CL?$AA?$CL?$AA?$CL?$AA?$CL?$AA?5?$AAR?$AAe?$AAc?$AAo?$AAr?$AAd?$AAG?$AAr?$AAo?$AAu?$AAp?$AAS?$AAc@ 004718a8     TableFrame.obj
 0002:0000d980       ??_C@_1EM@NHKAEENE@?$AAp?$AAt?$AAd?$AAt?$AAa?$AAi?$AA?5?$AA?$CL?$AA?$CL?$AA?$CL?$AA?$CL?$AA?$CL?$AA?$CL?$AA?$CL?$AA?$CL?$AA?$CL?$AA?$CL?$AA?$CL?$AA?5?$AAC?$AAa?$AAn?$AAc?$AAe?$AAl?$AAT?$AAa?$AAb?$AAl?$AAe?$AAR?$AAe@ 00471980     TableFrame.obj
 0002:0000d9d0       ??_C@_1EA@PCBCMEMO@?$AA?5?$AA?$CL?$AA?$CL?$AA?$CL?$AA?$CL?$AA?$CL?$AA?$CL?$AA?$CL?$AA?$CL?$AA?$CL?$AA?$CL?$AA?$CL?$AA?5?$AAC?$AAa?$AAn?$AAc?$AAe?$AAl?$AAT?$AAa?$AAb?$AAl?$AAe?$AAR?$AAe?$AAq?$AAu?$AAe?$AAs?$AAt?$AA?$AA@ 004719d0     TableFrame.obj
 0002:0000da10       ??_C@_1JK@HNMPCPDF@?$AAs?$AAt?$AAa?$AAr?$AAt?$AAg?$AAa?$AAm?$AAe?$AA?5?$AAu?$AAs?$AAe?$AAr?$AAi?$AAd?$AA?5?$AA?$DN?$AA?5?$AA?$CF?$AAd?$AA?5?$AAr?$AAo?$AAo?$AAm?$AAi?$AAd?$AA?5?$AA?$DN?$AA?5?$AA?$CF@ 00471a10     TableFrame.obj
 0002:0000dab0       ??_C@_1IG@HPNGHLDD@?$AAs?$AAt?$AAa?$AAr?$AAt?$AAg?$AAa?$AAm?$AAe?$AA?5?$AAu?$AAs?$AAe?$AAr?$AAi?$AAd?$AA?5?$AA?$DN?$AA?5?$AA?$CF?$AAd?$AA?5?$AAr?$AAo?$AAo?$AAm?$AAi?$AAd?$AA?5?$AA?$DN?$AA?5?$AA?$CF@ 00471ab0     TableFrame.obj
 0002:0000db38       ??_C@_1EI@DKMFDFBG@?$AAp?$AAt?$AAd?$AAt?$AAa?$AAi?$AAs?$AA?5?$AA?$CK?$AA?$CK?$AA?$CK?$AA?5?$AAC?$AAa?$AAn?$AAc?$AAe?$AAl?$AAT?$AAa?$AAb?$AAl?$AAe?$AAR?$AAe?$AAq?$AAu?$AAe?$AAs?$AAt?$AAR?$AAe@ 00471b38     TableFrame.obj
 0002:0000db80       ??_C@_1FM@FGDLMCAM@?$AAp?$AAt?$AAd?$AAt?$AAj?$AAs?$AA?5?$AA?$CK?$AA?$CK?$AA?$CK?$AA?5T?$BB?$AA?5?$AAU?$AAs?$AAe?$AAr?$AAI?$AAD?$AA?5?$AA?$DN?$AA?5?$AA?$CF?$AAd?$AA?5?$AA?5?$AA?5?$AAN?$AAi?$AAc?$AAn?$AAa@ 00471b80     TableFrame.obj
 0002:0000dbe0       ??_C@_1BFK@KPKLLKFB@?$AAC?$AAa?$AAn?$AAc?$AAe?$AAl?$AAT?$AAa?$AAb?$AAl?$AAe?$AAR?$AAe?$AAq?$AAu?$AAe?$AAs?$AAt?$AAR?$AAe?$AAp?$AAl?$AAy?$AA?5?$AAu?$AAs?$AAe?$AAr?$AAi?$AAd?$AA?5?$AA?$DN@ 00471be0     TableFrame.obj
 0002:0000dd40       ??_C@_1BHC@HDNCBFAP@?$AAp?$AAt?$AAd?$AAt?$AAa?$AAi?$AAs?$AA?5?$AA?$CK?$AA?$CK?$AA?$CK?$AA?5?$AAC?$AAa?$AAn?$AAc?$AAe?$AAl?$AAT?$AAa?$AAb?$AAl?$AAe?$AAR?$AAe?$AAq?$AAu?$AAe?$AAs?$AAt?$AAR?$AAe@ 00471d40     TableFrame.obj
 0002:0000deb4       ??_C@_0DH@EIDFMNDG@ptdtais?5?$CK?$CK?$CK?$CK?5?5kill?5?5?5IDI_PERSONA@ 00471eb4     TableFrame.obj
 0002:0000def0       ??_C@_1GO@HMJGLMHI@?$AAp?$AAt?$AAd?$AAt?$AAa?$AAi?$AAs?$AA?5?$AA?$CK?$AA?$CK?$AA?$CK?$AA?$CK?$AA?5?$AA?5?$AAk?$AAi?$AAl?$AAl?$AA?5?$AA?5?$AA?5?$AAI?$AAD?$AAI?$AA_?$AAP?$AAE?$AAR?$AAS?$AAO?$AAN?$AAA@ 00471ef0     TableFrame.obj
 0002:0000df60       ??_C@_1BGG@NONBMJFC@?$AAp?$AAt?$AAd?$AAt?$AAa?$AAi?$AA?5?$AA?$CK?$AA?$CK?$AA?$CK?$AA?5?$AAC?$AAa?$AAn?$AAc?$AAe?$AAl?$AAT?$AAa?$AAb?$AAl?$AAe?$AAR?$AAe?$AAq?$AAu?$AAe?$AAs?$AAt?$AAR?$AAe?$AAp@ 00471f60     TableFrame.obj
 0002:0000e0c8       ??_C@_1LG@CNGPMELN@?$AAp?$AAt?$AAd?$AAt?$AAa?$AAi?$AA?5?$AA?$CK?$AA?$CK?$AA?$CK?$AA?5?$AAC?$AAa?$AAn?$AAc?$AAe?$AAl?$AAT?$AAa?$AAb?$AAl?$AAe?$AAR?$AAe?$AAq?$AAu?$AAe?$AAs?$AAt?$AAR?$AAe?$AAp@ 004720c8     TableFrame.obj
 0002:0000e180       ??_C@_1NC@DGNIEBAK@?$AAp?$AAt?$AAd?$AAt?$AAa?$AAi?$AA?5?$AA?$CK?$AA?$CK?$AA?$CK?$AA?5?$AAC?$AAa?$AAn?$AAc?$AAe?$AAl?$AAT?$AAa?$AAb?$AAl?$AAe?$AAR?$AAe?$AAq?$AAu?$AAe?$AAs?$AAt?$AAR?$AAe?$AAp@ 00472180     TableFrame.obj
 0002:0000e258       ??_C@_1LG@MMAHEDOD@?$AAp?$AAt?$AAd?$AAt?$AAa?$AAi?$AA?5?$AA?$CK?$AA?$CK?$AA?$CK?$AA?5?$AAC?$AAa?$AAn?$AAc?$AAe?$AAl?$AAT?$AAa?$AAb?$AAl?$AAe?$AAR?$AAe?$AAq?$AAu?$AAe?$AAs?$AAt?$AAR?$AAe?$AAp@ 00472258     TableFrame.obj
 0002:0000e310       ??_C@_1NC@EHCFHJLN@?$AAp?$AAt?$AAd?$AAt?$AAa?$AAi?$AA?5?$AA?$CK?$AA?$CK?$AA?$CK?$AA?5?$AAC?$AAa?$AAn?$AAc?$AAe?$AAl?$AAT?$AAa?$AAb?$AAl?$AAe?$AAR?$AAe?$AAq?$AAu?$AAe?$AAs?$AAt?$AAR?$AAe?$AAp@ 00472310     TableFrame.obj
 0002:0000e3e4       ??_C@_1BO@JFLFPBML@s?$KJ?$FL?$LGu3?$IL?w?$IJ?cec?$PP?$AMn8b?$APc?PRM?$HO?Sg_?$PP?$AB?$AA?$AA@ 004723e4     TableFrame.obj
 0002:0000e408       ??_C@_1GC@GFLFGMPF@?$AAp?$AAt?$AAd?$AAt?$AAa?$AAi?$AA?5?$AA?$CK?$AA?$CK?$AA?$CK?$AA?$CK?$AA?5?$AA?5?$AAC?$AAa?$AAn?$AAc?$AAe?$AAl?$AAT?$AAa?$AAb?$AAl?$AAe?$AAR?$AAe?$AAq?$AAu?$AAe?$AAs?$AAt?$AAR@ 00472408     TableFrame.obj
 0002:0000e470       ??_C@_1EK@HADNFOJ@?$AAp?$AAt?$AAd?$AAt?$AAd?$AAt?$AA?5?$AA?$CK?$AA?$CK?$AA?$CK?$AA?$CK?$AA?5?$AAP?$AAe?$AAr?$AAf?$AAo?$AAr?$AAm?$AAS?$AAt?$AAa?$AAn?$AAd?$AAU?$AAp?$AAA?$AAc?$AAt?$AAi?$AAo?$AAn@ 00472470     TableFrame.obj
 0002:0000e4c0       ??_C@_1EI@PGHEBIAN@?$AAp?$AAt?$AAd?$AAt?$AAd?$AAt?$AA?5?$AA?$CK?$AA?$CK?$AA?$CK?$AA?$CK?$AA?5?$AAP?$AAe?$AAr?$AAf?$AAo?$AAr?$AAm?$AAL?$AAo?$AAo?$AAk?$AAo?$AAn?$AAS?$AAt?$AAa?$AAn?$AAd?$AAu?$AAp@ 004724c0     TableFrame.obj
 0002:0000e508       ??_C@_1LC@NMAPABJI@?$AAp?$AAt?$AAd?$AAt?$AAa?$AAi?$AA?5?$AA?$CK?$AA?$CK?$AA?$CK?$AA?$CK?$AA?5?$AAS?$AAe?$AAt?$AAP?$AAe?$AAr?$AAs?$AAo?$AAn?$AAa?$AAl?$AAT?$AAa?$AAb?$AAl?$AAe?$AAP?$AAa?$AAr?$AAa@ 00472508     TableFrame.obj
 0002:0000e5c0       ??_C@_1IE@EFGPDLLG@?$AAp?$AAt?$AAd?$AAt?$AAa?$AAi?$AA?5?$AA?$CK?$AA?$CK?$AA?$CK?$AA?$CK?$AA?5R?$BL?$FO?z?$FL?$JKe?vVh?$AA?5?$AAI?$AAD?$AAI?$AA_?$AAP?$AAE?$AAR?$AAS?$AAO?$AAN?$AAA?$AAL?$AA_?$AAA@ 004725c0     TableFrame.obj
 0002:0000e644       ??_C@_1DO@EDODJEFF@?$AAp?$AAt?$AAd?$AAt?$AAa?$AAi?$AAs?$AA?5?$AA?$CK?$AA?$CK?$AA?$CK?$AA?$CK?$AA?5?$AA?5?$AAH?$AAo?$AAs?$AAt?$AAD?$AAi?$AAs?$AAs?$AAu?$AAm?$AAe?$AAG?$AAa?$AAm?$AAe?$AA?5?$AA?$AA@ 00472644     TableFrame.obj
 0002:0000e688       ??_C@_1HA@JJHDKKL@?$AAp?$AAt?$AAd?$AAt?$AAa?$AAi?$AAs?$AA?5?$AA?$CK?$AA?$CK?$AA?$CK?$AA?$CK?$AA?5?$AA?5?$AAH?$AAo?$AAs?$AAt?$AAD?$AAi?$AAs?$AAs?$AAu?$AAm?$AAe?$AAG?$AAa?$AAm?$AAe?$AA?5?$AAg?$AAr@ 00472688     TableFrame.obj
 0002:0000e6f8       ??_C@_1FM@IJAALPOL@?$AAp?$AAt?$AAd?$AAt?$AAa?$AAi?$AAs?$AA?5?$AA?$CK?$AA?$CK?$AA?$CK?$AA?$CK?$AA?5?$AA?5b?$DP?$JF?t?$FN?r?$IJ?cec?$AA?5?$AAg?$AAr?$AAo?$AAu?$AAp?$AAi?$AAd?$AA?5?$AA?$DN?$AA?5?$AA?$CF?$AAd@ 004726f8     TableFrame.obj
 0002:0000e758       ??_C@_1EA@HIDJCCGL@?$AAp?$AAt?$AAd?$AAt?$AAa?$AAi?$AAs?$AA?5?$AA?$CK?$AA?$CK?$AA?$CK?$AA?$CK?$AA?5?$AA?5?$AAH?$AAo?$AAs?$AAt?$AAD?$AAi?$AAs?$AAs?$AAu?$AAm?$AAe?$AAG?$AAa?$AAm?$AAe?$AA?5?$AA1?$AA?$AA@ 00472758     TableFrame.obj
 0002:0000e798       ??_C@_1HE@JIAEDOAN@?$AAp?$AAt?$AAd?$AAt?$AAa?$AAi?$AAs?$AA?5?$AA?$CK?$AA?$CK?$AA?$CK?$AA?$CK?$AA?5?$AA?5?$AAH?$AAo?$AAs?$AAt?$AAD?$AAi?$AAs?$AAs?$AAu?$AAm?$AAe?$AAG?$AAa?$AAm?$AAe?$AA?5?$AA1?$AA?5@ 00472798     TableFrame.obj
 0002:0000e810       ??_C@_1BFG@OBGCCNIA@?$AAp?$AAt?$AAd?$AAt?$AAa?$AAi?$AA?5?$AA?$CK?$AA?$CK?$AA?$CK?$AA?5?$AAH?$AAo?$AAs?$AAt?$AAD?$AAi?$AAs?$AAs?$AAu?$AAm?$AAe?$AAG?$AAa?$AAm?$AAe?$AA?5?$IN?$CBs?4?$AA?5?$AAm?$AA_@ 00472810     TableFrame.obj
 0002:0000e968       ??_C@_1KG@FOFEMBFG@?$AAp?$AAt?$AAd?$AAt?$AAa?$AAi?$AA?5?$AA?$CK?$AA?$CK?$AA?$CK?$AA?5?$AAH?$AAo?$AAs?$AAt?$AAD?$AAi?$AAs?$AAs?$AAu?$AAm?$AAe?$AAG?$AAa?$AAm?$AAe?$AA?5?$IN?$CBs?4?$AA?5?$AA1?$AA?5@ 00472968     TableFrame.obj
 0002:0000ea10       ??_C@_1MC@FDFKNLDE@?$AAp?$AAt?$AAd?$AAt?$AAa?$AAi?$AA?5?$AA?$CK?$AA?$CK?$AA?$CK?$AA?5?$AAH?$AAo?$AAs?$AAt?$AAD?$AAi?$AAs?$AAs?$AAu?$AAm?$AAe?$AAG?$AAa?$AAm?$AAe?$AA?5?$IN?$CBs?4?$AA?5?$AA2?$AA?5@ 00472a10     TableFrame.obj
 0002:0000ead8       ??_C@_1KG@LPDMEGAI@?$AAp?$AAt?$AAd?$AAt?$AAa?$AAi?$AA?5?$AA?$CK?$AA?$CK?$AA?$CK?$AA?5?$AAH?$AAo?$AAs?$AAt?$AAD?$AAi?$AAs?$AAs?$AAu?$AAm?$AAe?$AAG?$AAa?$AAm?$AAe?$AA?5?$IN?$CBs?4?$AA?5?$AA3?$AA?5@ 00472ad8     TableFrame.obj
 0002:0000eb80       ??_C@_1MC@CCKHODID@?$AAp?$AAt?$AAd?$AAt?$AAa?$AAi?$AA?5?$AA?$CK?$AA?$CK?$AA?$CK?$AA?5?$AAH?$AAo?$AAs?$AAt?$AAD?$AAi?$AAs?$AAs?$AAu?$AAm?$AAe?$AAG?$AAa?$AAm?$AAe?$AA?5?$IN?$CBs?4?$AA?5?$AA4?$AA?5@ 00472b80     TableFrame.obj
 0002:0000ec44       ??_C@_1M@JFDENPEO@?$HO?$KGb?$BI?$HO?Sg_0?$AC?$AA?$AA@ 00472c44     TableFrame.obj
 0002:0000ec50       ??_C@_1BG@GFFAHFHC@b?$DPN?$DL?$FN?r_?3R6?$IJ?cecn8b?$AP?$PP?$AB?$AA?$AA@ 00472c50     TableFrame.obj
 0002:0000ec68       ??_C@_1BC@GPNKOHJ@?$HO?$KGb?$BIb?$DP?$JF?t?$II?$KL?$IJ?cec?$PP?$AB?$AA?$AA@ 00472c68     TableFrame.obj
 0002:0000ec80       ??_C@_1FO@KBLCDLKM@?$AAp?$AAt?$AAd?$AAt?$AAd?$AAt?$AA?5?$AA?$CK?$AA?$CK?$AA?$CK?$AA?5?$AAH?$AAo?$AAs?$AAt?$AAD?$AAi?$AAs?$AAs?$AAu?$AAm?$AAe?$AAG?$AAa?$AAm?$AAe?$AA?5?$AAu?$AAs?$AAe?$AAr?$AAi@ 00472c80     TableFrame.obj
 0002:0000ece0       ??_C@_1FC@LFEMANNB@?$AAp?$AAt?$AAd?$AAt?$AAa?$AAi?$AA?5?$AA?$CK?$AA?$CK?$AA?$CK?$AA?$CK?$AA?5?$AA?5?$AAH?$AAo?$AAs?$AAt?$AAD?$AAi?$AAs?$AAs?$AAu?$AAm?$AAe?$AAG?$AAa?$AAm?$AAe?$AA?5?$AAr?$AAo?$AAo@ 00472ce0     TableFrame.obj
 0002:0000ed38       ??_C@_1JC@BELGHDLE@?$AAp?$AAt?$AAd?$AAt?$AAa?$AAi?$AAs?$AA?5?$AA?$CK?$AA?$CK?$AA?$CK?$AA?5?$AAS?$AAe?$AAt?$AAP?$AAe?$AAr?$AAs?$AAo?$AAn?$AAa?$AAl?$AAR?$AAo?$AAo?$AAm?$AAI?$AAD?$AA?5?$AAd?$AAw@ 00472d38     TableFrame.obj
 0002:0000edd0       ??_C@_0GF@LJLBOPLE@JudePersonalStandUp?5userid?5?$DN?5?$CFd?5@ 00472dd0     TableFrame.obj
 0002:0000ee38       ??_C@_1DM@KJCNFIAE@?$AAp?$AAt?$AAd?$AAt?$AAd?$AAt?$AA?5?$AA?$CK?$AA?$CK?$AA?$CK?$AA?5?$IL?$LO?$HPn?$AAu?$AAs?$AAe?$AAr?$AAi?$AAd?$AA?5?$AA?$DN?$AA?5?$AA?$CF?$AAd?$AA?5N?3zzr?$LG?$GA?$AB?$AA?$AA@ 00472e38     TableFrame.obj
 0002:0000ee78       ??_C@_1EE@HJDPNFKB@?$AAp?$AAt?$AAd?$AAt?$AAd?$AAt?$AA?5?$AA?$CK?$AA?$CK?$AA?$CK?$AA?5?$IL?$LO?$HPn?$AAu?$AAs?$AAe?$AAr?$AAi?$AAd?$AA?5?$AA?$DN?$AA?5?$AA?$CF?$AAd?$AA?5N?3?$AAf?$AAr?$AAe?$AAe?$AA?5r?$LG@ 00472e78     TableFrame.obj
 0002:0000eec0       ??_C@_1JI@BKDPPPCG@?$AAp?$AAt?$AAd?$AAt?$AAa?$AAi?$AAs?$AA?5?$AA?$CK?$AA?$CK?$AA?$CK?$AA?5?$AAS?$AAe?$AAt?$AAP?$AAe?$AAr?$AAs?$AAo?$AAn?$AAa?$AAl?$AAT?$AAa?$AAb?$AAl?$AAe?$AAL?$AAo?$AAc?$AAk@ 00472ec0     TableFrame.obj
 0002:0000ef58       ??_C@_1JI@GNNGMJKM@?$AAp?$AAt?$AAd?$AAt?$AAa?$AAi?$AAs?$AA?5?$AA?$CK?$AA?$CK?$AA?$CK?$AA?5?$AAS?$AAe?$AAt?$AAP?$AAe?$AAr?$AAs?$AAo?$AAn?$AAa?$AAl?$AAT?$AAa?$AAb?$AAl?$AAe?$AAL?$AAo?$AAc?$AAk@ 00472f58     TableFrame.obj
 0002:0000eff0       ??_C@_1IO@FMHEGHND@?$AAp?$AAt?$AAd?$AAt?$AAa?$AAi?$AA?5?$AA?$CK?$AA?$CK?$AA?$CK?$AA?5_?$AAY?Kh?$MAmK?$AA?5?$AAE?$AAf?$AAf?$AAi?$AAc?$AAa?$AAc?$AAy?$AAA?$AAu?$AAt?$AAo?$AAS?$AAt?$AAa?$AAr@ 00472ff0     TableFrame.obj
 0002:0000f080       ??_C@_1KI@IONBDFLE@?$AAp?$AAt?$AAd?$AAt?$AAa?$AAi?$AA?5?$AA?$CK?$AA?$CK?$AA?$CK?$AA?5_?$AAY?Kh?$MAmK?$AA?5?$AAE?$AAf?$AAf?$AAi?$AAc?$AAa?$AAc?$AAy?$AAA?$AAu?$AAt?$AAo?$AAS?$AAt?$AAa?$AAr@ 00473080     TableFrame.obj
 0002:0000f128       ??_C@_1KO@CLJEHGEH@?$AAp?$AAt?$AAd?$AAt?$AAa?$AAi?$AA?5?$AA?$CK?$AA?$CK?$AA?$CK?$AA?5_?$AAY?Kh?$MAmK?$AA?5?$AAE?$AAf?$AAf?$AAi?$AAc?$AAa?$AAc?$AAy?$AAA?$AAu?$AAt?$AAo?$AAS?$AAt?$AAa?$AAr@ 00473128     TableFrame.obj
 0002:0000f1d8       ??_C@_1PO@LMPBMHNF@?$AAp?$AAt?$AAd?$AAt?$AAa?$AAi?$AA?5?$AA?$CK?$AA?$CK?$AA?$CK?$AA?5_?$AAY?Kh?$MAmK?$AA?5?$AAw?$AAR?$AAe?$AAa?$AAd?$AAy?$AAU?$AAs?$AAe?$AAr?$AAC?$AAo?$AAu?$AAn?$AAt?$AA?5@ 004731d8     TableFrame.obj
 0002:0000f2d8       ??_C@_1HM@EALFIJBC@?$AAp?$AAt?$AAd?$AAt?$AAa?$AAi?$AA?5?$AA?$CK?$AA?$CK?$AA?$CK?$AA?5_?$AAY?Kh?$MAmK?$AA?5?$IL?$LO?$HPn?$IB?jR?$KI_?$AAY?K?$FL?$JKe?vVh?$AA?5?$AAm?$AA_?$AAw?$AAA?$AAI?$AAA@ 004732d8     TableFrame.obj
 0002:0000f358       ??_C@_1JI@KCLDKIGE@?$AAp?$AAt?$AAd?$AAt?$AAa?$AAi?$AA?5?$AA?$CK?$AA?$CK?$AA?$CK?$AA?5?$IB?jR?$KI_?$AAY?Ke?v?$JF?t?$IL?$LO?$HPn?$AA?5_?$AAY?KgC?$JGPW?$CI?$AAA?$AAI?$AA?5?$AAm?$AA_?$AAw?$AAA@ 00473358     TableFrame.obj
 0002:0000f3f0       ??_C@_1HA@PMNALECP@?$AAp?$AAt?$AAd?$AAt?$AAa?$AAi?$AA?5?$AA?$CK?$AA?$CK?$AA?$CK?$AA?5?$AAS?$AAe?$AAt?$AAG?$AAr?$AAo?$AAu?$AAp?$AAC?$AAo?$AAn?$AAf?$AAi?$AAg?$AAI?$AAD?$AA?5?$AAm?$AA_?$AAd?$AAw@ 004733f0     TableFrame.obj
 0002:0000f460       ??_C@_1FI@GMMFKHDL@?$AAp?$AAt?$AAd?$AAt?$AAa?$AAi?$AA?5?$AA?$CK?$AA?$CK?$AA?$CK?$AA?5?$AAU?$AAp?$AAd?$AAa?$AAt?$AAe?$AAA?$AAI?$AAT?$AAa?$AAb?$AAl?$AAe?$AAC?$AAh?$AAa?$AAn?$AAg?$AAe?$AA?5T?$BB@ 00473460     TableFrame.obj
 0002:0000f4b8       ??_C@_1MA@LLOOMIFM@?$AAp?$AAt?$AAd?$AAt?$AAa?$AAi?$AA?5?$AA?$CK?$AA?$CK?$AA?$CK?$AA?5?$AAU?$AAp?$AAd?$AAa?$AAt?$AAe?$AAA?$AAI?$AAT?$AAa?$AAb?$AAl?$AAe?$AAC?$AAh?$AAa?$AAn?$AAg?$AAe?$AA?5?$AAm@ 004734b8     TableFrame.obj
 0002:0000f608       ??_7type_info@@6B@         00473608     MSVCRT:std_type_info_static.obj
 0002:0000f60c       ??_C@_1BK@MGMFAEKH@?$AAk?$AAe?$AAr?$AAn?$AAe?$AAl?$AA3?$AA2?$AA?4?$AAd?$AAl?$AAl?$AA?$AA@ 0047360c     MSVCRT:thread_safe_statics.obj
 0002:0000f628       ??_C@_0BM@HLJJNPAH@InitializeConditionVariable?$AA@ 00473628     MSVCRT:thread_safe_statics.obj
 0002:0000f644       ??_C@_0BJ@JEBJOJFJ@SleepConditionVariableCS?$AA@ 00473644     MSVCRT:thread_safe_statics.obj
 0002:0000f660       ??_C@_0BJ@PGPPEPCC@WakeAllConditionVariable?$AA@ 00473660     MSVCRT:thread_safe_statics.obj
 0002:0000f688       ??_7exception@std@@6B@     00473688     MSVCRT:throw_bad_alloc.obj
 0002:0000f690       ??_C@_0BC@EOODALEL@Unknown?5exception?$AA@ 00473690     MSVCRT:throw_bad_alloc.obj
 0002:0000f6a8       ??_7bad_alloc@std@@6B@     004736a8     MSVCRT:throw_bad_alloc.obj
 0002:0000f6b0       ??_C@_0P@GHFPNOJB@bad?5allocation?$AA@ 004736b0     MSVCRT:throw_bad_alloc.obj
 0002:0000f6c4       ??_7bad_array_new_length@std@@6B@ 004736c4     MSVCRT:throw_bad_alloc.obj
 0002:0000f6cc       ??_C@_0BF@KINCDENJ@bad?5array?5new?5length?$AA@ 004736cc     MSVCRT:throw_bad_alloc.obj
 0002:0000f6e4       _GUID_ATLVer110            004736e4     atls:atlbase.obj
 0002:0000f6f8       ??_C@_1IC@ONKHOIDK@?$AAE?$AAR?$AAR?$AAO?$AAR?$AA?5?$AA?3?$AA?5?$AAU?$AAn?$AAa?$AAb?$AAl?$AAe?$AA?5?$AAt?$AAo?$AA?5?$AAi?$AAn?$AAi?$AAt?$AAi?$AAa?$AAl?$AAi?$AAz?$AAe?$AA?5?$AAc?$AAr?$AAi@ 004736f8     atls:atlbase.obj
 0002:0000f77c       ??_7_com_error@@6B@        0047377c     comsuppw:comraise.obj
 0002:0000f7d8       __load_config_used         004737d8     MSVCRT:loadcfg.obj
 0002:0000f834       __tls_used                 00473834     MSVCRT:tlssup.obj
 0002:0000f84c       ??_R3CObject@@8            0047384c     AttemperEngineSink.obj
 0002:0000f85c       ??_R2CObject@@8            0047385c     AttemperEngineSink.obj
 0002:0000f864       ??_R1A@?0A@EA@CObject@@8   00473864     AttemperEngineSink.obj
 0002:0000f880       ??_R4IUnknownEx@@6B@       00473880     AttemperEngineSink.obj
 0002:0000f894       ??_R3IUnknownEx@@8         00473894     AttemperEngineSink.obj
 0002:0000f8a4       ??_R2IUnknownEx@@8         004738a4     AttemperEngineSink.obj
 0002:0000f8ac       ??_R1A@?0A@EA@IUnknownEx@@8 004738ac     AttemperEngineSink.obj
 0002:0000f8c8       ??_R4IAttemperEngineSink@@6B@ 004738c8     AttemperEngineSink.obj
 0002:0000f8dc       ??_R3IAttemperEngineSink@@8 004738dc     AttemperEngineSink.obj
 0002:0000f8ec       ??_R2IAttemperEngineSink@@8 004738ec     AttemperEngineSink.obj
 0002:0000f8f8       ??_R1A@?0A@EA@IAttemperEngineSink@@8 004738f8     AttemperEngineSink.obj
 0002:0000f914       ??_R4IServerUserItemSink@@6B@ 00473914     AttemperEngineSink.obj
 0002:0000f928       ??_R3IServerUserItemSink@@8 00473928     AttemperEngineSink.obj
 0002:0000f938       ??_R2IServerUserItemSink@@8 00473938     AttemperEngineSink.obj
 0002:0000f944       ??_R1A@?0A@EA@IServerUserItemSink@@8 00473944     AttemperEngineSink.obj
 0002:0000f960       ??_R4IMainServiceFrame@@6B@ 00473960     AttemperEngineSink.obj
 0002:0000f974       ??_R3IMainServiceFrame@@8  00473974     AttemperEngineSink.obj
 0002:0000f984       ??_R2IMainServiceFrame@@8  00473984     AttemperEngineSink.obj
 0002:0000f990       ??_R1A@?0A@EA@IMainServiceFrame@@8 00473990     AttemperEngineSink.obj
 0002:0000f9ac       ??_R4?$CWHArray@UtagDistributeInfo@@ABU1@@@6B@ 004739ac     AttemperEngineSink.obj
 0002:0000f9c0       ??_R3?$CWHArray@UtagDistributeInfo@@ABU1@@@8 004739c0     AttemperEngineSink.obj
 0002:0000f9d0       ??_R2?$CWHArray@UtagDistributeInfo@@ABU1@@@8 004739d0     AttemperEngineSink.obj
 0002:0000f9d8       ??_R1A@?0A@EA@?$CWHArray@UtagDistributeInfo@@ABU1@@@8 004739d8     AttemperEngineSink.obj
 0002:0000f9f4       ??_R4?$CWHArray@PB_WABQB_W@@6B@ 004739f4     AttemperEngineSink.obj
 0002:0000fa08       ??_R3?$CWHArray@PB_WABQB_W@@8 00473a08     AttemperEngineSink.obj
 0002:0000fa18       ??_R2?$CWHArray@PB_WABQB_W@@8 00473a18     AttemperEngineSink.obj
 0002:0000fa20       ??_R1A@?0A@EA@?$CWHArray@PB_WABQB_W@@8 00473a20     AttemperEngineSink.obj
 0002:0000fa3c       ??_R4CSensitiveWordsFilter@@6B@ 00473a3c     AttemperEngineSink.obj
 0002:0000fa50       ??_R3CSensitiveWordsFilter@@8 00473a50     AttemperEngineSink.obj
 0002:0000fa60       ??_R2CSensitiveWordsFilter@@8 00473a60     AttemperEngineSink.obj
 0002:0000fa68       ??_R1A@?0A@EA@CSensitiveWordsFilter@@8 00473a68     AttemperEngineSink.obj
 0002:0000fa84       ??_R4?$CWHArray@PAVCTableFrame@@ABQAV1@@@6B@ 00473a84     AttemperEngineSink.obj
 0002:0000fa98       ??_R3?$CWHArray@PAVCTableFrame@@ABQAV1@@@8 00473a98     AttemperEngineSink.obj
 0002:0000faa8       ??_R2?$CWHArray@PAVCTableFrame@@ABQAV1@@@8 00473aa8     AttemperEngineSink.obj
 0002:0000fab0       ??_R1A@?0A@EA@?$CWHArray@PAVCTableFrame@@ABQAV1@@@8 00473ab0     AttemperEngineSink.obj
 0002:0000facc       ??_R4?$CMap@KKKAAK@@6B@    00473acc     AttemperEngineSink.obj
 0002:0000fae0       ??_R3?$CMap@KKKAAK@@8      00473ae0     AttemperEngineSink.obj
 0002:0000faf0       ??_R2?$CMap@KKKAAK@@8      00473af0     AttemperEngineSink.obj
 0002:0000fafc       ??_R1A@?0A@EA@?$CMap@KKKAAK@@8 00473afc     AttemperEngineSink.obj
 0002:0000fb18       ??_R4?$CMap@GGUtagTaskConfigInfo@@AAU1@@@6B@ 00473b18     AttemperEngineSink.obj
 0002:0000fb2c       ??_R3?$CMap@GGUtagTaskConfigInfo@@AAU1@@@8 00473b2c     AttemperEngineSink.obj
 0002:0000fb3c       ??_R2?$CMap@GGUtagTaskConfigInfo@@AAU1@@@8 00473b3c     AttemperEngineSink.obj
 0002:0000fb48       ??_R1A@?0A@EA@?$CMap@GGUtagTaskConfigInfo@@AAU1@@@8 00473b48     AttemperEngineSink.obj
 0002:0000fb64       ??_R4?$CWHArray@PAUtagPersonalTableParameter@@ABQAU1@@@6B@ 00473b64     AttemperEngineSink.obj
 0002:0000fb78       ??_R3?$CWHArray@PAUtagPersonalTableParameter@@ABQAU1@@@8 00473b78     AttemperEngineSink.obj
 0002:0000fb88       ??_R2?$CWHArray@PAUtagPersonalTableParameter@@ABQAU1@@@8 00473b88     AttemperEngineSink.obj
 0002:0000fb90       ??_R1A@?0A@EA@?$CWHArray@PAUtagPersonalTableParameter@@ABQAU1@@@8 00473b90     AttemperEngineSink.obj
 0002:0000fbac       ??_R4CAttemperEngineSink@@6BIAttemperEngineSink@@@ 00473bac     AttemperEngineSink.obj
 0002:0000fbc0       ??_R3CAttemperEngineSink@@8 00473bc0     AttemperEngineSink.obj
 0002:0000fbd0       ??_R2CAttemperEngineSink@@8 00473bd0     AttemperEngineSink.obj
 0002:0000fbf0       ??_R1A@?0A@EA@CAttemperEngineSink@@8 00473bf0     AttemperEngineSink.obj
 0002:0000fc0c       ??_R1A@?0A@EC@IUnknownEx@@8 00473c0c     AttemperEngineSink.obj
 0002:0000fc28       ??_R13?0A@EA@IMainServiceFrame@@8 00473c28     AttemperEngineSink.obj
 0002:0000fc44       ??_R13?0A@EC@IUnknownEx@@8 00473c44     AttemperEngineSink.obj
 0002:0000fc60       ??_R17?0A@EA@IServerUserItemSink@@8 00473c60     AttemperEngineSink.obj
 0002:0000fc7c       ??_R17?0A@EC@IUnknownEx@@8 00473c7c     AttemperEngineSink.obj
 0002:0000fc98       ??_R4CAttemperEngineSink@@6BIMainServiceFrame@@@ 00473c98     AttemperEngineSink.obj
 0002:0000fcac       ??_R4CAttemperEngineSink@@6BIServerUserItemSink@@@ 00473cac     AttemperEngineSink.obj
 0002:0000fcc0       ??_R4CDataBaseHelper@@6B@  00473cc0     DataBaseEngineSink.obj
 0002:0000fcd4       ??_R3CDataBaseHelper@@8    00473cd4     DataBaseEngineSink.obj
 0002:0000fce4       ??_R2CDataBaseHelper@@8    00473ce4     DataBaseEngineSink.obj
 0002:0000fcf0       ??_R1A@?0A@EA@CDataBaseHelper@@8 00473cf0     DataBaseEngineSink.obj
 0002:0000fd0c       ??_R1A@?0A@EA@?$CTempldateHelper@UIDataBase@@@@8 00473d0c     DataBaseEngineSink.obj
 0002:0000fd28       ??_R3?$CTempldateHelper@UIDataBase@@@@8 00473d28     DataBaseEngineSink.obj
 0002:0000fd38       ??_R2?$CTempldateHelper@UIDataBase@@@@8 00473d38     DataBaseEngineSink.obj
 0002:0000fd40       ??_R4?$CTempldateHelper@UIDataBase@@@@6B@ 00473d40     DataBaseEngineSink.obj
 0002:0000fd54       ??_R4IDataBaseEngineSink@@6B@ 00473d54     DataBaseEngineSink.obj
 0002:0000fd68       ??_R3IDataBaseEngineSink@@8 00473d68     DataBaseEngineSink.obj
 0002:0000fd78       ??_R2IDataBaseEngineSink@@8 00473d78     DataBaseEngineSink.obj
 0002:0000fd84       ??_R1A@?0A@EA@IDataBaseEngineSink@@8 00473d84     DataBaseEngineSink.obj
 0002:0000fda0       ??_R4IGameDataBaseEngine@@6B@ 00473da0     DataBaseEngineSink.obj
 0002:0000fdb4       ??_R3IGameDataBaseEngine@@8 00473db4     DataBaseEngineSink.obj
 0002:0000fdc4       ??_R2IGameDataBaseEngine@@8 00473dc4     DataBaseEngineSink.obj
 0002:0000fdd0       ??_R1A@?0A@EA@IGameDataBaseEngine@@8 00473dd0     DataBaseEngineSink.obj
 0002:0000fdec       ??_R4CDataBaseEngineSink@@6BIDataBaseEngineSink@@@ 00473dec     DataBaseEngineSink.obj
 0002:0000fe00       ??_R3CDataBaseEngineSink@@8 00473e00     DataBaseEngineSink.obj
 0002:0000fe10       ??_R2CDataBaseEngineSink@@8 00473e10     DataBaseEngineSink.obj
 0002:0000fe28       ??_R1A@?0A@EA@CDataBaseEngineSink@@8 00473e28     DataBaseEngineSink.obj
 0002:0000fe44       ??_R13?0A@EA@IGameDataBaseEngine@@8 00473e44     DataBaseEngineSink.obj
 0002:0000fe60       ??_R4CDataBaseEngineSink@@6BIGameDataBaseEngine@@@ 00473e60     DataBaseEngineSink.obj
 0002:0000fe74       ??_R4CCriticalSection@@6B@ 00473e74     DBCorrespondManager.obj
 0002:0000fe88       ??_R3CCriticalSection@@8   00473e88     DBCorrespondManager.obj
 0002:0000fe98       ??_R2CCriticalSection@@8   00473e98     DBCorrespondManager.obj
 0002:0000fea8       ??_R1A@?0A@EA@CCriticalSection@@8 00473ea8     DBCorrespondManager.obj
 0002:0000fec4       ??_R1A@?0A@EA@CSyncObject@@8 00473ec4     DBCorrespondManager.obj
 0002:0000fee0       ??_R3CSyncObject@@8        00473ee0     DBCorrespondManager.obj
 0002:0000fef0       ??_R2CSyncObject@@8        00473ef0     DBCorrespondManager.obj
 0002:0000fefc       ??_R4IServiceModule@@6B@   00473efc     DBCorrespondManager.obj
 0002:0000ff10       ??_R3IServiceModule@@8     00473f10     DBCorrespondManager.obj
 0002:0000ff20       ??_R2IServiceModule@@8     00473f20     DBCorrespondManager.obj
 0002:0000ff2c       ??_R1A@?0A@EA@IServiceModule@@8 00473f2c     DBCorrespondManager.obj
 0002:0000ff48       ??_R4IDBCorrespondManager@@6B@ 00473f48     DBCorrespondManager.obj
 0002:0000ff5c       ??_R3IDBCorrespondManager@@8 00473f5c     DBCorrespondManager.obj
 0002:0000ff6c       ??_R2IDBCorrespondManager@@8 00473f6c     DBCorrespondManager.obj
 0002:0000ff7c       ??_R1A@?0A@EA@IDBCorrespondManager@@8 00473f7c     DBCorrespondManager.obj
 0002:0000ff98       ??_R4?$CList@PAUtagDBRequestHead@@ABQAU1@@@6B@ 00473f98     DBCorrespondManager.obj
 0002:0000ffac       ??_R3?$CList@PAUtagDBRequestHead@@ABQAU1@@@8 00473fac     DBCorrespondManager.obj
 0002:0000ffbc       ??_R2?$CList@PAUtagDBRequestHead@@ABQAU1@@@8 00473fbc     DBCorrespondManager.obj
 0002:0000ffc8       ??_R1A@?0A@EA@?$CList@PAUtagDBRequestHead@@ABQAU1@@@8 00473fc8     DBCorrespondManager.obj
 0002:0000ffe4       ??_R4?$CWHArray@KABK@@6B@  00473fe4     DBCorrespondManager.obj
 0002:0000fff8       ??_R3?$CWHArray@KABK@@8    00473ff8     DBCorrespondManager.obj
 0002:00010008       ??_R2?$CWHArray@KABK@@8    00474008     DBCorrespondManager.obj
 0002:00010010       ??_R1A@?0A@EA@?$CWHArray@KABK@@8 00474010     DBCorrespondManager.obj
 0002:0001002c       ??_R4CDBCorrespondManager@@6B@ 0047402c     DBCorrespondManager.obj
 0002:00010040       ??_R3CDBCorrespondManager@@8 00474040     DBCorrespondManager.obj
 0002:00010050       ??_R2CDBCorrespondManager@@8 00474050     DBCorrespondManager.obj
 0002:00010064       ??_R1A@?0A@EA@CDBCorrespondManager@@8 00474064     DBCorrespondManager.obj
 0002:00010080       ??_R4CDistributeManager@@6B@ 00474080     DistributeManager.obj
 0002:00010094       ??_R3CDistributeManager@@8 00474094     DistributeManager.obj
 0002:000100a4       ??_R2CDistributeManager@@8 004740a4     DistributeManager.obj
 0002:000100ac       ??_R1A@?0A@EA@CDistributeManager@@8 004740ac     DistributeManager.obj
 0002:000100c8       ??_R4?$CWHArray@PAVCGamePropertyTypeItem@NGamePropertyListManager@@ABQAV12@@@6B@ 004740c8     GamePropertyListManager.obj
 0002:000100dc       ??_R3?$CWHArray@PAVCGamePropertyTypeItem@NGamePropertyListManager@@ABQAV12@@@8 004740dc     GamePropertyListManager.obj
 0002:000100ec       ??_R2?$CWHArray@PAVCGamePropertyTypeItem@NGamePropertyListManager@@ABQAV12@@@8 004740ec     GamePropertyListManager.obj
 0002:000100f4       ??_R1A@?0A@EA@?$CWHArray@PAVCGamePropertyTypeItem@NGamePropertyListManager@@ABQAV12@@@8 004740f4     GamePropertyListManager.obj
 0002:00010110       ??_R4?$CWHArray@PAVCGamePropertyRelatItem@NGamePropertyListManager@@ABQAV12@@@6B@ 00474110     GamePropertyListManager.obj
 0002:00010124       ??_R3?$CWHArray@PAVCGamePropertyRelatItem@NGamePropertyListManager@@ABQAV12@@@8 00474124     GamePropertyListManager.obj
 0002:00010134       ??_R2?$CWHArray@PAVCGamePropertyRelatItem@NGamePropertyListManager@@ABQAV12@@@8 00474134     GamePropertyListManager.obj
 0002:0001013c       ??_R1A@?0A@EA@?$CWHArray@PAVCGamePropertyRelatItem@NGamePropertyListManager@@ABQAV12@@@8 0047413c     GamePropertyListManager.obj
 0002:00010158       ??_R4?$CWHArray@PAVCGamePropertyItem@NGamePropertyListManager@@ABQAV12@@@6B@ 00474158     GamePropertyListManager.obj
 0002:0001016c       ??_R3?$CWHArray@PAVCGamePropertyItem@NGamePropertyListManager@@ABQAV12@@@8 0047416c     GamePropertyListManager.obj
 0002:0001017c       ??_R2?$CWHArray@PAVCGamePropertyItem@NGamePropertyListManager@@ABQAV12@@@8 0047417c     GamePropertyListManager.obj
 0002:00010184       ??_R1A@?0A@EA@?$CWHArray@PAVCGamePropertyItem@NGamePropertyListManager@@ABQAV12@@@8 00474184     GamePropertyListManager.obj
 0002:000101a0       ??_R4?$CWHArray@PAVCGamePropertySubItem@NGamePropertyListManager@@ABQAV12@@@6B@ 004741a0     GamePropertyListManager.obj
 0002:000101b4       ??_R3?$CWHArray@PAVCGamePropertySubItem@NGamePropertyListManager@@ABQAV12@@@8 004741b4     GamePropertyListManager.obj
 0002:000101c4       ??_R2?$CWHArray@PAVCGamePropertySubItem@NGamePropertyListManager@@ABQAV12@@@8 004741c4     GamePropertyListManager.obj
 0002:000101cc       ??_R1A@?0A@EA@?$CWHArray@PAVCGamePropertySubItem@NGamePropertyListManager@@ABQAV12@@@8 004741cc     GamePropertyListManager.obj
 0002:000101e8       ??_R4?$CMap@KKPAVCGamePropertyTypeItem@NGamePropertyListManager@@AAPAV12@@@6B@ 004741e8     GamePropertyListManager.obj
 0002:000101fc       ??_R3?$CMap@KKPAVCGamePropertyTypeItem@NGamePropertyListManager@@AAPAV12@@@8 004741fc     GamePropertyListManager.obj
 0002:0001020c       ??_R2?$CMap@KKPAVCGamePropertyTypeItem@NGamePropertyListManager@@AAPAV12@@@8 0047420c     GamePropertyListManager.obj
 0002:00010218       ??_R1A@?0A@EA@?$CMap@KKPAVCGamePropertyTypeItem@NGamePropertyListManager@@AAPAV12@@@8 00474218     GamePropertyListManager.obj
 0002:00010234       ??_R4?$CMap@KKPAVCGamePropertyRelatItem@NGamePropertyListManager@@AAPAV12@@@6B@ 00474234     GamePropertyListManager.obj
 0002:00010248       ??_R3?$CMap@KKPAVCGamePropertyRelatItem@NGamePropertyListManager@@AAPAV12@@@8 00474248     GamePropertyListManager.obj
 0002:00010258       ??_R2?$CMap@KKPAVCGamePropertyRelatItem@NGamePropertyListManager@@AAPAV12@@@8 00474258     GamePropertyListManager.obj
 0002:00010264       ??_R1A@?0A@EA@?$CMap@KKPAVCGamePropertyRelatItem@NGamePropertyListManager@@AAPAV12@@@8 00474264     GamePropertyListManager.obj
 0002:00010280       ??_R4?$CMap@KKPAVCGamePropertyItem@NGamePropertyListManager@@AAPAV12@@@6B@ 00474280     GamePropertyListManager.obj
 0002:00010294       ??_R3?$CMap@KKPAVCGamePropertyItem@NGamePropertyListManager@@AAPAV12@@@8 00474294     GamePropertyListManager.obj
 0002:000102a4       ??_R2?$CMap@KKPAVCGamePropertyItem@NGamePropertyListManager@@AAPAV12@@@8 004742a4     GamePropertyListManager.obj
 0002:000102b0       ??_R1A@?0A@EA@?$CMap@KKPAVCGamePropertyItem@NGamePropertyListManager@@AAPAV12@@@8 004742b0     GamePropertyListManager.obj
 0002:000102cc       ??_R4?$CMap@KKPAVCGamePropertySubItem@NGamePropertyListManager@@AAPAV12@@@6B@ 004742cc     GamePropertyListManager.obj
 0002:000102e0       ??_R3?$CMap@KKPAVCGamePropertySubItem@NGamePropertyListManager@@AAPAV12@@@8 004742e0     GamePropertyListManager.obj
 0002:000102f0       ??_R2?$CMap@KKPAVCGamePropertySubItem@NGamePropertyListManager@@AAPAV12@@@8 004742f0     GamePropertyListManager.obj
 0002:000102fc       ??_R1A@?0A@EA@?$CMap@KKPAVCGamePropertySubItem@NGamePropertyListManager@@AAPAV12@@@8 004742fc     GamePropertyListManager.obj
 0002:00010318       ??_R4CGamePropertyListManager@NGamePropertyListManager@@6B@ 00474318     GamePropertyListManager.obj
 0002:0001032c       ??_R3CGamePropertyListManager@NGamePropertyListManager@@8 0047432c     GamePropertyListManager.obj
 0002:0001033c       ??_R2CGamePropertyListManager@NGamePropertyListManager@@8 0047433c     GamePropertyListManager.obj
 0002:00010344       ??_R1A@?0A@EA@CGamePropertyListManager@NGamePropertyListManager@@8 00474344     GamePropertyListManager.obj
 0002:00010360       ??_R1A@?0A@EA@CCmdTarget@@8 00474360     GameServer.obj
 0002:0001037c       ??_R3CCmdTarget@@8         0047437c     GameServer.obj
 0002:0001038c       ??_R2CCmdTarget@@8         0047438c     GameServer.obj
 0002:00010398       ??_R4CGameServerApp@@6B@   00474398     GameServer.obj
 0002:000103ac       ??_R3CGameServerApp@@8     004743ac     GameServer.obj
 0002:000103bc       ??_R2CGameServerApp@@8     004743bc     GameServer.obj
 0002:000103d4       ??_R1A@?0A@EA@CGameServerApp@@8 004743d4     GameServer.obj
 0002:000103f0       ??_R1A@?0A@EA@CWinApp@@8   004743f0     GameServer.obj
 0002:0001040c       ??_R3CWinApp@@8            0047440c     GameServer.obj
 0002:0001041c       ??_R2CWinApp@@8            0047441c     GameServer.obj
 0002:00010430       ??_R1A@?0A@EA@CWinThread@@8 00474430     GameServer.obj
 0002:0001044c       ??_R3CWinThread@@8         0047444c     GameServer.obj
 0002:0001045c       ??_R2CWinThread@@8         0047445c     GameServer.obj
 0002:0001046c       ??_R1A@?0A@EA@CWnd@@8      0047446c     GameServerDlg.obj
 0002:00010488       ??_R3CWnd@@8               00474488     GameServerDlg.obj
 0002:00010498       ??_R2CWnd@@8               00474498     GameServerDlg.obj
 0002:000104a8       ??_R1A@?0A@EA@CDialog@@8   004744a8     GameServerDlg.obj
 0002:000104c4       ??_R3CDialog@@8            004744c4     GameServerDlg.obj
 0002:000104d4       ??_R2CDialog@@8            004744d4     GameServerDlg.obj
 0002:000104e8       ??_R4CGameServiceManagerHelper@@6B@ 004744e8     GameServerDlg.obj
 0002:000104fc       ??_R3CGameServiceManagerHelper@@8 004744fc     GameServerDlg.obj
 0002:0001050c       ??_R2CGameServiceManagerHelper@@8 0047450c     GameServerDlg.obj
 0002:00010518       ??_R1A@?0A@EA@CGameServiceManagerHelper@@8 00474518     GameServerDlg.obj
 0002:00010534       ??_R1A@?0A@EA@?$CTempldateHelper@UIGameServiceManager@@@@8 00474534     GameServerDlg.obj
 0002:00010550       ??_R3?$CTempldateHelper@UIGameServiceManager@@@@8 00474550     GameServerDlg.obj
 0002:00010560       ??_R2?$CTempldateHelper@UIGameServiceManager@@@@8 00474560     GameServerDlg.obj
 0002:00010568       ??_R4?$CTempldateHelper@UIGameServiceManager@@@@6B@ 00474568     GameServerDlg.obj
 0002:0001057c       ??_R4IServiceUnitsSink@@6B@ 0047457c     GameServerDlg.obj
 0002:00010590       ??_R3IServiceUnitsSink@@8  00474590     GameServerDlg.obj
 0002:000105a0       ??_R2IServiceUnitsSink@@8  004745a0     GameServerDlg.obj
 0002:000105a8       ??_R1A@?0A@EA@IServiceUnitsSink@@8 004745a8     GameServerDlg.obj
 0002:000105c4       ??_R4CGameServerDlg@@6BCDialog@@@ 004745c4     GameServerDlg.obj
 0002:000105d8       ??_R3CGameServerDlg@@8     004745d8     GameServerDlg.obj
 0002:000105e8       ??_R2CGameServerDlg@@8     004745e8     GameServerDlg.obj
 0002:00010604       ??_R1A@?0A@EA@CGameServerDlg@@8 00474604     GameServerDlg.obj
 0002:00010620       ??_R1KI@?0A@EA@IServiceUnitsSink@@8 00474620     GameServerDlg.obj
 0002:0001063c       ??_R4CGameServerDlg@@6BIServiceUnitsSink@@@ 0047463c     GameServerDlg.obj
 0002:00010650       ??_R4CInitParameter@@6B@   00474650     InitParameter.obj
 0002:00010664       ??_R3CInitParameter@@8     00474664     InitParameter.obj
 0002:00010674       ??_R2CInitParameter@@8     00474674     InitParameter.obj
 0002:0001067c       ??_R1A@?0A@EA@CInitParameter@@8 0047467c     InitParameter.obj
 0002:00010698       ??_R4?$CWHArray@PAVCGameTypeItem@NServerListManager@@ABQAV12@@@6B@ 00474698     ServerListManager.obj
 0002:000106ac       ??_R3?$CWHArray@PAVCGameTypeItem@NServerListManager@@ABQAV12@@@8 004746ac     ServerListManager.obj
 0002:000106bc       ??_R2?$CWHArray@PAVCGameTypeItem@NServerListManager@@ABQAV12@@@8 004746bc     ServerListManager.obj
 0002:000106c4       ??_R1A@?0A@EA@?$CWHArray@PAVCGameTypeItem@NServerListManager@@ABQAV12@@@8 004746c4     ServerListManager.obj
 0002:000106e0       ??_R4?$CWHArray@PAVCGameKindItem@NServerListManager@@ABQAV12@@@6B@ 004746e0     ServerListManager.obj
 0002:000106f4       ??_R3?$CWHArray@PAVCGameKindItem@NServerListManager@@ABQAV12@@@8 004746f4     ServerListManager.obj
 0002:00010704       ??_R2?$CWHArray@PAVCGameKindItem@NServerListManager@@ABQAV12@@@8 00474704     ServerListManager.obj
 0002:0001070c       ??_R1A@?0A@EA@?$CWHArray@PAVCGameKindItem@NServerListManager@@ABQAV12@@@8 0047470c     ServerListManager.obj
 0002:00010728       ??_R4?$CWHArray@PAVCGameNodeItem@NServerListManager@@ABQAV12@@@6B@ 00474728     ServerListManager.obj
 0002:0001073c       ??_R3?$CWHArray@PAVCGameNodeItem@NServerListManager@@ABQAV12@@@8 0047473c     ServerListManager.obj
 0002:0001074c       ??_R2?$CWHArray@PAVCGameNodeItem@NServerListManager@@ABQAV12@@@8 0047474c     ServerListManager.obj
 0002:00010754       ??_R1A@?0A@EA@?$CWHArray@PAVCGameNodeItem@NServerListManager@@ABQAV12@@@8 00474754     ServerListManager.obj
 0002:00010770       ??_R4?$CWHArray@PAVCGamePageItem@NServerListManager@@ABQAV12@@@6B@ 00474770     ServerListManager.obj
 0002:00010784       ??_R3?$CWHArray@PAVCGamePageItem@NServerListManager@@ABQAV12@@@8 00474784     ServerListManager.obj
 0002:00010794       ??_R2?$CWHArray@PAVCGamePageItem@NServerListManager@@ABQAV12@@@8 00474794     ServerListManager.obj
 0002:0001079c       ??_R1A@?0A@EA@?$CWHArray@PAVCGamePageItem@NServerListManager@@ABQAV12@@@8 0047479c     ServerListManager.obj
 0002:000107b8       ??_R4?$CWHArray@PAVCGameServerItem@NServerListManager@@ABQAV12@@@6B@ 004747b8     ServerListManager.obj
 0002:000107cc       ??_R3?$CWHArray@PAVCGameServerItem@NServerListManager@@ABQAV12@@@8 004747cc     ServerListManager.obj
 0002:000107dc       ??_R2?$CWHArray@PAVCGameServerItem@NServerListManager@@ABQAV12@@@8 004747dc     ServerListManager.obj
 0002:000107e4       ??_R1A@?0A@EA@?$CWHArray@PAVCGameServerItem@NServerListManager@@ABQAV12@@@8 004747e4     ServerListManager.obj
 0002:00010800       ??_R4?$CMap@GGPAVCGameTypeItem@NServerListManager@@AAPAV12@@@6B@ 00474800     ServerListManager.obj
 0002:00010814       ??_R3?$CMap@GGPAVCGameTypeItem@NServerListManager@@AAPAV12@@@8 00474814     ServerListManager.obj
 0002:00010824       ??_R2?$CMap@GGPAVCGameTypeItem@NServerListManager@@AAPAV12@@@8 00474824     ServerListManager.obj
 0002:00010830       ??_R1A@?0A@EA@?$CMap@GGPAVCGameTypeItem@NServerListManager@@AAPAV12@@@8 00474830     ServerListManager.obj
 0002:0001084c       ??_R4?$CMap@GGPAVCGameKindItem@NServerListManager@@AAPAV12@@@6B@ 0047484c     ServerListManager.obj
 0002:00010860       ??_R3?$CMap@GGPAVCGameKindItem@NServerListManager@@AAPAV12@@@8 00474860     ServerListManager.obj
 0002:00010870       ??_R2?$CMap@GGPAVCGameKindItem@NServerListManager@@AAPAV12@@@8 00474870     ServerListManager.obj
 0002:0001087c       ??_R1A@?0A@EA@?$CMap@GGPAVCGameKindItem@NServerListManager@@AAPAV12@@@8 0047487c     ServerListManager.obj
 0002:00010898       ??_R4?$CMap@GGPAVCGameNodeItem@NServerListManager@@AAPAV12@@@6B@ 00474898     ServerListManager.obj
 0002:000108ac       ??_R3?$CMap@GGPAVCGameNodeItem@NServerListManager@@AAPAV12@@@8 004748ac     ServerListManager.obj
 0002:000108bc       ??_R2?$CMap@GGPAVCGameNodeItem@NServerListManager@@AAPAV12@@@8 004748bc     ServerListManager.obj
 0002:000108c8       ??_R1A@?0A@EA@?$CMap@GGPAVCGameNodeItem@NServerListManager@@AAPAV12@@@8 004748c8     ServerListManager.obj
 0002:000108e4       ??_R4?$CMap@GGPAVCGamePageItem@NServerListManager@@AAPAV12@@@6B@ 004748e4     ServerListManager.obj
 0002:000108f8       ??_R3?$CMap@GGPAVCGamePageItem@NServerListManager@@AAPAV12@@@8 004748f8     ServerListManager.obj
 0002:00010908       ??_R2?$CMap@GGPAVCGamePageItem@NServerListManager@@AAPAV12@@@8 00474908     ServerListManager.obj
 0002:00010914       ??_R1A@?0A@EA@?$CMap@GGPAVCGamePageItem@NServerListManager@@AAPAV12@@@8 00474914     ServerListManager.obj
 0002:00010930       ??_R4?$CMap@GGPAVCGameServerItem@NServerListManager@@AAPAV12@@@6B@ 00474930     ServerListManager.obj
 0002:00010944       ??_R3?$CMap@GGPAVCGameServerItem@NServerListManager@@AAPAV12@@@8 00474944     ServerListManager.obj
 0002:00010954       ??_R2?$CMap@GGPAVCGameServerItem@NServerListManager@@AAPAV12@@@8 00474954     ServerListManager.obj
 0002:00010960       ??_R1A@?0A@EA@?$CMap@GGPAVCGameServerItem@NServerListManager@@AAPAV12@@@8 00474960     ServerListManager.obj
 0002:0001097c       ??_R4CServerListManager@NServerListManager@@6B@ 0047497c     ServerListManager.obj
 0002:00010990       ??_R3CServerListManager@NServerListManager@@8 00474990     ServerListManager.obj
 0002:000109a0       ??_R2CServerListManager@NServerListManager@@8 004749a0     ServerListManager.obj
 0002:000109a8       ??_R1A@?0A@EA@CServerListManager@NServerListManager@@8 004749a8     ServerListManager.obj
 0002:000109c4       ??_R4CTimerEngineHelper@@6B@ 004749c4     ServiceUnits.obj
 0002:000109d8       ??_R3CTimerEngineHelper@@8 004749d8     ServiceUnits.obj
 0002:000109e8       ??_R2CTimerEngineHelper@@8 004749e8     ServiceUnits.obj
 0002:000109f4       ??_R1A@?0A@EA@CTimerEngineHelper@@8 004749f4     ServiceUnits.obj
 0002:00010a10       ??_R1A@?0A@EA@?$CTempldateHelper@UITimerEngine@@@@8 00474a10     ServiceUnits.obj
 0002:00010a2c       ??_R3?$CTempldateHelper@UITimerEngine@@@@8 00474a2c     ServiceUnits.obj
 0002:00010a3c       ??_R2?$CTempldateHelper@UITimerEngine@@@@8 00474a3c     ServiceUnits.obj
 0002:00010a44       ??_R4?$CTempldateHelper@UITimerEngine@@@@6B@ 00474a44     ServiceUnits.obj
 0002:00010a58       ??_R4CDataBaseEngineHelper@@6B@ 00474a58     ServiceUnits.obj
 0002:00010a6c       ??_R3CDataBaseEngineHelper@@8 00474a6c     ServiceUnits.obj
 0002:00010a7c       ??_R2CDataBaseEngineHelper@@8 00474a7c     ServiceUnits.obj
 0002:00010a88       ??_R1A@?0A@EA@CDataBaseEngineHelper@@8 00474a88     ServiceUnits.obj
 0002:00010aa4       ??_R1A@?0A@EA@?$CTempldateHelper@UIDataBaseEngine@@@@8 00474aa4     ServiceUnits.obj
 0002:00010ac0       ??_R3?$CTempldateHelper@UIDataBaseEngine@@@@8 00474ac0     ServiceUnits.obj
 0002:00010ad0       ??_R2?$CTempldateHelper@UIDataBaseEngine@@@@8 00474ad0     ServiceUnits.obj
 0002:00010ad8       ??_R4?$CTempldateHelper@UIDataBaseEngine@@@@6B@ 00474ad8     ServiceUnits.obj
 0002:00010aec       ??_R4CAttemperEngineHelper@@6B@ 00474aec     ServiceUnits.obj
 0002:00010b00       ??_R3CAttemperEngineHelper@@8 00474b00     ServiceUnits.obj
 0002:00010b10       ??_R2CAttemperEngineHelper@@8 00474b10     ServiceUnits.obj
 0002:00010b1c       ??_R1A@?0A@EA@CAttemperEngineHelper@@8 00474b1c     ServiceUnits.obj
 0002:00010b38       ??_R1A@?0A@EA@?$CTempldateHelper@UIAttemperEngine@@@@8 00474b38     ServiceUnits.obj
 0002:00010b54       ??_R3?$CTempldateHelper@UIAttemperEngine@@@@8 00474b54     ServiceUnits.obj
 0002:00010b64       ??_R2?$CTempldateHelper@UIAttemperEngine@@@@8 00474b64     ServiceUnits.obj
 0002:00010b6c       ??_R4?$CTempldateHelper@UIAttemperEngine@@@@6B@ 00474b6c     ServiceUnits.obj
 0002:00010b80       ??_R4CTCPSocketServiceHelper@@6B@ 00474b80     ServiceUnits.obj
 0002:00010b94       ??_R3CTCPSocketServiceHelper@@8 00474b94     ServiceUnits.obj
 0002:00010ba4       ??_R2CTCPSocketServiceHelper@@8 00474ba4     ServiceUnits.obj
 0002:00010bb0       ??_R1A@?0A@EA@CTCPSocketServiceHelper@@8 00474bb0     ServiceUnits.obj
 0002:00010bcc       ??_R1A@?0A@EA@?$CTempldateHelper@UITCPSocketService@@@@8 00474bcc     ServiceUnits.obj
 0002:00010be8       ??_R3?$CTempldateHelper@UITCPSocketService@@@@8 00474be8     ServiceUnits.obj
 0002:00010bf8       ??_R2?$CTempldateHelper@UITCPSocketService@@@@8 00474bf8     ServiceUnits.obj
 0002:00010c00       ??_R4?$CTempldateHelper@UITCPSocketService@@@@6B@ 00474c00     ServiceUnits.obj
 0002:00010c14       ??_R4CTCPNetworkEngineHelper@@6B@ 00474c14     ServiceUnits.obj
 0002:00010c28       ??_R3CTCPNetworkEngineHelper@@8 00474c28     ServiceUnits.obj
 0002:00010c38       ??_R2CTCPNetworkEngineHelper@@8 00474c38     ServiceUnits.obj
 0002:00010c44       ??_R1A@?0A@EA@CTCPNetworkEngineHelper@@8 00474c44     ServiceUnits.obj
 0002:00010c60       ??_R1A@?0A@EA@?$CTempldateHelper@UITCPNetworkEngine@@@@8 00474c60     ServiceUnits.obj
 0002:00010c7c       ??_R3?$CTempldateHelper@UITCPNetworkEngine@@@@8 00474c7c     ServiceUnits.obj
 0002:00010c8c       ??_R2?$CTempldateHelper@UITCPNetworkEngine@@@@8 00474c8c     ServiceUnits.obj
 0002:00010c94       ??_R4?$CTempldateHelper@UITCPNetworkEngine@@@@6B@ 00474c94     ServiceUnits.obj
 0002:00010ca8       ??_R4CMatchServiceManagerHelper@@6B@ 00474ca8     ServiceUnits.obj
 0002:00010cbc       ??_R3CMatchServiceManagerHelper@@8 00474cbc     ServiceUnits.obj
 0002:00010ccc       ??_R2CMatchServiceManagerHelper@@8 00474ccc     ServiceUnits.obj
 0002:00010cd8       ??_R1A@?0A@EA@CMatchServiceManagerHelper@@8 00474cd8     ServiceUnits.obj
 0002:00010cf4       ??_R1A@?0A@EA@?$CTempldateHelper@UIMatchServiceManager@@@@8 00474cf4     ServiceUnits.obj
 0002:00010d10       ??_R3?$CTempldateHelper@UIMatchServiceManager@@@@8 00474d10     ServiceUnits.obj
 0002:00010d20       ??_R2?$CTempldateHelper@UIMatchServiceManager@@@@8 00474d20     ServiceUnits.obj
 0002:00010d28       ??_R4?$CTempldateHelper@UIMatchServiceManager@@@@6B@ 00474d28     ServiceUnits.obj
 0002:00010d3c       ??_R4CPersonalRoomServiceManagerHelper@@6B@ 00474d3c     ServiceUnits.obj
 0002:00010d50       ??_R3CPersonalRoomServiceManagerHelper@@8 00474d50     ServiceUnits.obj
 0002:00010d60       ??_R2CPersonalRoomServiceManagerHelper@@8 00474d60     ServiceUnits.obj
 0002:00010d6c       ??_R1A@?0A@EA@CPersonalRoomServiceManagerHelper@@8 00474d6c     ServiceUnits.obj
 0002:00010d88       ??_R1A@?0A@EA@?$CTempldateHelper@UIPersonalRoomServiceManager@@@@8 00474d88     ServiceUnits.obj
 0002:00010da4       ??_R3?$CTempldateHelper@UIPersonalRoomServiceManager@@@@8 00474da4     ServiceUnits.obj
 0002:00010db4       ??_R2?$CTempldateHelper@UIPersonalRoomServiceManager@@@@8 00474db4     ServiceUnits.obj
 0002:00010dbc       ??_R4?$CTempldateHelper@UIPersonalRoomServiceManager@@@@6B@ 00474dbc     ServiceUnits.obj
 0002:00010dd0       ??_R4CServiceUnits@@6B@    00474dd0     ServiceUnits.obj
 0002:00010de4       ??_R3CServiceUnits@@8      00474de4     ServiceUnits.obj
 0002:00010df4       ??_R2CServiceUnits@@8      00474df4     ServiceUnits.obj
 0002:00010e08       ??_R1A@?0A@EA@CServiceUnits@@8 00474e08     ServiceUnits.obj
 0002:00010e24       ??_R4ITableFrame@@6B@      00474e24     TableFrame.obj
 0002:00010e38       ??_R3ITableFrame@@8        00474e38     TableFrame.obj
 0002:00010e48       ??_R2ITableFrame@@8        00474e48     TableFrame.obj
 0002:00010e54       ??_R1A@?0A@EA@ITableFrame@@8 00474e54     TableFrame.obj
 0002:00010e70       ??_R4ICompilationSink@@6B@ 00474e70     TableFrame.obj
 0002:00010e84       ??_R3ICompilationSink@@8   00474e84     TableFrame.obj
 0002:00010e94       ??_R2ICompilationSink@@8   00474e94     TableFrame.obj
 0002:00010ea0       ??_R1A@?0A@EA@ICompilationSink@@8 00474ea0     TableFrame.obj
 0002:00010ebc       ??_R4?$CWHArray@PAUIServerUserItem@@ABQAU1@@@6B@ 00474ebc     TableFrame.obj
 0002:00010ed0       ??_R3?$CWHArray@PAUIServerUserItem@@ABQAU1@@@8 00474ed0     TableFrame.obj
 0002:00010ee0       ??_R2?$CWHArray@PAUIServerUserItem@@ABQAU1@@@8 00474ee0     TableFrame.obj
 0002:00010ee8       ??_R1A@?0A@EA@?$CWHArray@PAUIServerUserItem@@ABQAU1@@@8 00474ee8     TableFrame.obj
 0002:00010f04       ??_R4?$CWHArray@PAUtagGameScoreRecord@@ABQAU1@@@6B@ 00474f04     TableFrame.obj
 0002:00010f18       ??_R3?$CWHArray@PAUtagGameScoreRecord@@ABQAU1@@@8 00474f18     TableFrame.obj
 0002:00010f28       ??_R2?$CWHArray@PAUtagGameScoreRecord@@ABQAU1@@@8 00474f28     TableFrame.obj
 0002:00010f30       ??_R1A@?0A@EA@?$CWHArray@PAUtagGameScoreRecord@@ABQAU1@@@8 00474f30     TableFrame.obj
 0002:00010f4c       ??_R4?$CWHArray@PAUtagGroupScoreRecord@@ABQAU1@@@6B@ 00474f4c     TableFrame.obj
 0002:00010f60       ??_R3?$CWHArray@PAUtagGroupScoreRecord@@ABQAU1@@@8 00474f60     TableFrame.obj
 0002:00010f70       ??_R2?$CWHArray@PAUtagGroupScoreRecord@@ABQAU1@@@8 00474f70     TableFrame.obj
 0002:00010f78       ??_R1A@?0A@EA@?$CWHArray@PAUtagGroupScoreRecord@@ABQAU1@@@8 00474f78     TableFrame.obj
 0002:00010f94       ??_R4?$CMap@KK_JAA_J@@6B@  00474f94     TableFrame.obj
 0002:00010fa8       ??_R3?$CMap@KK_JAA_J@@8    00474fa8     TableFrame.obj
 0002:00010fb8       ??_R2?$CMap@KK_JAA_J@@8    00474fb8     TableFrame.obj
 0002:00010fc4       ??_R1A@?0A@EA@?$CMap@KK_JAA_J@@8 00474fc4     TableFrame.obj
 0002:00010fe0       ??_R4CTableFrame@@6BITableFrame@@@ 00474fe0     TableFrame.obj
 0002:00010ff4       ??_R3CTableFrame@@8        00474ff4     TableFrame.obj
 0002:00011004       ??_R2CTableFrame@@8        00475004     TableFrame.obj
 0002:0001101c       ??_R1A@?0A@EA@CTableFrame@@8 0047501c     TableFrame.obj
 0002:00011038       ??_R13?0A@EA@ICompilationSink@@8 00475038     TableFrame.obj
 0002:00011054       ??_R4CTableFrame@@6BICompilationSink@@@ 00475054     TableFrame.obj
 0002:00011068       ??_R4type_info@@6B@        00475068     MSVCRT:std_type_info_static.obj
 0002:0001107c       ??_R3type_info@@8          0047507c     MSVCRT:std_type_info_static.obj
 0002:0001108c       ??_R2type_info@@8          0047508c     MSVCRT:std_type_info_static.obj
 0002:00011094       ??_R1A@?0A@EA@type_info@@8 00475094     MSVCRT:std_type_info_static.obj
 0002:000110b0       ??_R4exception@std@@6B@    004750b0     MSVCRT:throw_bad_alloc.obj
 0002:000110c4       ??_R3exception@std@@8      004750c4     MSVCRT:throw_bad_alloc.obj
 0002:000110d4       ??_R2exception@std@@8      004750d4     MSVCRT:throw_bad_alloc.obj
 0002:000110dc       ??_R1A@?0A@EA@exception@std@@8 004750dc     MSVCRT:throw_bad_alloc.obj
 0002:000110f8       ??_R4bad_alloc@std@@6B@    004750f8     MSVCRT:throw_bad_alloc.obj
 0002:0001110c       ??_R3bad_alloc@std@@8      0047510c     MSVCRT:throw_bad_alloc.obj
 0002:0001111c       ??_R2bad_alloc@std@@8      0047511c     MSVCRT:throw_bad_alloc.obj
 0002:00011128       ??_R1A@?0A@EA@bad_alloc@std@@8 00475128     MSVCRT:throw_bad_alloc.obj
 0002:00011144       ??_R4bad_array_new_length@std@@6B@ 00475144     MSVCRT:throw_bad_alloc.obj
 0002:00011158       ??_R3bad_array_new_length@std@@8 00475158     MSVCRT:throw_bad_alloc.obj
 0002:00011168       ??_R2bad_array_new_length@std@@8 00475168     MSVCRT:throw_bad_alloc.obj
 0002:00011178       ??_R1A@?0A@EA@bad_array_new_length@std@@8 00475178     MSVCRT:throw_bad_alloc.obj
 0002:000111a0       ___safe_se_handler_table   004751a0     <linker-defined>
 0002:000117f8       ___rtc_iaa                 004757f8     MSVCRT:_initsect_.obj
 0002:000117fc       ___rtc_izz                 004757fc     MSVCRT:_initsect_.obj
 0002:00011800       ___rtc_taa                 00475800     MSVCRT:_initsect_.obj
 0002:00011804       ___rtc_tzz                 00475804     MSVCRT:_initsect_.obj
 0002:00014d50       __TI2PA_W                  00478d50     TableFrame.obj
 0002:00014d60       __CTA2PA_W                 00478d60     TableFrame.obj
 0002:00014d6c       __CT??_R0PA_W@84           00478d6c     TableFrame.obj
 0002:00014d88       __CT??_R0PAX@84            00478d88     TableFrame.obj
 0002:00014e44       __TI2?AVbad_alloc@std@@    00478e44     MSVCRT:throw_bad_alloc.obj
 0002:00014e54       __CTA2?AVbad_alloc@std@@   00478e54     MSVCRT:throw_bad_alloc.obj
 0002:00014e60       __CT??_R0?AVbad_alloc@std@@@8??0bad_alloc@std@@QAE@ABV01@@Z12 00478e60     MSVCRT:throw_bad_alloc.obj
 0002:00014e7c       __CT??_R0?AVexception@std@@@8??0exception@std@@QAE@ABV01@@Z12 00478e7c     MSVCRT:throw_bad_alloc.obj
 0002:00014e98       __TI3?AVbad_array_new_length@std@@ 00478e98     MSVCRT:throw_bad_alloc.obj
 0002:00014ea8       __CTA3?AVbad_array_new_length@std@@ 00478ea8     MSVCRT:throw_bad_alloc.obj
 0002:00014eb8       __CT??_R0?AVbad_array_new_length@std@@@8??0bad_array_new_length@std@@QAE@ABV01@@Z12 00478eb8     MSVCRT:throw_bad_alloc.obj
 0002:00014ed4       __TI1?AV_com_error@@       00478ed4     comsuppw:comraise.obj
 0002:00014ee4       __CTA1?AV_com_error@@      00478ee4     comsuppw:comraise.obj
 0002:00014eec       __CT??_R0?AV_com_error@@@8??0_com_error@@QAE@ABV0@@Z16 00478eec     comsuppw:comraise.obj
 0002:00014f08       __IMPORT_DESCRIPTOR_mfc140u 00478f08     mfc140u:mfc140u.dll
 0002:00014f1c       __IMPORT_DESCRIPTOR_KERNEL32 00478f1c     kernel32:KERNEL32.dll
 0002:00014f30       __IMPORT_DESCRIPTOR_USER32 00478f30     user32:USER32.dll
 0002:00014f44       __IMPORT_DESCRIPTOR_COMCTL32 00478f44     comctl32:COMCTL32.dll
 0002:00014f58       __IMPORT_DESCRIPTOR_SHLWAPI 00478f58     shlwapi:SHLWAPI.dll
 0002:00014f6c       __IMPORT_DESCRIPTOR_OLEAUT32 00478f6c     oleaut32:OLEAUT32.dll
 0002:00014f80       __IMPORT_DESCRIPTOR_ServiceCore 00478f80     ServiceCore:ServiceCore.dll
 0002:00014f94       __IMPORT_DESCRIPTOR_GameService 00478f94     GameService:GameService.dll
 0002:00014fa8       __IMPORT_DESCRIPTOR_KernelEngine 00478fa8     KernelEngine:KernelEngine.dll
 0002:00014fbc       __IMPORT_DESCRIPTOR_ShareStorageService 00478fbc     ShareStorageService:ShareStorageService.dll
 0002:00014fd0       __IMPORT_DESCRIPTOR_ModuleManager 00478fd0     ModuleManager:ModuleManager.dll
 0002:00014fe4       __IMPORT_DESCRIPTOR_dbghelp 00478fe4     DbgHelp:dbghelp.dll
 0002:00014ff8       __IMPORT_DESCRIPTOR_VCRUNTIME140 00478ff8     vcruntime:VCRUNTIME140.dll
 0002:0001500c       __IMPORT_DESCRIPTOR_api-ms-win-crt-string-l1-1-0 0047900c     ucrt:api-ms-win-crt-string-l1-1-0.dll
 0002:00015020       __IMPORT_DESCRIPTOR_api-ms-win-crt-stdio-l1-1-0 00479020     ucrt:api-ms-win-crt-stdio-l1-1-0.dll
 0002:00015034       __IMPORT_DESCRIPTOR_api-ms-win-crt-filesystem-l1-1-0 00479034     ucrt:api-ms-win-crt-filesystem-l1-1-0.dll
 0002:00015048       __IMPORT_DESCRIPTOR_api-ms-win-crt-locale-l1-1-0 00479048     ucrt:api-ms-win-crt-locale-l1-1-0.dll
 0002:0001505c       __IMPORT_DESCRIPTOR_api-ms-win-crt-utility-l1-1-0 0047905c     ucrt:api-ms-win-crt-utility-l1-1-0.dll
 0002:00015070       __IMPORT_DESCRIPTOR_api-ms-win-crt-time-l1-1-0 00479070     ucrt:api-ms-win-crt-time-l1-1-0.dll
 0002:00015084       __IMPORT_DESCRIPTOR_api-ms-win-crt-math-l1-1-0 00479084     ucrt:api-ms-win-crt-math-l1-1-0.dll
 0002:00015098       __IMPORT_DESCRIPTOR_api-ms-win-crt-convert-l1-1-0 00479098     ucrt:api-ms-win-crt-convert-l1-1-0.dll
 0002:000150ac       __IMPORT_DESCRIPTOR_api-ms-win-crt-runtime-l1-1-0 004790ac     ucrt:api-ms-win-crt-runtime-l1-1-0.dll
 0002:000150c0       __IMPORT_DESCRIPTOR_api-ms-win-crt-heap-l1-1-0 004790c0     ucrt:api-ms-win-crt-heap-l1-1-0.dll
 0002:000150d4       __NULL_IMPORT_DESCRIPTOR   004790d4     mfc140u:mfc140u.dll
 0003:00000040       ___security_cookie_complement 0047c040     MSVCRT:gs_cookie.obj
 0003:00000044       ___security_cookie         0047c044     MSVCRT:gs_cookie.obj
 0003:00000050       __fltused                  0047c050     MSVCRT:fltused.obj
 0003:00000054       ___scrt_native_dllmain_reason 0047c054     MSVCRT:utility.obj
 0003:00000058       __Init_global_epoch        0047c058     MSVCRT:thread_safe_statics.obj
 0003:0000005c       ___scrt_default_matherr    0047c05c     MSVCRT:matherr.obj
 0003:00000060       ___isa_enabled             0047c060     MSVCRT:_cpu_disp_.obj
 0003:00000064       ?__errorPfn@@3P6GXJPAUIErrorInfo@@@ZA 0047c064     comsuppw:comsupp.obj
 0003:00000070       ___scrt_ucrt_dll_is_in_use 0047c070     MSVCRT:ucrt_stubs.obj
 0003:00000078       ??_R0?AVCObject@@@8        0047c078     AttemperEngineSink.obj
 0003:00000090       ??_R0PAUIDataBaseException@@@8 0047c090     AttemperEngineSink.obj
 0003:000000b4       ??_R0?AUIUnknownEx@@@8     0047c0b4     AttemperEngineSink.obj
 0003:000000d0       ??_R0?AUIAttemperEngineSink@@@8 0047c0d0     AttemperEngineSink.obj
 0003:000000f4       ??_R0?AUIServerUserItemSink@@@8 0047c0f4     AttemperEngineSink.obj
 0003:00000118       ??_R0?AUIMainServiceFrame@@@8 0047c118     AttemperEngineSink.obj
 0003:00000138       ??_R0?AV?$CWHArray@UtagDistributeInfo@@ABU1@@@@8 0047c138     AttemperEngineSink.obj
 0003:0000016c       ??_R0?AV?$CWHArray@PB_WABQB_W@@@8 0047c16c     AttemperEngineSink.obj
 0003:00000190       ??_R0?AVCSensitiveWordsFilter@@@8 0047c190     AttemperEngineSink.obj
 0003:000001b4       ??_R0?AV?$CWHArray@PAVCTableFrame@@ABQAV1@@@@8 0047c1b4     AttemperEngineSink.obj
 0003:000001e8       ??_R0?AV?$CMap@KKKAAK@@@8  0047c1e8     AttemperEngineSink.obj
 0003:00000204       ??_R0?AV?$CMap@GGUtagTaskConfigInfo@@AAU1@@@@8 0047c204     AttemperEngineSink.obj
 0003:00000238       ??_R0?AV?$CWHArray@PAUtagPersonalTableParameter@@ABQAU1@@@@8 0047c238     AttemperEngineSink.obj
 0003:00000278       ??_R0?AVCAttemperEngineSink@@@8 0047c278     AttemperEngineSink.obj
 0003:0000029c       ??_R0?AVCDataBaseHelper@@@8 0047c29c     DataBaseEngineSink.obj
 0003:000002bc       ??_R0?AV?$CTempldateHelper@UIDataBase@@@@@8 0047c2bc     DataBaseEngineSink.obj
 0003:000002ec       ??_R0PA_W@8                0047c2ec     DataBaseEngineSink.obj
 0003:000002fc       ??_R0?AUIDataBaseEngineSink@@@8 0047c2fc     DataBaseEngineSink.obj
 0003:00000320       ??_R0?AUIGameDataBaseEngine@@@8 0047c320     DataBaseEngineSink.obj
 0003:00000344       ??_R0?AVCDataBaseEngineSink@@@8 0047c344     DataBaseEngineSink.obj
 0003:00000368       ??_R0?AVCCriticalSection@@@8 0047c368     DBCorrespondManager.obj
 0003:00000388       ??_R0?AVCSyncObject@@@8    0047c388     DBCorrespondManager.obj
 0003:000003a4       ??_R0?AUIServiceModule@@@8 0047c3a4     DBCorrespondManager.obj
 0003:000003c4       ??_R0?AUIDBCorrespondManager@@@8 0047c3c4     DBCorrespondManager.obj
 0003:000003e8       ??_R0?AV?$CList@PAUtagDBRequestHead@@ABQAU1@@@@8 0047c3e8     DBCorrespondManager.obj
 0003:0000041c       ??_R0?AV?$CWHArray@KABK@@@8 0047c41c     DBCorrespondManager.obj
 0003:0000043c       ??_R0?AVCDBCorrespondManager@@@8 0047c43c     DBCorrespondManager.obj
 0003:00000460       ??_R0?AVCDistributeManager@@@8 0047c460     DistributeManager.obj
 0003:00000488       ??_R0?AV?$CWHArray@PAVCGamePropertyTypeItem@NGamePropertyListManager@@ABQAV12@@@@8 0047c488     GamePropertyListManager.obj
 0003:000004e0       ??_R0?AV?$CWHArray@PAVCGamePropertyRelatItem@NGamePropertyListManager@@ABQAV12@@@@8 0047c4e0     GamePropertyListManager.obj
 0003:00000538       ??_R0?AV?$CWHArray@PAVCGamePropertyItem@NGamePropertyListManager@@ABQAV12@@@@8 0047c538     GamePropertyListManager.obj
 0003:00000590       ??_R0?AV?$CWHArray@PAVCGamePropertySubItem@NGamePropertyListManager@@ABQAV12@@@@8 0047c590     GamePropertyListManager.obj
 0003:000005e8       ??_R0?AV?$CMap@KKPAVCGamePropertyTypeItem@NGamePropertyListManager@@AAPAV12@@@@8 0047c5e8     GamePropertyListManager.obj
 0003:00000640       ??_R0?AV?$CMap@KKPAVCGamePropertyRelatItem@NGamePropertyListManager@@AAPAV12@@@@8 0047c640     GamePropertyListManager.obj
 0003:00000698       ??_R0?AV?$CMap@KKPAVCGamePropertyItem@NGamePropertyListManager@@AAPAV12@@@@8 0047c698     GamePropertyListManager.obj
 0003:000006e8       ??_R0?AV?$CMap@KKPAVCGamePropertySubItem@NGamePropertyListManager@@AAPAV12@@@@8 0047c6e8     GamePropertyListManager.obj
 0003:00000740       ??_R0?AVCGamePropertyListManager@NGamePropertyListManager@@@8 0047c740     GamePropertyListManager.obj
 0003:00000780       ??_R0?AVCCmdTarget@@@8     0047c780     GameServer.obj
 0003:0000079c       ??_R0?AVCGameServerApp@@@8 0047c79c     GameServer.obj
 0003:000007bc       ??_R0?AVCWinApp@@@8        0047c7bc     GameServer.obj
 0003:000007d4       ??_R0?AVCWinThread@@@8     0047c7d4     GameServer.obj
 0003:000007f0       ??_R0?AVCWnd@@@8           0047c7f0     GameServerDlg.obj
 0003:00000804       ??_R0?AVCDialog@@@8        0047c804     GameServerDlg.obj
 0003:0000081c       ??_R0?AVCGameServiceManagerHelper@@@8 0047c81c     GameServerDlg.obj
 0003:00000844       ??_R0?AV?$CTempldateHelper@UIGameServiceManager@@@@@8 0047c844     GameServerDlg.obj
 0003:0000087c       ??_R0?AUIServiceUnitsSink@@@8 0047c87c     GameServerDlg.obj
 0003:0000089c       ??_R0?AVCGameServerDlg@@@8 0047c89c     GameServerDlg.obj
 0003:000008bc       ??_R0?AVCInitParameter@@@8 0047c8bc     InitParameter.obj
 0003:000008e0       ??_R0?AV?$CWHArray@PAVCGameTypeItem@NServerListManager@@ABQAV12@@@@8 0047c8e0     ServerListManager.obj
 0003:00000928       ??_R0?AV?$CWHArray@PAVCGameKindItem@NServerListManager@@ABQAV12@@@@8 0047c928     ServerListManager.obj
 0003:00000970       ??_R0?AV?$CWHArray@PAVCGameNodeItem@NServerListManager@@ABQAV12@@@@8 0047c970     ServerListManager.obj
 0003:000009b8       ??_R0?AV?$CWHArray@PAVCGamePageItem@NServerListManager@@ABQAV12@@@@8 0047c9b8     ServerListManager.obj
 0003:00000a00       ??_R0?AV?$CWHArray@PAVCGameServerItem@NServerListManager@@ABQAV12@@@@8 0047ca00     ServerListManager.obj
 0003:00000a50       ??_R0?AV?$CMap@GGPAVCGameTypeItem@NServerListManager@@AAPAV12@@@@8 0047ca50     ServerListManager.obj
 0003:00000a98       ??_R0?AV?$CMap@GGPAVCGameKindItem@NServerListManager@@AAPAV12@@@@8 0047ca98     ServerListManager.obj
 0003:00000ae0       ??_R0?AV?$CMap@GGPAVCGameNodeItem@NServerListManager@@AAPAV12@@@@8 0047cae0     ServerListManager.obj
 0003:00000b28       ??_R0?AV?$CMap@GGPAVCGamePageItem@NServerListManager@@AAPAV12@@@@8 0047cb28     ServerListManager.obj
 0003:00000b70       ??_R0?AV?$CMap@GGPAVCGameServerItem@NServerListManager@@AAPAV12@@@@8 0047cb70     ServerListManager.obj
 0003:00000bb8       ??_R0?AVCServerListManager@NServerListManager@@@8 0047cbb8     ServerListManager.obj
 0003:00000bec       ??_R0?AVCTimerEngineHelper@@@8 0047cbec     ServiceUnits.obj
 0003:00000c10       ??_R0?AV?$CTempldateHelper@UITimerEngine@@@@@8 0047cc10     ServiceUnits.obj
 0003:00000c44       ??_R0?AVCDataBaseEngineHelper@@@8 0047cc44     ServiceUnits.obj
 0003:00000c68       ??_R0?AV?$CTempldateHelper@UIDataBaseEngine@@@@@8 0047cc68     ServiceUnits.obj
 0003:00000c9c       ??_R0?AVCAttemperEngineHelper@@@8 0047cc9c     ServiceUnits.obj
 0003:00000cc0       ??_R0?AV?$CTempldateHelper@UIAttemperEngine@@@@@8 0047ccc0     ServiceUnits.obj
 0003:00000cf4       ??_R0?AVCTCPSocketServiceHelper@@@8 0047ccf4     ServiceUnits.obj
 0003:00000d1c       ??_R0?AV?$CTempldateHelper@UITCPSocketService@@@@@8 0047cd1c     ServiceUnits.obj
 0003:00000d54       ??_R0?AVCTCPNetworkEngineHelper@@@8 0047cd54     ServiceUnits.obj
 0003:00000d7c       ??_R0?AV?$CTempldateHelper@UITCPNetworkEngine@@@@@8 0047cd7c     ServiceUnits.obj
 0003:00000db4       ??_R0?AVCMatchServiceManagerHelper@@@8 0047cdb4     ServiceUnits.obj
 0003:00000de0       ??_R0?AV?$CTempldateHelper@UIMatchServiceManager@@@@@8 0047cde0     ServiceUnits.obj
 0003:00000e1c       ??_R0?AVCPersonalRoomServiceManagerHelper@@@8 0047ce1c     ServiceUnits.obj
 0003:00000e50       ??_R0?AV?$CTempldateHelper@UIPersonalRoomServiceManager@@@@@8 0047ce50     ServiceUnits.obj
 0003:00000e90       ??_R0?AVCServiceUnits@@@8  0047ce90     ServiceUnits.obj
 0003:00000eac       ??_R0PAX@8                 0047ceac     TableFrame.obj
 0003:00000ebc       ??_R0?AUITableFrame@@@8    0047cebc     TableFrame.obj
 0003:00000ed8       ??_R0?AUICompilationSink@@@8 0047ced8     TableFrame.obj
 0003:00000ef8       ??_R0?AV?$CWHArray@PAUIServerUserItem@@ABQAU1@@@@8 0047cef8     TableFrame.obj
 0003:00000f30       ??_R0?AV?$CWHArray@PAUtagGameScoreRecord@@ABQAU1@@@@8 0047cf30     TableFrame.obj
 0003:00000f68       ??_R0?AV?$CWHArray@PAUtagGroupScoreRecord@@ABQAU1@@@@8 0047cf68     TableFrame.obj
 0003:00000fa4       ??_R0?AV?$CMap@KK_JAA_J@@@8 0047cfa4     TableFrame.obj
 0003:00000fc4       ??_R0?AVCTableFrame@@@8    0047cfc4     TableFrame.obj
 0003:00000fe0       ??_R0?AVtype_info@@@8      0047cfe0     MSVCRT:std_type_info_static.obj
 0003:00000ff8       ??_R0?AVbad_alloc@std@@@8  0047cff8     MSVCRT:throw_bad_alloc.obj
 0003:00001014       ??_R0?AVexception@std@@@8  0047d014     MSVCRT:throw_bad_alloc.obj
 0003:00001030       ??_R0?AVbad_array_new_length@std@@@8 0047d030     MSVCRT:throw_bad_alloc.obj
 0003:00001058       ??_R0?AV_com_error@@@8     0047d058     comsuppw:comraise.obj
 0003:0000187a       ?m_cbLogStatus@WHLogControl@@2EA 0047d87a     Log.obj
 0003:00002088       ?_OptionsStorage@?1??__local_stdio_printf_options@@9@4_KA 0047e088     Log.obj
 0003:000030a0       ?m_pHeadOfFreeList@CDistributeNodePool@@2PAUtagDistributeNode@@A 0047f0a0     DistributeManager.obj
 0003:000030b0       ?theApp@@3VCGameServerApp@@A 0047f0b0     GameServer.obj
 0003:00003990       ?g_pServiceUnits@CServiceUnits@@2PAV1@A 0047f990     ServiceUnits.obj
 0003:00003994       ___@@_PchSym_@00@UhkzxvUtrgsfyUdswonUdswonUKlsKowKooKlsKooKqkKltKprKpyKluKqmKqsUKlvKorKpmKlqKqsKovKlsKqoKplKluKomKquUKltKorKorKltKrrKrkKltKqnKrmKluKrpKpyKluKqqKprUivovzhvPfmrxlwvUhgwzucOlyq@2904CE418048F43F 0047f994     Stdafx.obj
 0003:000049a2       ?m_bInitFailed@CAtlBaseModule@ATL@@2_NA 004809a2     Stdafx.obj
 0003:000049a8       ?m_GameScoreRecordBuffer@CTableFrame@@1V?$CWHArray@PAUtagGameScoreRecord@@ABQAU1@@@A 004809a8     TableFrame.obj
 0003:000049bc       ?m_GroupScoreRecordBuffer@CTableFrame@@1V?$CWHArray@PAUtagGroupScoreRecord@@ABQAU1@@@A 004809bc     TableFrame.obj
 0003:000049d0       ___scrt_current_native_startup_state 004809d0     MSVCRT:utility.obj
 0003:000049d4       ___scrt_native_startup_lock 004809d4     MSVCRT:utility.obj
 0003:00004a1c       __tls_index                00480a1c     MSVCRT:tlssup.obj
 0003:00004a20       ?__type_info_root_node@@3U__type_info_node@@A 00480a20     MSVCRT:tncleanup.obj
 0003:00004a28       ?_OptionsStorage@?1??__local_stdio_scanf_options@@9@4_KA 00480a28     MSVCRT:default_local_stdio_options.obj
 0003:00004a30       ___scrt_debugger_hook_flag 00480a30     MSVCRT:utility_desktop.obj
 0003:00004d54       ___isa_available           00480d54     MSVCRT:_cpu_disp_.obj
 0003:00004d58       ___favor                   00480d58     MSVCRT:_cpu_disp_.obj
 0003:00004d5c       __afxForceEXCLUDE          00480d5c     mfcs140u:nolib.obj
 0003:00004d60       __afxForceSTDAFX           00480d60     mfcs140u:stdafx.obj
 0003:00004d64       ?_afxInitAppState@@3DA     00480d64     mfcs140u:appmodul.obj
 0003:00004d68       ?_AtlBaseModule@ATL@@3VCAtlBaseModule@1@A 00480d68     atls:atlbase.obj
 0003:00004da0       ___@@_PchSym_@00@UyrmzirvhUrmgvinvwrzgvUexgllohUzgohOmzgrevkilqPBACIAJCBDBUlyqiUcIGUhgwzucOlyq@400B0995F36844BC 00480da0     atls:stdafx.obj
 0003:00004da4       ___dyn_tls_dtor_callback   00480da4     <common>
 0003:00004da8       ___dyn_tls_init_callback   00480da8     <common>
 0005:00000000       __tls_start                00482000     MSVCRT:tlssup.obj
 0005:00000004       __Init_thread_epoch        00482004     MSVCRT:thread_safe_statics.obj
 0005:00000008       __tls_end                  00482008     MSVCRT:tlssup.obj

 entry point at        0001:0005ed43

 Static symbols

 0000:fff71000       .debug$S                   00400000     ucrt:api-ms-win-crt-utility-l1-1-0.dll
 0000:fff71000       .debug$S                   00400000     ucrt:api-ms-win-crt-convert-l1-1-0.dll
 0000:fff71000       .debug$S                   00400000     ucrt:api-ms-win-crt-utility-l1-1-0.dll
 0000:fff71000       .debug$S                   00400000     ucrt:api-ms-win-crt-filesystem-l1-1-0.dll
 0000:fff71000       .debug$S                   00400000     ucrt:api-ms-win-crt-filesystem-l1-1-0.dll
 0000:fff71000       .debug$S                   00400000     ucrt:api-ms-win-crt-heap-l1-1-0.dll
 0000:fff71000       .debug$S                   00400000     ucrt:api-ms-win-crt-heap-l1-1-0.dll
 0000:fff71000       .debug$S                   00400000     ucrt:api-ms-win-crt-heap-l1-1-0.dll
 0000:fff71000       .debug$S                   00400000     ucrt:api-ms-win-crt-heap-l1-1-0.dll
 0000:fff71000       .debug$S                   00400000     ucrt:api-ms-win-crt-heap-l1-1-0.dll
 0000:fff71000       .debug$S                   00400000     ucrt:api-ms-win-crt-utility-l1-1-0.dll
 0000:fff71000       .debug$S                   00400000     ucrt:api-ms-win-crt-locale-l1-1-0.dll
 0000:fff71000       .debug$S                   00400000     ucrt:api-ms-win-crt-locale-l1-1-0.dll
 0000:fff71000       .debug$S                   00400000     ucrt:api-ms-win-crt-utility-l1-1-0.dll
 0000:fff71000       .debug$S                   00400000     mfc140u:mfc140u.dll
 0000:fff71000       .debug$S                   00400000     mfc140u:mfc140u.dll
 0000:fff71000       .debug$S                   00400000     ucrt:api-ms-win-crt-math-l1-1-0.dll
 0000:fff71000       .debug$S                   00400000     mfc140u:mfc140u.dll
 0000:fff71000       .debug$S                   00400000     mfc140u:mfc140u.dll
 0000:fff71000       .debug$S                   00400000     mfc140u:mfc140u.dll
 0000:fff71000       .debug$S                   00400000     mfc140u:mfc140u.dll
 0000:fff71000       .debug$S                   00400000     mfc140u:mfc140u.dll
 0000:fff71000       .debug$S                   00400000     mfc140u:mfc140u.dll
 0000:fff71000       .debug$S                   00400000     mfc140u:mfc140u.dll
 0000:fff71000       .debug$S                   00400000     mfc140u:mfc140u.dll
 0000:fff71000       .debug$S                   00400000     mfc140u:mfc140u.dll
 0000:fff71000       .debug$S                   00400000     mfc140u:mfc140u.dll
 0000:fff71000       .debug$S                   00400000     mfc140u:mfc140u.dll
 0000:fff71000       .debug$S                   00400000     mfc140u:mfc140u.dll
 0000:fff71000       .debug$S                   00400000     mfc140u:mfc140u.dll
 0000:fff71000       .debug$S                   00400000     mfc140u:mfc140u.dll
 0000:fff71000       .debug$S                   00400000     mfc140u:mfc140u.dll
 0000:fff71000       .debug$S                   00400000     mfc140u:mfc140u.dll
 0000:fff71000       .debug$S                   00400000     mfc140u:mfc140u.dll
 0000:fff71000       .debug$S                   00400000     mfc140u:mfc140u.dll
 0000:fff71000       .debug$S                   00400000     mfc140u:mfc140u.dll
 0000:fff71000       .debug$S                   00400000     mfc140u:mfc140u.dll
 0000:fff71000       .debug$S                   00400000     mfc140u:mfc140u.dll
 0000:fff71000       .debug$S                   00400000     mfc140u:mfc140u.dll
 0000:fff71000       .debug$S                   00400000     mfc140u:mfc140u.dll
 0000:fff71000       .debug$S                   00400000     mfc140u:mfc140u.dll
 0000:fff71000       .debug$S                   00400000     mfc140u:mfc140u.dll
 0000:fff71000       .debug$S                   00400000     ucrt:api-ms-win-crt-string-l1-1-0.dll
 0000:fff71000       .debug$S                   00400000     kernel32:KERNEL32.dll
 0000:fff71000       .debug$S                   00400000     mfc140u:mfc140u.dll
 0000:fff71000       .debug$S                   00400000     mfc140u:mfc140u.dll
 0000:fff71000       .debug$S                   00400000     mfc140u:mfc140u.dll
 0000:fff71000       .debug$S                   00400000     mfc140u:mfc140u.dll
 0000:fff71000       .debug$S                   00400000     mfc140u:mfc140u.dll
 0000:fff71000       .debug$S                   00400000     mfc140u:mfc140u.dll
 0000:fff71000       .debug$S                   00400000     mfc140u:mfc140u.dll
 0000:fff71000       .debug$S                   00400000     mfc140u:mfc140u.dll
 0000:fff71000       .debug$S                   00400000     mfc140u:mfc140u.dll
 0000:fff71000       .debug$S                   00400000     mfc140u:mfc140u.dll
 0000:fff71000       .debug$S                   00400000     mfc140u:mfc140u.dll
 0000:fff71000       .debug$S                   00400000     mfc140u:mfc140u.dll
 0000:fff71000       .debug$S                   00400000     mfc140u:mfc140u.dll
 0000:fff71000       .debug$S                   00400000     mfc140u:mfc140u.dll
 0000:fff71000       .debug$S                   00400000     mfc140u:mfc140u.dll
 0000:fff71000       .debug$S                   00400000     mfc140u:mfc140u.dll
 0000:fff71000       .debug$S                   00400000     mfc140u:mfc140u.dll
 0000:fff71000       .debug$S                   00400000     mfc140u:mfc140u.dll
 0000:fff71000       .debug$S                   00400000     vcruntime:VCRUNTIME140.dll
 0000:fff71000       .debug$S                   00400000     vcruntime:VCRUNTIME140.dll
 0000:fff71000       .debug$S                   00400000     mfc140u:mfc140u.dll
 0000:fff71000       .debug$S                   00400000     vcruntime:VCRUNTIME140.dll
 0000:fff71000       .debug$S                   00400000     vcruntime:VCRUNTIME140.dll
 0000:fff71000       .debug$S                   00400000     vcruntime:VCRUNTIME140.dll
 0000:fff71000       .debug$S                   00400000     vcruntime:VCRUNTIME140.dll
 0000:fff71000       .debug$S                   00400000     vcruntime:VCRUNTIME140.dll
 0000:fff71000       .debug$S                   00400000     vcruntime:VCRUNTIME140.dll
 0000:fff71000       .debug$S                   00400000     vcruntime:VCRUNTIME140.dll
 0000:fff71000       .debug$S                   00400000     vcruntime:VCRUNTIME140.dll
 0000:fff71000       .debug$S                   00400000     vcruntime:VCRUNTIME140.dll
 0000:fff71000       .debug$S                   00400000     vcruntime:VCRUNTIME140.dll
 0000:fff71000       .debug$S                   00400000     vcruntime:VCRUNTIME140.dll
 0000:fff71000       .debug$S                   00400000     DbgHelp:dbghelp.dll
 0000:fff71000       .debug$S                   00400000     ModuleManager:ModuleManager.dll
 0000:fff71000       .debug$S                   00400000     ModuleManager:ModuleManager.dll
 0000:fff71000       .debug$S                   00400000     ModuleManager:ModuleManager.dll
 0000:fff71000       .debug$S                   00400000     mfc140u:mfc140u.dll
 0000:fff71000       .debug$S                   00400000     mfc140u:mfc140u.dll
 0000:fff71000       .debug$S                   00400000     mfc140u:mfc140u.dll
 0000:fff71000       .debug$S                   00400000     mfc140u:mfc140u.dll
 0000:fff71000       .debug$S                   00400000     mfc140u:mfc140u.dll
 0000:fff71000       .debug$S                   00400000     mfc140u:mfc140u.dll
 0000:fff71000       .debug$S                   00400000     mfc140u:mfc140u.dll
 0000:fff71000       .debug$S                   00400000     mfc140u:mfc140u.dll
 0000:fff71000       .debug$S                   00400000     ucrt:api-ms-win-crt-math-l1-1-0.dll
 0000:fff71000       .debug$S                   00400000     ucrt:api-ms-win-crt-math-l1-1-0.dll
 0000:fff71000       .debug$S                   00400000     mfc140u:mfc140u.dll
 0000:fff71000       .debug$S                   00400000     ucrt:api-ms-win-crt-runtime-l1-1-0.dll
 0000:fff71000       .debug$S                   00400000     mfc140u:mfc140u.dll
 0000:fff71000       .debug$S                   00400000     mfc140u:mfc140u.dll
 0000:fff71000       .debug$S                   00400000     mfc140u:mfc140u.dll
 0000:fff71000       .debug$S                   00400000     mfc140u:mfc140u.dll
 0000:fff71000       .debug$S                   00400000     mfc140u:mfc140u.dll
 0000:fff71000       .debug$S                   00400000     mfc140u:mfc140u.dll
 0000:fff71000       .debug$S                   00400000     mfc140u:mfc140u.dll
 0000:fff71000       .debug$S                   00400000     mfc140u:mfc140u.dll
 0000:fff71000       .debug$S                   00400000     mfc140u:mfc140u.dll
 0000:fff71000       .debug$S                   00400000     mfc140u:mfc140u.dll
 0000:fff71000       .debug$S                   00400000     mfc140u:mfc140u.dll
 0000:fff71000       .debug$S                   00400000     mfc140u:mfc140u.dll
 0000:fff71000       .debug$S                   00400000     ucrt:api-ms-win-crt-runtime-l1-1-0.dll
 0000:fff71000       .debug$S                   00400000     ucrt:api-ms-win-crt-runtime-l1-1-0.dll
 0000:fff71000       .debug$S                   00400000     mfc140u:mfc140u.dll
 0000:fff71000       .debug$S                   00400000     mfc140u:mfc140u.dll
 0000:fff71000       .debug$S                   00400000     ucrt:api-ms-win-crt-runtime-l1-1-0.dll
 0000:fff71000       .debug$S                   00400000     mfc140u:mfc140u.dll
 0000:fff71000       .debug$S                   00400000     ucrt:api-ms-win-crt-runtime-l1-1-0.dll
 0000:fff71000       .debug$S                   00400000     kernel32:KERNEL32.dll
 0000:fff71000       .debug$S                   00400000     kernel32:KERNEL32.dll
 0000:fff71000       .debug$S                   00400000     kernel32:KERNEL32.dll
 0000:fff71000       .debug$S                   00400000     kernel32:KERNEL32.dll
 0000:fff71000       .debug$S                   00400000     kernel32:KERNEL32.dll
 0000:fff71000       .debug$S                   00400000     kernel32:KERNEL32.dll
 0000:fff71000       .debug$S                   00400000     kernel32:KERNEL32.dll
 0000:fff71000       .debug$S                   00400000     kernel32:KERNEL32.dll
 0000:fff71000       .debug$S                   00400000     mfc140u:mfc140u.dll
 0000:fff71000       .debug$S                   00400000     kernel32:KERNEL32.dll
 0000:fff71000       .debug$S                   00400000     kernel32:KERNEL32.dll
 0000:fff71000       .debug$S                   00400000     mfc140u:mfc140u.dll
 0000:fff71000       .debug$S                   00400000     kernel32:KERNEL32.dll
 0000:fff71000       .debug$S                   00400000     kernel32:KERNEL32.dll
 0000:fff71000       .debug$S                   00400000     mfc140u:mfc140u.dll
 0000:fff71000       .debug$S                   00400000     mfc140u:mfc140u.dll
 0000:fff71000       .debug$S                   00400000     mfc140u:mfc140u.dll
 0000:fff71000       .debug$S                   00400000     mfc140u:mfc140u.dll
 0000:fff71000       .debug$S                   00400000     mfc140u:mfc140u.dll
 0000:fff71000       .debug$S                   00400000     mfc140u:mfc140u.dll
 0000:fff71000       .debug$S                   00400000     mfc140u:mfc140u.dll
 0000:fff71000       .debug$S                   00400000     mfc140u:mfc140u.dll
 0000:fff71000       .debug$S                   00400000     mfc140u:mfc140u.dll
 0000:fff71000       .debug$S                   00400000     mfc140u:mfc140u.dll
 0000:fff71000       .debug$S                   00400000     mfc140u:mfc140u.dll
 0000:fff71000       .debug$S                   00400000     mfc140u:mfc140u.dll
 0000:fff71000       .debug$S                   00400000     mfc140u:mfc140u.dll
 0000:fff71000       .debug$S                   00400000     mfc140u:mfc140u.dll
 0000:fff71000       .debug$S                   00400000     mfc140u:mfc140u.dll
 0000:fff71000       .debug$S                   00400000     mfc140u:mfc140u.dll
 0000:fff71000       .debug$S                   00400000     kernel32:KERNEL32.dll
 0000:fff71000       .debug$S                   00400000     kernel32:KERNEL32.dll
 0000:fff71000       .debug$S                   00400000     kernel32:KERNEL32.dll
 0000:fff71000       .debug$S                   00400000     kernel32:KERNEL32.dll
 0000:fff71000       .debug$S                   00400000     mfc140u:mfc140u.dll
 0000:fff71000       .debug$S                   00400000     kernel32:KERNEL32.dll
 0000:fff71000       .debug$S                   00400000     kernel32:KERNEL32.dll
 0000:fff71000       .debug$S                   00400000     kernel32:KERNEL32.dll
 0000:fff71000       .debug$S                   00400000     kernel32:KERNEL32.dll
 0000:fff71000       .debug$S                   00400000     kernel32:KERNEL32.dll
 0000:fff71000       .debug$S                   00400000     kernel32:KERNEL32.dll
