 LogServer

 Timestamp is 651e7f9c (Thu Oct  5 17:19:24 2023)

 Preferred load address is 00400000

 Start         Length     Name                   Class
 0001:00000000 00000110H .text$di                CODE
 0001:00000110 00009c80H .text$mn                CODE
 0001:00009d90 00000490H .text$x                 CODE
 0001:0000a220 00000079H .text$yd                CODE
 0002:00000000 00000464H .idata$5                DATA
 0002:00000464 00000004H .00cfg                  DATA
 0002:00000468 00000004H .CRT$XCA                DATA
 0002:0000046c 00000004H .CRT$XCAA               DATA
 0002:00000470 00000008H .CRT$XCL                DATA
 0002:00000478 0000001cH .CRT$XCU                DATA
 0002:00000494 00000004H .CRT$XCZ                DATA
 0002:00000498 00000004H .CRT$XIA                DATA
 0002:0000049c 00000004H .CRT$XIAA               DATA
 0002:000004a0 00000004H .CRT$XIAC               DATA
 0002:000004a4 00000004H .CRT$XIC                DATA
 0002:000004a8 00000004H .CRT$XIZ                DATA
 0002:000004ac 00000004H .CRT$XLA                DATA
 0002:000004b0 00000004H .CRT$XLZ                DATA
 0002:000004b4 00000004H .CRT$XPA                DATA
 0002:000004b8 00000004H .CRT$XPZ                DATA
 0002:000004bc 00000004H .CRT$XTA                DATA
 0002:000004c0 00000010H .CRT$XTZ                DATA
 0002:000004d0 00002f64H .rdata                  DATA
 0002:00003434 00000018H .rdata$T                DATA
 0002:0000344c 000009c4H .rdata$r                DATA
 0002:00003e10 00000064H .rdata$sxdata           DATA
 0002:00003e74 00000400H .rdata$zzzdbg           DATA
 0002:00004274 00000004H .rtc$IAA                DATA
 0002:00004278 00000004H .rtc$IZZ                DATA
 0002:0000427c 00000004H .rtc$TAA                DATA
 0002:00004280 00000008H .rtc$TZZ                DATA
 0002:00004288 000008ccH .xdata$x                DATA
 0002:00004b54 00000000H ATL$__a                 DATA
 0002:00004b54 00000000H ATL$__z                 DATA
 0002:00004b54 00000000H .edata                  DATA
 0002:00004b54 00000140H .idata$2                DATA
 0002:00004c94 00000014H .idata$3                DATA
 0002:00004ca8 00000464H .idata$4                DATA
 0002:0000510c 000008ceH .idata$6                DATA
 0003:00000000 0000006cH .data                   DATA
 0003:0000006c 000004ccH .data$r                 DATA
 0003:00000538 0000052cH .bss                    DATA
 0004:00000000 00000038H .gfids$y                DATA
 0005:00000000 00000004H .tls                    DATA
 0005:00000004 00000004H .tls$                   DATA
 0005:00000008 00000001H .tls$ZZZ                DATA
 0006:00000000 00000180H .rsrc$01                DATA
 0006:00000180 00002430H .rsrc$02                DATA

  Address         Publics by Value              Rva+Base       Lib:Object

 0000:00000000       ___guard_longjmp_count     00000000     <absolute>
 0000:00000000       ___guard_iat_count         00000000     <absolute>
 0000:00000000       ___guard_fids_table        00000000     <absolute>
 0000:00000000       ___guard_iat_table         00000000     <absolute>
 0000:00000000       ___dynamic_value_reloc_table 00000000     <absolute>
 0000:00000000       ___guard_longjmp_table     00000000     <absolute>
 0000:00000000       ___guard_fids_count        00000000     <absolute>
 0000:00000019       ___safe_se_handler_count   00000019     <absolute>
 0000:0000002c       __tls_array                0000002c     <absolute>
 0000:00000100       ___guard_flags             00000100     <absolute>
 0000:00000000       ___ImageBase               00400000     <linker-defined>
 0001:00000240       ??0CAttemperEngineSink@@QAE@XZ 00401240 f   AttemperEngineSink.obj
 0001:00000300       ??1CAttemperEngineSink@@UAE@XZ 00401300 f   AttemperEngineSink.obj
 0001:00000330       ?QueryInterface@CAttemperEngineSink@@UAEPAXABU_GUID@@K@Z 00401330 f   AttemperEngineSink.obj
 0001:000003b0       ?OnAttemperEngineStart@CAttemperEngineSink@@UAE_NPAUIUnknownEx@@@Z 004013b0 f   AttemperEngineSink.obj
 0001:00000410       ?OnAttemperEngineConclude@CAttemperEngineSink@@UAE_NPAUIUnknownEx@@@Z 00401410 f   AttemperEngineSink.obj
 0001:00000580       ?OnEventControl@CAttemperEngineSink@@UAE_NGPAXG@Z 00401580 f   AttemperEngineSink.obj
 0001:00000590       ?OnEventAttemperData@CAttemperEngineSink@@UAE_NGPAXG@Z 00401590 f   AttemperEngineSink.obj
 0001:000005a0       ?OnEventTimer@CAttemperEngineSink@@UAE_NKI@Z 004015a0 f   AttemperEngineSink.obj
 0001:000005b0       ?OnEventDataBase@CAttemperEngineSink@@UAE_NGKPAXG@Z 004015b0 f   AttemperEngineSink.obj
 0001:000005c0       ?OnEventTCPSocketLink@CAttemperEngineSink@@UAE_NGH@Z 004015c0 f   AttemperEngineSink.obj
 0001:000005d0       ?OnEventTCPSocketShut@CAttemperEngineSink@@UAE_NGE@Z 004015d0 f   AttemperEngineSink.obj
 0001:000005e0       ?OnEventTCPSocketRead@CAttemperEngineSink@@UAE_NGUTCP_Command@@PAXG@Z 004015e0 f   AttemperEngineSink.obj
 0001:000005f0       ?OnEventTCPNetworkBind@CAttemperEngineSink@@UAE_NKK@Z 004015f0 f   AttemperEngineSink.obj
 0001:00000660       ?OnEventTCPNetworkShut@CAttemperEngineSink@@UAE_NKKK@Z 00401660 f   AttemperEngineSink.obj
 0001:000006a0       ?OnEventTCPNetworkRead@CAttemperEngineSink@@UAE_NUTCP_Command@@PAXGK@Z 004016a0 f   AttemperEngineSink.obj
 0001:000006e0       ?OnTCPNetworkMainLog@CAttemperEngineSink@@IAE_NGPAXGK@Z 004016e0 f   AttemperEngineSink.obj
 0001:00000ba0       ?CloseLogonServerLog@CAttemperEngineSink@@QAEXE@Z 00401ba0 f   AttemperEngineSink.obj
 0001:00000bc0       ?CloseGamedServerLog@CAttemperEngineSink@@QAEXE@Z 00401bc0 f   AttemperEngineSink.obj
 0001:00000be0       ?CloseChatServerLog@CAttemperEngineSink@@QAEXE@Z 00401be0 f   AttemperEngineSink.obj
 0001:00000c00       ?CloseGroupServerLog@CAttemperEngineSink@@QAEXE@Z 00401c00 f   AttemperEngineSink.obj
 0001:00000c20       ?WriteOtherServerLog@@YAXAAV?$vector@UtagOtherServerLogInfo@@V?$allocator@UtagOtherServerLogInfo@@@std@@@std@@AAH@Z 00401c20 f   AttemperEngineSink.obj
 0001:00000ef0       ?OtherServerThreadProFunc@@YGKPAX@Z 00401ef0 f   AttemperEngineSink.obj
 0001:00001040       ?AddOtherServerLog@@YAXAAV?$vector@UtagOtherServerLogInfo@@V?$allocator@UtagOtherServerLogInfo@@@std@@@std@@UtagOtherServerLogInfo@@HAAH@Z 00402040 f   AttemperEngineSink.obj
 0001:00001190       ?WriteGameServerLog@@YAXAAV?$vector@UtagLogUserInfo@@V?$allocator@UtagLogUserInfo@@@std@@@std@@AAH@Z 00402190 f   AttemperEngineSink.obj
 0001:00001580       ?GameServerThreadProFunc@@YGKPAX@Z 00402580 f   AttemperEngineSink.obj
 0001:000016d0       ?AddGameServerLog@@YAXAAV?$vector@UtagLogUserInfo@@V?$allocator@UtagLogUserInfo@@@std@@@std@@UtagLogUserInfo@@HAAH@Z 004026d0 f   AttemperEngineSink.obj
 0001:00001890       ??$?0$$V@?$_Compressed_pair@U?$_Wrap_alloc@V?$allocator@UtagOtherServerLogInfo@@@std@@@std@@V?$_Vector_val@U?$_Simple_types@UtagOtherServerLogInfo@@@std@@@2@$00@std@@QAE@U_Zero_then_variadic_args_t@1@@Z 00402890 f i AttemperEngineSink.obj
 0001:00001890       ??$?0$$V@?$_Compressed_pair@U?$_Wrap_alloc@V?$allocator@UtagLogUserInfo@@@std@@@std@@V?$_Vector_val@U?$_Simple_types@UtagLogUserInfo@@@std@@@2@$00@std@@QAE@U_Zero_then_variadic_args_t@1@@Z 00402890 f i AttemperEngineSink.obj
 0001:000018b0       ??$_Copy_memmove@PAUtagLogUserInfo@@PAU1@@std@@YAPAUtagLogUserInfo@@PAU1@00@Z 004028b0 f i AttemperEngineSink.obj
 0001:000018b0       ??$_Copy_memmove@PAUtagOtherServerLogInfo@@PAU1@@std@@YAPAUtagOtherServerLogInfo@@PAU1@00@Z 004028b0 f i AttemperEngineSink.obj
 0001:000018f0       ?__global_delete@@YAXPAXI@Z 004028f0 f i AttemperEngineSink.obj
 0001:000018f0       ??$_Destroy_range1@V?$allocator@UtagOtherServerLogInfo@@@std@@PAUtagOtherServerLogInfo@@@std@@YAXPAUtagOtherServerLogInfo@@0AAU?$_Wrap_alloc@V?$allocator@UtagOtherServerLogInfo@@@std@@@0@U?$integral_constant@_N$00@0@@Z 004028f0 f i AttemperEngineSink.obj
 0001:000018f0       ??$__vcrt_va_start_verify_argument_type@PB_W@@YAXXZ 004028f0 f i InitParameter.obj
 0001:000018f0       ??$_Destroy_range1@V?$allocator@UtagLogUserInfo@@@std@@PAUtagLogUserInfo@@@std@@YAXPAUtagLogUserInfo@@0AAU?$_Wrap_alloc@V?$allocator@UtagLogUserInfo@@@std@@@0@U?$integral_constant@_N$00@0@@Z 004028f0 f i AttemperEngineSink.obj
 0001:000018f0       ?__empty_global_delete@@YAXPAXI@Z 004028f0 f i AttemperEngineSink.obj
 0001:000018f0       ??$__vcrt_va_start_verify_argument_type@QB_W@@YAXXZ 004028f0 f i AttemperEngineSink.obj
 0001:000018f0       ??3@YAXPAX0@Z              004028f0 f i GlobalInfoManager.obj
 0001:00001900       ??$_Destroy_range@V?$allocator@UtagOtherServerLogInfo@@@std@@PAUtagOtherServerLogInfo@@@std@@YAXPAUtagOtherServerLogInfo@@0AAU?$_Wrap_alloc@V?$allocator@UtagOtherServerLogInfo@@@std@@@0@@Z 00402900 f i AttemperEngineSink.obj
 0001:00001900       ??$_Destroy_range@V?$allocator@UtagLogUserInfo@@@std@@PAUtagLogUserInfo@@@std@@YAXPAUtagLogUserInfo@@0AAU?$_Wrap_alloc@V?$allocator@UtagLogUserInfo@@@std@@@0@@Z 00402900 f i AttemperEngineSink.obj
 0001:00001930       ??$_Rechecked@PAUtagLogUserInfo@@PAU1@@std@@YAAAPAUtagLogUserInfo@@AAPAU1@PAU1@@Z 00402930 f i AttemperEngineSink.obj
 0001:00001930       ??$_Rechecked@PAUtagOtherServerLogInfo@@PAU1@@std@@YAAAPAUtagOtherServerLogInfo@@AAPAU1@PAU1@@Z 00402930 f i AttemperEngineSink.obj
 0001:00001940       ??$_Umove@PAUtagOtherServerLogInfo@@@?$vector@UtagOtherServerLogInfo@@V?$allocator@UtagOtherServerLogInfo@@@std@@@std@@IAEPAUtagOtherServerLogInfo@@PAU2@00@Z 00402940 f i AttemperEngineSink.obj
 0001:00001940       ??$_Umove@PAUtagLogUserInfo@@@?$vector@UtagLogUserInfo@@V?$allocator@UtagLogUserInfo@@@std@@@std@@IAEPAUtagLogUserInfo@@PAU2@00@Z 00402940 f i AttemperEngineSink.obj
 0001:00001970       ??$addressof@$$CBUtagOtherServerLogInfo@@@std@@YAPBUtagOtherServerLogInfo@@ABU1@@Z 00402970 f i AttemperEngineSink.obj
 0001:00001970       ??$_Unchecked@PAUtagOtherServerLogInfo@@@std@@YAPAUtagOtherServerLogInfo@@PAU1@@Z 00402970 f i AttemperEngineSink.obj
 0001:00001970       ??$forward@AAUtagLogUserInfo@@@std@@YAAAUtagLogUserInfo@@AAU1@@Z 00402970 f i AttemperEngineSink.obj
 0001:00001970       ??$forward@ABUtagOtherServerLogInfo@@@std@@YAABUtagOtherServerLogInfo@@ABU1@@Z 00402970 f i AttemperEngineSink.obj
 0001:00001970       ??$_Ptr_move_cat@UtagLogUserInfo@@U1@@std@@YA?AU_Really_trivial_ptr_iterator_tag@0@ABQAUtagLogUserInfo@@0@Z 00402970 f i AttemperEngineSink.obj
 0001:00001970       ??$forward@ABUtagLogUserInfo@@@std@@YAABUtagLogUserInfo@@ABU1@@Z 00402970 f i AttemperEngineSink.obj
 0001:00001970       ??$_Unchecked@PAUtagLogUserInfo@@@std@@YAPAUtagLogUserInfo@@PAU1@@Z 00402970 f i AttemperEngineSink.obj
 0001:00001970       ??$addressof@$$CBUtagLogUserInfo@@@std@@YAPBUtagLogUserInfo@@ABU1@@Z 00402970 f i AttemperEngineSink.obj
 0001:00001970       ??$_Unfancy@UtagLogUserInfo@@@std@@YAPAUtagLogUserInfo@@PAU1@@Z 00402970 f i AttemperEngineSink.obj
 0001:00001970       ??$forward@AAUtagOtherServerLogInfo@@@std@@YAAAUtagOtherServerLogInfo@@AAU1@@Z 00402970 f i AttemperEngineSink.obj
 0001:00001970       ??$_Unfancy@UtagOtherServerLogInfo@@@std@@YAPAUtagOtherServerLogInfo@@PAU1@@Z 00402970 f i AttemperEngineSink.obj
 0001:00001970       ??$_Ptr_move_cat@UtagOtherServerLogInfo@@U1@@std@@YA?AU_Really_trivial_ptr_iterator_tag@0@ABQAUtagOtherServerLogInfo@@0@Z 00402970 f i AttemperEngineSink.obj
 0001:00001980       ??$_Uninitialized_move@PAUtagLogUserInfo@@PAU1@V?$allocator@UtagLogUserInfo@@@std@@@std@@YAPAUtagLogUserInfo@@PAU1@00AAU?$_Wrap_alloc@V?$allocator@UtagLogUserInfo@@@std@@@0@@Z 00402980 f i AttemperEngineSink.obj
 0001:00001980       ??$_Uninitialized_move@PAUtagOtherServerLogInfo@@PAU1@V?$allocator@UtagOtherServerLogInfo@@@std@@@std@@YAPAUtagOtherServerLogInfo@@PAU1@00AAU?$_Wrap_alloc@V?$allocator@UtagOtherServerLogInfo@@@std@@@0@@Z 00402980 f i AttemperEngineSink.obj
 0001:000019d0       ??$_Uninitialized_move_al_unchecked1@UtagLogUserInfo@@U1@V?$allocator@UtagLogUserInfo@@@std@@@std@@YAPAUtagLogUserInfo@@PAU1@00AAU?$_Wrap_alloc@V?$allocator@UtagLogUserInfo@@@std@@@0@U_Really_trivial_ptr_iterator_tag@0@U?$integral_constant@_N$00@0@@Z 004029d0 f i AttemperEngineSink.obj
 0001:000019d0       ??$_Uninitialized_move_al_unchecked1@UtagOtherServerLogInfo@@U1@V?$allocator@UtagOtherServerLogInfo@@@std@@@std@@YAPAUtagOtherServerLogInfo@@PAU1@00AAU?$_Wrap_alloc@V?$allocator@UtagOtherServerLogInfo@@@std@@@0@U_Really_trivial_ptr_iterator_tag@0@U?$integral_constant@_N$00@0@@Z 004029d0 f i AttemperEngineSink.obj
 0001:000019f0       ??$_Uninitialized_move_al_unchecked@PAUtagOtherServerLogInfo@@PAU1@V?$allocator@UtagOtherServerLogInfo@@@std@@@std@@YAPAUtagOtherServerLogInfo@@PAU1@00AAU?$_Wrap_alloc@V?$allocator@UtagOtherServerLogInfo@@@std@@@0@@Z 004029f0 f i AttemperEngineSink.obj
 0001:000019f0       ??$_Uninitialized_move_al_unchecked@PAUtagLogUserInfo@@PAU1@V?$allocator@UtagLogUserInfo@@@std@@@std@@YAPAUtagLogUserInfo@@PAU1@00AAU?$_Wrap_alloc@V?$allocator@UtagLogUserInfo@@@std@@@0@@Z 004029f0 f i AttemperEngineSink.obj
 0001:00001a30       ??$construct@UtagLogUserInfo@@ABU1@@?$allocator@UtagLogUserInfo@@@std@@QAEXPAUtagLogUserInfo@@ABU2@@Z 00402a30 f i AttemperEngineSink.obj
 0001:00001a30       ??$construct@UtagLogUserInfo@@AAU1@@?$allocator@UtagLogUserInfo@@@std@@QAEXPAUtagLogUserInfo@@AAU2@@Z 00402a30 f i AttemperEngineSink.obj
 0001:00001a90       ??$construct@UtagLogUserInfo@@ABU1@@?$allocator_traits@V?$allocator@UtagLogUserInfo@@@std@@@std@@SAXAAV?$allocator@UtagLogUserInfo@@@1@PAUtagLogUserInfo@@ABU3@@Z 00402a90 f i AttemperEngineSink.obj
 0001:00001a90       ??$construct@UtagLogUserInfo@@AAU1@@?$allocator_traits@V?$allocator@UtagLogUserInfo@@@std@@@std@@SAXAAV?$allocator@UtagLogUserInfo@@@1@PAUtagLogUserInfo@@AAU3@@Z 00402a90 f i AttemperEngineSink.obj
 0001:00001ab0       ??$construct@UtagLogUserInfo@@ABU1@@?$_Wrap_alloc@V?$allocator@UtagLogUserInfo@@@std@@@std@@QAEXPAUtagLogUserInfo@@ABU2@@Z 00402ab0 f i AttemperEngineSink.obj
 0001:00001ab0       ??$construct@UtagLogUserInfo@@AAU1@@?$_Wrap_alloc@V?$allocator@UtagLogUserInfo@@@std@@@std@@QAEXPAUtagLogUserInfo@@AAU2@@Z 00402ab0 f i AttemperEngineSink.obj
 0001:00001ae0       ??$construct@UtagOtherServerLogInfo@@ABU1@@?$_Wrap_alloc@V?$allocator@UtagOtherServerLogInfo@@@std@@@std@@QAEXPAUtagOtherServerLogInfo@@ABU2@@Z 00402ae0 f i AttemperEngineSink.obj
 0001:00001ae0       ??$construct@UtagOtherServerLogInfo@@AAU1@@?$_Wrap_alloc@V?$allocator@UtagOtherServerLogInfo@@@std@@@std@@QAEXPAUtagOtherServerLogInfo@@AAU2@@Z 00402ae0 f i AttemperEngineSink.obj
 0001:00001b10       ??$construct@UtagOtherServerLogInfo@@ABU1@@?$allocator@UtagOtherServerLogInfo@@@std@@QAEXPAUtagOtherServerLogInfo@@ABU2@@Z 00402b10 f i AttemperEngineSink.obj
 0001:00001b10       ??$construct@UtagOtherServerLogInfo@@AAU1@@?$allocator@UtagOtherServerLogInfo@@@std@@QAEXPAUtagOtherServerLogInfo@@AAU2@@Z 00402b10 f i AttemperEngineSink.obj
 0001:00001b70       ??$construct@UtagOtherServerLogInfo@@AAU1@@?$allocator_traits@V?$allocator@UtagOtherServerLogInfo@@@std@@@std@@SAXAAV?$allocator@UtagOtherServerLogInfo@@@1@PAUtagOtherServerLogInfo@@AAU3@@Z 00402b70 f i AttemperEngineSink.obj
 0001:00001b70       ??$construct@UtagOtherServerLogInfo@@ABU1@@?$allocator_traits@V?$allocator@UtagOtherServerLogInfo@@@std@@@std@@SAXAAV?$allocator@UtagOtherServerLogInfo@@@1@PAUtagOtherServerLogInfo@@ABU3@@Z 00402b70 f i AttemperEngineSink.obj
 0001:00001b90       ??0?$CWHArray@GABG@@QAE@XZ 00402b90 f i AttemperEngineSink.obj
 0001:00001bd0       ??0?$_Vector_alloc@U?$_Vec_base_types@UtagOtherServerLogInfo@@V?$allocator@UtagOtherServerLogInfo@@@std@@@std@@@std@@QAE@XZ 00402bd0 f i AttemperEngineSink.obj
 0001:00001bd0       ??0?$_Vector_alloc@U?$_Vec_base_types@UtagLogUserInfo@@V?$allocator@UtagLogUserInfo@@@std@@@std@@@std@@QAE@XZ 00402bd0 f i AttemperEngineSink.obj
 0001:00001bf0       ??0?$_Vector_val@U?$_Simple_types@UtagOtherServerLogInfo@@@std@@@std@@QAE@XZ 00402bf0 f i AttemperEngineSink.obj
 0001:00001bf0       ??0?$_Vector_val@U?$_Simple_types@UtagLogUserInfo@@@std@@@std@@QAE@XZ 00402bf0 f i AttemperEngineSink.obj
 0001:00001c20       ??0?$_Wrap_alloc@V?$allocator@UtagLogUserInfo@@@std@@@std@@QAE@XZ 00402c20 f i AttemperEngineSink.obj
 0001:00001c20       ??0?$_Wrap_alloc@V?$allocator@UtagOtherServerLogInfo@@@std@@@std@@QAE@XZ 00402c20 f i AttemperEngineSink.obj
 0001:00001c40       ??0?$vector@UtagOtherServerLogInfo@@V?$allocator@UtagOtherServerLogInfo@@@std@@@std@@QAE@XZ 00402c40 f i AttemperEngineSink.obj
 0001:00001c40       ??0?$vector@UtagLogUserInfo@@V?$allocator@UtagLogUserInfo@@@std@@@std@@QAE@XZ 00402c40 f i AttemperEngineSink.obj
 0001:00001c80       ??0IAttemperEngineSink@@QAE@XZ 00402c80 f i AttemperEngineSink.obj
 0001:00001ca0       ??0IUnknownEx@@QAE@XZ      00402ca0 f i AttemperEngineSink.obj
 0001:00001cc0       ??1?$CWHArray@GABG@@UAE@XZ 00402cc0 f i AttemperEngineSink.obj
 0001:00001d20       ??1?$vector@UtagLogUserInfo@@V?$allocator@UtagLogUserInfo@@@std@@@std@@QAE@XZ 00402d20 f i AttemperEngineSink.obj
 0001:00001d60       ??1?$vector@UtagOtherServerLogInfo@@V?$allocator@UtagOtherServerLogInfo@@@std@@@std@@QAE@XZ 00402d60 f i AttemperEngineSink.obj
 0001:00001da0       ??2@YAPAXIPAX@Z            00402da0 f i AttemperEngineSink.obj
 0001:00001db0       ??A?$vector@UtagLogUserInfo@@V?$allocator@UtagLogUserInfo@@@std@@@std@@QAEAAUtagLogUserInfo@@I@Z 00402db0 f i AttemperEngineSink.obj
 0001:00001dd0       ??A?$vector@UtagOtherServerLogInfo@@V?$allocator@UtagOtherServerLogInfo@@@std@@@std@@QAEAAUtagOtherServerLogInfo@@I@Z 00402dd0 f i AttemperEngineSink.obj
 0001:00001df0       ??_G?$CWHArray@GABG@@UAEPAXI@Z 00402df0 f i AttemperEngineSink.obj
 0001:00001df0       ??_E?$CWHArray@GABG@@UAEPAXI@Z 00402df0 f i AttemperEngineSink.obj
 0001:00001e20       ??_GCAttemperEngineSink@@UAEPAXI@Z 00402e20 f i AttemperEngineSink.obj
 0001:00001e20       ??_ECAttemperEngineSink@@UAEPAXI@Z 00402e20 f i AttemperEngineSink.obj
 0001:00001e60       ?GetBuildVer@@YAEK@Z       00402e60 f i AttemperEngineSink.obj
 0001:00001e80       ?GetMainVer@@YAEK@Z        00402e80 f i AttemperEngineSink.obj
 0001:00001e90       ?GetProductVer@@YAEK@Z     00402e90 f i AttemperEngineSink.obj
 0001:00001eb0       ?GetSubVer@@YAEK@Z         00402eb0 f i AttemperEngineSink.obj
 0001:00001ed0       ?InterfaceVersionCompare@@YA_NKK@Z 00402ed0 f i AttemperEngineSink.obj
 0001:00001f80       ?_Allocate@std@@YAPAXII_N@Z 00402f80 f i AttemperEngineSink.obj
 0001:00002040       ?_Deallocate@std@@YAXPAXII@Z 00403040 f i AttemperEngineSink.obj
 0001:000020e0       ?_Destroy@?$vector@UtagLogUserInfo@@V?$allocator@UtagLogUserInfo@@@std@@@std@@IAEXPAUtagLogUserInfo@@0@Z 004030e0 f i AttemperEngineSink.obj
 0001:000020e0       ?_Destroy@?$vector@UtagOtherServerLogInfo@@V?$allocator@UtagOtherServerLogInfo@@@std@@@std@@IAEXPAUtagOtherServerLogInfo@@0@Z 004030e0 f i AttemperEngineSink.obj
 0001:00002110       ??0?$allocator@UtagOtherServerLogInfo@@@std@@QAE@XZ 00403110 f i AttemperEngineSink.obj
 0001:00002110       ?_Get_second@?$_Compressed_pair@U?$_Wrap_alloc@V?$allocator@UtagOtherServerLogInfo@@@std@@@std@@V?$_Vector_val@U?$_Simple_types@UtagOtherServerLogInfo@@@std@@@2@$00@std@@QBEABV?$_Vector_val@U?$_Simple_types@UtagOtherServerLogInfo@@@std@@@2@XZ 00403110 f i AttemperEngineSink.obj
 0001:00002110       ?_Get_first@?$_Compressed_pair@U?$_Wrap_alloc@V?$allocator@UtagLogUserInfo@@@std@@@std@@V?$_Vector_val@U?$_Simple_types@UtagLogUserInfo@@@std@@@2@$00@std@@QAEAAU?$_Wrap_alloc@V?$allocator@UtagLogUserInfo@@@std@@@2@XZ 00403110 f i AttemperEngineSink.obj
 0001:00002110       ?_Get_first@?$_Compressed_pair@U?$_Wrap_alloc@V?$allocator@UtagLogUserInfo@@@std@@@std@@V?$_Vector_val@U?$_Simple_types@UtagLogUserInfo@@@std@@@2@$00@std@@QBEABU?$_Wrap_alloc@V?$allocator@UtagLogUserInfo@@@std@@@2@XZ 00403110 f i AttemperEngineSink.obj
 0001:00002110       ?_Get_first@?$_Compressed_pair@U?$_Wrap_alloc@V?$allocator@UtagOtherServerLogInfo@@@std@@@std@@V?$_Vector_val@U?$_Simple_types@UtagOtherServerLogInfo@@@std@@@2@$00@std@@QBEABU?$_Wrap_alloc@V?$allocator@UtagOtherServerLogInfo@@@std@@@2@XZ 00403110 f i AttemperEngineSink.obj
 0001:00002110       ??0CObject@@IAE@XZ         00403110 f i GlobalInfoManager.obj
 0001:00002110       ?_Get_first@?$_Compressed_pair@U?$_Wrap_alloc@V?$allocator@UtagOtherServerLogInfo@@@std@@@std@@V?$_Vector_val@U?$_Simple_types@UtagOtherServerLogInfo@@@std@@@2@$00@std@@QAEAAU?$_Wrap_alloc@V?$allocator@UtagOtherServerLogInfo@@@std@@@2@XZ 00403110 f i AttemperEngineSink.obj
 0001:00002110       ??0?$allocator@UtagLogUserInfo@@@std@@QAE@XZ 00403110 f i AttemperEngineSink.obj
 0001:00002110       ?_Get_second@?$_Compressed_pair@U?$_Wrap_alloc@V?$allocator@UtagLogUserInfo@@@std@@@std@@V?$_Vector_val@U?$_Simple_types@UtagLogUserInfo@@@std@@@2@$00@std@@QAEAAV?$_Vector_val@U?$_Simple_types@UtagLogUserInfo@@@std@@@2@XZ 00403110 f i AttemperEngineSink.obj
 0001:00002110       ?_Get_second@?$_Compressed_pair@U?$_Wrap_alloc@V?$allocator@UtagLogUserInfo@@@std@@@std@@V?$_Vector_val@U?$_Simple_types@UtagLogUserInfo@@@std@@@2@$00@std@@QBEABV?$_Vector_val@U?$_Simple_types@UtagLogUserInfo@@@std@@@2@XZ 00403110 f i AttemperEngineSink.obj
 0001:00002110       ?_Get_second@?$_Compressed_pair@U?$_Wrap_alloc@V?$allocator@UtagOtherServerLogInfo@@@std@@@std@@V?$_Vector_val@U?$_Simple_types@UtagOtherServerLogInfo@@@std@@@2@$00@std@@QAEAAV?$_Vector_val@U?$_Simple_types@UtagOtherServerLogInfo@@@std@@@2@XZ 00403110 f i AttemperEngineSink.obj
 0001:00002120       ?_Getal@?$_Vector_alloc@U?$_Vec_base_types@UtagLogUserInfo@@V?$allocator@UtagLogUserInfo@@@std@@@std@@@std@@QAEAAU?$_Wrap_alloc@V?$allocator@UtagLogUserInfo@@@std@@@2@XZ 00403120 f i AttemperEngineSink.obj
 0001:00002120       ?_Getal@?$_Vector_alloc@U?$_Vec_base_types@UtagOtherServerLogInfo@@V?$allocator@UtagOtherServerLogInfo@@@std@@@std@@@std@@QAEAAU?$_Wrap_alloc@V?$allocator@UtagOtherServerLogInfo@@@std@@@2@XZ 00403120 f i AttemperEngineSink.obj
 0001:00002120       ?_Getal@?$_Vector_alloc@U?$_Vec_base_types@UtagOtherServerLogInfo@@V?$allocator@UtagOtherServerLogInfo@@@std@@@std@@@std@@QBEABU?$_Wrap_alloc@V?$allocator@UtagOtherServerLogInfo@@@std@@@2@XZ 00403120 f i AttemperEngineSink.obj
 0001:00002120       ?_Get_data@?$_Vector_alloc@U?$_Vec_base_types@UtagLogUserInfo@@V?$allocator@UtagLogUserInfo@@@std@@@std@@@std@@QAEAAV?$_Vector_val@U?$_Simple_types@UtagLogUserInfo@@@std@@@2@XZ 00403120 f i AttemperEngineSink.obj
 0001:00002120       ?_Get_data@?$_Vector_alloc@U?$_Vec_base_types@UtagLogUserInfo@@V?$allocator@UtagLogUserInfo@@@std@@@std@@@std@@QBEABV?$_Vector_val@U?$_Simple_types@UtagLogUserInfo@@@std@@@2@XZ 00403120 f i AttemperEngineSink.obj
 0001:00002120       ?_Get_data@?$_Vector_alloc@U?$_Vec_base_types@UtagOtherServerLogInfo@@V?$allocator@UtagOtherServerLogInfo@@@std@@@std@@@std@@QAEAAV?$_Vector_val@U?$_Simple_types@UtagOtherServerLogInfo@@@std@@@2@XZ 00403120 f i AttemperEngineSink.obj
 0001:00002120       ?_Getal@?$_Vector_alloc@U?$_Vec_base_types@UtagLogUserInfo@@V?$allocator@UtagLogUserInfo@@@std@@@std@@@std@@QBEABU?$_Wrap_alloc@V?$allocator@UtagLogUserInfo@@@std@@@2@XZ 00403120 f i AttemperEngineSink.obj
 0001:00002120       ?_Get_data@?$_Vector_alloc@U?$_Vec_base_types@UtagOtherServerLogInfo@@V?$allocator@UtagOtherServerLogInfo@@@std@@@std@@@std@@QBEABV?$_Vector_val@U?$_Simple_types@UtagOtherServerLogInfo@@@std@@@2@XZ 00403120 f i AttemperEngineSink.obj
 0001:00002140       ?_Grow_to@?$vector@UtagLogUserInfo@@V?$allocator@UtagLogUserInfo@@@std@@@std@@IBEII@Z 00403140 f i AttemperEngineSink.obj
 0001:000021a0       ?_Grow_to@?$vector@UtagOtherServerLogInfo@@V?$allocator@UtagOtherServerLogInfo@@@std@@@std@@IBEII@Z 004031a0 f i AttemperEngineSink.obj
 0001:00002200       ?_Inside@?$vector@UtagLogUserInfo@@V?$allocator@UtagLogUserInfo@@@std@@@std@@IBE_NPBUtagLogUserInfo@@@Z 00403200 f i AttemperEngineSink.obj
 0001:00002200       ?_Inside@?$vector@UtagOtherServerLogInfo@@V?$allocator@UtagOtherServerLogInfo@@@std@@@std@@IBE_NPBUtagOtherServerLogInfo@@@Z 00403200 f i AttemperEngineSink.obj
 0001:00002260       ?_Myend@?$_Vector_alloc@U?$_Vec_base_types@UtagOtherServerLogInfo@@V?$allocator@UtagOtherServerLogInfo@@@std@@@std@@@std@@QBEABQAUtagOtherServerLogInfo@@XZ 00403260 f i AttemperEngineSink.obj
 0001:00002260       ?_Myend@?$_Vector_alloc@U?$_Vec_base_types@UtagLogUserInfo@@V?$allocator@UtagLogUserInfo@@@std@@@std@@@std@@QBEABQAUtagLogUserInfo@@XZ 00403260 f i AttemperEngineSink.obj
 0001:00002260       ?_Myend@?$_Vector_alloc@U?$_Vec_base_types@UtagLogUserInfo@@V?$allocator@UtagLogUserInfo@@@std@@@std@@@std@@QAEAAPAUtagLogUserInfo@@XZ 00403260 f i AttemperEngineSink.obj
 0001:00002260       ?_Myend@?$_Vector_alloc@U?$_Vec_base_types@UtagOtherServerLogInfo@@V?$allocator@UtagOtherServerLogInfo@@@std@@@std@@@std@@QAEAAPAUtagOtherServerLogInfo@@XZ 00403260 f i AttemperEngineSink.obj
 0001:00002280       ?_Myfirst@?$_Vector_alloc@U?$_Vec_base_types@UtagLogUserInfo@@V?$allocator@UtagLogUserInfo@@@std@@@std@@@std@@QBEABQAUtagLogUserInfo@@XZ 00403280 f i AttemperEngineSink.obj
 0001:00002280       ?_Myfirst@?$_Vector_alloc@U?$_Vec_base_types@UtagOtherServerLogInfo@@V?$allocator@UtagOtherServerLogInfo@@@std@@@std@@@std@@QAEAAPAUtagOtherServerLogInfo@@XZ 00403280 f i AttemperEngineSink.obj
 0001:00002280       ?_Myfirst@?$_Vector_alloc@U?$_Vec_base_types@UtagLogUserInfo@@V?$allocator@UtagLogUserInfo@@@std@@@std@@@std@@QAEAAPAUtagLogUserInfo@@XZ 00403280 f i AttemperEngineSink.obj
 0001:00002280       ?_Myfirst@?$_Vector_alloc@U?$_Vec_base_types@UtagOtherServerLogInfo@@V?$allocator@UtagOtherServerLogInfo@@@std@@@std@@@std@@QBEABQAUtagOtherServerLogInfo@@XZ 00403280 f i AttemperEngineSink.obj
 0001:000022a0       ?_Mylast@?$_Vector_alloc@U?$_Vec_base_types@UtagOtherServerLogInfo@@V?$allocator@UtagOtherServerLogInfo@@@std@@@std@@@std@@QAEAAPAUtagOtherServerLogInfo@@XZ 004032a0 f i AttemperEngineSink.obj
 0001:000022a0       ?_Mylast@?$_Vector_alloc@U?$_Vec_base_types@UtagLogUserInfo@@V?$allocator@UtagLogUserInfo@@@std@@@std@@@std@@QBEABQAUtagLogUserInfo@@XZ 004032a0 f i AttemperEngineSink.obj
 0001:000022a0       ?_Mylast@?$_Vector_alloc@U?$_Vec_base_types@UtagLogUserInfo@@V?$allocator@UtagLogUserInfo@@@std@@@std@@@std@@QAEAAPAUtagLogUserInfo@@XZ 004032a0 f i AttemperEngineSink.obj
 0001:000022a0       ?_Mylast@?$_Vector_alloc@U?$_Vec_base_types@UtagOtherServerLogInfo@@V?$allocator@UtagOtherServerLogInfo@@@std@@@std@@@std@@QBEABQAUtagOtherServerLogInfo@@XZ 004032a0 f i AttemperEngineSink.obj
 0001:000022c0       ?_Orphan_all@?$_Vector_alloc@U?$_Vec_base_types@UtagLogUserInfo@@V?$allocator@UtagLogUserInfo@@@std@@@std@@@std@@QAEXXZ 004032c0 f i AttemperEngineSink.obj
 0001:000022c0       ?_Orphan_all@?$_Vector_alloc@U?$_Vec_base_types@UtagOtherServerLogInfo@@V?$allocator@UtagOtherServerLogInfo@@@std@@@std@@@std@@QAEXXZ 004032c0 f i AttemperEngineSink.obj
 0001:000022e0       ?_Orphan_range@?$vector@UtagOtherServerLogInfo@@V?$allocator@UtagOtherServerLogInfo@@@std@@@std@@IBEXPAUtagOtherServerLogInfo@@0@Z 004032e0 f i AttemperEngineSink.obj
 0001:000022e0       ?_Orphan_range@?$vector@UtagLogUserInfo@@V?$allocator@UtagLogUserInfo@@@std@@@std@@IBEXPAUtagLogUserInfo@@0@Z 004032e0 f i AttemperEngineSink.obj
 0001:000022f0       ?_Reallocate@?$vector@UtagLogUserInfo@@V?$allocator@UtagLogUserInfo@@@std@@@std@@IAEXI@Z 004032f0 f i AttemperEngineSink.obj
 0001:00002460       ?_Reallocate@?$vector@UtagOtherServerLogInfo@@V?$allocator@UtagOtherServerLogInfo@@@std@@@std@@IAEXI@Z 00403460 f i AttemperEngineSink.obj
 0001:000025d0       ?_Reserve@?$vector@UtagLogUserInfo@@V?$allocator@UtagLogUserInfo@@@std@@@std@@IAEXI@Z 004035d0 f i AttemperEngineSink.obj
 0001:00002630       ?_Reserve@?$vector@UtagOtherServerLogInfo@@V?$allocator@UtagOtherServerLogInfo@@@std@@@std@@IAEXI@Z 00403630 f i AttemperEngineSink.obj
 0001:00002690       ?_Tidy@?$vector@UtagLogUserInfo@@V?$allocator@UtagLogUserInfo@@@std@@@std@@IAEXXZ 00403690 f i AttemperEngineSink.obj
 0001:00002740       ?_Tidy@?$vector@UtagOtherServerLogInfo@@V?$allocator@UtagOtherServerLogInfo@@@std@@@std@@IAEXXZ 00403740 f i AttemperEngineSink.obj
 0001:000027f0       ?_Unused_capacity@?$vector@UtagLogUserInfo@@V?$allocator@UtagLogUserInfo@@@std@@@std@@QBEIXZ 004037f0 f i AttemperEngineSink.obj
 0001:00002820       ?_Unused_capacity@?$vector@UtagOtherServerLogInfo@@V?$allocator@UtagOtherServerLogInfo@@@std@@@std@@QBEIXZ 00403820 f i AttemperEngineSink.obj
 0001:00002850       ?_Xlen@?$vector@UtagLogUserInfo@@V?$allocator@UtagLogUserInfo@@@std@@@std@@IBEXXZ 00403850 f i AttemperEngineSink.obj
 0001:00002850       ?_Xlen@?$vector@UtagOtherServerLogInfo@@V?$allocator@UtagOtherServerLogInfo@@@std@@@std@@IBEXXZ 00403850 f i AttemperEngineSink.obj
 0001:00002870       ?allocate@?$_Wrap_alloc@V?$allocator@UtagLogUserInfo@@@std@@@std@@QAEPAUtagLogUserInfo@@I@Z 00403870 f i AttemperEngineSink.obj
 0001:00002890       ?allocate@?$_Wrap_alloc@V?$allocator@UtagOtherServerLogInfo@@@std@@@std@@QAEPAUtagOtherServerLogInfo@@I@Z 00403890 f i AttemperEngineSink.obj
 0001:000028b0       ?allocate@?$allocator@UtagLogUserInfo@@@std@@QAEPAUtagLogUserInfo@@I@Z 004038b0 f i AttemperEngineSink.obj
 0001:000028d0       ?allocate@?$allocator@UtagOtherServerLogInfo@@@std@@QAEPAUtagOtherServerLogInfo@@I@Z 004038d0 f i AttemperEngineSink.obj
 0001:000028f0       ?capacity@?$vector@UtagLogUserInfo@@V?$allocator@UtagLogUserInfo@@@std@@@std@@QBEIXZ 004038f0 f i AttemperEngineSink.obj
 0001:00002920       ?capacity@?$vector@UtagOtherServerLogInfo@@V?$allocator@UtagOtherServerLogInfo@@@std@@@std@@QBEIXZ 00403920 f i AttemperEngineSink.obj
 0001:00002950       ?deallocate@?$_Wrap_alloc@V?$allocator@UtagLogUserInfo@@@std@@@std@@QAEXPAUtagLogUserInfo@@I@Z 00403950 f i AttemperEngineSink.obj
 0001:00002970       ?deallocate@?$_Wrap_alloc@V?$allocator@UtagOtherServerLogInfo@@@std@@@std@@QAEXPAUtagOtherServerLogInfo@@I@Z 00403970 f i AttemperEngineSink.obj
 0001:00002990       ?deallocate@?$allocator@UtagLogUserInfo@@@std@@QAEXPAUtagLogUserInfo@@I@Z 00403990 f i AttemperEngineSink.obj
 0001:000029c0       ?deallocate@?$allocator@UtagOtherServerLogInfo@@@std@@QAEXPAUtagOtherServerLogInfo@@I@Z 004039c0 f i AttemperEngineSink.obj
 0001:000029f0       ?max_size@?$_Wrap_alloc@V?$allocator@UtagLogUserInfo@@@std@@@std@@QBEIU_Nil@2@@Z 004039f0 f i AttemperEngineSink.obj
 0001:00002a10       ?max_size@?$_Wrap_alloc@V?$allocator@UtagOtherServerLogInfo@@@std@@@std@@QBEIU_Nil@2@@Z 00403a10 f i AttemperEngineSink.obj
 0001:00002a30       ?max_size@?$allocator@UtagLogUserInfo@@@std@@QBEIXZ 00403a30 f i AttemperEngineSink.obj
 0001:00002a40       ?max_size@?$allocator@UtagOtherServerLogInfo@@@std@@QBEIXZ 00403a40 f i AttemperEngineSink.obj
 0001:00002a50       ?max_size@?$allocator_traits@V?$allocator@UtagLogUserInfo@@@std@@@std@@SAIABV?$allocator@UtagLogUserInfo@@@2@@Z 00403a50 f i AttemperEngineSink.obj
 0001:00002a60       ?max_size@?$allocator_traits@V?$allocator@UtagOtherServerLogInfo@@@std@@@std@@SAIABV?$allocator@UtagOtherServerLogInfo@@@2@@Z 00403a60 f i AttemperEngineSink.obj
 0001:00002a70       ?max_size@?$vector@UtagLogUserInfo@@V?$allocator@UtagLogUserInfo@@@std@@@std@@QBEIXZ 00403a70 f i AttemperEngineSink.obj
 0001:00002aa0       ?max_size@?$vector@UtagOtherServerLogInfo@@V?$allocator@UtagOtherServerLogInfo@@@std@@@std@@QBEIXZ 00403aa0 f i AttemperEngineSink.obj
 0001:00002ad0       ?push_back@?$vector@UtagLogUserInfo@@V?$allocator@UtagLogUserInfo@@@std@@@std@@QAEXABUtagLogUserInfo@@@Z 00403ad0 f i AttemperEngineSink.obj
 0001:00002c50       ?push_back@?$vector@UtagOtherServerLogInfo@@V?$allocator@UtagOtherServerLogInfo@@@std@@@std@@QAEXABUtagOtherServerLogInfo@@@Z 00403c50 f i AttemperEngineSink.obj
 0001:00002dd0       ?size@?$vector@UtagLogUserInfo@@V?$allocator@UtagLogUserInfo@@@std@@@std@@QBEIXZ 00403dd0 f i AttemperEngineSink.obj
 0001:00002e00       ?size@?$vector@UtagOtherServerLogInfo@@V?$allocator@UtagOtherServerLogInfo@@@std@@@std@@QBEIXZ 00403e00 f i AttemperEngineSink.obj
 0001:00002e30       _==                        00403e30 f i AttemperEngineSink.obj
 0001:00002e60       _IsEqualGUID               00403e60 f i AttemperEngineSink.obj
 0001:00002ea0       ___local_stdio_printf_options 00403ea0 f i AttemperEngineSink.obj
 0001:00002eb0       __vfwprintf_s_l            00403eb0 f i AttemperEngineSink.obj
 0001:00002ee0       _fwprintf_s                00403ee0 f i AttemperEngineSink.obj
 0001:00002f20       ??0CLogServerApp@@QAE@XZ   00403f20 f   LogServer.obj
 0001:00002f50       ?InitInstance@CLogServerApp@@UAEHXZ 00403f50 f   LogServer.obj
 0001:00003020       ?GetThisMessageMap@CLogServerApp@@KGPBUAFX_MSGMAP@@XZ 00404020 f   LogServer.obj
 0001:00003030       ?GetMessageMap@CLogServerApp@@MBEPBUAFX_MSGMAP@@XZ 00404030 f   LogServer.obj
 0001:00003040       ??1CLogServerApp@@UAE@XZ   00404040 f i LogServer.obj
 0001:00003060       ??3CObject@@SGXPAX@Z       00404060 f i LogServer.obj
 0001:00003080       ??_ECLogServerApp@@UAEPAXI@Z 00404080 f i LogServer.obj
 0001:00003080       ??_GCLogServerApp@@UAEPAXI@Z 00404080 f i LogServer.obj
 0001:000030d0       ?GetApplicationRecoveryParameter@CWinApp@@UAEPAXXZ 004040d0 f i LogServer.obj
 0001:000030d0       ?GetApplicationRestartFlags@CWinApp@@UAEKXZ 004040d0 f i LogServer.obj
 0001:000030e0       ?GetApplicationRecoveryPingInterval@CWinApp@@UAEKXZ 004040e0 f i LogServer.obj
 0001:000030f0       ?ReopenPreviousFilesAtRestart@CWinApp@@UBEHXZ 004040f0 f i LogServer.obj
 0001:00003110       ?RestoreAutosavedFilesAtRestart@CWinApp@@UBEHXZ 00404110 f i LogServer.obj
 0001:00003130       ?SupportsApplicationRecovery@CWinApp@@UBEHXZ 00404130 f i LogServer.obj
 0001:00003150       ?SupportsAutosaveAtInterval@CWinApp@@UBEHXZ 00404150 f i LogServer.obj
 0001:00003170       ?SupportsAutosaveAtRestart@CWinApp@@UBEHXZ 00404170 f i LogServer.obj
 0001:00003190       ?SupportsRestartManager@CWinApp@@UBEHXZ 00404190 f i LogServer.obj
 0001:000031b0       ??0CLogServerDlg@@QAE@XZ   004041b0 f   LogServerServerDlg.obj
 0001:00003280       ??1CLogServerDlg@@UAE@XZ   00404280 f   LogServerServerDlg.obj
 0001:000032d0       ?DoDataExchange@CLogServerDlg@@MAEXPAVCDataExchange@@@Z 004042d0 f   LogServerServerDlg.obj
 0001:00003310       ?OnInitDialog@CLogServerDlg@@MAEHXZ 00404310 f   LogServerServerDlg.obj
 0001:000033a0       ?OnOK@CLogServerDlg@@MAEXXZ 004043a0 f   LogServerServerDlg.obj
 0001:000033b0       ?OnCancel@CLogServerDlg@@MAEXXZ 004043b0 f   LogServerServerDlg.obj
 0001:00003410       ?PreTranslateMessage@CLogServerDlg@@MAEHPAUtagMSG@@@Z 00404410 f   LogServerServerDlg.obj
 0001:00003450       ?OnServiceUnitsStatus@CLogServerDlg@@UAEXW4enServiceStatus@@@Z 00404450 f   LogServerServerDlg.obj
 0001:000035b0       ?OnBnClickedStartService@CLogServerDlg@@IAEXXZ 004045b0 f   LogServerServerDlg.obj
 0001:00003620       ?OnBnClickedStopService@CLogServerDlg@@IAEXXZ 00404620 f   LogServerServerDlg.obj
 0001:00003690       ?OnBnClickedLogonPoint@CLogServerDlg@@IAEXXZ 00404690 f   LogServerServerDlg.obj
 0001:000036a0       ?OnBnClickedLogonImmediate@CLogServerDlg@@IAEXXZ 004046a0 f   LogServerServerDlg.obj
 0001:000036f0       ?OnBnClickedGameServerPoint@CLogServerDlg@@IAEXXZ 004046f0 f   LogServerServerDlg.obj
 0001:00003700       ?OnBnClickedGameServerImmediate@CLogServerDlg@@IAEXXZ 00404700 f   LogServerServerDlg.obj
 0001:00003750       ?OnBnClickedChatPoint@CLogServerDlg@@IAEXXZ 00404750 f   LogServerServerDlg.obj
 0001:00003760       ?OnBnClickedChatImmediate@CLogServerDlg@@IAEXXZ 00404760 f   LogServerServerDlg.obj
 0001:000037b0       ?OnBnClickedGroupPoint@CLogServerDlg@@IAEXXZ 004047b0 f   LogServerServerDlg.obj
 0001:000037c0       ?OnBnClickedGroupImmediate@CLogServerDlg@@IAEXXZ 004047c0 f   LogServerServerDlg.obj
 0001:00003810       ?OnBnClickedLogonClose@CLogServerDlg@@IAEXXZ 00404810 f   LogServerServerDlg.obj
 0001:00003860       ?OnBnClickedGameServerClose@CLogServerDlg@@IAEXXZ 00404860 f   LogServerServerDlg.obj
 0001:000038b0       ?OnBnClickedChatClose@CLogServerDlg@@IAEXXZ 004048b0 f   LogServerServerDlg.obj
 0001:00003900       ?OnBnClickedGroupClose@CLogServerDlg@@IAEXXZ 00404900 f   LogServerServerDlg.obj
 0001:00003950       ?OnQueryEndSession@CLogServerDlg@@QAEHXZ 00404950 f   LogServerServerDlg.obj
 0001:00003990       ?GetThisMessageMap@CLogServerDlg@@KGPBUAFX_MSGMAP@@XZ 00404990 f   LogServerServerDlg.obj
 0001:000039a0       ?GetMessageMap@CLogServerDlg@@MBEPBUAFX_MSGMAP@@XZ 004049a0 f   LogServerServerDlg.obj
 0001:000039b0       ??0IServiceUnitsSink@@QAE@XZ 004049b0 f i LogServerServerDlg.obj
 0001:000039d0       ??_GCLogServerDlg@@UAEPAXI@Z 004049d0 f i LogServerServerDlg.obj
 0001:000039d0       ??_ECLogServerDlg@@UAEPAXI@Z 004049d0 f i LogServerServerDlg.obj
 0001:00003a20       ?AfxGetInstanceHandle@@YGPAUHINSTANCE__@@XZ 00404a20 f i LogServerServerDlg.obj
 0001:00003a30       ?BeginModalState@CWnd@@UAEXXZ 00404a30 f i LogServerServerDlg.obj
 0001:00003a50       ?Create@CDialog@@UAEHIPAVCWnd@@@Z 00404a50 f i LogServerServerDlg.obj
 0001:00003a70       ?Serialize@CObject@@UAEXAAVCArchive@@@Z 00404a70 f i LogServer.obj
 0001:00003a70       ?Dump@CObject@@UBEXAAVCDumpContext@@@Z 00404a70 f i LogServer.obj
 0001:00003a70       ?DoDataExchange@CWnd@@MAEXPAVCDataExchange@@@Z 00404a70 f i LogServerServerDlg.obj
 0001:00003a80       ?EndModalState@CWnd@@UAEXXZ 00404a80 f i LogServerServerDlg.obj
 0001:00003aa0       ?GetServiceStatus@CServiceUnits@@QAE?AW4enServiceStatus@@XZ 00404aa0 f i LogServerServerDlg.obj
 0001:00003ac0       ?SetIcon@CWnd@@QAEPAUHICON__@@PAU2@H@Z 00404ac0 f i LogServerServerDlg.obj
 0001:00003af0       ??0CGlobalUserItem@@IAE@XZ 00404af0 f   GlobalInfoManager.obj
 0001:00003b60       ??1CGlobalUserItem@@MAE@XZ 00404b60 f   GlobalInfoManager.obj
 0001:00003b90       ?UpdateStatus@CGlobalUserItem@@QAEXGGE@Z 00404b90 f   GlobalInfoManager.obj
 0001:00003bd0       ?EnumServerItem@CGlobalUserItem@@QAEPAVCGlobalServerItem@@G@Z 00404bd0 f   GlobalInfoManager.obj
 0001:00003c10       ??0CGlobalPlazaItem@@IAE@XZ 00404c10 f   GlobalInfoManager.obj
 0001:00003c70       ??1CGlobalPlazaItem@@MAE@XZ 00404c70 f   GlobalInfoManager.obj
 0001:00003ca0       ??0CGlobalServerItem@@IAE@XZ 00404ca0 f   GlobalInfoManager.obj
 0001:00003d40       ??1CGlobalServerItem@@MAE@XZ 00404d40 f   GlobalInfoManager.obj
 0001:00003d70       ?SearchUserItem@CGlobalServerItem@@QAEPAVCGlobalUserItem@@K@Z 00404d70 f   GlobalInfoManager.obj
 0001:00003da0       ??0CGlobalChatItem@@IAE@XZ 00404da0 f   GlobalInfoManager.obj
 0001:00003df0       ??1CGlobalChatItem@@MAE@XZ 00404df0 f   GlobalInfoManager.obj
 0001:00003e10       ??0CGlobalInfoManager@@QAE@XZ 00404e10 f   GlobalInfoManager.obj
 0001:00003f70       ??1CGlobalInfoManager@@UAE@XZ 00404f70 f   GlobalInfoManager.obj
 0001:000044c0       ?ResetData@CGlobalInfoManager@@QAEXXZ 004054c0 f   GlobalInfoManager.obj
 0001:00004650       ?DeleteUserItem@CGlobalInfoManager@@QAE_NKG@Z 00405650 f   GlobalInfoManager.obj
 0001:00004780       ?ActiveUserItem@CGlobalInfoManager@@QAE_NAAUtagGlobalUserInfo@@G@Z 00405780 f   GlobalInfoManager.obj
 0001:00004970       ?DeletePlazaItem@CGlobalInfoManager@@QAE_NG@Z 00405970 f   GlobalInfoManager.obj
 0001:000049c0       ?ActivePlazaItem@CGlobalInfoManager@@QAE_NGAAUtagGamePlaza@@@Z 004059c0 f   GlobalInfoManager.obj
 0001:00004a50       ?DeleteServerItem@CGlobalInfoManager@@QAE_NG@Z 00405a50 f   GlobalInfoManager.obj
 0001:00004b80       ?ActiveServerItem@CGlobalInfoManager@@QAE_NGAAUtagGameServer@@@Z 00405b80 f   GlobalInfoManager.obj
 0001:00004c10       ?DeleteChatItem@CGlobalInfoManager@@QAE_NG@Z 00405c10 f   GlobalInfoManager.obj
 0001:00004c60       ?ActiveChatItem@CGlobalInfoManager@@QAE_NGAAUtagChatServer@@@Z 00405c60 f   GlobalInfoManager.obj
 0001:00004cf0       ?SearchPlazaItem@CGlobalInfoManager@@QAEPAVCGlobalPlazaItem@@G@Z 00405cf0 f   GlobalInfoManager.obj
 0001:00004d20       ?SearchServerItem@CGlobalInfoManager@@QAEPAVCGlobalServerItem@@G@Z 00405d20 f   GlobalInfoManager.obj
 0001:00004d50       ?SearchChatItem@CGlobalInfoManager@@QAEPAVCGlobalChatItem@@G@Z 00405d50 f   GlobalInfoManager.obj
 0001:00004d80       ?SearchUserItemByUserID@CGlobalInfoManager@@QAEPAVCGlobalUserItem@@K@Z 00405d80 f   GlobalInfoManager.obj
 0001:00004db0       ?SearchUserItemByGameID@CGlobalInfoManager@@QAEPAVCGlobalUserItem@@K@Z 00405db0 f   GlobalInfoManager.obj
 0001:00004de0       ?SearchUserItemByNickName@CGlobalInfoManager@@QAEPAVCGlobalUserItem@@PB_W@Z 00405de0 f   GlobalInfoManager.obj
 0001:00004e10       ?EnumUserItem@CGlobalInfoManager@@QAEPAVCGlobalUserItem@@AAPAU__POSITION@@@Z 00405e10 f   GlobalInfoManager.obj
 0001:00004e70       ?EnumPlazaItem@CGlobalInfoManager@@QAEPAVCGlobalPlazaItem@@AAPAU__POSITION@@@Z 00405e70 f   GlobalInfoManager.obj
 0001:00004ed0       ?EnumServerItem@CGlobalInfoManager@@QAEPAVCGlobalServerItem@@AAPAU__POSITION@@@Z 00405ed0 f   GlobalInfoManager.obj
 0001:00004f30       ?EnumChatItem@CGlobalInfoManager@@QAEPAVCGlobalChatItem@@AAPAU__POSITION@@@Z 00405f30 f   GlobalInfoManager.obj
 0001:00004f90       ?CreateGlobalUserItem@CGlobalInfoManager@@AAEPAVCGlobalUserItem@@XZ 00405f90 f   GlobalInfoManager.obj
 0001:00005090       ?CreateGlobalPlazaItem@CGlobalInfoManager@@AAEPAVCGlobalPlazaItem@@XZ 00406090 f   GlobalInfoManager.obj
 0001:00005190       ?CreateGlobalServerItem@CGlobalInfoManager@@AAEPAVCGlobalServerItem@@XZ 00406190 f   GlobalInfoManager.obj
 0001:00005290       ?CreateGlobalChatItem@CGlobalInfoManager@@AAEPAVCGlobalChatItem@@XZ 00406290 f   GlobalInfoManager.obj
 0001:00005380       ?FreeGlobalUserItem@CGlobalInfoManager@@AAE_NPAVCGlobalUserItem@@@Z 00406380 f   GlobalInfoManager.obj
 0001:00005410       ?FreeGlobalPlazaItem@CGlobalInfoManager@@AAE_NPAVCGlobalPlazaItem@@@Z 00406410 f   GlobalInfoManager.obj
 0001:00005470       ?FreeGlobalServerItem@CGlobalInfoManager@@AAE_NPAVCGlobalServerItem@@@Z 00406470 f   GlobalInfoManager.obj
 0001:000054e0       ?FreeGlobalChatItem@CGlobalInfoManager@@AAE_NPAVCGlobalChatItem@@@Z 004064e0 f   GlobalInfoManager.obj
 0001:00005530       ??$CompareElements@GG@@YGHPBG0@Z 00406530 f i GlobalInfoManager.obj
 0001:00005590       ??$CompareElements@KK@@YGHPBK0@Z 00406590 f i GlobalInfoManager.obj
 0001:000055f0       ??$HashKey@G@@YGIG@Z       004065f0 f i GlobalInfoManager.obj
 0001:00005650       ??$HashKey@K@@YGIK@Z       00406650 f i GlobalInfoManager.obj
 0001:000056b0       ??$SerializeElements@G@@YGXAAVCArchive@@PAGH@Z 004066b0 f i GlobalInfoManager.obj
 0001:000057b0       ??$SerializeElements@PAVCGlobalChatItem@@@@YGXAAVCArchive@@PAPAVCGlobalChatItem@@H@Z 004067b0 f i GlobalInfoManager.obj
 0001:000057b0       ??$SerializeElements@PAVCGlobalPlazaItem@@@@YGXAAVCArchive@@PAPAVCGlobalPlazaItem@@H@Z 004067b0 f i GlobalInfoManager.obj
 0001:000057b0       ??$SerializeElements@K@@YGXAAVCArchive@@PAKH@Z 004067b0 f i GlobalInfoManager.obj
 0001:000057b0       ??$SerializeElements@PAVCGlobalUserItem@@@@YGXAAVCArchive@@PAPAVCGlobalUserItem@@H@Z 004067b0 f i GlobalInfoManager.obj
 0001:000057b0       ??$SerializeElements@PAVCGlobalServerItem@@@@YGXAAVCArchive@@PAPAVCGlobalServerItem@@H@Z 004067b0 f i GlobalInfoManager.obj
 0001:000058b0       ??0?$CMap@GGPAVCGlobalChatItem@@PAV1@@@QAE@H@Z 004068b0 f i GlobalInfoManager.obj
 0001:00005910       ??0?$CMap@GGPAVCGlobalPlazaItem@@PAV1@@@QAE@H@Z 00406910 f i GlobalInfoManager.obj
 0001:00005970       ??0?$CMap@GGPAVCGlobalServerItem@@PAV1@@@QAE@H@Z 00406970 f i GlobalInfoManager.obj
 0001:000059d0       ??0?$CMap@KKPAVCGlobalUserItem@@PAV1@@@QAE@H@Z 004069d0 f i GlobalInfoManager.obj
 0001:00005a30       ??0?$CWHArray@PAVCGlobalServerItem@@ABQAV1@@@QAE@XZ 00406a30 f i GlobalInfoManager.obj
 0001:00005a70       ??0CAssoc@?$CMap@GGPAVCGlobalPlazaItem@@PAV1@@@QAE@G@Z 00406a70 f i GlobalInfoManager.obj
 0001:00005a70       ??0CAssoc@?$CMap@GGPAVCGlobalChatItem@@PAV1@@@QAE@G@Z 00406a70 f i GlobalInfoManager.obj
 0001:00005a70       ??0CAssoc@?$CMap@GGPAVCGlobalServerItem@@PAV1@@@QAE@G@Z 00406a70 f i GlobalInfoManager.obj
 0001:00005a90       ??0CAssoc@?$CMap@KKPAVCGlobalUserItem@@PAV1@@@QAE@K@Z 00406a90 f i GlobalInfoManager.obj
 0001:00005ab0       ??0CPair@?$CMap@GGPAVCGlobalChatItem@@PAV1@@@IAE@G@Z 00406ab0 f i GlobalInfoManager.obj
 0001:00005ab0       ??0CPair@?$CMap@GGPAVCGlobalPlazaItem@@PAV1@@@IAE@G@Z 00406ab0 f i GlobalInfoManager.obj
 0001:00005ab0       ??0CPair@?$CMap@GGPAVCGlobalServerItem@@PAV1@@@IAE@G@Z 00406ab0 f i GlobalInfoManager.obj
 0001:00005ad0       ??0CPair@?$CMap@KKPAVCGlobalUserItem@@PAV1@@@IAE@K@Z 00406ad0 f i GlobalInfoManager.obj
 0001:00005af0       ??1?$CMap@GGPAVCGlobalChatItem@@PAV1@@@UAE@XZ 00406af0 f i GlobalInfoManager.obj
 0001:00005b40       ??1?$CMap@GGPAVCGlobalPlazaItem@@PAV1@@@UAE@XZ 00406b40 f i GlobalInfoManager.obj
 0001:00005b90       ??1?$CMap@GGPAVCGlobalServerItem@@PAV1@@@UAE@XZ 00406b90 f i GlobalInfoManager.obj
 0001:00005be0       ??1?$CMap@KKPAVCGlobalUserItem@@PAV1@@@UAE@XZ 00406be0 f i GlobalInfoManager.obj
 0001:00005c30       ??1?$CWHArray@PAVCGlobalServerItem@@ABQAV1@@@UAE@XZ 00406c30 f i GlobalInfoManager.obj
 0001:00005c90       ?_Orphan_all@_Container_base0@std@@QAEXXZ 00406c90 f i AttemperEngineSink.obj
 0001:00005c90       ?Release@CAttemperEngineSink@@UAEXXZ 00406c90 f i AttemperEngineSink.obj
 0001:00005c90       ?AssertValid@CObject@@UBEXXZ 00406c90 f i LogServer.obj
 0001:00005c90       ??1CObject@@UAE@XZ         00406c90 f i GlobalInfoManager.obj
 0001:00005ca0       ??A?$CMap@GGPAVCGlobalServerItem@@PAV1@@@QAEAAPAVCGlobalServerItem@@G@Z 00406ca0 f i GlobalInfoManager.obj
 0001:00005ca0       ??A?$CMap@GGPAVCGlobalPlazaItem@@PAV1@@@QAEAAPAVCGlobalPlazaItem@@G@Z 00406ca0 f i GlobalInfoManager.obj
 0001:00005ca0       ??A?$CMap@GGPAVCGlobalChatItem@@PAV1@@@QAEAAPAVCGlobalChatItem@@G@Z 00406ca0 f i GlobalInfoManager.obj
 0001:00005d60       ??A?$CMap@KKPAVCGlobalUserItem@@PAV1@@@QAEAAPAVCGlobalUserItem@@K@Z 00406d60 f i GlobalInfoManager.obj
 0001:00005e20       ??A?$CWHArray@PAVCGlobalServerItem@@ABQAV1@@@QAEAAPAVCGlobalServerItem@@H@Z 00406e20 f i GlobalInfoManager.obj
 0001:00005e40       ??_G?$CMap@GGPAVCGlobalChatItem@@PAV1@@@UAEPAXI@Z 00406e40 f i GlobalInfoManager.obj
 0001:00005e40       ??_E?$CMap@GGPAVCGlobalChatItem@@PAV1@@@UAEPAXI@Z 00406e40 f i GlobalInfoManager.obj
 0001:00005e90       ??_E?$CMap@GGPAVCGlobalPlazaItem@@PAV1@@@UAEPAXI@Z 00406e90 f i GlobalInfoManager.obj
 0001:00005e90       ??_G?$CMap@GGPAVCGlobalPlazaItem@@PAV1@@@UAEPAXI@Z 00406e90 f i GlobalInfoManager.obj
 0001:00005ee0       ??_E?$CMap@GGPAVCGlobalServerItem@@PAV1@@@UAEPAXI@Z 00406ee0 f i GlobalInfoManager.obj
 0001:00005ee0       ??_G?$CMap@GGPAVCGlobalServerItem@@PAV1@@@UAEPAXI@Z 00406ee0 f i GlobalInfoManager.obj
 0001:00005f30       ??_E?$CMap@KKPAVCGlobalUserItem@@PAV1@@@UAEPAXI@Z 00406f30 f i GlobalInfoManager.obj
 0001:00005f30       ??_G?$CMap@KKPAVCGlobalUserItem@@PAV1@@@UAEPAXI@Z 00406f30 f i GlobalInfoManager.obj
 0001:00005f80       ??_E?$CWHArray@PAVCGlobalServerItem@@ABQAV1@@@UAEPAXI@Z 00406f80 f i GlobalInfoManager.obj
 0001:00005f80       ??_G?$CWHArray@PAVCGlobalServerItem@@ABQAV1@@@UAEPAXI@Z 00406f80 f i GlobalInfoManager.obj
 0001:00005fb0       ??_GCGlobalChatItem@@MAEPAXI@Z 00406fb0 f i GlobalInfoManager.obj
 0001:00005fb0       ??_ECGlobalChatItem@@MAEPAXI@Z 00406fb0 f i GlobalInfoManager.obj
 0001:00005fe0       ??_GCGlobalInfoManager@@UAEPAXI@Z 00406fe0 f i GlobalInfoManager.obj
 0001:00005fe0       ??_ECGlobalInfoManager@@UAEPAXI@Z 00406fe0 f i GlobalInfoManager.obj
 0001:00006020       ??_GCGlobalPlazaItem@@MAEPAXI@Z 00407020 f i GlobalInfoManager.obj
 0001:00006020       ??_ECGlobalPlazaItem@@MAEPAXI@Z 00407020 f i GlobalInfoManager.obj
 0001:00006060       ??_GCGlobalServerItem@@MAEPAXI@Z 00407060 f i GlobalInfoManager.obj
 0001:00006060       ??_ECGlobalServerItem@@MAEPAXI@Z 00407060 f i GlobalInfoManager.obj
 0001:000060a0       ??_ECGlobalUserItem@@MAEPAXI@Z 004070a0 f i GlobalInfoManager.obj
 0001:000060a0       ??_GCGlobalUserItem@@MAEPAXI@Z 004070a0 f i GlobalInfoManager.obj
 0001:000060e0       ?Add@?$CWHArray@PAVCGlobalServerItem@@ABQAV1@@@QAEHABQAVCGlobalServerItem@@@Z 004070e0 f i GlobalInfoManager.obj
 0001:00006110       ?AllocMemory@?$CWHArray@PAVCGlobalServerItem@@ABQAV1@@@QAEXH@Z 00407110 f i GlobalInfoManager.obj
 0001:00006210       ?ElementAt@?$CWHArray@PAVCGlobalServerItem@@ABQAV1@@@QAEAAPAVCGlobalServerItem@@H@Z 00407210 f i GlobalInfoManager.obj
 0001:00006240       ?EnsureRead@CArchive@@QAEXPAXI@Z 00407240 f i GlobalInfoManager.obj
 0001:00006280       ?FreeAssoc@?$CMap@GGPAVCGlobalPlazaItem@@PAV1@@@IAEXPAVCAssoc@1@@Z 00407280 f i GlobalInfoManager.obj
 0001:00006280       ?FreeAssoc@?$CMap@GGPAVCGlobalServerItem@@PAV1@@@IAEXPAVCAssoc@1@@Z 00407280 f i GlobalInfoManager.obj
 0001:00006280       ?FreeAssoc@?$CMap@KKPAVCGlobalUserItem@@PAV1@@@IAEXPAVCAssoc@1@@Z 00407280 f i GlobalInfoManager.obj
 0001:00006280       ?FreeAssoc@?$CMap@GGPAVCGlobalChatItem@@PAV1@@@IAEXPAVCAssoc@1@@Z 00407280 f i GlobalInfoManager.obj
 0001:000062d0       ?GetAssocAt@?$CMap@GGPAVCGlobalServerItem@@PAV1@@@IBEPAVCAssoc@1@GAAI0@Z 004072d0 f i GlobalInfoManager.obj
 0001:000062d0       ?GetAssocAt@?$CMap@GGPAVCGlobalChatItem@@PAV1@@@IBEPAVCAssoc@1@GAAI0@Z 004072d0 f i GlobalInfoManager.obj
 0001:000062d0       ?GetAssocAt@?$CMap@GGPAVCGlobalPlazaItem@@PAV1@@@IBEPAVCAssoc@1@GAAI0@Z 004072d0 f i GlobalInfoManager.obj
 0001:00006360       ?GetAssocAt@?$CMap@KKPAVCGlobalUserItem@@PAV1@@@IBEPAVCAssoc@1@KAAI0@Z 00407360 f i GlobalInfoManager.obj
 0001:000063f0       ?GetCount@?$CWHArray@PAVCGlobalServerItem@@ABQAV1@@@QBEHXZ 004073f0 f i GlobalInfoManager.obj
 0001:00006410       ?GetGameID@CGlobalUserItem@@QAEKXZ 00407410 f i GlobalInfoManager.obj
 0001:00006430       ?GetNextAssoc@?$CMap@GGPAVCGlobalPlazaItem@@PAV1@@@QBEXAAPAU__POSITION@@AAGAAPAVCGlobalPlazaItem@@@Z 00407430 f i GlobalInfoManager.obj
 0001:00006430       ?GetNextAssoc@?$CMap@GGPAVCGlobalChatItem@@PAV1@@@QBEXAAPAU__POSITION@@AAGAAPAVCGlobalChatItem@@@Z 00407430 f i GlobalInfoManager.obj
 0001:00006430       ?GetNextAssoc@?$CMap@GGPAVCGlobalServerItem@@PAV1@@@QBEXAAPAU__POSITION@@AAGAAPAVCGlobalServerItem@@@Z 00407430 f i GlobalInfoManager.obj
 0001:00006580       ?GetNextAssoc@?$CMap@KKPAVCGlobalUserItem@@PAV1@@@QBEXAAPAU__POSITION@@AAKAAPAVCGlobalUserItem@@@Z 00407580 f i GlobalInfoManager.obj
 0001:000066d0       ?GetNickName@CGlobalUserItem@@QAEPB_WXZ 004076d0 f i GlobalInfoManager.obj
 0001:000066f0       ?GetServerID@CGlobalServerItem@@QAEGXZ 004076f0 f i GlobalInfoManager.obj
 0001:00006710       ?GetStartPosition@?$CMap@KKPAVCGlobalUserItem@@PAV1@@@QBEPAU__POSITION@@XZ 00407710 f i GlobalInfoManager.obj
 0001:00006710       ?GetStartPosition@?$CMap@GGPAVCGlobalChatItem@@PAV1@@@QBEPAU__POSITION@@XZ 00407710 f i GlobalInfoManager.obj
 0001:00006710       ?GetStartPosition@?$CMap@GGPAVCGlobalServerItem@@PAV1@@@QBEPAU__POSITION@@XZ 00407710 f i GlobalInfoManager.obj
 0001:00006710       ?GetStartPosition@?$CMap@GGPAVCGlobalPlazaItem@@PAV1@@@QBEPAU__POSITION@@XZ 00407710 f i GlobalInfoManager.obj
 0001:00006740       ?InitHashTable@?$CMap@GGPAVCGlobalChatItem@@PAV1@@@QAEXIH@Z 00407740 f i GlobalInfoManager.obj
 0001:00006740       ?InitHashTable@?$CMap@KKPAVCGlobalUserItem@@PAV1@@@QAEXIH@Z 00407740 f i GlobalInfoManager.obj
 0001:00006740       ?InitHashTable@?$CMap@GGPAVCGlobalPlazaItem@@PAV1@@@QAEXIH@Z 00407740 f i GlobalInfoManager.obj
 0001:00006740       ?InitHashTable@?$CMap@GGPAVCGlobalServerItem@@PAV1@@@QAEXIH@Z 00407740 f i GlobalInfoManager.obj
 0001:00006800       ?IsStoring@CArchive@@QBEHXZ 00407800 f i GlobalInfoManager.obj
 0001:00006830       ?Lookup@?$CMap@GGPAVCGlobalChatItem@@PAV1@@@QBEHGAAPAVCGlobalChatItem@@@Z 00407830 f i GlobalInfoManager.obj
 0001:00006830       ?Lookup@?$CMap@GGPAVCGlobalServerItem@@PAV1@@@QBEHGAAPAVCGlobalServerItem@@@Z 00407830 f i GlobalInfoManager.obj
 0001:00006830       ?Lookup@?$CMap@GGPAVCGlobalPlazaItem@@PAV1@@@QBEHGAAPAVCGlobalPlazaItem@@@Z 00407830 f i GlobalInfoManager.obj
 0001:00006880       ?Lookup@?$CMap@KKPAVCGlobalUserItem@@PAV1@@@QBEHKAAPAVCGlobalUserItem@@@Z 00407880 f i GlobalInfoManager.obj
 0001:000068c0       ?NewAssoc@?$CMap@GGPAVCGlobalChatItem@@PAV1@@@IAEPAVCAssoc@1@G@Z 004078c0 f i GlobalInfoManager.obj
 0001:000068c0       ?NewAssoc@?$CMap@GGPAVCGlobalServerItem@@PAV1@@@IAEPAVCAssoc@1@G@Z 004078c0 f i GlobalInfoManager.obj
 0001:000068c0       ?NewAssoc@?$CMap@GGPAVCGlobalPlazaItem@@PAV1@@@IAEPAVCAssoc@1@G@Z 004078c0 f i GlobalInfoManager.obj
 0001:00006a40       ?NewAssoc@?$CMap@KKPAVCGlobalUserItem@@PAV1@@@IAEPAVCAssoc@1@K@Z 00407a40 f i GlobalInfoManager.obj
 0001:00006bc0       ?RemoveAll@?$CMap@GGPAVCGlobalServerItem@@PAV1@@@QAEXXZ 00407bc0 f i GlobalInfoManager.obj
 0001:00006bc0       ?RemoveAll@?$CMap@GGPAVCGlobalChatItem@@PAV1@@@QAEXXZ 00407bc0 f i GlobalInfoManager.obj
 0001:00006bc0       ?RemoveAll@?$CMap@GGPAVCGlobalPlazaItem@@PAV1@@@QAEXXZ 00407bc0 f i GlobalInfoManager.obj
 0001:00006bc0       ?RemoveAll@?$CMap@KKPAVCGlobalUserItem@@PAV1@@@QAEXXZ 00407bc0 f i GlobalInfoManager.obj
 0001:00006c60       ?RemoveAll@?$CWHArray@PAVCGlobalServerItem@@ABQAV1@@@QAEXXZ 00407c60 f i GlobalInfoManager.obj
 0001:00006cc0       ?RemoveAt@?$CWHArray@PAVCGlobalServerItem@@ABQAV1@@@QAEXHH@Z 00407cc0 f i GlobalInfoManager.obj
 0001:00006d60       ?RemoveKey@?$CMap@GGPAVCGlobalPlazaItem@@PAV1@@@QAEHG@Z 00407d60 f i GlobalInfoManager.obj
 0001:00006d60       ?RemoveKey@?$CMap@GGPAVCGlobalChatItem@@PAV1@@@QAEHG@Z 00407d60 f i GlobalInfoManager.obj
 0001:00006d60       ?RemoveKey@?$CMap@GGPAVCGlobalServerItem@@PAV1@@@QAEHG@Z 00407d60 f i GlobalInfoManager.obj
 0001:00006e10       ?RemoveKey@?$CMap@KKPAVCGlobalUserItem@@PAV1@@@QAEHK@Z 00407e10 f i GlobalInfoManager.obj
 0001:00006ec0       ?Serialize@?$CMap@GGPAVCGlobalChatItem@@PAV1@@@UAEXAAVCArchive@@@Z 00407ec0 f i GlobalInfoManager.obj
 0001:00006ec0       ?Serialize@?$CMap@GGPAVCGlobalServerItem@@PAV1@@@UAEXAAVCArchive@@@Z 00407ec0 f i GlobalInfoManager.obj
 0001:00006ec0       ?Serialize@?$CMap@GGPAVCGlobalPlazaItem@@PAV1@@@UAEXAAVCArchive@@@Z 00407ec0 f i GlobalInfoManager.obj
 0001:00006ff0       ?Serialize@?$CMap@KKPAVCGlobalUserItem@@PAV1@@@UAEXAAVCArchive@@@Z 00407ff0 f i GlobalInfoManager.obj
 0001:00007120       ?SetAt@?$CMap@GGPAVCGlobalChatItem@@PAV1@@@QAEXGPAVCGlobalChatItem@@@Z 00408120 f i GlobalInfoManager.obj
 0001:00007120       ?SetAt@?$CMap@GGPAVCGlobalServerItem@@PAV1@@@QAEXGPAVCGlobalServerItem@@@Z 00408120 f i GlobalInfoManager.obj
 0001:00007120       ?SetAt@?$CMap@GGPAVCGlobalPlazaItem@@PAV1@@@QAEXGPAVCGlobalPlazaItem@@@Z 00408120 f i GlobalInfoManager.obj
 0001:00007140       ?SetAt@?$CMap@KKPAVCGlobalUserItem@@PAV1@@@QAEXKPAVCGlobalUserItem@@@Z 00408140 f i GlobalInfoManager.obj
 0001:00007160       ?SetAtGrow@?$CWHArray@PAVCGlobalServerItem@@ABQAV1@@@QAEXHABQAVCGlobalServerItem@@@Z 00408160 f i GlobalInfoManager.obj
 0001:000071b0       ?SetSize@?$CWHArray@PAVCGlobalServerItem@@ABQAV1@@@QAEXH@Z 004081b0 f i GlobalInfoManager.obj
 0001:00007280       ?data@CPlex@@QAEPAXXZ      00408280 f i GlobalInfoManager.obj
 0001:000072a0       ??0CInitParameter@@QAE@XZ  004082a0 f   InitParameter.obj
 0001:000072c0       ??1CInitParameter@@UAE@XZ  004082c0 f   InitParameter.obj
 0001:000072e0       ?InitParameter@CInitParameter@@QAEXXZ 004082e0 f   InitParameter.obj
 0001:00007320       ?LoadInitParameter@CInitParameter@@QAEXXZ 00408320 f   InitParameter.obj
 0001:000074b0       ??$_snwprintf_s@$0BAE@@@YAHAAY0BAE@_WIPB_WZZ 004084b0 f i InitParameter.obj
 0001:000074e0       ??_ECInitParameter@@UAEPAXI@Z 004084e0 f i InitParameter.obj
 0001:000074e0       ??_GCInitParameter@@UAEPAXI@Z 004084e0 f i InitParameter.obj
 0001:00007510       __vsnwprintf_s             00408510 f i InitParameter.obj
 0001:00007540       __vsnwprintf_s_l           00408540 f i InitParameter.obj
 0001:000075a0       ??0CServiceUnits@@QAE@XZ   004085a0 f   ServiceUnits.obj
 0001:00007680       ??1CServiceUnits@@UAE@XZ   00408680 f   ServiceUnits.obj
 0001:00007720       ?StartService@CServiceUnits@@QAE_NXZ 00408720 f   ServiceUnits.obj
 0001:00007790       ?ConcludeService@CServiceUnits@@QAE_NXZ 00408790 f   ServiceUnits.obj
 0001:00007840       ?SetServiceUnitsSink@CServiceUnits@@QAE_NPAUIServiceUnitsSink@@@Z 00408840 f   ServiceUnits.obj
 0001:00007860       ?SetLogControl@CServiceUnits@@QAE_NEE@Z 00408860 f   ServiceUnits.obj
 0001:00007900       ?InitializeService@CServiceUnits@@IAE_NXZ 00408900 f   ServiceUnits.obj
 0001:00007b40       ?StartKernelService@CServiceUnits@@IAE_NXZ 00408b40 f   ServiceUnits.obj
 0001:00007bd0       ?SetServiceStatus@CServiceUnits@@AAE_NW4enServiceStatus@@@Z 00408bd0 f   ServiceUnits.obj
 0001:00007c50       ??$_snwprintf_s@$0IA@@@YAHAAY0IA@_WIPB_WZZ 00408c50 f i ServiceUnits.obj
 0001:00007c80       ??0?$CTempldateHelper@UIAttemperEngine@@@@QAE@ABU_GUID@@KPB_WPBD@Z 00408c80 f i ServiceUnits.obj
 0001:00007d10       ??0?$CTempldateHelper@UITCPNetworkEngine@@@@QAE@ABU_GUID@@KPB_WPBD@Z 00408d10 f i ServiceUnits.obj
 0001:00007da0       ??0?$CTempldateHelper@UITimerEngine@@@@QAE@ABU_GUID@@KPB_WPBD@Z 00408da0 f i ServiceUnits.obj
 0001:00007e30       ??0CAttemperEngineHelper@@QAE@XZ 00408e30 f i ServiceUnits.obj
 0001:00007e70       ??0CCriticalSection@@QAE@XZ 00408e70 f i ServiceUnits.obj
 0001:00007ef0       ??0CTCPNetworkEngineHelper@@QAE@XZ 00408ef0 f i ServiceUnits.obj
 0001:00007f30       ??0CTimerEngineHelper@@QAE@XZ 00408f30 f i ServiceUnits.obj
 0001:00007f70       ??1?$CTempldateHelper@UIAttemperEngine@@@@UAE@XZ 00408f70 f i ServiceUnits.obj
 0001:00007fc0       ??1?$CTempldateHelper@UITCPNetworkEngine@@@@UAE@XZ 00408fc0 f i ServiceUnits.obj
 0001:00008010       ??1?$CTempldateHelper@UITimerEngine@@@@UAE@XZ 00409010 f i ServiceUnits.obj
 0001:00008060       ??1CAttemperEngineHelper@@UAE@XZ 00409060 f i ServiceUnits.obj
 0001:00008080       ??1CCriticalSection@@UAE@XZ 00409080 f i ServiceUnits.obj
 0001:000080b0       ??1CTCPNetworkEngineHelper@@UAE@XZ 004090b0 f i ServiceUnits.obj
 0001:000080d0       ??1CTimerEngineHelper@@UAE@XZ 004090d0 f i ServiceUnits.obj
 0001:000080f0       ??C?$CTempldateHelper@UITimerEngine@@@@QBEPAUITimerEngine@@XZ 004090f0 f i ServiceUnits.obj
 0001:000080f0       ??C?$CTempldateHelper@UIAttemperEngine@@@@QBEPAUIAttemperEngine@@XZ 004090f0 f i ServiceUnits.obj
 0001:000080f0       ??C?$CTempldateHelper@UITCPNetworkEngine@@@@QBEPAUITCPNetworkEngine@@XZ 004090f0 f i ServiceUnits.obj
 0001:00008110       ??_G?$CTempldateHelper@UIAttemperEngine@@@@UAEPAXI@Z 00409110 f i ServiceUnits.obj
 0001:00008110       ??_E?$CTempldateHelper@UIAttemperEngine@@@@UAEPAXI@Z 00409110 f i ServiceUnits.obj
 0001:00008150       ??_E?$CTempldateHelper@UITCPNetworkEngine@@@@UAEPAXI@Z 00409150 f i ServiceUnits.obj
 0001:00008150       ??_G?$CTempldateHelper@UITCPNetworkEngine@@@@UAEPAXI@Z 00409150 f i ServiceUnits.obj
 0001:00008190       ??_E?$CTempldateHelper@UITimerEngine@@@@UAEPAXI@Z 00409190 f i ServiceUnits.obj
 0001:00008190       ??_G?$CTempldateHelper@UITimerEngine@@@@UAEPAXI@Z 00409190 f i ServiceUnits.obj
 0001:000081d0       ??_ECAttemperEngineHelper@@UAEPAXI@Z 004091d0 f i ServiceUnits.obj
 0001:000081d0       ??_GCAttemperEngineHelper@@UAEPAXI@Z 004091d0 f i ServiceUnits.obj
 0001:00008210       ??_GCCriticalSection@@UAEPAXI@Z 00409210 f i ServiceUnits.obj
 0001:00008210       ??_ECCriticalSection@@UAEPAXI@Z 00409210 f i ServiceUnits.obj
 0001:00008260       ??_GCServiceUnits@@UAEPAXI@Z 00409260 f i ServiceUnits.obj
 0001:00008260       ??_ECServiceUnits@@UAEPAXI@Z 00409260 f i ServiceUnits.obj
 0001:000082a0       ??_GCTCPNetworkEngineHelper@@UAEPAXI@Z 004092a0 f i ServiceUnits.obj
 0001:000082a0       ??_ECTCPNetworkEngineHelper@@UAEPAXI@Z 004092a0 f i ServiceUnits.obj
 0001:000082e0       ??_ECTimerEngineHelper@@UAEPAXI@Z 004092e0 f i ServiceUnits.obj
 0001:000082e0       ??_GCTimerEngineHelper@@UAEPAXI@Z 004092e0 f i ServiceUnits.obj
 0001:00008320       ?AtlThrowImpl@ATL@@YGXJ@Z  00409320 f i ServiceUnits.obj
 0001:00008340       ?CloseInstance@?$CTempldateHelper@UITCPNetworkEngine@@@@QAE_NXZ 00409340 f i ServiceUnits.obj
 0001:00008340       ?CloseInstance@?$CTempldateHelper@UITimerEngine@@@@QAE_NXZ 00409340 f i ServiceUnits.obj
 0001:00008340       ?CloseInstance@?$CTempldateHelper@UIAttemperEngine@@@@QAE_NXZ 00409340 f i ServiceUnits.obj
 0001:000083c0       ?CreateInstance@?$CTempldateHelper@UIAttemperEngine@@@@QAE_NXZ 004093c0 f i ServiceUnits.obj
 0001:000085a0       ?CreateInstance@?$CTempldateHelper@UITCPNetworkEngine@@@@QAE_NXZ 004095a0 f i ServiceUnits.obj
 0001:00008780       ?CreateInstance@?$CTempldateHelper@UITimerEngine@@@@QAE_NXZ 00409780 f i ServiceUnits.obj
 0001:00008960       ?GetInterface@?$CTempldateHelper@UITCPNetworkEngine@@@@QBEPAUITCPNetworkEngine@@XZ 00409960 f i ServiceUnits.obj
 0001:00008960       ?GetInterface@?$CTempldateHelper@UIAttemperEngine@@@@QBEPAUIAttemperEngine@@XZ 00409960 f i ServiceUnits.obj
 0001:00008960       ?GetInterface@?$CTempldateHelper@UITimerEngine@@@@QBEPAUITimerEngine@@XZ 00409960 f i ServiceUnits.obj
 0001:00008980       ?Init@CCriticalSection@@AAEJXZ 00409980 f i ServiceUnits.obj
 0001:000089c0       ?Lock@CCriticalSection@@QAEHXZ 004099c0 f i ServiceUnits.obj
 0001:000089e0       ?Lock@CCriticalSection@@UAEHK@Z 004099e0 f i ServiceUnits.obj
 0001:00008a00       ?Unlock@CCriticalSection@@UAEHXZ 00409a00 f i ServiceUnits.obj
 0001:00008a20       ?Unlock@CSyncObject@@UAEHJPAJ@Z 00409a20 f i ServiceUnits.obj
 0001:00008a40       _HRESULT_FROM_WIN32        00409a40 f i ServiceUnits.obj
 0001:00008a80       ?Init@CComCriticalSection@ATL@@QAEJXZ 00409a80 f i Stdafx.obj
 0001:00008ac0       ?_AtlInitializeCriticalSectionEx@ATL@@YAHPAU_RTL_CRITICAL_SECTION@@KK@Z 00409ac0 f i Stdafx.obj
 0001:00008ad4       ??3@YAXPAX@Z               00409ad4 f   mfc140u:mfc140u.dll
 0001:00008ada       ??2@YAPAXI@Z               00409ada f   mfc140u:mfc140u.dll
 0001:00008ae0       ??_U@YAPAXI@Z              00409ae0 f   mfc140u:mfc140u.dll
 0001:00008ae6       ??_V@YAXPAX@Z              00409ae6 f   mfc140u:mfc140u.dll
 0001:00008aec       ?OnCmdMsg@CCmdTarget@@UAEHIHPAXPAUAFX_CMDHANDLERINFO@@@Z 00409aec f   mfc140u:mfc140u.dll
 0001:00008af2       ?OnFinalRelease@CCmdTarget@@UAEXXZ 00409af2 f   mfc140u:mfc140u.dll
 0001:00008af8       ?IsInvokeAllowed@CCmdTarget@@UAEHJ@Z 00409af8 f   mfc140u:mfc140u.dll
 0001:00008afe       ?GetDispatchIID@CCmdTarget@@UAEHPAU_GUID@@@Z 00409afe f   mfc140u:mfc140u.dll
 0001:00008b04       ?GetTypeInfoCount@CCmdTarget@@UAEIXZ 00409b04 f   mfc140u:mfc140u.dll
 0001:00008b0a       ?GetTypeLibCache@CCmdTarget@@UAEPAVCTypeLibCache@@XZ 00409b0a f   mfc140u:mfc140u.dll
 0001:00008b10       ?GetTypeLib@CCmdTarget@@UAEJKPAPAUITypeLib@@@Z 00409b10 f   mfc140u:mfc140u.dll
 0001:00008b16       ?GetCommandMap@CCmdTarget@@MBEPBUAFX_OLECMDMAP@@XZ 00409b16 f   mfc140u:mfc140u.dll
 0001:00008b1c       ?GetDispatchMap@CCmdTarget@@MBEPBUAFX_DISPMAP@@XZ 00409b1c f   mfc140u:mfc140u.dll
 0001:00008b22       ?GetConnectionMap@CCmdTarget@@MBEPBUAFX_CONNECTIONMAP@@XZ 00409b22 f   mfc140u:mfc140u.dll
 0001:00008b28       ?GetInterfaceMap@CCmdTarget@@MBEPBUAFX_INTERFACEMAP@@XZ 00409b28 f   mfc140u:mfc140u.dll
 0001:00008b2e       ?GetEventSinkMap@CCmdTarget@@MBEPBUAFX_EVENTSINKMAP@@XZ 00409b2e f   mfc140u:mfc140u.dll
 0001:00008b34       ?OnCreateAggregates@CCmdTarget@@UAEHXZ 00409b34 f   mfc140u:mfc140u.dll
 0001:00008b3a       ?GetInterfaceHook@CCmdTarget@@UAEPAUIUnknown@@PBX@Z 00409b3a f   mfc140u:mfc140u.dll
 0001:00008b40       ?GetExtraConnectionPoints@CCmdTarget@@MAEHPAVCPtrArray@@@Z 00409b40 f   mfc140u:mfc140u.dll
 0001:00008b46       ?GetConnectionHook@CCmdTarget@@MAEPAUIConnectionPoint@@ABU_GUID@@@Z 00409b46 f   mfc140u:mfc140u.dll
 0001:00008b4c       ?AfxInitRichEdit2@@YGHXZ   00409b4c f   mfc140u:mfc140u.dll
 0001:00008b52       ?DoModal@CDialog@@UAEHXZ   00409b52 f   mfc140u:mfc140u.dll
 0001:00008b58       ?PreTranslateMessage@CWinThread@@UAEHPAUtagMSG@@@Z 00409b58 f   mfc140u:mfc140u.dll
 0001:00008b5e       ?PumpMessage@CWinThread@@UAEHXZ 00409b5e f   mfc140u:mfc140u.dll
 0001:00008b64       ?IsIdleMessage@CWinThread@@UAEHPAUtagMSG@@@Z 00409b64 f   mfc140u:mfc140u.dll
 0001:00008b6a       ?ProcessMessageFilter@CWinThread@@UAEHHPAUtagMSG@@@Z 00409b6a f   mfc140u:mfc140u.dll
 0001:00008b70       ?GetMainWnd@CWinThread@@UAEPAVCWnd@@XZ 00409b70 f   mfc140u:mfc140u.dll
 0001:00008b76       ?Delete@CWinThread@@UAEXXZ 00409b76 f   mfc140u:mfc140u.dll
 0001:00008b7c       ?GetRuntimeClass@CWinApp@@UBEPAUCRuntimeClass@@XZ 00409b7c f   mfc140u:mfc140u.dll
 0001:00008b82       ??0CWinApp@@QAE@PB_W@Z     00409b82 f   mfc140u:mfc140u.dll
 0001:00008b88       ?SetRegistryKey@CWinApp@@IAEXPB_W@Z 00409b88 f   mfc140u:mfc140u.dll
 0001:00008b8e       ?GetProfileIntW@CWinApp@@UAEIPB_W0H@Z 00409b8e f   mfc140u:mfc140u.dll
 0001:00008b94       ?WriteProfileInt@CWinApp@@UAEHPB_W0H@Z 00409b94 f   mfc140u:mfc140u.dll
 0001:00008b9a       ?GetProfileStringW@CWinApp@@UAE?AV?$CStringT@_WV?$StrTraitMFC_DLL@_WV?$ChTraitsCRT@_W@ATL@@@@@ATL@@PB_W00@Z 00409b9a f   mfc140u:mfc140u.dll
 0001:00008ba0       ?WriteProfileStringW@CWinApp@@UAEHPB_W00@Z 00409ba0 f   mfc140u:mfc140u.dll
 0001:00008ba6       ?GetProfileBinary@CWinApp@@UAEHPB_W0PAPAEPAI@Z 00409ba6 f   mfc140u:mfc140u.dll
 0001:00008bac       ?WriteProfileBinary@CWinApp@@UAEHPB_W0PAEI@Z 00409bac f   mfc140u:mfc140u.dll
 0001:00008bb2       ?InitLibId@CWinApp@@UAEXXZ 00409bb2 f   mfc140u:mfc140u.dll
 0001:00008bb8       ?Register@CWinApp@@UAEHXZ  00409bb8 f   mfc140u:mfc140u.dll
 0001:00008bbe       ?Unregister@CWinApp@@UAEHXZ 00409bbe f   mfc140u:mfc140u.dll
 0001:00008bc4       ?OpenDocumentFile@CWinApp@@UAEPAVCDocument@@PB_W@Z 00409bc4 f   mfc140u:mfc140u.dll
 0001:00008bca       ?OpenDocumentFile@CWinApp@@UAEPAVCDocument@@PB_WH@Z 00409bca f   mfc140u:mfc140u.dll
 0001:00008bd0       ?AddToRecentFileList@CWinApp@@UAEXPB_W@Z 00409bd0 f   mfc140u:mfc140u.dll
 0001:00008bd6       ?InitApplication@CWinApp@@UAEHXZ 00409bd6 f   mfc140u:mfc140u.dll
 0001:00008bdc       ?SaveAllModified@CWinApp@@UAEHXZ 00409bdc f   mfc140u:mfc140u.dll
 0001:00008be2       ?DoMessageBox@CWinApp@@UAEHPB_WII@Z 00409be2 f   mfc140u:mfc140u.dll
 0001:00008be8       ?DoWaitCursor@CWinApp@@UAEXH@Z 00409be8 f   mfc140u:mfc140u.dll
 0001:00008bee       ?OnDDECommand@CWinApp@@UAEHPA_W@Z 00409bee f   mfc140u:mfc140u.dll
 0001:00008bf4       ?WinHelpW@CWinApp@@UAEXKI@Z 00409bf4 f   mfc140u:mfc140u.dll
 0001:00008bfa       ?HtmlHelpW@CWinApp@@UAEXKI@Z 00409bfa f   mfc140u:mfc140u.dll
 0001:00008c00       ?WinHelpInternal@CWinApp@@UAEXKI@Z 00409c00 f   mfc140u:mfc140u.dll
 0001:00008c06       ?RegisterWithRestartManager@CWinApp@@UAEJHABV?$CStringT@_WV?$StrTraitMFC_DLL@_WV?$ChTraitsCRT@_W@ATL@@@@@ATL@@@Z 00409c06 f   mfc140u:mfc140u.dll
 0001:00008c0c       ?RegisterWithRestartManager@CWinApp@@UAEJPB_WKP6GKPAX@Z1KK@Z 00409c0c f   mfc140u:mfc140u.dll
 0001:00008c12       ?ApplicationRecoveryCallback@CWinApp@@UAEKPAX@Z 00409c12 f   mfc140u:mfc140u.dll
 0001:00008c18       ?GetDataRecoveryHandler@CWinApp@@UAEPAVCDataRecoveryHandler@@XZ 00409c18 f   mfc140u:mfc140u.dll
 0001:00008c1e       ?IsTaskbarInteractionEnabled@CWinApp@@UAEHXZ 00409c1e f   mfc140u:mfc140u.dll
 0001:00008c24       ?InitInstance@CWinApp@@UAEHXZ 00409c24 f   mfc140u:mfc140u.dll
 0001:00008c2a       ?ExitInstance@CWinApp@@UAEHXZ 00409c2a f   mfc140u:mfc140u.dll
 0001:00008c30       ?RestartInstance@CWinApp@@UAEHXZ 00409c30 f   mfc140u:mfc140u.dll
 0001:00008c36       ?Run@CWinApp@@UAEHXZ       00409c36 f   mfc140u:mfc140u.dll
 0001:00008c3c       ?OnIdle@CWinApp@@UAEHJ@Z   00409c3c f   mfc140u:mfc140u.dll
 0001:00008c42       ?ProcessWndProcException@CWinApp@@UAEJPAVCException@@PBUtagMSG@@@Z 00409c42 f   mfc140u:mfc140u.dll
 0001:00008c48       ?LoadAppLangResourceDLL@CWinApp@@UAEPAUHINSTANCE__@@XZ 00409c48 f   mfc140u:mfc140u.dll
 0001:00008c4e       ??1CWinApp@@UAE@XZ         00409c4e f   mfc140u:mfc140u.dll
 0001:00008c54       ?GetThisMessageMap@CWinApp@@KGPBUAFX_MSGMAP@@XZ 00409c54 f   mfc140u:mfc140u.dll
 0001:00008c5a       ?LoadSysPolicies@CWinApp@@UAEHXZ 00409c5a f   mfc140u:mfc140u.dll
 0001:00008c60       ?AfxEnableControlContainer@@YAXPAVCOccManager@@@Z 00409c60 f   mfc140u:mfc140u.dll
 0001:00008c66       ?AfxGetModuleState@@YGPAVAFX_MODULE_STATE@@XZ 00409c66 f   mfc140u:mfc140u.dll
 0001:00008c6c       ?DDX_Control@@YGXPAVCDataExchange@@HAAVCWnd@@@Z 00409c6c f   mfc140u:mfc140u.dll
 0001:00008c72       ?PreSubclassWindow@CWnd@@UAEXXZ 00409c72 f   mfc140u:mfc140u.dll
 0001:00008c78       ?Create@CWnd@@UAEHPB_W0KABUtagRECT@@PAV1@IPAUCCreateContext@@@Z 00409c78 f   mfc140u:mfc140u.dll
 0001:00008c7e       ?CreateEx@CWnd@@UAEHKPB_W0KHHHHPAUHWND__@@PAUHMENU__@@PAX@Z 00409c7e f   mfc140u:mfc140u.dll
 0001:00008c84       ?CreateEx@CWnd@@UAEHKPB_W0KABUtagRECT@@PAV1@IPAX@Z 00409c84 f   mfc140u:mfc140u.dll
 0001:00008c8a       ?DestroyWindow@CWnd@@UAEHXZ 00409c8a f   mfc140u:mfc140u.dll
 0001:00008c90       ?PreCreateWindow@CWnd@@UAEHAAUtagCREATESTRUCTW@@@Z 00409c90 f   mfc140u:mfc140u.dll
 0001:00008c96       ?CalcWindowRect@CWnd@@UAEXPAUtagRECT@@I@Z 00409c96 f   mfc140u:mfc140u.dll
 0001:00008c9c       ?GetDlgItem@CWnd@@QBEPAV1@H@Z 00409c9c f   mfc140u:mfc140u.dll
 0001:00008ca2       ?SetWindowTextW@CWnd@@QAEXPB_W@Z 00409ca2 f   mfc140u:mfc140u.dll
 0001:00008ca8       ?GetMenu@CWnd@@UBEPAVCMenu@@XZ 00409ca8 f   mfc140u:mfc140u.dll
 0001:00008cae       ?SetMenu@CWnd@@UAEHPAVCMenu@@@Z 00409cae f   mfc140u:mfc140u.dll
 0001:00008cb4       ?OnToolHitTest@CWnd@@UBEHVCPoint@@PAUtagTOOLINFOW@@@Z 00409cb4 f   mfc140u:mfc140u.dll
 0001:00008cba       ?EnableWindow@CWnd@@QAEHH@Z 00409cba f   mfc140u:mfc140u.dll
 0001:00008cc0       ?GetScrollBarCtrl@CWnd@@UBEPAVCScrollBar@@H@Z 00409cc0 f   mfc140u:mfc140u.dll
 0001:00008cc6       ?WinHelpW@CWnd@@UAEXKI@Z   00409cc6 f   mfc140u:mfc140u.dll
 0001:00008ccc       ?HtmlHelpW@CWnd@@UAEXKI@Z  00409ccc f   mfc140u:mfc140u.dll
 0001:00008cd2       ?WinHelpInternal@CWnd@@UAEXKI@Z 00409cd2 f   mfc140u:mfc140u.dll
 0001:00008cd8       ?ContinueModal@CWnd@@UAEHXZ 00409cd8 f   mfc140u:mfc140u.dll
 0001:00008cde       ?EndModalLoop@CWnd@@UAEXH@Z 00409cde f   mfc140u:mfc140u.dll
 0001:00008ce4       ?OnDrawIconicThumbnailOrLivePreview@CWnd@@UAEXAAVCDC@@VCRect@@VCSize@@HAAH@Z 00409ce4 f   mfc140u:mfc140u.dll
 0001:00008cea       ?GetInterfaceMap@CWnd@@MBEPBUAFX_INTERFACEMAP@@XZ 00409cea f   mfc140u:mfc140u.dll
 0001:00008cf0       ?EnsureStdObj@CWnd@@UAEJXZ 00409cf0 f   mfc140u:mfc140u.dll
 0001:00008cf6       ?get_accParent@CWnd@@UAEJPAPAUIDispatch@@@Z 00409cf6 f   mfc140u:mfc140u.dll
 0001:00008cfc       ?get_accChildCount@CWnd@@UAEJPAJ@Z 00409cfc f   mfc140u:mfc140u.dll
 0001:00008d02       ?get_accChild@CWnd@@UAEJUtagVARIANT@@PAPAUIDispatch@@@Z 00409d02 f   mfc140u:mfc140u.dll
 0001:00008d08       ?get_accName@CWnd@@UAEJUtagVARIANT@@PAPA_W@Z 00409d08 f   mfc140u:mfc140u.dll
 0001:00008d0e       ?get_accValue@CWnd@@UAEJUtagVARIANT@@PAPA_W@Z 00409d0e f   mfc140u:mfc140u.dll
 0001:00008d14       ?get_accDescription@CWnd@@UAEJUtagVARIANT@@PAPA_W@Z 00409d14 f   mfc140u:mfc140u.dll
 0001:00008d1a       ?get_accRole@CWnd@@UAEJUtagVARIANT@@PAU2@@Z 00409d1a f   mfc140u:mfc140u.dll
 0001:00008d20       ?get_accState@CWnd@@UAEJUtagVARIANT@@PAU2@@Z 00409d20 f   mfc140u:mfc140u.dll
 0001:00008d26       ?get_accHelp@CWnd@@UAEJUtagVARIANT@@PAPA_W@Z 00409d26 f   mfc140u:mfc140u.dll
 0001:00008d2c       ?get_accHelpTopic@CWnd@@UAEJPAPA_WUtagVARIANT@@PAJ@Z 00409d2c f   mfc140u:mfc140u.dll
 0001:00008d32       ?get_accKeyboardShortcut@CWnd@@UAEJUtagVARIANT@@PAPA_W@Z 00409d32 f   mfc140u:mfc140u.dll
 0001:00008d38       ?get_accFocus@CWnd@@UAEJPAUtagVARIANT@@@Z 00409d38 f   mfc140u:mfc140u.dll
 0001:00008d3e       ?get_accSelection@CWnd@@UAEJPAUtagVARIANT@@@Z 00409d3e f   mfc140u:mfc140u.dll
 0001:00008d44       ?get_accDefaultAction@CWnd@@UAEJUtagVARIANT@@PAPA_W@Z 00409d44 f   mfc140u:mfc140u.dll
 0001:00008d4a       ?accSelect@CWnd@@UAEJJUtagVARIANT@@@Z 00409d4a f   mfc140u:mfc140u.dll
 0001:00008d50       ?accLocation@CWnd@@UAEJPAJ000UtagVARIANT@@@Z 00409d50 f   mfc140u:mfc140u.dll
 0001:00008d56       ?accNavigate@CWnd@@UAEJJUtagVARIANT@@PAU2@@Z 00409d56 f   mfc140u:mfc140u.dll
 0001:00008d5c       ?accHitTest@CWnd@@UAEJJJPAUtagVARIANT@@@Z 00409d5c f   mfc140u:mfc140u.dll
 0001:00008d62       ?accDoDefaultAction@CWnd@@UAEJUtagVARIANT@@@Z 00409d62 f   mfc140u:mfc140u.dll
 0001:00008d68       ?put_accName@CWnd@@UAEJUtagVARIANT@@PA_W@Z 00409d68 f   mfc140u:mfc140u.dll
 0001:00008d6e       ?put_accValue@CWnd@@UAEJUtagVARIANT@@PA_W@Z 00409d6e f   mfc140u:mfc140u.dll
 0001:00008d74       ?SetProxy@CWnd@@UAEJPAUIAccessibleProxy@@@Z 00409d74 f   mfc140u:mfc140u.dll
 0001:00008d7a       ?CreateAccessibleProxy@CWnd@@UAEJIJPAJ@Z 00409d7a f   mfc140u:mfc140u.dll
 0001:00008d80       ?OnCommand@CWnd@@MAEHIJ@Z  00409d80 f   mfc140u:mfc140u.dll
 0001:00008d86       ?OnNotify@CWnd@@MAEHIJPAJ@Z 00409d86 f   mfc140u:mfc140u.dll
 0001:00008d8c       ?GetSuperWndProcAddr@CWnd@@MAEPAP6GJPAUHWND__@@IIJ@ZXZ 00409d8c f   mfc140u:mfc140u.dll
 0001:00008d92       ?OnAmbientProperty@CWnd@@UAEHPAVCOleControlSite@@JPAUtagVARIANT@@@Z 00409d92 f   mfc140u:mfc140u.dll
 0001:00008d98       ?WindowProc@CWnd@@MAEJIIJ@Z 00409d98 f   mfc140u:mfc140u.dll
 0001:00008d9e       ?OnWndMsg@CWnd@@MAEHIIJPAJ@Z 00409d9e f   mfc140u:mfc140u.dll
 0001:00008da4       ?DefWindowProcW@CWnd@@MAEJIIJ@Z 00409da4 f   mfc140u:mfc140u.dll
 0001:00008daa       ?PostNcDestroy@CWnd@@MAEXXZ 00409daa f   mfc140u:mfc140u.dll
 0001:00008db0       ?OnChildNotify@CWnd@@MAEHIIJPAJ@Z 00409db0 f   mfc140u:mfc140u.dll
 0001:00008db6       ?OnTouchInputs@CWnd@@MAEHIPAUtagTOUCHINPUT@@@Z 00409db6 f   mfc140u:mfc140u.dll
 0001:00008dbc       ?OnTouchInput@CWnd@@MAEHVCPoint@@HHPAUtagTOUCHINPUT@@@Z 00409dbc f   mfc140u:mfc140u.dll
 0001:00008dc2       ?GetGestureStatus@CWnd@@MAEKVCPoint@@@Z 00409dc2 f   mfc140u:mfc140u.dll
 0001:00008dc8       ?OnGestureZoom@CWnd@@MAEHVCPoint@@J@Z 00409dc8 f   mfc140u:mfc140u.dll
 0001:00008dce       ?OnGesturePan@CWnd@@MAEHVCPoint@@0@Z 00409dce f   mfc140u:mfc140u.dll
 0001:00008dd4       ?OnGestureRotate@CWnd@@MAEHVCPoint@@N@Z 00409dd4 f   mfc140u:mfc140u.dll
 0001:00008dda       ?OnGestureTwoFingerTap@CWnd@@MAEHVCPoint@@@Z 00409dda f   mfc140u:mfc140u.dll
 0001:00008de0       ?OnGesturePressAndTap@CWnd@@MAEHVCPoint@@J@Z 00409de0 f   mfc140u:mfc140u.dll
 0001:00008de6       ?ResizeDynamicLayout@CWnd@@MAEXXZ 00409de6 f   mfc140u:mfc140u.dll
 0001:00008dec       ?IsFrameWnd@CWnd@@UBEHXZ   00409dec f   mfc140u:mfc140u.dll
 0001:00008df2       ?OnFinalRelease@CWnd@@UAEXXZ 00409df2 f   mfc140u:mfc140u.dll
 0001:00008df8       ?CreateControlContainer@CWnd@@MAEHPAPAVCOleControlContainer@@@Z 00409df8 f   mfc140u:mfc140u.dll
 0001:00008dfe       ?CreateControlSite@CWnd@@MAEHPAVCOleControlContainer@@PAPAVCOleControlSite@@IABU_GUID@@@Z 00409dfe f   mfc140u:mfc140u.dll
 0001:00008e04       ?GetRuntimeClass@CDialog@@UBEPAUCRuntimeClass@@XZ 00409e04 f   mfc140u:mfc140u.dll
 0001:00008e0a       ?Create@CDialog@@UAEHPB_WPAVCWnd@@@Z 00409e0a f   mfc140u:mfc140u.dll
 0001:00008e10       ?CreateIndirect@CDialog@@UAEHPBUDLGTEMPLATE@@PAVCWnd@@PAX@Z 00409e10 f   mfc140u:mfc140u.dll
 0001:00008e16       ?CreateIndirect@CDialog@@UAEHPAXPAVCWnd@@@Z 00409e16 f   mfc140u:mfc140u.dll
 0001:00008e1c       ??0CDialog@@QAE@IPAVCWnd@@@Z 00409e1c f   mfc140u:mfc140u.dll
 0001:00008e22       ?OnInitDialog@CDialog@@UAEHXZ 00409e22 f   mfc140u:mfc140u.dll
 0001:00008e28       ?OnSetFont@CDialog@@UAEXPAVCFont@@@Z 00409e28 f   mfc140u:mfc140u.dll
 0001:00008e2e       ?OnCancel@CDialog@@MAEXXZ  00409e2e f   mfc140u:mfc140u.dll
 0001:00008e34       ??1CDialog@@UAE@XZ         00409e34 f   mfc140u:mfc140u.dll
 0001:00008e3a       ?PreTranslateMessage@CDialog@@UAEHPAUtagMSG@@@Z 00409e3a f   mfc140u:mfc140u.dll
 0001:00008e40       ?OnCmdMsg@CDialog@@UAEHIHPAXPAUAFX_CMDHANDLERINFO@@@Z 00409e40 f   mfc140u:mfc140u.dll
 0001:00008e46       ?CheckAutoCenter@CDialog@@UAEHXZ 00409e46 f   mfc140u:mfc140u.dll
 0001:00008e4c       ?SetOccDialogInfo@CDialog@@MAEHPAU_AFX_OCC_DIALOG_INFO@@@Z 00409e4c f   mfc140u:mfc140u.dll
 0001:00008e52       ?GetOccDialogInfo@CDialog@@MAEPAU_AFX_OCC_DIALOG_INFO@@XZ 00409e52 f   mfc140u:mfc140u.dll
 0001:00008e58       ?PreInitDialog@CDialog@@MAEXXZ 00409e58 f   mfc140u:mfc140u.dll
 0001:00008e5e       ?GetThisMessageMap@CDialog@@KGPBUAFX_MSGMAP@@XZ 00409e5e f   mfc140u:mfc140u.dll
 0001:00008e64       ?AfxMessageBox@@YGHPB_WII@Z 00409e64 f   mfc140u:mfc140u.dll
 0001:00008e6a       ?AfxThrowInvalidArgException@@YGXXZ 00409e6a f   mfc140u:mfc140u.dll
 0001:00008e70       ?AfxThrowArchiveException@@YGXHPB_W@Z 00409e70 f   mfc140u:mfc140u.dll
 0001:00008e76       ?GetRuntimeClass@CObject@@UBEPAUCRuntimeClass@@XZ 00409e76 f   mfc140u:mfc140u.dll
 0001:00008e7c       ?Read@CArchive@@QAEIPAXI@Z 00409e7c f   mfc140u:mfc140u.dll
 0001:00008e82       ?Write@CArchive@@QAEXPBXI@Z 00409e82 f   mfc140u:mfc140u.dll
 0001:00008e88       ?ReadCount@CArchive@@QAEKXZ 00409e88 f   mfc140u:mfc140u.dll
 0001:00008e8e       ?WriteCount@CArchive@@QAEXK@Z 00409e8e f   mfc140u:mfc140u.dll
 0001:00008e94       ??0CMapStringToPtr@@QAE@H@Z 00409e94 f   mfc140u:mfc140u.dll
 0001:00008e9a       ?Lookup@CMapStringToPtr@@QBEHPB_WAAPAX@Z 00409e9a f   mfc140u:mfc140u.dll
 0001:00008ea0       ??ACMapStringToPtr@@QAEAAPAXPB_W@Z 00409ea0 f   mfc140u:mfc140u.dll
 0001:00008ea6       ?RemoveKey@CMapStringToPtr@@QAEHPB_W@Z 00409ea6 f   mfc140u:mfc140u.dll
 0001:00008eac       ?RemoveAll@CMapStringToPtr@@QAEXXZ 00409eac f   mfc140u:mfc140u.dll
 0001:00008eb2       ?InitHashTable@CMapStringToPtr@@QAEXIH@Z 00409eb2 f   mfc140u:mfc140u.dll
 0001:00008eb8       ??1CMapStringToPtr@@UAE@XZ 00409eb8 f   mfc140u:mfc140u.dll
 0001:00008ebe       ?Create@CPlex@@SGPAU1@AAPAU1@II@Z 00409ebe f   mfc140u:mfc140u.dll
 0001:00008ec4       ?FreeDataChain@CPlex@@QAEXXZ 00409ec4 f   mfc140u:mfc140u.dll
 0001:00008eca       ?AfxThrowMemoryException@@YGXXZ 00409eca f   mfc140u:mfc140u.dll
 0001:00008ed0       ?AfxThrowOleException@@YGXJ@Z 00409ed0 f   mfc140u:mfc140u.dll
 0001:00008ed6       ?AfxLoadLibrary@@YGPAUHINSTANCE__@@PB_W@Z 00409ed6 f   mfc140u:mfc140u.dll
 0001:00008edc       ?AfxFreeLibrary@@YGHPAUHINSTANCE__@@@Z 00409edc f   mfc140u:mfc140u.dll
 0001:00008ee2       ??0CSyncObject@@QAE@PB_W@Z 00409ee2 f   mfc140u:mfc140u.dll
 0001:00008ee8       ??1CSyncObject@@UAE@XZ     00409ee8 f   mfc140u:mfc140u.dll
 0001:00008eee       ?GetRuntimeClass@CCriticalSection@@UBEPAUCRuntimeClass@@XZ 00409eee f   mfc140u:mfc140u.dll
 0001:0000911c       _wWinMainCRTStartup        0040a11c f   msvcrt:exe_wwinmain.obj
 0001:00009126       ??3@YAXPAXI@Z              0040a126 f   msvcrt:delete_scalar_size.obj
 0001:00009178       ___scrt_acquire_startup_lock 0040a178 f   msvcrt:utility.obj
 0001:000091ad       ___scrt_initialize_crt     0040a1ad f   msvcrt:utility.obj
 0001:000091e6       ___scrt_initialize_onexit_tables 0040a1e6 f   msvcrt:utility.obj
 0001:0000927d       ___scrt_is_nonwritable_in_current_image 0040a27d f   msvcrt:utility.obj
 0001:00009307       ___scrt_release_startup_lock 0040a307 f   msvcrt:utility.obj
 0001:00009324       ___scrt_uninitialize_crt   0040a324 f   msvcrt:utility.obj
 0001:0000934c       __onexit                   0040a34c f   msvcrt:utility.obj
 0001:00009387       _atexit                    0040a387 f   msvcrt:utility.obj
 0001:0000939c       @__security_check_cookie@4 0040a39c f   msvcrt:_secchk_.obj
 0001:000093b0       __chkstk                   0040a3b0 f   msvcrt:chkstk.obj
 0001:000093b0       __alloca_probe             0040a3b0 f   msvcrt:chkstk.obj
 0001:000093dd       ??_Gtype_info@@UAEPAXI@Z   0040a3dd f i msvcrt:std_type_info_static.obj
 0001:000093dd       ??_Etype_info@@UAEPAXI@Z   0040a3dd f i msvcrt:std_type_info_static.obj
 0001:000094c0       ??$__crt_fast_encode_pointer@P6GXPAU_RTL_CONDITION_VARIABLE@@@Z@@YAP6GXPAU_RTL_CONDITION_VARIABLE@@@ZQ6GX0@Z@Z 0040a4c0 f i msvcrt:thread_safe_statics.obj
 0001:000094c0       ??$__crt_fast_encode_pointer@P6GHPAU_RTL_CONDITION_VARIABLE@@PAU_RTL_CRITICAL_SECTION@@K@Z@@YAP6GHPAU_RTL_CONDITION_VARIABLE@@PAU_RTL_CRITICAL_SECTION@@K@ZQ6GH01K@Z@Z 0040a4c0 f i msvcrt:thread_safe_statics.obj
 0001:000094f9       @_guard_check_icall@4      0040a4f9 f i msvcrt:checkcfg.obj
 0001:00009500       __SEH_prolog4              0040a500 f   msvcrt:_sehprolg4_.obj
 0001:00009546       __SEH_epilog4              0040a546 f   msvcrt:_sehprolg4_.obj
 0001:00009560       __SEH_prolog4_GS           0040a560 f   msvcrt:_sehprolg4gs_.obj
 0001:000095a9       __SEH_epilog4_GS           0040a5a9 f   msvcrt:_sehprolg4gs_.obj
 0001:000095ba       __except_handler4          0040a5ba f   msvcrt:_chandler4gs_.obj
 0001:000095dd       ___security_init_cookie    0040a5dd f   msvcrt:gs_support.obj
 0001:00009679       __get_startup_argv_mode    0040a679 f   msvcrt:argv_mode.obj
 0001:0000967d       __get_startup_file_mode    0040a67d f   msvcrt:file_mode.obj
 0001:00009683       __get_startup_thread_locale_mode 0040a683 f   msvcrt:thread_locale.obj
 0001:00009683       __get_startup_commit_mode  0040a683 f   msvcrt:commit_mode.obj
 0001:00009683       __get_startup_new_mode     0040a683 f   msvcrt:new_mode.obj
 0001:00009683       __matherr                  0040a683 f   msvcrt:matherr.obj
 0001:00009683       ___scrt_initialize_winrt   0040a683 f   msvcrt:utility_desktop.obj
 0001:00009686       ?__scrt_initialize_type_info@@YAXXZ 0040a686 f   msvcrt:tncleanup.obj
 0001:00009692       __initialize_default_precision 0040a692 f   msvcrt:default_precision.obj
 0001:000096b3       __initialize_denormal_control 0040a6b3 f   msvcrt:denormal_control.obj
 0001:000096b3       __initialize_invalid_parameter_handler 0040a6b3 f   msvcrt:invalid_parameter_handler.obj
 0001:000096b3       @_guard_check_icall_nop@4  0040a6b3 f   msvcrt:guard_support.obj
 0001:000096b4       ___local_stdio_scanf_options 0040a6b4 f i msvcrt:default_local_stdio_options.obj
 0001:000096ba       ___scrt_initialize_default_local_stdio_options 0040a6ba f   msvcrt:default_local_stdio_options.obj
 0001:000096d7       ___scrt_is_user_matherr_present 0040a6d7 f   msvcrt:matherr_detection.obj
 0001:000096e3       ___scrt_get_dyn_tls_init_callback 0040a6e3 f   msvcrt:dyn_tls_init.obj
 0001:000096e9       ___scrt_get_dyn_tls_dtor_callback 0040a6e9 f   msvcrt:dyn_tls_dtor.obj
 0001:000096ef       ___scrt_fastfail           0040a6ef f   msvcrt:utility_desktop.obj
 0001:0000980a       ___scrt_get_show_window_mode 0040a80a f   msvcrt:utility_desktop.obj
 0001:0000983d       ___scrt_is_managed_app     0040a83d f   msvcrt:utility_desktop.obj
 0001:00009881       ___scrt_set_unhandled_exception_filter 0040a881 f   msvcrt:utility_desktop.obj
 0001:0000988d       ___scrt_unhandled_exception_filter@4 0040a88d f   msvcrt:utility_desktop.obj
 0001:000098ce       __RTC_Initialize           0040a8ce f   msvcrt:_initsect_.obj
 0001:000098f9       __RTC_Terminate            0040a8f9 f   msvcrt:_initsect_.obj
 0001:00009924       ___isa_available_init      0040a924 f   msvcrt:_cpu_disp_.obj
 0001:00009ac8       ___scrt_is_ucrt_dll_in_use 0040aac8 f   msvcrt:ucrt_detection.obj
 0001:00009ad4       ___raise_securityfailure   0040aad4 f   msvcrt:gs_report.obj
 0001:00009afc       ___report_gsfailure        0040aafc f   msvcrt:gs_report.obj
 0001:00009bf8       _IsProcessorFeaturePresent@4 0040abf8 f   kernel32:KERNEL32.dll
 0001:00009bfe       ??0CAtlBaseModule@ATL@@QAE@XZ 0040abfe f   atls:atlbase.obj
 0001:00009c51       ??0_ATL_BASE_MODULE70@ATL@@QAE@XZ 0040ac51 f i atls:atlbase.obj
 0001:00009c74       ??1CAtlBaseModule@ATL@@QAE@XZ 0040ac74 f   atls:atlbase.obj
 0001:00009c8a       ?RemoveAll@?$CSimpleArray@PAUHINSTANCE__@@V?$CSimpleArrayEqualHelper@PAUHINSTANCE__@@@ATL@@@ATL@@QAEXXZ 0040ac8a f i atls:atlbase.obj
 0001:00009ca8       __purecall                 0040aca8 f   vcruntime:VCRUNTIME140.dll
 0001:00009cae       _memcmp                    0040acae f   vcruntime:VCRUNTIME140.dll
 0001:00009cb4       _memcpy                    0040acb4 f   vcruntime:VCRUNTIME140.dll
 0001:00009cba       _memset                    0040acba f   vcruntime:VCRUNTIME140.dll
 0001:00009cc0       __CxxThrowException@8      0040acc0 f   vcruntime:VCRUNTIME140.dll
 0001:00009cc6       ___CxxFrameHandler3        0040acc6 f   vcruntime:VCRUNTIME140.dll
 0001:00009ccc       ___vcrt_InitializeCriticalSectionEx 0040accc f   vcruntime:VCRUNTIME140.dll
 0001:00009cd2       __except_handler4_common   0040acd2 f   vcruntime:VCRUNTIME140.dll
 0001:00009cd8       _free                      0040acd8 f   ucrt:api-ms-win-crt-heap-l1-1-0.dll
 0001:00009cde       __seh_filter_exe           0040acde f   ucrt:api-ms-win-crt-runtime-l1-1-0.dll
 0001:00009ce4       __set_app_type             0040ace4 f   ucrt:api-ms-win-crt-runtime-l1-1-0.dll
 0001:00009cea       ___setusermatherr          0040acea f   ucrt:api-ms-win-crt-math-l1-1-0.dll
 0001:00009cf0       __configure_wide_argv      0040acf0 f   ucrt:api-ms-win-crt-runtime-l1-1-0.dll
 0001:00009cf6       __initialize_wide_environment 0040acf6 f   ucrt:api-ms-win-crt-runtime-l1-1-0.dll
 0001:00009cfc       __get_wide_winmain_command_line 0040acfc f   ucrt:api-ms-win-crt-runtime-l1-1-0.dll
 0001:00009d02       __initterm                 0040ad02 f   ucrt:api-ms-win-crt-runtime-l1-1-0.dll
 0001:00009d08       __initterm_e               0040ad08 f   ucrt:api-ms-win-crt-runtime-l1-1-0.dll
 0001:00009d0e       _exit                      0040ad0e f   ucrt:api-ms-win-crt-runtime-l1-1-0.dll
 0001:00009d14       __exit                     0040ad14 f   ucrt:api-ms-win-crt-runtime-l1-1-0.dll
 0001:00009d1a       __set_fmode                0040ad1a f   ucrt:api-ms-win-crt-stdio-l1-1-0.dll
 0001:00009d20       __cexit                    0040ad20 f   ucrt:api-ms-win-crt-runtime-l1-1-0.dll
 0001:00009d26       __c_exit                   0040ad26 f   ucrt:api-ms-win-crt-runtime-l1-1-0.dll
 0001:00009d2c       __register_thread_local_exe_atexit_callback 0040ad2c f   ucrt:api-ms-win-crt-runtime-l1-1-0.dll
 0001:00009d32       __configthreadlocale       0040ad32 f   ucrt:api-ms-win-crt-locale-l1-1-0.dll
 0001:00009d38       __set_new_mode             0040ad38 f   ucrt:api-ms-win-crt-heap-l1-1-0.dll
 0001:00009d3e       ___p__commode              0040ad3e f   ucrt:api-ms-win-crt-stdio-l1-1-0.dll
 0001:00009d44       __initialize_onexit_table  0040ad44 f   ucrt:api-ms-win-crt-runtime-l1-1-0.dll
 0001:00009d4a       __register_onexit_function 0040ad4a f   ucrt:api-ms-win-crt-runtime-l1-1-0.dll
 0001:00009d50       __crt_atexit               0040ad50 f   ucrt:api-ms-win-crt-runtime-l1-1-0.dll
 0001:00009d56       _terminate                 0040ad56 f   ucrt:api-ms-win-crt-runtime-l1-1-0.dll
 0001:00009d5c       __controlfp_s              0040ad5c f   ucrt:api-ms-win-crt-runtime-l1-1-0.dll
 0001:00009d62       ?AfxInitialize@@YGHHK@Z    0040ad62 f   mfcs140u:appmodul.obj
 0001:00009d7d       _wWinMain@16               0040ad7d f   mfcs140u:appmodul.obj
 0001:00009d86       ?AfxWinMain@@YGHPAUHINSTANCE__@@0PA_WH@Z 0040ad86 f   mfc140u:mfc140u.dll
 0001:00009d8c       ___vcrt_uninitialize       0040ad8c f   msvcrt:ucrt_stubs.obj
 0001:00009d8c       ___acrt_uninitialize       0040ad8c f   msvcrt:ucrt_stubs.obj
 0001:00009d8c       ___scrt_stub_for_acrt_uninitialize 0040ad8c f   msvcrt:ucrt_stubs.obj
 0001:00009d8c       ___vcrt_initialize         0040ad8c f   msvcrt:ucrt_stubs.obj
 0001:00009d8c       ___scrt_stub_for_acrt_initialize 0040ad8c f   msvcrt:ucrt_stubs.obj
 0001:00009d8c       __should_initialize_environment 0040ad8c f   msvcrt:env_mode.obj
 0001:00009d8c       ___acrt_initialize         0040ad8c f   msvcrt:ucrt_stubs.obj
 0002:00000000       __imp__InitCommonControls@0 0040c000     comctl32:COMCTL32.dll
 0002:00000004       \177COMCTL32_NULL_THUNK_DATA 0040c004     comctl32:COMCTL32.dll
 0002:00000008       __imp__lstrcpynW@12        0040c008     kernel32:KERNEL32.dll
 0002:0000000c       __imp__GetLastError@0      0040c00c     kernel32:KERNEL32.dll
 0002:00000010       __imp__EnterCriticalSection@4 0040c010     kernel32:KERNEL32.dll
 0002:00000014       __imp__LeaveCriticalSection@4 0040c014     kernel32:KERNEL32.dll
 0002:00000018       __imp__InitializeCriticalSectionAndSpinCount@8 0040c018     kernel32:KERNEL32.dll
 0002:0000001c       __imp__DeleteCriticalSection@4 0040c01c     kernel32:KERNEL32.dll
 0002:00000020       __imp__GetProcAddress@8    0040c020     kernel32:KERNEL32.dll
 0002:00000024       __imp__lstrcpynA@12        0040c024     kernel32:KERNEL32.dll
 0002:00000028       __imp__GetLocalTime@4      0040c028     kernel32:KERNEL32.dll
 0002:0000002c       __imp__GetModuleHandleW@4  0040c02c     kernel32:KERNEL32.dll
 0002:00000030       __imp__CloseHandle@4       0040c030     kernel32:KERNEL32.dll
 0002:00000034       __imp__CreateEventW@16     0040c034     kernel32:KERNEL32.dll
 0002:00000038       __imp__QueryPerformanceCounter@4 0040c038     kernel32:KERNEL32.dll
 0002:0000003c       __imp__GetCurrentProcessId@0 0040c03c     kernel32:KERNEL32.dll
 0002:00000040       __imp__GetCurrentThreadId@0 0040c040     kernel32:KERNEL32.dll
 0002:00000044       __imp__GetSystemTimeAsFileTime@4 0040c044     kernel32:KERNEL32.dll
 0002:00000048       __imp__InitializeSListHead@4 0040c048     kernel32:KERNEL32.dll
 0002:0000004c       __imp__IsDebuggerPresent@0 0040c04c     kernel32:KERNEL32.dll
 0002:00000050       __imp__UnhandledExceptionFilter@4 0040c050     kernel32:KERNEL32.dll
 0002:00000054       __imp__SetUnhandledExceptionFilter@4 0040c054     kernel32:KERNEL32.dll
 0002:00000058       __imp__GetStartupInfoW@4   0040c058     kernel32:KERNEL32.dll
 0002:0000005c       __imp__IsProcessorFeaturePresent@4 0040c05c     kernel32:KERNEL32.dll
 0002:00000060       __imp__GetCurrentProcess@0 0040c060     kernel32:KERNEL32.dll
 0002:00000064       __imp__TerminateProcess@8  0040c064     kernel32:KERNEL32.dll
 0002:00000068       __imp__OutputDebugStringW@4 0040c068     kernel32:KERNEL32.dll
 0002:0000006c       __imp__CreateThread@24     0040c06c     kernel32:KERNEL32.dll
 0002:00000070       \177KERNEL32_NULL_THUNK_DATA 0040c070     kernel32:KERNEL32.dll
 0002:00000074       __imp_??1CTraceServiceControl@@UAE@XZ 0040c074     KernelEngine:KernelEngine.dll
 0002:00000078       __imp_??0CTraceServiceControl@@QAE@XZ 0040c078     KernelEngine:KernelEngine.dll
 0002:0000007c       __imp_?TraceString@CTraceService@@SA_NPB_WW4enTraceLevel@@@Z 0040c07c     KernelEngine:KernelEngine.dll
 0002:00000080       \177KernelEngine_NULL_THUNK_DATA 0040c080     KernelEngine:KernelEngine.dll
 0002:00000084       __imp_?_Xlength_error@std@@YAXPBD@Z 0040c084     msvcprt:MSVCP140.dll
 0002:00000088       __imp_?_Xbad_alloc@std@@YAXXZ 0040c088     msvcprt:MSVCP140.dll
 0002:0000008c       \177MSVCP140_NULL_THUNK_DATA 0040c08c     msvcprt:MSVCP140.dll
 0002:00000090       __imp_?GetWorkDirectory@CWHService@@SA_NQA_WG@Z 0040c090     ServiceCore:ServiceCore.dll
 0002:00000094       __imp_??0CWHIniData@@QAE@XZ 0040c094     ServiceCore:ServiceCore.dll
 0002:00000098       __imp_??1CWHIniData@@UAE@XZ 0040c098     ServiceCore:ServiceCore.dll
 0002:0000009c       __imp_?SetIniFilePath@CWHIniData@@QAEXPB_W@Z 0040c09c     ServiceCore:ServiceCore.dll
 0002:000000a0       __imp_?ReadInt@CWHIniData@@QAEIPB_W0H@Z 0040c0a0     ServiceCore:ServiceCore.dll
 0002:000000a4       __imp_?ReadEncryptString@CWHIniData@@QAEPB_WPB_W00PA_WG@Z 0040c0a4     ServiceCore:ServiceCore.dll
 0002:000000a8       __imp_??0CWHDataQueue@@QAE@XZ 0040c0a8     ServiceCore:ServiceCore.dll
 0002:000000ac       __imp_??1CWHDataQueue@@UAE@XZ 0040c0ac     ServiceCore:ServiceCore.dll
 0002:000000b0       \177ServiceCore_NULL_THUNK_DATA 0040c0b0     ServiceCore:ServiceCore.dll
 0002:000000b4       __imp__SendMessageW@16     0040c0b4     user32:USER32.dll
 0002:000000b8       __imp__EnableWindow@8      0040c0b8     user32:USER32.dll
 0002:000000bc       __imp__wsprintfW           0040c0bc     user32:USER32.dll
 0002:000000c0       __imp__LoadIconW@8         0040c0c0     user32:USER32.dll
 0002:000000c4       \177USER32_NULL_THUNK_DATA 0040c0c4     user32:USER32.dll
 0002:000000c8       __imp__memcmp              0040c0c8     vcruntime:VCRUNTIME140.dll
 0002:000000cc       __imp__memcpy              0040c0cc     vcruntime:VCRUNTIME140.dll
 0002:000000d0       __imp__memmove             0040c0d0     vcruntime:VCRUNTIME140.dll
 0002:000000d4       __imp__memset              0040c0d4     vcruntime:VCRUNTIME140.dll
 0002:000000d8       __imp___CxxThrowException@8 0040c0d8     vcruntime:VCRUNTIME140.dll
 0002:000000dc       __imp____CxxFrameHandler3  0040c0dc     vcruntime:VCRUNTIME140.dll
 0002:000000e0       __imp____vcrt_InitializeCriticalSectionEx 0040c0e0     vcruntime:VCRUNTIME140.dll
 0002:000000e4       __imp___except_handler4_common 0040c0e4     vcruntime:VCRUNTIME140.dll
 0002:000000e8       __imp___purecall           0040c0e8     vcruntime:VCRUNTIME140.dll
 0002:000000ec       \177VCRUNTIME140_NULL_THUNK_DATA 0040c0ec     vcruntime:VCRUNTIME140.dll
 0002:000000f0       __imp___mkdir              0040c0f0     ucrt:api-ms-win-crt-filesystem-l1-1-0.dll
 0002:000000f4       __imp___wmkdir             0040c0f4     ucrt:api-ms-win-crt-filesystem-l1-1-0.dll
 0002:000000f8       \177api-ms-win-crt-filesystem-l1-1-0_NULL_THUNK_DATA 0040c0f8     ucrt:api-ms-win-crt-filesystem-l1-1-0.dll
 0002:000000fc       __imp__free                0040c0fc     ucrt:api-ms-win-crt-heap-l1-1-0.dll
 0002:00000100       __imp___set_new_mode       0040c100     ucrt:api-ms-win-crt-heap-l1-1-0.dll
 0002:00000104       \177api-ms-win-crt-heap-l1-1-0_NULL_THUNK_DATA 0040c104     ucrt:api-ms-win-crt-heap-l1-1-0.dll
 0002:00000108       __imp___wsetlocale         0040c108     ucrt:api-ms-win-crt-locale-l1-1-0.dll
 0002:0000010c       __imp___configthreadlocale 0040c10c     ucrt:api-ms-win-crt-locale-l1-1-0.dll
 0002:00000110       \177api-ms-win-crt-locale-l1-1-0_NULL_THUNK_DATA 0040c110     ucrt:api-ms-win-crt-locale-l1-1-0.dll
 0002:00000114       __imp____setusermatherr    0040c114     ucrt:api-ms-win-crt-math-l1-1-0.dll
 0002:00000118       \177api-ms-win-crt-math-l1-1-0_NULL_THUNK_DATA 0040c118     ucrt:api-ms-win-crt-math-l1-1-0.dll
 0002:0000011c       __imp___exit               0040c11c     ucrt:api-ms-win-crt-runtime-l1-1-0.dll
 0002:00000120       __imp___invalid_parameter_noinfo_noreturn 0040c120     ucrt:api-ms-win-crt-runtime-l1-1-0.dll
 0002:00000124       __imp___controlfp_s        0040c124     ucrt:api-ms-win-crt-runtime-l1-1-0.dll
 0002:00000128       __imp__terminate           0040c128     ucrt:api-ms-win-crt-runtime-l1-1-0.dll
 0002:0000012c       __imp___crt_atexit         0040c12c     ucrt:api-ms-win-crt-runtime-l1-1-0.dll
 0002:00000130       __imp___register_onexit_function 0040c130     ucrt:api-ms-win-crt-runtime-l1-1-0.dll
 0002:00000134       __imp___initialize_onexit_table 0040c134     ucrt:api-ms-win-crt-runtime-l1-1-0.dll
 0002:00000138       __imp___errno              0040c138     ucrt:api-ms-win-crt-runtime-l1-1-0.dll
 0002:0000013c       __imp___register_thread_local_exe_atexit_callback 0040c13c     ucrt:api-ms-win-crt-runtime-l1-1-0.dll
 0002:00000140       __imp___c_exit             0040c140     ucrt:api-ms-win-crt-runtime-l1-1-0.dll
 0002:00000144       __imp___cexit              0040c144     ucrt:api-ms-win-crt-runtime-l1-1-0.dll
 0002:00000148       __imp___seh_filter_exe     0040c148     ucrt:api-ms-win-crt-runtime-l1-1-0.dll
 0002:0000014c       __imp___invalid_parameter_noinfo 0040c14c     ucrt:api-ms-win-crt-runtime-l1-1-0.dll
 0002:00000150       __imp__exit                0040c150     ucrt:api-ms-win-crt-runtime-l1-1-0.dll
 0002:00000154       __imp___initterm_e         0040c154     ucrt:api-ms-win-crt-runtime-l1-1-0.dll
 0002:00000158       __imp___initterm           0040c158     ucrt:api-ms-win-crt-runtime-l1-1-0.dll
 0002:0000015c       __imp___get_wide_winmain_command_line 0040c15c     ucrt:api-ms-win-crt-runtime-l1-1-0.dll
 0002:00000160       __imp___initialize_wide_environment 0040c160     ucrt:api-ms-win-crt-runtime-l1-1-0.dll
 0002:00000164       __imp___configure_wide_argv 0040c164     ucrt:api-ms-win-crt-runtime-l1-1-0.dll
 0002:00000168       __imp___set_app_type       0040c168     ucrt:api-ms-win-crt-runtime-l1-1-0.dll
 0002:0000016c       \177api-ms-win-crt-runtime-l1-1-0_NULL_THUNK_DATA 0040c16c     ucrt:api-ms-win-crt-runtime-l1-1-0.dll
 0002:00000170       __imp___set_fmode          0040c170     ucrt:api-ms-win-crt-stdio-l1-1-0.dll
 0002:00000174       __imp____stdio_common_vsnwprintf_s 0040c174     ucrt:api-ms-win-crt-stdio-l1-1-0.dll
 0002:00000178       __imp____p__commode        0040c178     ucrt:api-ms-win-crt-stdio-l1-1-0.dll
 0002:0000017c       __imp__fclose              0040c17c     ucrt:api-ms-win-crt-stdio-l1-1-0.dll
 0002:00000180       __imp____stdio_common_vfwprintf_s 0040c180     ucrt:api-ms-win-crt-stdio-l1-1-0.dll
 0002:00000184       __imp___wfopen_s           0040c184     ucrt:api-ms-win-crt-stdio-l1-1-0.dll
 0002:00000188       \177api-ms-win-crt-stdio-l1-1-0_NULL_THUNK_DATA 0040c188     ucrt:api-ms-win-crt-stdio-l1-1-0.dll
 0002:0000018c       __imp___time64             0040c18c     ucrt:api-ms-win-crt-time-l1-1-0.dll
 0002:00000190       \177api-ms-win-crt-time-l1-1-0_NULL_THUNK_DATA 0040c190     ucrt:api-ms-win-crt-time-l1-1-0.dll
 0002:00000194       __imp__ldiv                0040c194     ucrt:api-ms-win-crt-utility-l1-1-0.dll
 0002:00000198       \177api-ms-win-crt-utility-l1-1-0_NULL_THUNK_DATA 0040c198     ucrt:api-ms-win-crt-utility-l1-1-0.dll
 0002:0000019c       __imp_?OnGesturePressAndTap@CWnd@@MAEHVCPoint@@J@Z 0040c19c     mfc140u:mfc140u.dll
 0002:000001a0       __imp_?ResizeDynamicLayout@CWnd@@MAEXXZ 0040c1a0     mfc140u:mfc140u.dll
 0002:000001a4       __imp_?IsFrameWnd@CWnd@@UBEHXZ 0040c1a4     mfc140u:mfc140u.dll
 0002:000001a8       __imp_?OnFinalRelease@CWnd@@UAEXXZ 0040c1a8     mfc140u:mfc140u.dll
 0002:000001ac       __imp_?CreateControlContainer@CWnd@@MAEHPAPAVCOleControlContainer@@@Z 0040c1ac     mfc140u:mfc140u.dll
 0002:000001b0       __imp_?CreateControlSite@CWnd@@MAEHPAVCOleControlContainer@@PAPAVCOleControlSite@@IABU_GUID@@@Z 0040c1b0     mfc140u:mfc140u.dll
 0002:000001b4       __imp_?GetRuntimeClass@CDialog@@UBEPAUCRuntimeClass@@XZ 0040c1b4     mfc140u:mfc140u.dll
 0002:000001b8       __imp_?Create@CDialog@@UAEHPB_WPAVCWnd@@@Z 0040c1b8     mfc140u:mfc140u.dll
 0002:000001bc       __imp_?CreateIndirect@CDialog@@UAEHPBUDLGTEMPLATE@@PAVCWnd@@PAX@Z 0040c1bc     mfc140u:mfc140u.dll
 0002:000001c0       __imp_?CreateIndirect@CDialog@@UAEHPAXPAVCWnd@@@Z 0040c1c0     mfc140u:mfc140u.dll
 0002:000001c4       __imp_??0CDialog@@QAE@IPAVCWnd@@@Z 0040c1c4     mfc140u:mfc140u.dll
 0002:000001c8       __imp_?OnInitDialog@CDialog@@UAEHXZ 0040c1c8     mfc140u:mfc140u.dll
 0002:000001cc       __imp_?OnSetFont@CDialog@@UAEXPAVCFont@@@Z 0040c1cc     mfc140u:mfc140u.dll
 0002:000001d0       __imp_?OnCancel@CDialog@@MAEXXZ 0040c1d0     mfc140u:mfc140u.dll
 0002:000001d4       __imp_??1CDialog@@UAE@XZ   0040c1d4     mfc140u:mfc140u.dll
 0002:000001d8       __imp_?PreTranslateMessage@CDialog@@UAEHPAUtagMSG@@@Z 0040c1d8     mfc140u:mfc140u.dll
 0002:000001dc       __imp_?OnCmdMsg@CDialog@@UAEHIHPAXPAUAFX_CMDHANDLERINFO@@@Z 0040c1dc     mfc140u:mfc140u.dll
 0002:000001e0       __imp_?CheckAutoCenter@CDialog@@UAEHXZ 0040c1e0     mfc140u:mfc140u.dll
 0002:000001e4       __imp_?SetOccDialogInfo@CDialog@@MAEHPAU_AFX_OCC_DIALOG_INFO@@@Z 0040c1e4     mfc140u:mfc140u.dll
 0002:000001e8       __imp_?GetOccDialogInfo@CDialog@@MAEPAU_AFX_OCC_DIALOG_INFO@@XZ 0040c1e8     mfc140u:mfc140u.dll
 0002:000001ec       __imp_?PreInitDialog@CDialog@@MAEXXZ 0040c1ec     mfc140u:mfc140u.dll
 0002:000001f0       __imp_?GetThisMessageMap@CDialog@@KGPBUAFX_MSGMAP@@XZ 0040c1f0     mfc140u:mfc140u.dll
 0002:000001f4       __imp_?AfxMessageBox@@YGHPB_WII@Z 0040c1f4     mfc140u:mfc140u.dll
 0002:000001f8       __imp_?get_accChildCount@CWnd@@UAEJPAJ@Z 0040c1f8     mfc140u:mfc140u.dll
 0002:000001fc       __imp_?AfxThrowArchiveException@@YGXHPB_W@Z 0040c1fc     mfc140u:mfc140u.dll
 0002:00000200       __imp_?GetRuntimeClass@CObject@@UBEPAUCRuntimeClass@@XZ 0040c200     mfc140u:mfc140u.dll
 0002:00000204       __imp_?Read@CArchive@@QAEIPAXI@Z 0040c204     mfc140u:mfc140u.dll
 0002:00000208       __imp_?Write@CArchive@@QAEXPBXI@Z 0040c208     mfc140u:mfc140u.dll
 0002:0000020c       __imp_?ReadCount@CArchive@@QAEKXZ 0040c20c     mfc140u:mfc140u.dll
 0002:00000210       __imp_?WriteCount@CArchive@@QAEXK@Z 0040c210     mfc140u:mfc140u.dll
 0002:00000214       __imp_??0CMapStringToPtr@@QAE@H@Z 0040c214     mfc140u:mfc140u.dll
 0002:00000218       __imp_?Lookup@CMapStringToPtr@@QBEHPB_WAAPAX@Z 0040c218     mfc140u:mfc140u.dll
 0002:0000021c       __imp_??ACMapStringToPtr@@QAEAAPAXPB_W@Z 0040c21c     mfc140u:mfc140u.dll
 0002:00000220       __imp_?RemoveKey@CMapStringToPtr@@QAEHPB_W@Z 0040c220     mfc140u:mfc140u.dll
 0002:00000224       __imp_?RemoveAll@CMapStringToPtr@@QAEXXZ 0040c224     mfc140u:mfc140u.dll
 0002:00000228       __imp_?InitHashTable@CMapStringToPtr@@QAEXIH@Z 0040c228     mfc140u:mfc140u.dll
 0002:0000022c       __imp_??1CMapStringToPtr@@UAE@XZ 0040c22c     mfc140u:mfc140u.dll
 0002:00000230       __imp_?Create@CPlex@@SGPAU1@AAPAU1@II@Z 0040c230     mfc140u:mfc140u.dll
 0002:00000234       __imp_?FreeDataChain@CPlex@@QAEXXZ 0040c234     mfc140u:mfc140u.dll
 0002:00000238       __imp_?AfxThrowMemoryException@@YGXXZ 0040c238     mfc140u:mfc140u.dll
 0002:0000023c       __imp_?AfxThrowOleException@@YGXJ@Z 0040c23c     mfc140u:mfc140u.dll
 0002:00000240       __imp_?AfxLoadLibrary@@YGPAUHINSTANCE__@@PB_W@Z 0040c240     mfc140u:mfc140u.dll
 0002:00000244       __imp_?AfxFreeLibrary@@YGHPAUHINSTANCE__@@@Z 0040c244     mfc140u:mfc140u.dll
 0002:00000248       __imp_??0CSyncObject@@QAE@PB_W@Z 0040c248     mfc140u:mfc140u.dll
 0002:0000024c       __imp_??1CSyncObject@@UAE@XZ 0040c24c     mfc140u:mfc140u.dll
 0002:00000250       __imp_?GetRuntimeClass@CCriticalSection@@UBEPAUCRuntimeClass@@XZ 0040c250     mfc140u:mfc140u.dll
 0002:00000254       __imp_?get_accParent@CWnd@@UAEJPAPAUIDispatch@@@Z 0040c254     mfc140u:mfc140u.dll
 0002:00000258       __imp_?EnsureStdObj@CWnd@@UAEJXZ 0040c258     mfc140u:mfc140u.dll
 0002:0000025c       __imp_?GetInterfaceMap@CWnd@@MBEPBUAFX_INTERFACEMAP@@XZ 0040c25c     mfc140u:mfc140u.dll
 0002:00000260       __imp_?OnDrawIconicThumbnailOrLivePreview@CWnd@@UAEXAAVCDC@@VCRect@@VCSize@@HAAH@Z 0040c260     mfc140u:mfc140u.dll
 0002:00000264       __imp_?EndModalLoop@CWnd@@UAEXH@Z 0040c264     mfc140u:mfc140u.dll
 0002:00000268       __imp_?ContinueModal@CWnd@@UAEHXZ 0040c268     mfc140u:mfc140u.dll
 0002:0000026c       __imp_?WinHelpInternal@CWnd@@UAEXKI@Z 0040c26c     mfc140u:mfc140u.dll
 0002:00000270       __imp_?HtmlHelpW@CWnd@@UAEXKI@Z 0040c270     mfc140u:mfc140u.dll
 0002:00000274       __imp_?WinHelpW@CWnd@@UAEXKI@Z 0040c274     mfc140u:mfc140u.dll
 0002:00000278       __imp_?GetScrollBarCtrl@CWnd@@UBEPAVCScrollBar@@H@Z 0040c278     mfc140u:mfc140u.dll
 0002:0000027c       __imp_?EnableWindow@CWnd@@QAEHH@Z 0040c27c     mfc140u:mfc140u.dll
 0002:00000280       __imp_?OnToolHitTest@CWnd@@UBEHVCPoint@@PAUtagTOOLINFOW@@@Z 0040c280     mfc140u:mfc140u.dll
 0002:00000284       __imp_?SetMenu@CWnd@@UAEHPAVCMenu@@@Z 0040c284     mfc140u:mfc140u.dll
 0002:00000288       __imp_?GetMenu@CWnd@@UBEPAVCMenu@@XZ 0040c288     mfc140u:mfc140u.dll
 0002:0000028c       __imp_?SetWindowTextW@CWnd@@QAEXPB_W@Z 0040c28c     mfc140u:mfc140u.dll
 0002:00000290       __imp_?GetDlgItem@CWnd@@QBEPAV1@H@Z 0040c290     mfc140u:mfc140u.dll
 0002:00000294       __imp_?CalcWindowRect@CWnd@@UAEXPAUtagRECT@@I@Z 0040c294     mfc140u:mfc140u.dll
 0002:00000298       __imp_?PreCreateWindow@CWnd@@UAEHAAUtagCREATESTRUCTW@@@Z 0040c298     mfc140u:mfc140u.dll
 0002:0000029c       __imp_?DestroyWindow@CWnd@@UAEHXZ 0040c29c     mfc140u:mfc140u.dll
 0002:000002a0       __imp_?CreateEx@CWnd@@UAEHKPB_W0KABUtagRECT@@PAV1@IPAX@Z 0040c2a0     mfc140u:mfc140u.dll
 0002:000002a4       __imp_?CreateEx@CWnd@@UAEHKPB_W0KHHHHPAUHWND__@@PAUHMENU__@@PAX@Z 0040c2a4     mfc140u:mfc140u.dll
 0002:000002a8       __imp_?OnGestureTwoFingerTap@CWnd@@MAEHVCPoint@@@Z 0040c2a8     mfc140u:mfc140u.dll
 0002:000002ac       __imp_?PreSubclassWindow@CWnd@@UAEXXZ 0040c2ac     mfc140u:mfc140u.dll
 0002:000002b0       __imp_?DDX_Control@@YGXPAVCDataExchange@@HAAVCWnd@@@Z 0040c2b0     mfc140u:mfc140u.dll
 0002:000002b4       __imp_?AfxGetModuleState@@YGPAVAFX_MODULE_STATE@@XZ 0040c2b4     mfc140u:mfc140u.dll
 0002:000002b8       __imp_?AfxEnableControlContainer@@YAXPAVCOccManager@@@Z 0040c2b8     mfc140u:mfc140u.dll
 0002:000002bc       __imp_?LoadSysPolicies@CWinApp@@UAEHXZ 0040c2bc     mfc140u:mfc140u.dll
 0002:000002c0       __imp_?GetThisMessageMap@CWinApp@@KGPBUAFX_MSGMAP@@XZ 0040c2c0     mfc140u:mfc140u.dll
 0002:000002c4       __imp_??1CWinApp@@UAE@XZ   0040c2c4     mfc140u:mfc140u.dll
 0002:000002c8       __imp_?LoadAppLangResourceDLL@CWinApp@@UAEPAUHINSTANCE__@@XZ 0040c2c8     mfc140u:mfc140u.dll
 0002:000002cc       __imp_?ProcessWndProcException@CWinApp@@UAEJPAVCException@@PBUtagMSG@@@Z 0040c2cc     mfc140u:mfc140u.dll
 0002:000002d0       __imp_?OnIdle@CWinApp@@UAEHJ@Z 0040c2d0     mfc140u:mfc140u.dll
 0002:000002d4       __imp_?Run@CWinApp@@UAEHXZ 0040c2d4     mfc140u:mfc140u.dll
 0002:000002d8       __imp_?RestartInstance@CWinApp@@UAEHXZ 0040c2d8     mfc140u:mfc140u.dll
 0002:000002dc       __imp_?ExitInstance@CWinApp@@UAEHXZ 0040c2dc     mfc140u:mfc140u.dll
 0002:000002e0       __imp_?InitInstance@CWinApp@@UAEHXZ 0040c2e0     mfc140u:mfc140u.dll
 0002:000002e4       __imp_?IsTaskbarInteractionEnabled@CWinApp@@UAEHXZ 0040c2e4     mfc140u:mfc140u.dll
 0002:000002e8       __imp_?GetDataRecoveryHandler@CWinApp@@UAEPAVCDataRecoveryHandler@@XZ 0040c2e8     mfc140u:mfc140u.dll
 0002:000002ec       __imp_?ApplicationRecoveryCallback@CWinApp@@UAEKPAX@Z 0040c2ec     mfc140u:mfc140u.dll
 0002:000002f0       __imp_?RegisterWithRestartManager@CWinApp@@UAEJPB_WKP6GKPAX@Z1KK@Z 0040c2f0     mfc140u:mfc140u.dll
 0002:000002f4       __imp_?RegisterWithRestartManager@CWinApp@@UAEJHABV?$CStringT@_WV?$StrTraitMFC_DLL@_WV?$ChTraitsCRT@_W@ATL@@@@@ATL@@@Z 0040c2f4     mfc140u:mfc140u.dll
 0002:000002f8       __imp_?WinHelpInternal@CWinApp@@UAEXKI@Z 0040c2f8     mfc140u:mfc140u.dll
 0002:000002fc       __imp_?HtmlHelpW@CWinApp@@UAEXKI@Z 0040c2fc     mfc140u:mfc140u.dll
 0002:00000300       __imp_?WinHelpW@CWinApp@@UAEXKI@Z 0040c300     mfc140u:mfc140u.dll
 0002:00000304       __imp_?OnDDECommand@CWinApp@@UAEHPA_W@Z 0040c304     mfc140u:mfc140u.dll
 0002:00000308       __imp_?DoWaitCursor@CWinApp@@UAEXH@Z 0040c308     mfc140u:mfc140u.dll
 0002:0000030c       __imp_?DoMessageBox@CWinApp@@UAEHPB_WII@Z 0040c30c     mfc140u:mfc140u.dll
 0002:00000310       __imp_?SaveAllModified@CWinApp@@UAEHXZ 0040c310     mfc140u:mfc140u.dll
 0002:00000314       __imp_?InitApplication@CWinApp@@UAEHXZ 0040c314     mfc140u:mfc140u.dll
 0002:00000318       __imp_?AddToRecentFileList@CWinApp@@UAEXPB_W@Z 0040c318     mfc140u:mfc140u.dll
 0002:0000031c       __imp_?OpenDocumentFile@CWinApp@@UAEPAVCDocument@@PB_WH@Z 0040c31c     mfc140u:mfc140u.dll
 0002:00000320       __imp_?OpenDocumentFile@CWinApp@@UAEPAVCDocument@@PB_W@Z 0040c320     mfc140u:mfc140u.dll
 0002:00000324       __imp_?Unregister@CWinApp@@UAEHXZ 0040c324     mfc140u:mfc140u.dll
 0002:00000328       __imp_?Register@CWinApp@@UAEHXZ 0040c328     mfc140u:mfc140u.dll
 0002:0000032c       __imp_?InitLibId@CWinApp@@UAEXXZ 0040c32c     mfc140u:mfc140u.dll
 0002:00000330       __imp_?WriteProfileBinary@CWinApp@@UAEHPB_W0PAEI@Z 0040c330     mfc140u:mfc140u.dll
 0002:00000334       __imp_?GetProfileBinary@CWinApp@@UAEHPB_W0PAPAEPAI@Z 0040c334     mfc140u:mfc140u.dll
 0002:00000338       __imp_?WriteProfileStringW@CWinApp@@UAEHPB_W00@Z 0040c338     mfc140u:mfc140u.dll
 0002:0000033c       __imp_?GetProfileStringW@CWinApp@@UAE?AV?$CStringT@_WV?$StrTraitMFC_DLL@_WV?$ChTraitsCRT@_W@ATL@@@@@ATL@@PB_W00@Z 0040c33c     mfc140u:mfc140u.dll
 0002:00000340       __imp_?WriteProfileInt@CWinApp@@UAEHPB_W0H@Z 0040c340     mfc140u:mfc140u.dll
 0002:00000344       __imp_?GetProfileIntW@CWinApp@@UAEIPB_W0H@Z 0040c344     mfc140u:mfc140u.dll
 0002:00000348       __imp_?SetRegistryKey@CWinApp@@IAEXPB_W@Z 0040c348     mfc140u:mfc140u.dll
 0002:0000034c       __imp_??0CWinApp@@QAE@PB_W@Z 0040c34c     mfc140u:mfc140u.dll
 0002:00000350       __imp_?GetRuntimeClass@CWinApp@@UBEPAUCRuntimeClass@@XZ 0040c350     mfc140u:mfc140u.dll
 0002:00000354       __imp_?Delete@CWinThread@@UAEXXZ 0040c354     mfc140u:mfc140u.dll
 0002:00000358       __imp_?GetMainWnd@CWinThread@@UAEPAVCWnd@@XZ 0040c358     mfc140u:mfc140u.dll
 0002:0000035c       __imp_?ProcessMessageFilter@CWinThread@@UAEHHPAUtagMSG@@@Z 0040c35c     mfc140u:mfc140u.dll
 0002:00000360       __imp_?IsIdleMessage@CWinThread@@UAEHPAUtagMSG@@@Z 0040c360     mfc140u:mfc140u.dll
 0002:00000364       __imp_?PumpMessage@CWinThread@@UAEHXZ 0040c364     mfc140u:mfc140u.dll
 0002:00000368       __imp_?PreTranslateMessage@CWinThread@@UAEHPAUtagMSG@@@Z 0040c368     mfc140u:mfc140u.dll
 0002:0000036c       __imp_?DoModal@CDialog@@UAEHXZ 0040c36c     mfc140u:mfc140u.dll
 0002:00000370       __imp_?AfxInitRichEdit2@@YGHXZ 0040c370     mfc140u:mfc140u.dll
 0002:00000374       __imp_?GetConnectionHook@CCmdTarget@@MAEPAUIConnectionPoint@@ABU_GUID@@@Z 0040c374     mfc140u:mfc140u.dll
 0002:00000378       __imp_?GetExtraConnectionPoints@CCmdTarget@@MAEHPAVCPtrArray@@@Z 0040c378     mfc140u:mfc140u.dll
 0002:0000037c       __imp_?GetInterfaceHook@CCmdTarget@@UAEPAUIUnknown@@PBX@Z 0040c37c     mfc140u:mfc140u.dll
 0002:00000380       __imp_?OnCreateAggregates@CCmdTarget@@UAEHXZ 0040c380     mfc140u:mfc140u.dll
 0002:00000384       __imp_?GetEventSinkMap@CCmdTarget@@MBEPBUAFX_EVENTSINKMAP@@XZ 0040c384     mfc140u:mfc140u.dll
 0002:00000388       __imp_?GetInterfaceMap@CCmdTarget@@MBEPBUAFX_INTERFACEMAP@@XZ 0040c388     mfc140u:mfc140u.dll
 0002:0000038c       __imp_?GetConnectionMap@CCmdTarget@@MBEPBUAFX_CONNECTIONMAP@@XZ 0040c38c     mfc140u:mfc140u.dll
 0002:00000390       __imp_?GetDispatchMap@CCmdTarget@@MBEPBUAFX_DISPMAP@@XZ 0040c390     mfc140u:mfc140u.dll
 0002:00000394       __imp_?OnGestureRotate@CWnd@@MAEHVCPoint@@N@Z 0040c394     mfc140u:mfc140u.dll
 0002:00000398       __imp_?OnGesturePan@CWnd@@MAEHVCPoint@@0@Z 0040c398     mfc140u:mfc140u.dll
 0002:0000039c       __imp_?OnGestureZoom@CWnd@@MAEHVCPoint@@J@Z 0040c39c     mfc140u:mfc140u.dll
 0002:000003a0       __imp_?GetCommandMap@CCmdTarget@@MBEPBUAFX_OLECMDMAP@@XZ 0040c3a0     mfc140u:mfc140u.dll
 0002:000003a4       __imp_?GetGestureStatus@CWnd@@MAEKVCPoint@@@Z 0040c3a4     mfc140u:mfc140u.dll
 0002:000003a8       __imp_?OnTouchInput@CWnd@@MAEHVCPoint@@HHPAUtagTOUCHINPUT@@@Z 0040c3a8     mfc140u:mfc140u.dll
 0002:000003ac       __imp_?GetTypeLib@CCmdTarget@@UAEJKPAPAUITypeLib@@@Z 0040c3ac     mfc140u:mfc140u.dll
 0002:000003b0       __imp_?OnTouchInputs@CWnd@@MAEHIPAUtagTOUCHINPUT@@@Z 0040c3b0     mfc140u:mfc140u.dll
 0002:000003b4       __imp_?OnChildNotify@CWnd@@MAEHIIJPAJ@Z 0040c3b4     mfc140u:mfc140u.dll
 0002:000003b8       __imp_?GetTypeLibCache@CCmdTarget@@UAEPAVCTypeLibCache@@XZ 0040c3b8     mfc140u:mfc140u.dll
 0002:000003bc       __imp_?PostNcDestroy@CWnd@@MAEXXZ 0040c3bc     mfc140u:mfc140u.dll
 0002:000003c0       __imp_?DefWindowProcW@CWnd@@MAEJIIJ@Z 0040c3c0     mfc140u:mfc140u.dll
 0002:000003c4       __imp_?GetTypeInfoCount@CCmdTarget@@UAEIXZ 0040c3c4     mfc140u:mfc140u.dll
 0002:000003c8       __imp_?OnWndMsg@CWnd@@MAEHIIJPAJ@Z 0040c3c8     mfc140u:mfc140u.dll
 0002:000003cc       __imp_?WindowProc@CWnd@@MAEJIIJ@Z 0040c3cc     mfc140u:mfc140u.dll
 0002:000003d0       __imp_?GetDispatchIID@CCmdTarget@@UAEHPAU_GUID@@@Z 0040c3d0     mfc140u:mfc140u.dll
 0002:000003d4       __imp_?OnAmbientProperty@CWnd@@UAEHPAVCOleControlSite@@JPAUtagVARIANT@@@Z 0040c3d4     mfc140u:mfc140u.dll
 0002:000003d8       __imp_?GetSuperWndProcAddr@CWnd@@MAEPAP6GJPAUHWND__@@IIJ@ZXZ 0040c3d8     mfc140u:mfc140u.dll
 0002:000003dc       __imp_?OnNotify@CWnd@@MAEHIJPAJ@Z 0040c3dc     mfc140u:mfc140u.dll
 0002:000003e0       __imp_?OnCommand@CWnd@@MAEHIJ@Z 0040c3e0     mfc140u:mfc140u.dll
 0002:000003e4       __imp_?CreateAccessibleProxy@CWnd@@UAEJIJPAJ@Z 0040c3e4     mfc140u:mfc140u.dll
 0002:000003e8       __imp_?SetProxy@CWnd@@UAEJPAUIAccessibleProxy@@@Z 0040c3e8     mfc140u:mfc140u.dll
 0002:000003ec       __imp_?put_accValue@CWnd@@UAEJUtagVARIANT@@PA_W@Z 0040c3ec     mfc140u:mfc140u.dll
 0002:000003f0       __imp_?put_accName@CWnd@@UAEJUtagVARIANT@@PA_W@Z 0040c3f0     mfc140u:mfc140u.dll
 0002:000003f4       __imp_?accDoDefaultAction@CWnd@@UAEJUtagVARIANT@@@Z 0040c3f4     mfc140u:mfc140u.dll
 0002:000003f8       __imp_?accHitTest@CWnd@@UAEJJJPAUtagVARIANT@@@Z 0040c3f8     mfc140u:mfc140u.dll
 0002:000003fc       __imp_?accNavigate@CWnd@@UAEJJUtagVARIANT@@PAU2@@Z 0040c3fc     mfc140u:mfc140u.dll
 0002:00000400       __imp_?IsInvokeAllowed@CCmdTarget@@UAEHJ@Z 0040c400     mfc140u:mfc140u.dll
 0002:00000404       __imp_?OnFinalRelease@CCmdTarget@@UAEXXZ 0040c404     mfc140u:mfc140u.dll
 0002:00000408       __imp_?accLocation@CWnd@@UAEJPAJ000UtagVARIANT@@@Z 0040c408     mfc140u:mfc140u.dll
 0002:0000040c       __imp_?accSelect@CWnd@@UAEJJUtagVARIANT@@@Z 0040c40c     mfc140u:mfc140u.dll
 0002:00000410       __imp_?get_accDefaultAction@CWnd@@UAEJUtagVARIANT@@PAPA_W@Z 0040c410     mfc140u:mfc140u.dll
 0002:00000414       __imp_?get_accSelection@CWnd@@UAEJPAUtagVARIANT@@@Z 0040c414     mfc140u:mfc140u.dll
 0002:00000418       __imp_?get_accFocus@CWnd@@UAEJPAUtagVARIANT@@@Z 0040c418     mfc140u:mfc140u.dll
 0002:0000041c       __imp_?get_accKeyboardShortcut@CWnd@@UAEJUtagVARIANT@@PAPA_W@Z 0040c41c     mfc140u:mfc140u.dll
 0002:00000420       __imp_?get_accHelpTopic@CWnd@@UAEJPAPA_WUtagVARIANT@@PAJ@Z 0040c420     mfc140u:mfc140u.dll
 0002:00000424       __imp_?get_accHelp@CWnd@@UAEJUtagVARIANT@@PAPA_W@Z 0040c424     mfc140u:mfc140u.dll
 0002:00000428       __imp_?get_accState@CWnd@@UAEJUtagVARIANT@@PAU2@@Z 0040c428     mfc140u:mfc140u.dll
 0002:0000042c       __imp_?get_accRole@CWnd@@UAEJUtagVARIANT@@PAU2@@Z 0040c42c     mfc140u:mfc140u.dll
 0002:00000430       __imp_?get_accDescription@CWnd@@UAEJUtagVARIANT@@PAPA_W@Z 0040c430     mfc140u:mfc140u.dll
 0002:00000434       __imp_?OnCmdMsg@CCmdTarget@@UAEHIHPAXPAUAFX_CMDHANDLERINFO@@@Z 0040c434     mfc140u:mfc140u.dll
 0002:00000438       __imp_?get_accValue@CWnd@@UAEJUtagVARIANT@@PAPA_W@Z 0040c438     mfc140u:mfc140u.dll
 0002:0000043c       __imp_??_V@YAXPAX@Z        0040c43c     mfc140u:mfc140u.dll
 0002:00000440       __imp_?get_accName@CWnd@@UAEJUtagVARIANT@@PAPA_W@Z 0040c440     mfc140u:mfc140u.dll
 0002:00000444       __imp_??_U@YAPAXI@Z        0040c444     mfc140u:mfc140u.dll
 0002:00000448       __imp_?Create@CWnd@@UAEHPB_W0KABUtagRECT@@PAV1@IPAUCCreateContext@@@Z 0040c448     mfc140u:mfc140u.dll
 0002:0000044c       __imp_?get_accChild@CWnd@@UAEJUtagVARIANT@@PAPAUIDispatch@@@Z 0040c44c     mfc140u:mfc140u.dll
 0002:00000450       __imp_??2@YAPAXI@Z         0040c450     mfc140u:mfc140u.dll
 0002:00000454       __imp_?AfxThrowInvalidArgException@@YGXXZ 0040c454     mfc140u:mfc140u.dll
 0002:00000458       __imp_??3@YAXPAX@Z         0040c458     mfc140u:mfc140u.dll
 0002:0000045c       __imp_?AfxWinMain@@YGHPAUHINSTANCE__@@0PA_WH@Z 0040c45c     mfc140u:mfc140u.dll
 0002:00000460       \177mfc140u_NULL_THUNK_DATA 0040c460     mfc140u:mfc140u.dll
 0002:00000464       ___guard_check_icall_fptr  0040c464     msvcrt:guard_support.obj
 0002:00000468       ___xc_a                    0040c468     msvcrt:initializers.obj
 0002:00000494       ___xc_z                    0040c494     msvcrt:initializers.obj
 0002:00000498       ___xi_a                    0040c498     msvcrt:initializers.obj
 0002:000004a8       ___xi_z                    0040c4a8     msvcrt:initializers.obj
 0002:000004ac       ___xl_a                    0040c4ac     msvcrt:tlssup.obj
 0002:000004b0       ___xl_z                    0040c4b0     msvcrt:tlssup.obj
 0002:000004b4       ___xp_a                    0040c4b4     msvcrt:initializers.obj
 0002:000004b8       ___xp_z                    0040c4b8     msvcrt:initializers.obj
 0002:000004bc       ___xt_a                    0040c4bc     msvcrt:initializers.obj
 0002:000004c0       ___xt_z                    0040c4c0     msvcrt:initializers.obj
 0002:00000db4       ??_7IUnknownEx@@6B@        0040cdb4     AttemperEngineSink.obj
 0002:00000dc0       ??_7IAttemperEngineSink@@6B@ 0040cdc0     AttemperEngineSink.obj
 0002:00000dfc       ??_7?$CWHArray@GABG@@6B@   0040cdfc     AttemperEngineSink.obj
 0002:00000e04       ??_7CAttemperEngineSink@@6B@ 0040ce04     AttemperEngineSink.obj
 0002:00000e40       ??_C@_0BD@OLBABOEK@vector?$DMT?$DO?5too?5long?$AA@ 0040ce40     AttemperEngineSink.obj
 0002:00000e6c       ??_7CLogServerApp@@6B@     0040ce6c     LogServer.obj
 0002:000010c0       ??_7IServiceUnitsSink@@6B@ 0040d0c0     LogServerServerDlg.obj
 0002:000010c8       ??_7CLogServerDlg@@6BCDialog@@@ 0040d0c8     LogServerServerDlg.obj
 0002:00001260       ??_7CLogServerDlg@@6BIServiceUnitsSink@@@ 0040d260     LogServerServerDlg.obj
 0002:000013f8       ??_7?$CWHArray@PAVCGlobalServerItem@@ABQAV1@@@6B@ 0040d3f8     GlobalInfoManager.obj
 0002:00001400       ??_7CGlobalUserItem@@6B@   0040d400     GlobalInfoManager.obj
 0002:00001408       ??_7?$CMap@KKPAVCGlobalUserItem@@PAV1@@@6B@ 0040d408     GlobalInfoManager.obj
 0002:00001420       ??_7CGlobalPlazaItem@@6B@  0040d420     GlobalInfoManager.obj
 0002:00001428       ??_7CGlobalServerItem@@6B@ 0040d428     GlobalInfoManager.obj
 0002:00001430       ??_7CGlobalChatItem@@6B@   0040d430     GlobalInfoManager.obj
 0002:00001438       ??_7?$CMap@GGPAVCGlobalPlazaItem@@PAV1@@@6B@ 0040d438     GlobalInfoManager.obj
 0002:00001450       ??_7?$CMap@GGPAVCGlobalServerItem@@PAV1@@@6B@ 0040d450     GlobalInfoManager.obj
 0002:00001468       ??_7?$CMap@GGPAVCGlobalChatItem@@PAV1@@@6B@ 0040d468     GlobalInfoManager.obj
 0002:00001480       ??_7CGlobalInfoManager@@6B@ 0040d480     GlobalInfoManager.obj
 0002:00001548       ??_7CInitParameter@@6B@    0040d548     InitParameter.obj
 0002:000017f4       ??_7CCriticalSection@@6B@  0040d7f4     ServiceUnits.obj
 0002:00001814       ??_C@_1CC@JLPEDCPB@?$AAK?$AAe?$AAr?$AAn?$AAe?$AAl?$AAE?$AAn?$AAg?$AAi?$AAn?$AAe?$AA?4?$AAd?$AAl?$AAl?$AA?$AA@ 0040d814     ServiceUnits.obj
 0002:0000183c       ??_7?$CTempldateHelper@UITimerEngine@@@@6B@ 0040d83c     ServiceUnits.obj
 0002:00001844       ??_7CTimerEngineHelper@@6B@ 0040d844     ServiceUnits.obj
 0002:00001848       ??_C@_0BC@PLOLBCGN@CreateTimerEngine?$AA@ 0040d848     ServiceUnits.obj
 0002:00001860       ??_7?$CTempldateHelper@UIAttemperEngine@@@@6B@ 0040d860     ServiceUnits.obj
 0002:00001868       ??_7CAttemperEngineHelper@@6B@ 0040d868     ServiceUnits.obj
 0002:0000186c       ??_C@_0BF@PBPGMLEA@CreateAttemperEngine?$AA@ 0040d86c     ServiceUnits.obj
 0002:00001888       ??_7?$CTempldateHelper@UITCPNetworkEngine@@@@6B@ 0040d888     ServiceUnits.obj
 0002:00001890       ??_7CTCPNetworkEngineHelper@@6B@ 0040d890     ServiceUnits.obj
 0002:00001894       ??_C@_0BH@LEGJPFFH@CreateTCPNetworkEngine?$AA@ 0040d894     ServiceUnits.obj
 0002:000018b0       ??_7CServiceUnits@@6B@     0040d8b0     ServiceUnits.obj
 0002:00003260       ??_7type_info@@6B@         0040f260     msvcrt:std_type_info_static.obj
 0002:00003264       ??_C@_1BK@MGMFAEKH@?$AAk?$AAe?$AAr?$AAn?$AAe?$AAl?$AA3?$AA2?$AA?4?$AAd?$AAl?$AAl?$AA?$AA@ 0040f264     msvcrt:thread_safe_statics.obj
 0002:00003280       ??_C@_0BM@HLJJNPAH@InitializeConditionVariable?$AA@ 0040f280     msvcrt:thread_safe_statics.obj
 0002:0000329c       ??_C@_0BJ@JEBJOJFJ@SleepConditionVariableCS?$AA@ 0040f29c     msvcrt:thread_safe_statics.obj
 0002:000032b8       ??_C@_0BJ@PGPPEPCC@WakeAllConditionVariable?$AA@ 0040f2b8     msvcrt:thread_safe_statics.obj
 0002:000032dc       _GUID_ATLVer110            0040f2dc     atls:atlbase.obj
 0002:000032f0       ??_C@_1IC@ONKHOIDK@?$AAE?$AAR?$AAR?$AAO?$AAR?$AA?5?$AA?3?$AA?5?$AAU?$AAn?$AAa?$AAb?$AAl?$AAe?$AA?5?$AAt?$AAo?$AA?5?$AAi?$AAn?$AAi?$AAt?$AAi?$AAa?$AAl?$AAi?$AAz?$AAe?$AA?5?$AAc?$AAr?$AAi@ 0040f2f0     atls:atlbase.obj
 0002:000033d8       __load_config_used         0040f3d8     msvcrt:loadcfg.obj
 0002:00003434       __tls_used                 0040f434     msvcrt:tlssup.obj
 0002:0000344c       ??_R4IUnknownEx@@6B@       0040f44c     AttemperEngineSink.obj
 0002:00003460       ??_R3IUnknownEx@@8         0040f460     AttemperEngineSink.obj
 0002:00003470       ??_R2IUnknownEx@@8         0040f470     AttemperEngineSink.obj
 0002:00003478       ??_R1A@?0A@EA@IUnknownEx@@8 0040f478     AttemperEngineSink.obj
 0002:00003494       ??_R4IAttemperEngineSink@@6B@ 0040f494     AttemperEngineSink.obj
 0002:000034a8       ??_R3IAttemperEngineSink@@8 0040f4a8     AttemperEngineSink.obj
 0002:000034b8       ??_R2IAttemperEngineSink@@8 0040f4b8     AttemperEngineSink.obj
 0002:000034c4       ??_R1A@?0A@EA@IAttemperEngineSink@@8 0040f4c4     AttemperEngineSink.obj
 0002:000034e0       ??_R4?$CWHArray@GABG@@6B@  0040f4e0     AttemperEngineSink.obj
 0002:000034f4       ??_R3?$CWHArray@GABG@@8    0040f4f4     AttemperEngineSink.obj
 0002:00003504       ??_R2?$CWHArray@GABG@@8    0040f504     AttemperEngineSink.obj
 0002:0000350c       ??_R1A@?0A@EA@?$CWHArray@GABG@@8 0040f50c     AttemperEngineSink.obj
 0002:00003528       ??_R4CAttemperEngineSink@@6B@ 0040f528     AttemperEngineSink.obj
 0002:0000353c       ??_R3CAttemperEngineSink@@8 0040f53c     AttemperEngineSink.obj
 0002:0000354c       ??_R2CAttemperEngineSink@@8 0040f54c     AttemperEngineSink.obj
 0002:0000355c       ??_R1A@?0A@EA@CAttemperEngineSink@@8 0040f55c     AttemperEngineSink.obj
 0002:00003578       ??_R3CObject@@8            0040f578     LogServer.obj
 0002:00003588       ??_R2CObject@@8            0040f588     LogServer.obj
 0002:00003590       ??_R1A@?0A@EA@CObject@@8   0040f590     LogServer.obj
 0002:000035ac       ??_R1A@?0A@EA@CCmdTarget@@8 0040f5ac     LogServer.obj
 0002:000035c8       ??_R3CCmdTarget@@8         0040f5c8     LogServer.obj
 0002:000035d8       ??_R2CCmdTarget@@8         0040f5d8     LogServer.obj
 0002:000035e4       ??_R4CLogServerApp@@6B@    0040f5e4     LogServer.obj
 0002:000035f8       ??_R3CLogServerApp@@8      0040f5f8     LogServer.obj
 0002:00003608       ??_R2CLogServerApp@@8      0040f608     LogServer.obj
 0002:00003620       ??_R1A@?0A@EA@CLogServerApp@@8 0040f620     LogServer.obj
 0002:0000363c       ??_R1A@?0A@EA@CWinApp@@8   0040f63c     LogServer.obj
 0002:00003658       ??_R3CWinApp@@8            0040f658     LogServer.obj
 0002:00003668       ??_R2CWinApp@@8            0040f668     LogServer.obj
 0002:0000367c       ??_R1A@?0A@EA@CWinThread@@8 0040f67c     LogServer.obj
 0002:00003698       ??_R3CWinThread@@8         0040f698     LogServer.obj
 0002:000036a8       ??_R2CWinThread@@8         0040f6a8     LogServer.obj
 0002:000036b8       ??_R1A@?0A@EA@CWnd@@8      0040f6b8     LogServerServerDlg.obj
 0002:000036d4       ??_R3CWnd@@8               0040f6d4     LogServerServerDlg.obj
 0002:000036e4       ??_R2CWnd@@8               0040f6e4     LogServerServerDlg.obj
 0002:000036f4       ??_R1A@?0A@EA@CDialog@@8   0040f6f4     LogServerServerDlg.obj
 0002:00003710       ??_R3CDialog@@8            0040f710     LogServerServerDlg.obj
 0002:00003720       ??_R2CDialog@@8            0040f720     LogServerServerDlg.obj
 0002:00003734       ??_R4IServiceUnitsSink@@6B@ 0040f734     LogServerServerDlg.obj
 0002:00003748       ??_R3IServiceUnitsSink@@8  0040f748     LogServerServerDlg.obj
 0002:00003758       ??_R2IServiceUnitsSink@@8  0040f758     LogServerServerDlg.obj
 0002:00003760       ??_R1A@?0A@EA@IServiceUnitsSink@@8 0040f760     LogServerServerDlg.obj
 0002:0000377c       ??_R4CLogServerDlg@@6BCDialog@@@ 0040f77c     LogServerServerDlg.obj
 0002:00003790       ??_R3CLogServerDlg@@8      0040f790     LogServerServerDlg.obj
 0002:000037a0       ??_R2CLogServerDlg@@8      0040f7a0     LogServerServerDlg.obj
 0002:000037bc       ??_R1A@?0A@EA@CLogServerDlg@@8 0040f7bc     LogServerServerDlg.obj
 0002:000037d8       ??_R1KI@?0A@EA@IServiceUnitsSink@@8 0040f7d8     LogServerServerDlg.obj
 0002:000037f4       ??_R4CLogServerDlg@@6BIServiceUnitsSink@@@ 0040f7f4     LogServerServerDlg.obj
 0002:00003808       ??_R4CGlobalUserItem@@6B@  0040f808     GlobalInfoManager.obj
 0002:0000381c       ??_R3CGlobalUserItem@@8    0040f81c     GlobalInfoManager.obj
 0002:0000382c       ??_R2CGlobalUserItem@@8    0040f82c     GlobalInfoManager.obj
 0002:00003834       ??_R1A@?0A@EA@CGlobalUserItem@@8 0040f834     GlobalInfoManager.obj
 0002:00003850       ??_R4CGlobalPlazaItem@@6B@ 0040f850     GlobalInfoManager.obj
 0002:00003864       ??_R3CGlobalPlazaItem@@8   0040f864     GlobalInfoManager.obj
 0002:00003874       ??_R2CGlobalPlazaItem@@8   0040f874     GlobalInfoManager.obj
 0002:0000387c       ??_R1A@?0A@EA@CGlobalPlazaItem@@8 0040f87c     GlobalInfoManager.obj
 0002:00003898       ??_R4CGlobalServerItem@@6B@ 0040f898     GlobalInfoManager.obj
 0002:000038ac       ??_R3CGlobalServerItem@@8  0040f8ac     GlobalInfoManager.obj
 0002:000038bc       ??_R2CGlobalServerItem@@8  0040f8bc     GlobalInfoManager.obj
 0002:000038c4       ??_R1A@?0A@EA@CGlobalServerItem@@8 0040f8c4     GlobalInfoManager.obj
 0002:000038e0       ??_R4CGlobalChatItem@@6B@  0040f8e0     GlobalInfoManager.obj
 0002:000038f4       ??_R3CGlobalChatItem@@8    0040f8f4     GlobalInfoManager.obj
 0002:00003904       ??_R2CGlobalChatItem@@8    0040f904     GlobalInfoManager.obj
 0002:0000390c       ??_R1A@?0A@EA@CGlobalChatItem@@8 0040f90c     GlobalInfoManager.obj
 0002:00003928       ??_R4?$CWHArray@PAVCGlobalServerItem@@ABQAV1@@@6B@ 0040f928     GlobalInfoManager.obj
 0002:0000393c       ??_R3?$CWHArray@PAVCGlobalServerItem@@ABQAV1@@@8 0040f93c     GlobalInfoManager.obj
 0002:0000394c       ??_R2?$CWHArray@PAVCGlobalServerItem@@ABQAV1@@@8 0040f94c     GlobalInfoManager.obj
 0002:00003954       ??_R1A@?0A@EA@?$CWHArray@PAVCGlobalServerItem@@ABQAV1@@@8 0040f954     GlobalInfoManager.obj
 0002:00003970       ??_R4?$CMap@KKPAVCGlobalUserItem@@PAV1@@@6B@ 0040f970     GlobalInfoManager.obj
 0002:00003984       ??_R3?$CMap@KKPAVCGlobalUserItem@@PAV1@@@8 0040f984     GlobalInfoManager.obj
 0002:00003994       ??_R2?$CMap@KKPAVCGlobalUserItem@@PAV1@@@8 0040f994     GlobalInfoManager.obj
 0002:000039a0       ??_R1A@?0A@EA@?$CMap@KKPAVCGlobalUserItem@@PAV1@@@8 0040f9a0     GlobalInfoManager.obj
 0002:000039bc       ??_R4?$CMap@GGPAVCGlobalPlazaItem@@PAV1@@@6B@ 0040f9bc     GlobalInfoManager.obj
 0002:000039d0       ??_R3?$CMap@GGPAVCGlobalPlazaItem@@PAV1@@@8 0040f9d0     GlobalInfoManager.obj
 0002:000039e0       ??_R2?$CMap@GGPAVCGlobalPlazaItem@@PAV1@@@8 0040f9e0     GlobalInfoManager.obj
 0002:000039ec       ??_R1A@?0A@EA@?$CMap@GGPAVCGlobalPlazaItem@@PAV1@@@8 0040f9ec     GlobalInfoManager.obj
 0002:00003a08       ??_R4?$CMap@GGPAVCGlobalServerItem@@PAV1@@@6B@ 0040fa08     GlobalInfoManager.obj
 0002:00003a1c       ??_R3?$CMap@GGPAVCGlobalServerItem@@PAV1@@@8 0040fa1c     GlobalInfoManager.obj
 0002:00003a2c       ??_R2?$CMap@GGPAVCGlobalServerItem@@PAV1@@@8 0040fa2c     GlobalInfoManager.obj
 0002:00003a38       ??_R1A@?0A@EA@?$CMap@GGPAVCGlobalServerItem@@PAV1@@@8 0040fa38     GlobalInfoManager.obj
 0002:00003a54       ??_R4?$CMap@GGPAVCGlobalChatItem@@PAV1@@@6B@ 0040fa54     GlobalInfoManager.obj
 0002:00003a68       ??_R3?$CMap@GGPAVCGlobalChatItem@@PAV1@@@8 0040fa68     GlobalInfoManager.obj
 0002:00003a78       ??_R2?$CMap@GGPAVCGlobalChatItem@@PAV1@@@8 0040fa78     GlobalInfoManager.obj
 0002:00003a84       ??_R1A@?0A@EA@?$CMap@GGPAVCGlobalChatItem@@PAV1@@@8 0040fa84     GlobalInfoManager.obj
 0002:00003aa0       ??_R4CGlobalInfoManager@@6B@ 0040faa0     GlobalInfoManager.obj
 0002:00003ab4       ??_R3CGlobalInfoManager@@8 0040fab4     GlobalInfoManager.obj
 0002:00003ac4       ??_R2CGlobalInfoManager@@8 0040fac4     GlobalInfoManager.obj
 0002:00003acc       ??_R1A@?0A@EA@CGlobalInfoManager@@8 0040facc     GlobalInfoManager.obj
 0002:00003ae8       ??_R4CInitParameter@@6B@   0040fae8     InitParameter.obj
 0002:00003afc       ??_R3CInitParameter@@8     0040fafc     InitParameter.obj
 0002:00003b0c       ??_R2CInitParameter@@8     0040fb0c     InitParameter.obj
 0002:00003b14       ??_R1A@?0A@EA@CInitParameter@@8 0040fb14     InitParameter.obj
 0002:00003b30       ??_R4CCriticalSection@@6B@ 0040fb30     ServiceUnits.obj
 0002:00003b44       ??_R3CCriticalSection@@8   0040fb44     ServiceUnits.obj
 0002:00003b54       ??_R2CCriticalSection@@8   0040fb54     ServiceUnits.obj
 0002:00003b64       ??_R1A@?0A@EA@CCriticalSection@@8 0040fb64     ServiceUnits.obj
 0002:00003b80       ??_R1A@?0A@EA@CSyncObject@@8 0040fb80     ServiceUnits.obj
 0002:00003b9c       ??_R3CSyncObject@@8        0040fb9c     ServiceUnits.obj
 0002:00003bac       ??_R2CSyncObject@@8        0040fbac     ServiceUnits.obj
 0002:00003bb8       ??_R4CTimerEngineHelper@@6B@ 0040fbb8     ServiceUnits.obj
 0002:00003bcc       ??_R3CTimerEngineHelper@@8 0040fbcc     ServiceUnits.obj
 0002:00003bdc       ??_R2CTimerEngineHelper@@8 0040fbdc     ServiceUnits.obj
 0002:00003be8       ??_R1A@?0A@EA@CTimerEngineHelper@@8 0040fbe8     ServiceUnits.obj
 0002:00003c04       ??_R1A@?0A@EA@?$CTempldateHelper@UITimerEngine@@@@8 0040fc04     ServiceUnits.obj
 0002:00003c20       ??_R3?$CTempldateHelper@UITimerEngine@@@@8 0040fc20     ServiceUnits.obj
 0002:00003c30       ??_R2?$CTempldateHelper@UITimerEngine@@@@8 0040fc30     ServiceUnits.obj
 0002:00003c38       ??_R4?$CTempldateHelper@UITimerEngine@@@@6B@ 0040fc38     ServiceUnits.obj
 0002:00003c4c       ??_R4CAttemperEngineHelper@@6B@ 0040fc4c     ServiceUnits.obj
 0002:00003c60       ??_R3CAttemperEngineHelper@@8 0040fc60     ServiceUnits.obj
 0002:00003c70       ??_R2CAttemperEngineHelper@@8 0040fc70     ServiceUnits.obj
 0002:00003c7c       ??_R1A@?0A@EA@CAttemperEngineHelper@@8 0040fc7c     ServiceUnits.obj
 0002:00003c98       ??_R1A@?0A@EA@?$CTempldateHelper@UIAttemperEngine@@@@8 0040fc98     ServiceUnits.obj
 0002:00003cb4       ??_R3?$CTempldateHelper@UIAttemperEngine@@@@8 0040fcb4     ServiceUnits.obj
 0002:00003cc4       ??_R2?$CTempldateHelper@UIAttemperEngine@@@@8 0040fcc4     ServiceUnits.obj
 0002:00003ccc       ??_R4?$CTempldateHelper@UIAttemperEngine@@@@6B@ 0040fccc     ServiceUnits.obj
 0002:00003ce0       ??_R4CTCPNetworkEngineHelper@@6B@ 0040fce0     ServiceUnits.obj
 0002:00003cf4       ??_R3CTCPNetworkEngineHelper@@8 0040fcf4     ServiceUnits.obj
 0002:00003d04       ??_R2CTCPNetworkEngineHelper@@8 0040fd04     ServiceUnits.obj
 0002:00003d10       ??_R1A@?0A@EA@CTCPNetworkEngineHelper@@8 0040fd10     ServiceUnits.obj
 0002:00003d2c       ??_R1A@?0A@EA@?$CTempldateHelper@UITCPNetworkEngine@@@@8 0040fd2c     ServiceUnits.obj
 0002:00003d48       ??_R3?$CTempldateHelper@UITCPNetworkEngine@@@@8 0040fd48     ServiceUnits.obj
 0002:00003d58       ??_R2?$CTempldateHelper@UITCPNetworkEngine@@@@8 0040fd58     ServiceUnits.obj
 0002:00003d60       ??_R4?$CTempldateHelper@UITCPNetworkEngine@@@@6B@ 0040fd60     ServiceUnits.obj
 0002:00003d74       ??_R4CServiceUnits@@6B@    0040fd74     ServiceUnits.obj
 0002:00003d88       ??_R3CServiceUnits@@8      0040fd88     ServiceUnits.obj
 0002:00003d98       ??_R2CServiceUnits@@8      0040fd98     ServiceUnits.obj
 0002:00003da0       ??_R1A@?0A@EA@CServiceUnits@@8 0040fda0     ServiceUnits.obj
 0002:00003dbc       ??_R4type_info@@6B@        0040fdbc     msvcrt:std_type_info_static.obj
 0002:00003dd0       ??_R3type_info@@8          0040fdd0     msvcrt:std_type_info_static.obj
 0002:00003de0       ??_R2type_info@@8          0040fde0     msvcrt:std_type_info_static.obj
 0002:00003de8       ??_R1A@?0A@EA@type_info@@8 0040fde8     msvcrt:std_type_info_static.obj
 0002:00003e10       ___safe_se_handler_table   0040fe10     <linker-defined>
 0002:00004274       ___rtc_iaa                 00410274     msvcrt:_initsect_.obj
 0002:00004278       ___rtc_izz                 00410278     msvcrt:_initsect_.obj
 0002:0000427c       ___rtc_taa                 0041027c     msvcrt:_initsect_.obj
 0002:00004280       ___rtc_tzz                 00410280     msvcrt:_initsect_.obj
 0002:00004b54       __IMPORT_DESCRIPTOR_mfc140u 00410b54     mfc140u:mfc140u.dll
 0002:00004b68       __IMPORT_DESCRIPTOR_KERNEL32 00410b68     kernel32:KERNEL32.dll
 0002:00004b7c       __IMPORT_DESCRIPTOR_USER32 00410b7c     user32:USER32.dll
 0002:00004b90       __IMPORT_DESCRIPTOR_COMCTL32 00410b90     comctl32:COMCTL32.dll
 0002:00004ba4       __IMPORT_DESCRIPTOR_MSVCP140 00410ba4     msvcprt:MSVCP140.dll
 0002:00004bb8       __IMPORT_DESCRIPTOR_ServiceCore 00410bb8     ServiceCore:ServiceCore.dll
 0002:00004bcc       __IMPORT_DESCRIPTOR_KernelEngine 00410bcc     KernelEngine:KernelEngine.dll
 0002:00004be0       __IMPORT_DESCRIPTOR_VCRUNTIME140 00410be0     vcruntime:VCRUNTIME140.dll
 0002:00004bf4       __IMPORT_DESCRIPTOR_api-ms-win-crt-runtime-l1-1-0 00410bf4     ucrt:api-ms-win-crt-runtime-l1-1-0.dll
 0002:00004c08       __IMPORT_DESCRIPTOR_api-ms-win-crt-filesystem-l1-1-0 00410c08     ucrt:api-ms-win-crt-filesystem-l1-1-0.dll
 0002:00004c1c       __IMPORT_DESCRIPTOR_api-ms-win-crt-stdio-l1-1-0 00410c1c     ucrt:api-ms-win-crt-stdio-l1-1-0.dll
 0002:00004c30       __IMPORT_DESCRIPTOR_api-ms-win-crt-locale-l1-1-0 00410c30     ucrt:api-ms-win-crt-locale-l1-1-0.dll
 0002:00004c44       __IMPORT_DESCRIPTOR_api-ms-win-crt-time-l1-1-0 00410c44     ucrt:api-ms-win-crt-time-l1-1-0.dll
 0002:00004c58       __IMPORT_DESCRIPTOR_api-ms-win-crt-utility-l1-1-0 00410c58     ucrt:api-ms-win-crt-utility-l1-1-0.dll
 0002:00004c6c       __IMPORT_DESCRIPTOR_api-ms-win-crt-heap-l1-1-0 00410c6c     ucrt:api-ms-win-crt-heap-l1-1-0.dll
 0002:00004c80       __IMPORT_DESCRIPTOR_api-ms-win-crt-math-l1-1-0 00410c80     ucrt:api-ms-win-crt-math-l1-1-0.dll
 0002:00004c94       __NULL_IMPORT_DESCRIPTOR   00410c94     mfc140u:mfc140u.dll
 0003:00000040       ___scrt_native_dllmain_reason 00412040     msvcrt:utility.obj
 0003:00000050       ___security_cookie_complement 00412050     msvcrt:gs_cookie.obj
 0003:00000054       ___security_cookie         00412054     msvcrt:gs_cookie.obj
 0003:00000058       __Init_global_epoch        00412058     msvcrt:thread_safe_statics.obj
 0003:00000060       ___scrt_default_matherr    00412060     msvcrt:matherr.obj
 0003:00000064       ___isa_enabled             00412064     msvcrt:_cpu_disp_.obj
 0003:00000068       ___scrt_ucrt_dll_is_in_use 00412068     msvcrt:ucrt_stubs.obj
 0003:0000006c       ??_R0?AUIUnknownEx@@@8     0041206c     AttemperEngineSink.obj
 0003:00000088       ??_R0?AUIAttemperEngineSink@@@8 00412088     AttemperEngineSink.obj
 0003:000000ac       ??_R0?AV?$CWHArray@GABG@@@8 004120ac     AttemperEngineSink.obj
 0003:000000cc       ??_R0?AVCAttemperEngineSink@@@8 004120cc     AttemperEngineSink.obj
 0003:000000f0       ??_R0?AVCObject@@@8        004120f0     LogServer.obj
 0003:00000108       ??_R0?AVCCmdTarget@@@8     00412108     LogServer.obj
 0003:00000124       ??_R0?AVCLogServerApp@@@8  00412124     LogServer.obj
 0003:00000140       ??_R0?AVCWinApp@@@8        00412140     LogServer.obj
 0003:00000158       ??_R0?AVCWinThread@@@8     00412158     LogServer.obj
 0003:00000174       ??_R0?AVCWnd@@@8           00412174     LogServerServerDlg.obj
 0003:00000188       ??_R0?AVCDialog@@@8        00412188     LogServerServerDlg.obj
 0003:000001a0       ??_R0?AUIServiceUnitsSink@@@8 004121a0     LogServerServerDlg.obj
 0003:000001c0       ??_R0?AVCLogServerDlg@@@8  004121c0     LogServerServerDlg.obj
 0003:000001dc       ??_R0?AVCGlobalUserItem@@@8 004121dc     GlobalInfoManager.obj
 0003:000001fc       ??_R0?AVCGlobalPlazaItem@@@8 004121fc     GlobalInfoManager.obj
 0003:0000021c       ??_R0?AVCGlobalServerItem@@@8 0041221c     GlobalInfoManager.obj
 0003:0000023c       ??_R0?AVCGlobalChatItem@@@8 0041223c     GlobalInfoManager.obj
 0003:0000025c       ??_R0?AV?$CWHArray@PAVCGlobalServerItem@@ABQAV1@@@@8 0041225c     GlobalInfoManager.obj
 0003:00000294       ??_R0?AV?$CMap@KKPAVCGlobalUserItem@@PAV1@@@@8 00412294     GlobalInfoManager.obj
 0003:000002c8       ??_R0?AV?$CMap@GGPAVCGlobalPlazaItem@@PAV1@@@@8 004122c8     GlobalInfoManager.obj
 0003:000002fc       ??_R0?AV?$CMap@GGPAVCGlobalServerItem@@PAV1@@@@8 004122fc     GlobalInfoManager.obj
 0003:00000330       ??_R0?AV?$CMap@GGPAVCGlobalChatItem@@PAV1@@@@8 00412330     GlobalInfoManager.obj
 0003:00000364       ??_R0?AVCGlobalInfoManager@@@8 00412364     GlobalInfoManager.obj
 0003:00000388       ??_R0?AVCInitParameter@@@8 00412388     InitParameter.obj
 0003:000003a8       ??_R0?AVCCriticalSection@@@8 004123a8     ServiceUnits.obj
 0003:000003c8       ??_R0?AVCSyncObject@@@8    004123c8     ServiceUnits.obj
 0003:000003e4       ??_R0?AVCTimerEngineHelper@@@8 004123e4     ServiceUnits.obj
 0003:00000408       ??_R0?AV?$CTempldateHelper@UITimerEngine@@@@@8 00412408     ServiceUnits.obj
 0003:0000043c       ??_R0?AVCAttemperEngineHelper@@@8 0041243c     ServiceUnits.obj
 0003:00000460       ??_R0?AV?$CTempldateHelper@UIAttemperEngine@@@@@8 00412460     ServiceUnits.obj
 0003:00000494       ??_R0?AVCTCPNetworkEngineHelper@@@8 00412494     ServiceUnits.obj
 0003:000004bc       ??_R0?AV?$CTempldateHelper@UITCPNetworkEngine@@@@@8 004124bc     ServiceUnits.obj
 0003:000004f4       ??_R0PA_W@8                004124f4     ServiceUnits.obj
 0003:00000504       ??_R0?AVCServiceUnits@@@8  00412504     ServiceUnits.obj
 0003:00000520       ??_R0?AVtype_info@@@8      00412520     msvcrt:std_type_info_static.obj
 0003:00000538       ?g_nFirstGSWriteCount@@3HA 00412538     AttemperEngineSink.obj
 0003:0000053c       ?g_nSecondGSWriteCount@@3HA 0041253c     AttemperEngineSink.obj
 0003:00000540       ?g_nThirdGSWriteCount@@3HA 00412540     AttemperEngineSink.obj
 0003:00000544       ?g_cbLogGSWriteControl@@3HA 00412544     AttemperEngineSink.obj
 0003:00000548       ?g_cbCloseLogonServerLog@@3EA 00412548     AttemperEngineSink.obj
 0003:00000549       ?g_cbCloseGameServerLog@@3EA 00412549     AttemperEngineSink.obj
 0003:0000054a       ?g_cbCloseChatServerLog@@3EA 0041254a     AttemperEngineSink.obj
 0003:0000054b       ?g_cbCloseGroupServerLog@@3EA 0041254b     AttemperEngineSink.obj
 0003:0000054c       ?g_nFirstOtherSWriteCount@@3HA 0041254c     AttemperEngineSink.obj
 0003:00000550       ?g_nSecondOtherSWriteCount@@3HA 00412550     AttemperEngineSink.obj
 0003:00000554       ?g_nThirdOtherSWriteCount@@3HA 00412554     AttemperEngineSink.obj
 0003:00000558       ?g_cbOtherWriteControl@@3HA 00412558     AttemperEngineSink.obj
 0003:0000055c       ?g_vecOtherServerLogFirst@@3V?$vector@UtagOtherServerLogInfo@@V?$allocator@UtagOtherServerLogInfo@@@std@@@std@@A 0041255c     AttemperEngineSink.obj
 0003:00000568       ?g_vecOtherServerLogSecond@@3V?$vector@UtagOtherServerLogInfo@@V?$allocator@UtagOtherServerLogInfo@@@std@@@std@@A 00412568     AttemperEngineSink.obj
 0003:00000574       ?g_vecOtherServerLogThird@@3V?$vector@UtagOtherServerLogInfo@@V?$allocator@UtagOtherServerLogInfo@@@std@@@std@@A 00412574     AttemperEngineSink.obj
 0003:00000580       ?g_vecGameServerLogFirst@@3V?$vector@UtagLogUserInfo@@V?$allocator@UtagLogUserInfo@@@std@@@std@@A 00412580     AttemperEngineSink.obj
 0003:0000058c       ?g_vecGameServerLogSecond@@3V?$vector@UtagLogUserInfo@@V?$allocator@UtagLogUserInfo@@@std@@@std@@A 0041258c     AttemperEngineSink.obj
 0003:00000598       ?g_vecGameServerLogThird@@3V?$vector@UtagLogUserInfo@@V?$allocator@UtagLogUserInfo@@@std@@@std@@A 00412598     AttemperEngineSink.obj
 0003:000005a8       ?_OptionsStorage@?1??__local_stdio_printf_options@@9@4_KA 004125a8     AttemperEngineSink.obj
 0003:000005b0       ?theApp@@3VCLogServerApp@@A 004125b0     LogServer.obj
 0003:0000067c       ___@@_PchSym_@00@UhkzxvUtrgsfyUdswonUdswonUKlsKowKooKlsKooKqkKltKprKpyKluKqmKqsUKlvKorKpmKlqKqsKovKlsKqoKplKluKomKquUKltKqsKpuKluKokKqsKltKqnKrmKluKrpKpyKluKqqKprUivovzhvPfmrxlwvUhgwzucOlyq@9C50717EFF17C106 0041267c     Stdafx.obj
 0003:00000680       ?m_bInitFailed@CAtlBaseModule@ATL@@2_NA 00412680     Stdafx.obj
 0003:00000684       __afxForceEXCLUDE          00412684     mfcs140u:nolib.obj
 0003:00000688       __afxForceSTDAFX           00412688     mfcs140u:stdafx.obj
 0003:0000068c       ___scrt_current_native_startup_state 0041268c     msvcrt:utility.obj
 0003:00000690       ___scrt_native_startup_lock 00412690     msvcrt:utility.obj
 0003:000006d8       __tls_index                004126d8     msvcrt:tlssup.obj
 0003:000006e0       ?__type_info_root_node@@3U__type_info_node@@A 004126e0     msvcrt:tncleanup.obj
 0003:000006e8       ?_OptionsStorage@?1??__local_stdio_scanf_options@@9@4_KA 004126e8     msvcrt:default_local_stdio_options.obj
 0003:000006f0       ___scrt_debugger_hook_flag 004126f0     msvcrt:utility_desktop.obj
 0003:000006f4       ___isa_available           004126f4     msvcrt:_cpu_disp_.obj
 0003:000006f8       ___favor                   004126f8     msvcrt:_cpu_disp_.obj
 0003:00000a1c       ?_AtlBaseModule@ATL@@3VCAtlBaseModule@1@A 00412a1c     atls:atlbase.obj
 0003:00000a54       ___@@_PchSym_@00@UyrmzirvhUrmgvinvwrzgvUexgllohUzgohOmzgrevkilqPBACIAJCBDBUlyqiUcIGUhgwzucOlyq@400B0995F36844BC 00412a54     atls:stdafx.obj
 0003:00000a58       ?_afxInitAppState@@3DA     00412a58     mfcs140u:appmodul.obj
 0003:00000a5c       ___dyn_tls_dtor_callback   00412a5c     <common>
 0003:00000a60       ___dyn_tls_init_callback   00412a60     <common>
 0005:00000000       __tls_start                00414000     msvcrt:tlssup.obj
 0005:00000004       __Init_thread_epoch        00414004     msvcrt:thread_safe_statics.obj
 0005:00000008       __tls_end                  00414008     msvcrt:tlssup.obj

 entry point at        0001:0000911c

 Static symbols

 0000:fffe7000       .debug$S                   00400000     ucrt:api-ms-win-crt-runtime-l1-1-0.dll
 0000:fffe7000       .debug$S                   00400000     ucrt:api-ms-win-crt-filesystem-l1-1-0.dll
 0000:fffe7000       .debug$S                   00400000     ucrt:api-ms-win-crt-filesystem-l1-1-0.dll
 0000:fffe7000       .debug$S                   00400000     ucrt:api-ms-win-crt-heap-l1-1-0.dll
 0000:fffe7000       .debug$S                   00400000     ucrt:api-ms-win-crt-heap-l1-1-0.dll
 0000:fffe7000       .debug$S                   00400000     ucrt:api-ms-win-crt-runtime-l1-1-0.dll
 0000:fffe7000       .debug$S                   00400000     ucrt:api-ms-win-crt-runtime-l1-1-0.dll
 0000:fffe7000       .debug$S                   00400000     ucrt:api-ms-win-crt-runtime-l1-1-0.dll
 0000:fffe7000       .debug$S                   00400000     ucrt:api-ms-win-crt-stdio-l1-1-0.dll
 0000:fffe7000       .debug$S                   00400000     ucrt:api-ms-win-crt-stdio-l1-1-0.dll
 0000:fffe7000       .debug$S                   00400000     ucrt:api-ms-win-crt-stdio-l1-1-0.dll
 0000:fffe7000       .debug$S                   00400000     ucrt:api-ms-win-crt-stdio-l1-1-0.dll
 0000:fffe7000       .debug$S                   00400000     ucrt:api-ms-win-crt-stdio-l1-1-0.dll
 0000:fffe7000       .debug$S                   00400000     ucrt:api-ms-win-crt-stdio-l1-1-0.dll
 0000:fffe7000       .debug$S                   00400000     ucrt:api-ms-win-crt-runtime-l1-1-0.dll
 0000:fffe7000       .debug$S                   00400000     ucrt:api-ms-win-crt-time-l1-1-0.dll
 0000:fffe7000       .debug$S                   00400000     ucrt:api-ms-win-crt-runtime-l1-1-0.dll
 0000:fffe7000       .debug$S                   00400000     ucrt:api-ms-win-crt-utility-l1-1-0.dll
 0000:fffe7000       .debug$S                   00400000     vcruntime:VCRUNTIME140.dll
 0000:fffe7000       .debug$S                   00400000     vcruntime:VCRUNTIME140.dll
 0000:fffe7000       .debug$S                   00400000     vcruntime:VCRUNTIME140.dll
 0000:fffe7000       .debug$S                   00400000     vcruntime:VCRUNTIME140.dll
 0000:fffe7000       .debug$S                   00400000     vcruntime:VCRUNTIME140.dll
 0000:fffe7000       .debug$S                   00400000     vcruntime:VCRUNTIME140.dll
 0000:fffe7000       .debug$S                   00400000     vcruntime:VCRUNTIME140.dll
 0000:fffe7000       .debug$S                   00400000     vcruntime:VCRUNTIME140.dll
 0000:fffe7000       .debug$S                   00400000     vcruntime:VCRUNTIME140.dll
 0000:fffe7000       .debug$S                   00400000     vcruntime:VCRUNTIME140.dll
 0000:fffe7000       .debug$S                   00400000     vcruntime:VCRUNTIME140.dll
 0000:fffe7000       .debug$S                   00400000     KernelEngine:KernelEngine.dll
 0000:fffe7000       .debug$S                   00400000     KernelEngine:KernelEngine.dll
 0000:fffe7000       .debug$S                   00400000     KernelEngine:KernelEngine.dll
 0000:fffe7000       .debug$S                   00400000     ServiceCore:ServiceCore.dll
 0000:fffe7000       .debug$S                   00400000     ServiceCore:ServiceCore.dll
 0000:fffe7000       .debug$S                   00400000     ServiceCore:ServiceCore.dll
 0000:fffe7000       .debug$S                   00400000     ServiceCore:ServiceCore.dll
 0000:fffe7000       .debug$S                   00400000     ServiceCore:ServiceCore.dll
 0000:fffe7000       .debug$S                   00400000     ServiceCore:ServiceCore.dll
 0000:fffe7000       .debug$S                   00400000     ServiceCore:ServiceCore.dll
 0000:fffe7000       .debug$S                   00400000     ServiceCore:ServiceCore.dll
 0000:fffe7000       .debug$S                   00400000     msvcprt:MSVCP140.dll
 0000:fffe7000       .debug$S                   00400000     msvcprt:MSVCP140.dll
 0002:ffff4000       .idata$6                   00400000     oleaut32:OLEAUT32.dll
 0000:fffe7000       .debug$S                   00400000     oleaut32:OLEAUT32.dll
 0000:fffe7000       .debug$S                   00400000     ucrt:api-ms-win-crt-runtime-l1-1-0.dll
 0000:fffe7000       .debug$S                   00400000     mfc140u:mfc140u.dll
 0000:fffe7000       .debug$S                   00400000     ucrt:api-ms-win-crt-runtime-l1-1-0.dll
 0000:fffe7000       .debug$S                   00400000     mfc140u:mfc140u.dll
 0000:fffe7000       .debug$S                   00400000     mfc140u:mfc140u.dll
 0000:fffe7000       .debug$S                   00400000     comctl32:COMCTL32.dll
 0000:fffe7000       .debug$S                   00400000     user32:USER32.dll
 0000:fffe7000       .debug$S                   00400000     user32:USER32.dll
 0000:fffe7000       .debug$S                   00400000     user32:USER32.dll
 0000:fffe7000       .debug$S                   00400000     user32:USER32.dll
 0000:fffe7000       .debug$S                   00400000     user32:USER32.dll
 0000:fffe7000       .debug$S                   00400000     kernel32:KERNEL32.dll
 0000:fffe7000       .debug$S                   00400000     kernel32:KERNEL32.dll
 0000:fffe7000       .debug$S                   00400000     kernel32:KERNEL32.dll
 0000:fffe7000       .debug$S                   00400000     kernel32:KERNEL32.dll
 0000:fffe7000       .debug$S                   00400000     kernel32:KERNEL32.dll
 0000:fffe7000       .debug$S                   00400000     kernel32:KERNEL32.dll
 0000:fffe7000       .debug$S                   00400000     kernel32:KERNEL32.dll
 0000:fffe7000       .debug$S                   00400000     kernel32:KERNEL32.dll
 0000:fffe7000       .debug$S                   00400000     kernel32:KERNEL32.dll
 0000:fffe7000       .debug$S                   00400000     kernel32:KERNEL32.dll
 0000:fffe7000       .debug$S                   00400000     kernel32:KERNEL32.dll
 0000:fffe7000       .debug$S                   00400000     kernel32:KERNEL32.dll
 0000:fffe7000       .debug$S                   00400000     kernel32:KERNEL32.dll
 0000:fffe7000       .debug$S                   00400000     kernel32:KERNEL32.dll
 0000:fffe7000       .debug$S                   00400000     kernel32:KERNEL32.dll
 0000:fffe7000       .debug$S                   00400000     kernel32:KERNEL32.dll
 0000:fffe7000       .debug$S                   00400000     kernel32:KERNEL32.dll
 0000:fffe7000       .debug$S                   00400000     kernel32:KERNEL32.dll
 0000:fffe7000       .debug$S                   00400000     kernel32:KERNEL32.dll
 0000:fffe7000       .debug$S                   00400000     kernel32:KERNEL32.dll
 0000:fffe7000       .debug$S                   00400000     kernel32:KERNEL32.dll
 0000:fffe7000       .debug$S                   00400000     kernel32:KERNEL32.dll
 0000:fffe7000       .debug$S                   00400000     kernel32:KERNEL32.dll
 0000:fffe7000       .debug$S                   00400000     kernel32:KERNEL32.dll
 0000:fffe7000       .debug$S                   00400000     kernel32:KERNEL32.dll
 0000:fffe7000       .debug$S                   00400000     kernel32:KERNEL32.dll
 0000:fffe7000       .debug$S                   00400000     kernel32:KERNEL32.dll
 0000:fffe7000       .debug$S                   00400000     kernel32:KERNEL32.dll
 0000:fffe7000       .debug$S                   00400000     kernel32:KERNEL32.dll
 0000:fffe7000       .debug$S                   00400000     kernel32:KERNEL32.dll
 0000:fffe7000       .debug$S                   00400000     kernel32:KERNEL32.dll
 0000:fffe7000       .debug$S                   00400000     kernel32:KERNEL32.dll
 0000:fffe7000       .debug$S                   00400000     kernel32:KERNEL32.dll
 0000:fffe7000       .debug$S                   00400000     kernel32:KERNEL32.dll
 0000:fffe7000       .debug$S                   00400000     kernel32:KERNEL32.dll
 0000:fffe7000       .debug$S                   00400000     kernel32:KERNEL32.dll
 0000:fffe7000       .debug$S                   00400000     kernel32:KERNEL32.dll
 0000:fffe7000       .debug$S                   00400000     kernel32:KERNEL32.dll
 0000:fffe7000       .debug$S                   00400000     kernel32:KERNEL32.dll
 0000:fffe7000       .debug$S                   00400000     kernel32:KERNEL32.dll
 0000:fffe7000       .debug$S                   00400000     kernel32:KERNEL32.dll
 0000:fffe7000       .debug$S                   00400000     kernel32:KERNEL32.dll
 0000:fffe7000       .debug$S                   00400000     ucrt:api-ms-win-crt-runtime-l1-1-0.dll
 0000:fffe7000       .debug$S                   00400000     ucrt:api-ms-win-crt-runtime-l1-1-0.dll
 0000:fffe7000       .debug$S                   00400000     mfc140u:mfc140u.dll
 0000:fffe7000       .debug$S                   00400000     ucrt:api-ms-win-crt-runtime-l1-1-0.dll
 0000:fffe7000       .debug$S                   00400000     ucrt:api-ms-win-crt-runtime-l1-1-0.dll
 0000:fffe7000       .debug$S                   00400000     ucrt:api-ms-win-crt-runtime-l1-1-0.dll
 0000:fffe7000       .debug$S                   00400000     mfc140u:mfc140u.dll
 0000:fffe7000       .debug$S                   00400000     ucrt:api-ms-win-crt-runtime-l1-1-0.dll
 0000:fffe7000       .debug$S                   00400000     ucrt:api-ms-win-crt-runtime-l1-1-0.dll
 0000:fffe7000       .debug$S                   00400000     ucrt:api-ms-win-crt-runtime-l1-1-0.dll
 0000:fffe7000       .debug$S                   00400000     mfc140u:mfc140u.dll
 0000:fffe7000       .debug$S                   00400000     mfc140u:mfc140u.dll
 0000:fffe7000       .debug$S                   00400000     mfc140u:mfc140u.dll
 0000:fffe7000       .debug$S                   00400000     mfc140u:mfc140u.dll
 0000:fffe7000       .debug$S                   00400000     mfc140u:mfc140u.dll
 0000:fffe7000       .debug$S                   00400000     mfc140u:mfc140u.dll
 0000:fffe7000       .debug$S                   00400000     ucrt:api-ms-win-crt-runtime-l1-1-0.dll
 0000:fffe7000       .debug$S                   00400000     ucrt:api-ms-win-crt-runtime-l1-1-0.dll
 0000:fffe7000       .debug$S                   00400000     ucrt:api-ms-win-crt-runtime-l1-1-0.dll
 0000:fffe7000       .debug$S                   00400000     ucrt:api-ms-win-crt-runtime-l1-1-0.dll
 0000:fffe7000       .debug$S                   00400000     ucrt:api-ms-win-crt-runtime-l1-1-0.dll
 0000:fffe7000       .debug$S                   00400000     ucrt:api-ms-win-crt-runtime-l1-1-0.dll
 0000:fffe7000       .debug$S                   00400000     mfc140u:mfc140u.dll
 0000:fffe7000       .debug$S                   00400000     ucrt:api-ms-win-crt-runtime-l1-1-0.dll
 0000:fffe7000       .debug$S                   00400000     mfc140u:mfc140u.dll
 0000:fffe7000       .debug$S                   00400000     mfc140u:mfc140u.dll
 0000:fffe7000       .debug$S                   00400000     ucrt:api-ms-win-crt-runtime-l1-1-0.dll
 0000:fffe7000       .debug$S                   00400000     ucrt:api-ms-win-crt-runtime-l1-1-0.dll
 0000:fffe7000       .debug$S                   00400000     ucrt:api-ms-win-crt-math-l1-1-0.dll
 0000:fffe7000       .debug$S                   00400000     mfc140u:mfc140u.dll
 0000:fffe7000       .debug$S                   00400000     ucrt:api-ms-win-crt-locale-l1-1-0.dll
 0000:fffe7000       .debug$S                   00400000     mfc140u:mfc140u.dll
 0000:fffe7000       .debug$S                   00400000     mfc140u:mfc140u.dll
 0000:fffe7000       .debug$S                   00400000     ucrt:api-ms-win-crt-locale-l1-1-0.dll
 0000:fffe7000       .debug$S                   00400000     mfc140u:mfc140u.dll
 0000:fffe7000       .debug$S                   00400000     mfc140u:mfc140u.dll
 0000:fffe7000       .debug$S                   00400000     mfc140u:mfc140u.dll
 0000:fffe7000       .debug$S                   00400000     mfc140u:mfc140u.dll
 0000:fffe7000       .debug$S                   00400000     mfc140u:mfc140u.dll
 0000:fffe7000       .debug$S                   00400000     mfc140u:mfc140u.dll
 0000:fffe7000       .debug$S                   00400000     mfc140u:mfc140u.dll
 0000:fffe7000       .debug$S                   00400000     mfc140u:mfc140u.dll
 0000:fffe7000       .debug$S                   00400000     mfc140u:mfc140u.dll
 0000:fffe7000       .debug$S                   00400000     mfc140u:mfc140u.dll
 0000:fffe7000       .debug$S                   00400000     mfc140u:mfc140u.dll
 0000:fffe7000       .debug$S                   00400000     mfc140u:mfc140u.dll
 0000:fffe7000       .debug$S                   00400000     ucrt:api-ms-win-crt-heap-l1-1-0.dll
 0000:fffe7000       .debug$S                   00400000     mfc140u:mfc140u.dll
 0000:fffe7000       .debug$S                   00400000     mfc140u:mfc140u.dll
 0000:fffe7000       .debug$S                   00400000     mfc140u:mfc140u.dll
 0000:fffe7000       .debug$S                   00400000     mfc140u:mfc140u.dll
 0000:fffe7000       .debug$S                   00400000     mfc140u:mfc140u.dll
 0000:fffe7000       .debug$S                   00400000     mfc140u:mfc140u.dll
 0000:fffe7000       .debug$S                   00400000     mfc140u:mfc140u.dll
 0000:fffe7000       .debug$S                   00400000     mfc140u:mfc140u.dll
 0000:fffe7000       .debug$S                   00400000     mfc140u:mfc140u.dll
 0000:fffe7000       .debug$S                   00400000     mfc140u:mfc140u.dll
 0000:fffe7000       .debug$S                   00400000     mfc140u:mfc140u.dll
 0000:fffe7000       .debug$S                   00400000     mfc140u:mfc140u.dll
 0000:fffe7000       .debug$S                   00400000     mfc140u:mfc140u.dll
 0000:fffe7000       .debug$S                   00400000     mfc140u:mfc140u.dll
 0000:fffe7000       .debug$S                   00400000     mfc140u:mfc140u.dll
 0000:fffe7000       .debug$S                   00400000     mfc140u:mfc140u.dll
 0000:fffe7000       .debug$S                   00400000     mfc140u:mfc140u.dll
 0000:fffe7000       .debug$S                   00400000     mfc140u:mfc140u.dll
 0000:fffe7000       .debug$S                   00400000     mfc140u:mfc140u.dll
 0000:fffe7000       .debug$S                   00400000     mfc140u:mfc140u.dll
 0000:fffe7000       .debug$S                   00400000     mfc140u:mfc140u.dll
 0000:fffe7000       .debug$S                   00400000     mfc140u:mfc140u.dll
 0000:fffe7000       .debug$S                   00400000     mfc140u:mfc140u.dll
 0000:fffe7000       .debug$S                   00400000     mfc140u:mfc140u.dll
 0000:fffe7000       .debug$S                   00400000     mfc140u:mfc140u.dll
 0000:fffe7000       .debug$S                   00400000     mfc140u:mfc140u.dll
 0000:fffe7000       .debug$S                   00400000     mfc140u:mfc140u.dll
 0000:fffe7000       .debug$S                   00400000     mfc140u:mfc140u.dll
 0000:fffe7000       .debug$S                   00400000     mfc140u:mfc140u.dll
 0000:fffe7000       .debug$S                   00400000     mfc140u:mfc140u.dll
 0000:fffe7000       .debug$S                   00400000     mfc140u:mfc140u.dll
 0000:fffe7000       .debug$S                   00400000     mfc140u:mfc140u.dll
 0000:fffe7000       .debug$S                   00400000     mfc140u:mfc140u.dll
 0000:fffe7000       .debug$S                   00400000     mfc140u:mfc140u.dll
 0000:fffe7000       .debug$S                   00400000     mfc140u:mfc140u.dll
 0000:fffe7000       .debug$S                   00400000     mfc140u:mfc140u.dll
 0000:fffe7000       .debug$S                   00400000     mfc140u:mfc140u.dll
 0000:fffe7000       .debug$S                   00400000     mfc140u:mfc140u.dll
 0000:fffe7000       .debug$S                   00400000     mfc140u:mfc140u.dll
 0000:fffe7000       .debug$S                   00400000     mfc140u:mfc140u.dll
 0000:fffe7000       .debug$S                   00400000     mfc140u:mfc140u.dll
 0000:fffe7000       .debug$S                   00400000     mfc140u:mfc140u.dll
 0000:fffe7000       .debug$S                   00400000     mfc140u:mfc140u.dll
 0000:fffe7000       .debug$S                   00400000     mfc140u:mfc140u.dll
 0000:fffe7000       .debug$S                   00400000     mfc140u:mfc140u.dll
 0000:fffe7000       .debug$S                   00400000     mfc140u:mfc140u.dll
 0000:fffe7000       .debug$S                   00400000     mfc140u:mfc140u.dll
 0000:fffe7000       .debug$S                   00400000     mfc140u:mfc140u.dll
 0000:fffe7000       .debug$S                   00400000     mfc140u:mfc140u.dll
 0000:fffe7000       .debug$S                   00400000     mfc140u:mfc140u.dll
 0000:fffe7000       .debug$S                   00400000     mfc140u:mfc140u.dll
 0000:fffe7000       .debug$S                   00400000     mfc140u:mfc140u.dll
 0000:fffe7000       .debug$S                   00400000     mfc140u:mfc140u.dll
 0000:fffe7000       .debug$S                   00400000     mfc140u:mfc140u.dll
 0000:fffe7000       .debug$S                   00400000     mfc140u:mfc140u.dll
 0000:fffe7000       .debug$S                   00400000     mfc140u:mfc140u.dll
 0000:fffe7000       .debug$S                   00400000     mfc140u:mfc140u.dll
 0000:fffe7000       .debug$S                   00400000     mfc140u:mfc140u.dll
 0000:fffe7000       .debug$S                   00400000     mfc140u:mfc140u.dll
 0000:fffe7000       .debug$S                   00400000     mfc140u:mfc140u.dll
 0000:fffe7000       .debug$S                   00400000     mfc140u:mfc140u.dll
 0000:fffe7000       .debug$S                   00400000     mfc140u:mfc140u.dll
 0000:fffe7000       .debug$S                   00400000     mfc140u:mfc140u.dll
 0000:fffe7000       .debug$S                   00400000     mfc140u:mfc140u.dll
 0000:fffe7000       .debug$S                   00400000     mfc140u:mfc140u.dll
 0000:fffe7000       .debug$S                   00400000     mfc140u:mfc140u.dll
 0000:fffe7000       .debug$S                   00400000     mfc140u:mfc140u.dll
 0000:fffe7000       .debug$S                   00400000     mfc140u:mfc140u.dll
 0000:fffe7000       .debug$S                   00400000     mfc140u:mfc140u.dll
 0000:fffe7000       .debug$S                   00400000     mfc140u:mfc140u.dll
 0000:fffe7000       .debug$S                   00400000     mfc140u:mfc140u.dll
 0000:fffe7000       .debug$S                   00400000     mfc140u:mfc140u.dll
 0000:fffe7000       .debug$S                   00400000     mfc140u:mfc140u.dll
 0000:fffe7000       .debug$S                   00400000     mfc140u:mfc140u.dll
 0000:fffe7000       .debug$S                   00400000     mfc140u:mfc140u.dll
 0000:fffe7000       .debug$S                   00400000     mfc140u:mfc140u.dll
 0000:fffe7000       .debug$S                   00400000     mfc140u:mfc140u.dll
 0000:fffe7000       .debug$S                   00400000     mfc140u:mfc140u.dll
 0000:fffe7000       .debug$S                   00400000     mfc140u:mfc140u.dll
 0000:fffe7000       .debug$S                   00400000     mfc140u:mfc140u.dll
 0000:fffe7000       .debug$S                   00400000     mfc140u:mfc140u.dll
 0000:fffe7000       .debug$S                   00400000     mfc140u:mfc140u.dll
 0000:fffe7000       .debug$S                   00400000     mfc140u:mfc140u.dll
 0000:fffe7000       .debug$S                   00400000     mfc140u:mfc140u.dll
 0000:fffe7000       .debug$S                   00400000     mfc140u:mfc140u.dll
 0000:fffe7000       .debug$S                   00400000     mfc140u:mfc140u.dll
 0000:fffe7000       .debug$S                   00400000     mfc140u:mfc140u.dll
 0000:fffe7000       .debug$S                   00400000     mfc140u:mfc140u.dll
 0000:fffe7000       .debug$S                   00400000     mfc140u:mfc140u.dll
 0000:fffe7000       .debug$S                   00400000     mfc140u:mfc140u.dll
 0000:fffe7000       .debug$S                   00400000     mfc140u:mfc140u.dll
 0000:fffe7000       .debug$S                   00400000     mfc140u:mfc140u.dll
 0000:fffe7000       .debug$S                   00400000     mfc140u:mfc140u.dll
 0000:fffe7000       .debug$S                   00400000     mfc140u:mfc140u.dll
 0000:fffe7000       .debug$S                   00400000     mfc140u:mfc140u.dll
 0000:fffe7000       .debug$S                   00400000     mfc140u:mfc140u.dll
 0000:fffe7000       .debug$S                   00400000     mfc140u:mfc140u.dll
 0000:fffe7000       .debug$S                   00400000     mfc140u:mfc140u.dll
 0000:fffe7000       .debug$S                   00400000     mfc140u:mfc140u.dll
 0000:fffe7000       .debug$S                   00400000     mfc140u:mfc140u.dll
 0000:fffe7000       .debug$S                   00400000     mfc140u:mfc140u.dll
 0000:fffe7000       .debug$S                   00400000     mfc140u:mfc140u.dll
 0000:fffe7000       .debug$S                   00400000     mfc140u:mfc140u.dll
 0000:fffe7000       .debug$S                   00400000     mfc140u:mfc140u.dll
 0000:fffe7000       .debug$S                   00400000     mfc140u:mfc140u.dll
 0000:fffe7000       .debug$S                   00400000     mfc140u:mfc140u.dll
 0000:fffe7000       .debug$S                   00400000     mfc140u:mfc140u.dll
 0000:fffe7000       .debug$S                   00400000     mfc140u:mfc140u.dll
 0000:fffe7000       .debug$S                   00400000     mfc140u:mfc140u.dll
 0000:fffe7000       .debug$S                   00400000     mfc140u:mfc140u.dll
 0000:fffe7000       .debug$S                   00400000     mfc140u:mfc140u.dll
 0000:fffe7000       .debug$S                   00400000     mfc140u:mfc140u.dll
 0000:fffe7000       .debug$S                   00400000     mfc140u:mfc140u.dll
 0000:fffe7000       .debug$S                   00400000     mfc140u:mfc140u.dll
 0000:fffe7000       .debug$S                   00400000     mfc140u:mfc140u.dll
 0000:fffe7000       .debug$S                   00400000     mfc140u:mfc140u.dll
 0000:fffe7000       .debug$S                   00400000     mfc140u:mfc140u.dll
 0000:fffe7000       .debug$S                   00400000     mfc140u:mfc140u.dll
 0000:fffe7000       .debug$S                   00400000     mfc140u:mfc140u.dll
 0000:fffe7000       .debug$S                   00400000     mfc140u:mfc140u.dll
 0000:fffe7000       .debug$S                   00400000     mfc140u:mfc140u.dll
 0000:fffe7000       .debug$S                   00400000     mfc140u:mfc140u.dll
 0000:fffe7000       .debug$S                   00400000     mfc140u:mfc140u.dll
 0000:fffe7000       .debug$S                   00400000     mfc140u:mfc140u.dll
 0000:fffe7000       .debug$S                   00400000     mfc140u:mfc140u.dll
 0000:fffe7000       .debug$S                   00400000     mfc140u:mfc140u.dll
 0000:fffe7000       .debug$S                   00400000     mfc140u:mfc140u.dll
 0000:fffe7000       .debug$S                   00400000     mfc140u:mfc140u.dll
 0000:fffe7000       .debug$S                   00400000     mfc140u:mfc140u.dll
 0000:fffe7000       .debug$S                   00400000     mfc140u:mfc140u.dll
 0000:fffe7000       .debug$S                   00400000     mfc140u:mfc140u.dll
 0000:fffe7000       .debug$S                   00400000     mfc140u:mfc140u.dll
 0000:fffe7000       .debug$S                   00400000     mfc140u:mfc140u.dll
 0000:fffe7000       .debug$S                   00400000     mfc140u:mfc140u.dll
 0000:fffe7000       .debug$S                   00400000     mfc140u:mfc140u.dll
 0000:fffe7000       .debug$S                   00400000     mfc140u:mfc140u.dll
 0000:fffe7000       .debug$S                   00400000     mfc140u:mfc140u.dll
 0000:fffe7000       .debug$S                   00400000     mfc140u:mfc140u.dll
 0000:fffe7000       .debug$S                   00400000     mfc140u:mfc140u.dll
 0000:fffe7000       .debug$S                   00400000     mfc140u:mfc140u.dll
 0000:fffe7000       .debug$S                   00400000     mfc140u:mfc140u.dll
 0000:fffe7000       .debug$S                   00400000     mfc140u:mfc140u.dll
 0000:fffe7000       .debug$S                   00400000     mfc140u:mfc140u.dll
 0000:fffe7000       .debug$S                   00400000     mfc140u:mfc140u.dll
 0000:fffe7000       .debug$S                   00400000     mfc140u:mfc140u.dll
 0000:fffe7000       .debug$S                   00400000     mfc140u:mfc140u.dll
 0000:fffe7000       .debug$S                   00400000     mfc140u:mfc140u.dll
 0000:fffe7000       .debug$S                   00400000     mfc140u:mfc140u.dll
 0001:00000000       ??__Eg_vecGameServerLogFirst@@YAXXZ 00401000 f   AttemperEngineSink.obj
 0001:00000020       ??__Eg_vecGameServerLogSecond@@YAXXZ 00401020 f   AttemperEngineSink.obj
 0001:00000040       ??__Eg_vecGameServerLogThird@@YAXXZ 00401040 f   AttemperEngineSink.obj
 0001:00000060       ??__Eg_vecOtherServerLogFirst@@YAXXZ 00401060 f   AttemperEngineSink.obj
 0001:00000080       ??__Eg_vecOtherServerLogSecond@@YAXXZ 00401080 f   AttemperEngineSink.obj
 0001:000000a0       ??__Eg_vecOtherServerLogThird@@YAXXZ 004010a0 f   AttemperEngineSink.obj
 0001:000000c0       ??__EtheApp@@YAXXZ         004010c0 f   LogServer.obj
 0001:000000dc       ??__E_AtlBaseModule@ATL@@YAXXZ 004010dc f   atls:atlbase.obj
 0001:000000f2       ??__E_afxInitAppState@@YAXXZ 004010f2 f   mfcs140u:appmodul.obj
 0001:00000110       _memcpy_s                  00401110 f   AttemperEngineSink.obj
 0001:00000220       _time                      00401220 f   AttemperEngineSink.obj
 0001:00000477       __catch$?OnAttemperEngineConclude@CAttemperEngineSink@@UAE_NPAUIUnknownEx@@@Z$0 00401477 f   AttemperEngineSink.obj
 0001:00000b84       $LN34                      00401b84     AttemperEngineSink.obj
 0001:00002360       __catch$?_Reallocate@?$vector@UtagLogUserInfo@@V?$allocator@UtagLogUserInfo@@@std@@@std@@IAEXI@Z$0 00403360 f i AttemperEngineSink.obj
 0001:000024d0       __catch$?_Reallocate@?$vector@UtagOtherServerLogInfo@@V?$allocator@UtagOtherServerLogInfo@@@std@@@std@@IAEXI@Z$0 004034d0 f i AttemperEngineSink.obj
 0001:000035f4       __catch$?OnBnClickedStartService@CLogServerDlg@@IAEXXZ$0 004045f4 f   LogServerServerDlg.obj
 0001:00003664       __catch$?OnBnClickedStopService@CLogServerDlg@@IAEXXZ$0 00404664 f   LogServerServerDlg.obj
 0001:0000401d       __catch$??1CGlobalInfoManager@@UAE@XZ$0 0040501d f   GlobalInfoManager.obj
 0001:000040b1       __catch$??1CGlobalInfoManager@@UAE@XZ$2 004050b1 f   GlobalInfoManager.obj
 0001:00004145       __catch$??1CGlobalInfoManager@@UAE@XZ$4 00405145 f   GlobalInfoManager.obj
 0001:000041d9       __catch$??1CGlobalInfoManager@@UAE@XZ$6 004051d9 f   GlobalInfoManager.obj
 0001:00004265       __catch$??1CGlobalInfoManager@@UAE@XZ$8 00405265 f   GlobalInfoManager.obj
 0001:000042f9       __catch$??1CGlobalInfoManager@@UAE@XZ$10 004052f9 f   GlobalInfoManager.obj
 0001:0000438d       __catch$??1CGlobalInfoManager@@UAE@XZ$12 0040538d f   GlobalInfoManager.obj
 0001:0000441e       __catch$??1CGlobalInfoManager@@UAE@XZ$14 0040541e f   GlobalInfoManager.obj
 0001:00005057       __catch$?CreateGlobalUserItem@CGlobalInfoManager@@AAEPAVCGlobalUserItem@@XZ$0 00406057 f   GlobalInfoManager.obj
 0001:00005157       __catch$?CreateGlobalPlazaItem@CGlobalInfoManager@@AAEPAVCGlobalPlazaItem@@XZ$0 00406157 f   GlobalInfoManager.obj
 0001:00005257       __catch$?CreateGlobalServerItem@CGlobalInfoManager@@AAEPAVCGlobalServerItem@@XZ$0 00406257 f   GlobalInfoManager.obj
 0001:0000534e       __catch$?CreateGlobalChatItem@CGlobalInfoManager@@AAEPAVCGlobalChatItem@@XZ$0 0040634e f   GlobalInfoManager.obj
 0001:000078e8       $LN12                      004088e8     ServiceUnits.obj
 0001:000084fb       __catch$?CreateInstance@?$CTempldateHelper@UIAttemperEngine@@@@QAE_NXZ$0 004094fb f i ServiceUnits.obj
 0001:0000852a       __catch$?CreateInstance@?$CTempldateHelper@UIAttemperEngine@@@@QAE_NXZ$1 0040952a f i ServiceUnits.obj
 0001:000086db       __catch$?CreateInstance@?$CTempldateHelper@UITCPNetworkEngine@@@@QAE_NXZ$0 004096db f i ServiceUnits.obj
 0001:0000870a       __catch$?CreateInstance@?$CTempldateHelper@UITCPNetworkEngine@@@@QAE_NXZ$1 0040970a f i ServiceUnits.obj
 0001:000088bb       __catch$?CreateInstance@?$CTempldateHelper@UITimerEngine@@@@QAE_NXZ$0 004098bb f i ServiceUnits.obj
 0001:000088ea       __catch$?CreateInstance@?$CTempldateHelper@UITimerEngine@@@@QAE_NXZ$1 004098ea f i ServiceUnits.obj
 0001:00008ef4       ?pre_c_initialization@@YAHXZ 00409ef4 f   msvcrt:exe_wwinmain.obj
 0001:00008f98       ?post_pgo_initialization@@YAHXZ 00409f98 f   msvcrt:exe_wwinmain.obj
 0001:00008fa0       ?pre_cpp_initialization@@YAXXZ 00409fa0 f   msvcrt:exe_wwinmain.obj
 0001:00008fb4       ?__scrt_common_main_seh@@YAHXZ 00409fb4 f   msvcrt:exe_wwinmain.obj
 0001:00009134       ?find_pe_section@@YAPAU_IMAGE_SECTION_HEADER@@QAEI@Z 0040a134 f   msvcrt:utility.obj
 0001:000093b0       $$000000                   0040a3b0     msvcrt:chkstk.obj
 0001:00009400       ?__scrt_initialize_thread_safe_statics@@YAHXZ 0040a400 f   msvcrt:thread_safe_statics.obj
 0001:000094dd       ?__scrt_uninitialize_thread_safe_statics@@YAXXZ 0040a4dd f   msvcrt:thread_safe_statics.obj
 0001:00009500       $$000000                   0040a500     msvcrt:_sehprolg4_.obj
 0001:00009560       $$000000                   0040a560     msvcrt:_sehprolg4gs_.obj
 0001:00009d90       __unwindfunclet$??0CAttemperEngineSink@@QAE@XZ$0 0040ad90 f   AttemperEngineSink.obj
 0001:00009d9b       __ehhandler$??0CAttemperEngineSink@@QAE@XZ 0040ad9b f   AttemperEngineSink.obj
 0001:00009db6       __ehhandler$?OnAttemperEngineConclude@CAttemperEngineSink@@UAE_NPAUIUnknownEx@@@Z 0040adb6 f   AttemperEngineSink.obj
 0001:00009de0       __ehhandler$?_Reallocate@?$vector@UtagLogUserInfo@@V?$allocator@UtagLogUserInfo@@@std@@@std@@IAEXI@Z 0040ade0 f   AttemperEngineSink.obj
 0001:00009e00       __ehhandler$?_Reallocate@?$vector@UtagOtherServerLogInfo@@V?$allocator@UtagOtherServerLogInfo@@@std@@@std@@IAEXI@Z 0040ae00 f   AttemperEngineSink.obj
 0001:00009e20       __unwindfunclet$?InitInstance@CLogServerApp@@UAEHXZ$0 0040ae20 f   LogServer.obj
 0001:00009e2b       __ehhandler$?InitInstance@CLogServerApp@@UAEHXZ 0040ae2b f   LogServer.obj
 0001:00009e60       __unwindfunclet$??0CLogServerDlg@@QAE@XZ$0 0040ae60 f   LogServerServerDlg.obj
 0001:00009e68       __unwindfunclet$??0CLogServerDlg@@QAE@XZ$1 0040ae68 f   LogServerServerDlg.obj
 0001:00009e76       __ehhandler$??0CLogServerDlg@@QAE@XZ 0040ae76 f   LogServerServerDlg.obj
 0001:00009e91       __ehhandler$?OnBnClickedStartService@CLogServerDlg@@IAEXXZ 0040ae91 f   LogServerServerDlg.obj
 0001:00009eac       __ehhandler$?OnBnClickedStopService@CLogServerDlg@@IAEXXZ 0040aeac f   LogServerServerDlg.obj
 0001:00009ed0       __unwindfunclet$??0CGlobalServerItem@@IAE@XZ$0 0040aed0 f   GlobalInfoManager.obj
 0001:00009ede       __ehhandler$??0CGlobalServerItem@@IAE@XZ 0040aede f   GlobalInfoManager.obj
 0001:00009ef9       __unwindfunclet$??0CGlobalInfoManager@@QAE@XZ$0 0040aef9 f   GlobalInfoManager.obj
 0001:00009f04       __unwindfunclet$??0CGlobalInfoManager@@QAE@XZ$1 0040af04 f   GlobalInfoManager.obj
 0001:00009f0f       __unwindfunclet$??0CGlobalInfoManager@@QAE@XZ$2 0040af0f f   GlobalInfoManager.obj
 0001:00009f1a       __unwindfunclet$??0CGlobalInfoManager@@QAE@XZ$3 0040af1a f   GlobalInfoManager.obj
 0001:00009f25       __unwindfunclet$??0CGlobalInfoManager@@QAE@XZ$4 0040af25 f   GlobalInfoManager.obj
 0001:00009f30       __unwindfunclet$??0CGlobalInfoManager@@QAE@XZ$5 0040af30 f   GlobalInfoManager.obj
 0001:00009f3e       __ehhandler$??0CGlobalInfoManager@@QAE@XZ 0040af3e f   GlobalInfoManager.obj
 0001:00009f59       __unwindfunclet$??1CGlobalInfoManager@@UAE@XZ$16 0040af59 f   GlobalInfoManager.obj
 0001:00009f64       __unwindfunclet$??1CGlobalInfoManager@@UAE@XZ$17 0040af64 f   GlobalInfoManager.obj
 0001:00009f6f       __unwindfunclet$??1CGlobalInfoManager@@UAE@XZ$18 0040af6f f   GlobalInfoManager.obj
 0001:00009f7a       __unwindfunclet$??1CGlobalInfoManager@@UAE@XZ$19 0040af7a f   GlobalInfoManager.obj
 0001:00009f85       __unwindfunclet$??1CGlobalInfoManager@@UAE@XZ$20 0040af85 f   GlobalInfoManager.obj
 0001:00009f90       __unwindfunclet$??1CGlobalInfoManager@@UAE@XZ$21 0040af90 f   GlobalInfoManager.obj
 0001:00009f9e       __ehhandler$??1CGlobalInfoManager@@UAE@XZ 0040af9e f   GlobalInfoManager.obj
 0001:00009fbc       __unwindfunclet$?CreateGlobalUserItem@CGlobalInfoManager@@AAEPAVCGlobalUserItem@@XZ$2 0040afbc f   GlobalInfoManager.obj
 0001:00009fce       __ehhandler$?CreateGlobalUserItem@CGlobalInfoManager@@AAEPAVCGlobalUserItem@@XZ 0040afce f   GlobalInfoManager.obj
 0001:00009fe9       __unwindfunclet$?CreateGlobalPlazaItem@CGlobalInfoManager@@AAEPAVCGlobalPlazaItem@@XZ$2 0040afe9 f   GlobalInfoManager.obj
 0001:00009ffb       __ehhandler$?CreateGlobalPlazaItem@CGlobalInfoManager@@AAEPAVCGlobalPlazaItem@@XZ 0040affb f   GlobalInfoManager.obj
 0001:0000a016       __unwindfunclet$?CreateGlobalServerItem@CGlobalInfoManager@@AAEPAVCGlobalServerItem@@XZ$2 0040b016 f   GlobalInfoManager.obj
 0001:0000a028       __ehhandler$?CreateGlobalServerItem@CGlobalInfoManager@@AAEPAVCGlobalServerItem@@XZ 0040b028 f   GlobalInfoManager.obj
 0001:0000a043       __unwindfunclet$?CreateGlobalChatItem@CGlobalInfoManager@@AAEPAVCGlobalChatItem@@XZ$2 0040b043 f   GlobalInfoManager.obj
 0001:0000a052       __ehhandler$?CreateGlobalChatItem@CGlobalInfoManager@@AAEPAVCGlobalChatItem@@XZ 0040b052 f   GlobalInfoManager.obj
 0001:0000a070       __unwindfunclet$?NewAssoc@?$CMap@GGPAVCGlobalServerItem@@PAV1@@@IAEPAVCAssoc@1@G@Z$0 0040b070 f   GlobalInfoManager.obj
 0001:0000a070       __unwindfunclet$?NewAssoc@?$CMap@KKPAVCGlobalUserItem@@PAV1@@@IAEPAVCAssoc@1@K@Z$0 0040b070 f   GlobalInfoManager.obj
 0001:0000a070       __unwindfunclet$?NewAssoc@?$CMap@GGPAVCGlobalPlazaItem@@PAV1@@@IAEPAVCAssoc@1@G@Z$0 0040b070 f   GlobalInfoManager.obj
 0001:0000a070       __unwindfunclet$?NewAssoc@?$CMap@GGPAVCGlobalChatItem@@PAV1@@@IAEPAVCAssoc@1@G@Z$0 0040b070 f   GlobalInfoManager.obj
 0001:0000a081       __ehhandler$?NewAssoc@?$CMap@GGPAVCGlobalPlazaItem@@PAV1@@@IAEPAVCAssoc@1@G@Z 0040b081 f   GlobalInfoManager.obj
 0001:0000a081       __ehhandler$?NewAssoc@?$CMap@GGPAVCGlobalServerItem@@PAV1@@@IAEPAVCAssoc@1@G@Z 0040b081 f   GlobalInfoManager.obj
 0001:0000a081       __ehhandler$?NewAssoc@?$CMap@GGPAVCGlobalChatItem@@PAV1@@@IAEPAVCAssoc@1@G@Z 0040b081 f   GlobalInfoManager.obj
 0001:0000a081       __ehhandler$?NewAssoc@?$CMap@KKPAVCGlobalUserItem@@PAV1@@@IAEPAVCAssoc@1@K@Z 0040b081 f   GlobalInfoManager.obj
 0001:0000a0a0       __unwindfunclet$?LoadInitParameter@CInitParameter@@QAEXXZ$0 0040b0a0 f   InitParameter.obj
 0001:0000a0ac       __ehhandler$?LoadInitParameter@CInitParameter@@QAEXXZ 0040b0ac f   InitParameter.obj
 0001:0000a0e0       __unwindfunclet$??0CServiceUnits@@QAE@XZ$0 0040b0e0 f   ServiceUnits.obj
 0001:0000a0ec       __unwindfunclet$??0CServiceUnits@@QAE@XZ$1 0040b0ec f   ServiceUnits.obj
 0001:0000a0f7       __unwindfunclet$??0CServiceUnits@@QAE@XZ$2 0040b0f7 f   ServiceUnits.obj
 0001:0000a102       __unwindfunclet$??0CServiceUnits@@QAE@XZ$3 0040b102 f   ServiceUnits.obj
 0001:0000a110       __unwindfunclet$??0CServiceUnits@@QAE@XZ$4 0040b110 f   ServiceUnits.obj
 0001:0000a11e       __unwindfunclet$??0CServiceUnits@@QAE@XZ$5 0040b11e f   ServiceUnits.obj
 0001:0000a12c       __ehhandler$??0CServiceUnits@@QAE@XZ 0040b12c f   ServiceUnits.obj
 0001:0000a147       __ehhandler$??1CServiceUnits@@UAE@XZ 0040b147 f   ServiceUnits.obj
 0001:0000a170       __unwindfunclet$??0CCriticalSection@@QAE@XZ$0 0040b170 f   ServiceUnits.obj
 0001:0000a178       __ehhandler$??0CCriticalSection@@QAE@XZ 0040b178 f   ServiceUnits.obj
 0001:0000a1a0       __ehhandler$??1?$vector@UtagLogUserInfo@@V?$allocator@UtagLogUserInfo@@@std@@@std@@QAE@XZ 0040b1a0 f   AttemperEngineSink.obj
 0001:0000a1a0       __ehhandler$??1?$CMap@GGPAVCGlobalPlazaItem@@PAV1@@@UAE@XZ 0040b1a0 f   GlobalInfoManager.obj
 0001:0000a1a0       __ehhandler$??1?$CTempldateHelper@UITimerEngine@@@@UAE@XZ 0040b1a0 f   ServiceUnits.obj
 0001:0000a1a0       __ehhandler$??0?$vector@UtagLogUserInfo@@V?$allocator@UtagLogUserInfo@@@std@@@std@@QAE@XZ 0040b1a0 f   AttemperEngineSink.obj
 0001:0000a1a0       __ehhandler$??1?$vector@UtagOtherServerLogInfo@@V?$allocator@UtagOtherServerLogInfo@@@std@@@std@@QAE@XZ 0040b1a0 f   AttemperEngineSink.obj
 0001:0000a1a0       __ehhandler$??0?$vector@UtagOtherServerLogInfo@@V?$allocator@UtagOtherServerLogInfo@@@std@@@std@@QAE@XZ 0040b1a0 f   AttemperEngineSink.obj
 0001:0000a1a0       __ehhandler$??1?$CMap@GGPAVCGlobalServerItem@@PAV1@@@UAE@XZ 0040b1a0 f   GlobalInfoManager.obj
 0001:0000a1a0       __ehhandler$??1?$CMap@KKPAVCGlobalUserItem@@PAV1@@@UAE@XZ 0040b1a0 f   GlobalInfoManager.obj
 0001:0000a1a0       __ehhandler$??1?$CTempldateHelper@UITCPNetworkEngine@@@@UAE@XZ 0040b1a0 f   ServiceUnits.obj
 0001:0000a1a0       __ehhandler$??1?$CTempldateHelper@UIAttemperEngine@@@@UAE@XZ 0040b1a0 f   ServiceUnits.obj
 0001:0000a1a0       __ehhandler$??1?$CMap@GGPAVCGlobalChatItem@@PAV1@@@UAE@XZ 0040b1a0 f   GlobalInfoManager.obj
 0001:0000a1c0       __ehhandler$?CreateInstance@?$CTempldateHelper@UIAttemperEngine@@@@QAE_NXZ 0040b1c0 f   ServiceUnits.obj
 0001:0000a1e0       __ehhandler$?CreateInstance@?$CTempldateHelper@UITCPNetworkEngine@@@@QAE_NXZ 0040b1e0 f   ServiceUnits.obj
 0001:0000a200       __ehhandler$?CreateInstance@?$CTempldateHelper@UITimerEngine@@@@QAE_NXZ 0040b200 f   ServiceUnits.obj
 0001:0000a220       ??__Fg_vecGameServerLogFirst@@YAXXZ 0040b220 f   AttemperEngineSink.obj
 0001:0000a230       ??__Fg_vecGameServerLogSecond@@YAXXZ 0040b230 f   AttemperEngineSink.obj
 0001:0000a240       ??__Fg_vecGameServerLogThird@@YAXXZ 0040b240 f   AttemperEngineSink.obj
 0001:0000a250       ??__Fg_vecOtherServerLogFirst@@YAXXZ 0040b250 f   AttemperEngineSink.obj
 0001:0000a260       ??__Fg_vecOtherServerLogSecond@@YAXXZ 0040b260 f   AttemperEngineSink.obj
 0001:0000a270       ??__Fg_vecOtherServerLogThird@@YAXXZ 0040b270 f   AttemperEngineSink.obj
 0001:0000a280       ??__FtheApp@@YAXXZ         0040b280 f   LogServer.obj
 0001:0000a28f       ??__F_AtlBaseModule@ATL@@YAXXZ 0040b28f f   atls:atlbase.obj
 0002:0000046c       ?pre_cpp_initializer@@3P6AXXZA 0040c46c     msvcrt:exe_wwinmain.obj
 0002:00000470       ?_AtlBaseModule$initializer$@ATL@@3P6AXXZA 0040c470     atls:atlbase.obj
 0002:00000474       ?_afxInitAppState$initializer$@@3P6AXXZA 0040c474     mfcs140u:appmodul.obj
 0002:00000478       ?g_vecOtherServerLogFirst$initializer$@@3P6AXXZA 0040c478     AttemperEngineSink.obj
 0002:0000047c       ?g_vecOtherServerLogSecond$initializer$@@3P6AXXZA 0040c47c     AttemperEngineSink.obj
 0002:00000480       ?g_vecOtherServerLogThird$initializer$@@3P6AXXZA 0040c480     AttemperEngineSink.obj
 0002:00000484       ?g_vecGameServerLogFirst$initializer$@@3P6AXXZA 0040c484     AttemperEngineSink.obj
 0002:00000488       ?g_vecGameServerLogSecond$initializer$@@3P6AXXZA 0040c488     AttemperEngineSink.obj
 0002:0000048c       ?g_vecGameServerLogThird$initializer$@@3P6AXXZA 0040c48c     AttemperEngineSink.obj
 0002:00000490       ?theApp$initializer$@@3P6AXXZA 0040c490     LogServer.obj
 0002:0000049c       ?pre_c_initializer@@3P6AHXZA 0040c49c     msvcrt:exe_wwinmain.obj
 0002:000004a0       ?post_pgo_initializer@@3P6AHXZA 0040c4a0     msvcrt:exe_wwinmain.obj
 0002:000004a4       ?__scrt_initialize_tss_var@@3P6AHXZA 0040c4a4     msvcrt:thread_safe_statics.obj
 0002:000004d0       $SG231608                  0040c4d0     AttemperEngineSink.obj
 0002:00000510       $SG231609                  0040c510     AttemperEngineSink.obj
 0002:00000518       $SG231611                  0040c518     AttemperEngineSink.obj
 0002:0000051c       $SG231612                  0040c51c     AttemperEngineSink.obj
 0002:0000052c       $SG231613                  0040c52c     AttemperEngineSink.obj
 0002:0000056c       $SG231614                  0040c56c     AttemperEngineSink.obj
 0002:00000574       $SG231615                  0040c574     AttemperEngineSink.obj
 0002:0000057c       $SG231671                  0040c57c     AttemperEngineSink.obj
 0002:00000580       $SG231617                  0040c580     AttemperEngineSink.obj
 0002:000005d0       $SG231626                  0040c5d0     AttemperEngineSink.obj
 0002:00000628       $SG231629                  0040c628     AttemperEngineSink.obj
 0002:00000680       $SG231631                  0040c680     AttemperEngineSink.obj
 0002:000006d8       $SG231649                  0040c6d8     AttemperEngineSink.obj
 0002:00000730       $SG231667                  0040c730     AttemperEngineSink.obj
 0002:000007a0       $SG231668                  0040c7a0     AttemperEngineSink.obj
 0002:000007a8       $SG231669                  0040c7a8     AttemperEngineSink.obj
 0002:000007b0       $SG231672                  0040c7b0     AttemperEngineSink.obj
 0002:000007c0       $SG231673                  0040c7c0     AttemperEngineSink.obj
 0002:000007e8       $SG231674                  0040c7e8     AttemperEngineSink.obj
 0002:00000824       $SG231677                  0040c824     AttemperEngineSink.obj
 0002:0000082c       $SG231885                  0040c82c     AttemperEngineSink.obj
 0002:00000858       $SG231675                  0040c858     AttemperEngineSink.obj
 0002:0000089c       ?IID_IAttemperEngineSink@@3U_GUID@@B 0040c89c     AttemperEngineSink.obj
 0002:000008ac       $SG231886                  0040c8ac     AttemperEngineSink.obj
 0002:000008d8       $SG231676                  0040c8d8     AttemperEngineSink.obj
 0002:00000948       $SG231681                  0040c948     AttemperEngineSink.obj
 0002:00000994       $SG231905                  0040c994     AttemperEngineSink.obj
 0002:000009c0       $SG231682                  0040c9c0     AttemperEngineSink.obj
 0002:00000a70       $SG231691                  0040ca70     AttemperEngineSink.obj
 0002:00000ac8       $SG231694                  0040cac8     AttemperEngineSink.obj
 0002:00000b20       $SG231696                  0040cb20     AttemperEngineSink.obj
 0002:00000b78       $SG231713                  0040cb78     AttemperEngineSink.obj
 0002:00000bdc       $SG231906                  0040cbdc     AttemperEngineSink.obj
 0002:00000c08       $SG231714                  0040cc08     AttemperEngineSink.obj
 0002:00000c6c       $SG231907                  0040cc6c     AttemperEngineSink.obj
 0002:00000c98       $SG231717                  0040cc98     AttemperEngineSink.obj
 0002:00000cf0       $SG231911                  0040ccf0     AttemperEngineSink.obj
 0002:00000d1c       $SG231914                  0040cd1c     AttemperEngineSink.obj
 0002:00000d48       $SG231916                  0040cd48     AttemperEngineSink.obj
 0002:00000d74       $SG231917                  0040cd74     AttemperEngineSink.obj
 0002:00000da0       ?IID_IUnknownEx@@3U_GUID@@B 0040cda0     AttemperEngineSink.obj
 0002:00000e54       ?szProduct@@3QB_WB         0040ce54     LogServer.obj
 0002:00000f84       ?_messageEntries@?1??GetThisMessageMap@CLogServerApp@@KGPBUAFX_MSGMAP@@XZ@4QBUAFX_MSGMAP_ENTRY@@B 0040cf84     LogServer.obj
 0002:00000f9c       ?messageMap@?1??GetThisMessageMap@CLogServerApp@@KGPBUAFX_MSGMAP@@XZ@4U3@B 0040cf9c     LogServer.obj
 0002:00000fa4       $SG230075                  0040cfa4     LogServerServerDlg.obj
 0002:00000fc4       $SG230084                  0040cfc4     LogServerServerDlg.obj
 0002:00000ff4       $SG230101                  0040cff4     LogServerServerDlg.obj
 0002:00001014       $SG230102                  0040d014     LogServerServerDlg.obj
 0002:00001024       $SG230104                  0040d024     LogServerServerDlg.obj
 0002:00001048       $SG230105                  0040d048     LogServerServerDlg.obj
 0002:00001060       $SG230107                  0040d060     LogServerServerDlg.obj
 0002:00001080       $SG230108                  0040d080     LogServerServerDlg.obj
 0002:00001090       $SG230121                  0040d090     LogServerServerDlg.obj
 0002:00001268       ?_messageEntries@?1??GetThisMessageMap@CLogServerDlg@@KGPBUAFX_MSGMAP@@XZ@4QBUAFX_MSGMAP_ENTRY@@B 0040d268     LogServerServerDlg.obj
 0002:000013e8       ?messageMap@?1??GetThisMessageMap@CLogServerDlg@@KGPBUAFX_MSGMAP@@XZ@4U3@B 0040d3e8     LogServerServerDlg.obj
 0002:000013f0       $SG229833                  0040d3f0     GlobalInfoManager.obj
 0002:00001484       $SG229065                  0040d484     InitParameter.obj
 0002:00001488       $SG229066                  0040d488     InitParameter.obj
 0002:0000148c       $SG229067                  0040d48c     InitParameter.obj
 0002:000014bc       $SG229068                  0040d4bc     InitParameter.obj
 0002:000014d4       $SG229069                  0040d4d4     InitParameter.obj
 0002:000014e8       $SG229070                  0040d4e8     InitParameter.obj
 0002:00001500       $SG229071                  0040d500     InitParameter.obj
 0002:00001514       $SG229072                  0040d514     InitParameter.obj
 0002:0000152c       $SG229073                  0040d52c     InitParameter.obj
 0002:00001550       ?IID_ITCPNetworkEngine@@3U_GUID@@B 0040d550     ServiceUnits.obj
 0002:00001560       ?IID_ITimerEngine@@3U_GUID@@B 0040d560     ServiceUnits.obj
 0002:00001570       ?szCompilation@@3QB_WB     0040d570     ServiceUnits.obj
 0002:000015bc       ?IID_IAttemperEngine@@3U_GUID@@B 0040d5bc     ServiceUnits.obj
 0002:000015cc       $SG229985                  0040d5cc     ServiceUnits.obj
 0002:000015dc       $SG230026                  0040d5dc     ServiceUnits.obj
 0002:000015f4       $SG230028                  0040d5f4     ServiceUnits.obj
 0002:00001618       $SG230030                  0040d618     ServiceUnits.obj
 0002:00001638       $SG230032                  0040d638     ServiceUnits.obj
 0002:00001654       $SG230034                  0040d654     ServiceUnits.obj
 0002:00001688       $SG230056                  0040d688     ServiceUnits.obj
 0002:000016a0       $SG230058                  0040d6a0     ServiceUnits.obj
 0002:000016c4       $SG230060                  0040d6c4     ServiceUnits.obj
 0002:000016e4       $SG230061                  0040d6e4     ServiceUnits.obj
 0002:00001700       $SG230063                  0040d700     ServiceUnits.obj
 0002:00001734       ?IID_IUnknownEx@@3U_GUID@@B 0040d734     ServiceUnits.obj
 0002:00001744       $SG230085                  0040d744     ServiceUnits.obj
 0002:0000175c       $SG230087                  0040d75c     ServiceUnits.obj
 0002:00001780       $SG230089                  0040d780     ServiceUnits.obj
 0002:000017a0       $SG230090                  0040d7a0     ServiceUnits.obj
 0002:000017bc       $SG230092                  0040d7bc     ServiceUnits.obj
 0002:000018b4       $SG65536                   0040d8b4     Stdafx.obj
 0002:000018bc       $SG65537                   0040d8bc     Stdafx.obj
 0002:000018c8       $SG65538                   0040d8c8     Stdafx.obj
 0002:000018d0       $SG65539                   0040d8d0     Stdafx.obj
 0002:000018dc       $SG65540                   0040d8dc     Stdafx.obj
 0002:000018e4       $SG65541                   0040d8e4     Stdafx.obj
 0002:000018f0       $SG65542                   0040d8f0     Stdafx.obj
 0002:000018f8       $SG65543                   0040d8f8     Stdafx.obj
 0002:00001904       $SG65544                   0040d904     Stdafx.obj
 0002:0000190c       $SG65545                   0040d90c     Stdafx.obj
 0002:00001918       $SG65546                   0040d918     Stdafx.obj
 0002:00001924       $SG64522                   0040d924     Stdafx.obj
 0002:00001944       $SG65547                   0040d944     Stdafx.obj
 0002:0000194c       $SG65548                   0040d94c     Stdafx.obj
 0002:00001958       $SG65549                   0040d958     Stdafx.obj
 0002:00001960       $SG114702                  0040d960     Stdafx.obj
 0002:0000196c       $SG65550                   0040d96c     Stdafx.obj
 0002:00001978       $SG114703                  0040d978     Stdafx.obj
 0002:00001984       $SG65551                   0040d984     Stdafx.obj
 0002:0000198c       $SG114704                  0040d98c     Stdafx.obj
 0002:000019b8       $SG65552                   0040d9b8     Stdafx.obj
 0002:000019c4       $SG114705                  0040d9c4     Stdafx.obj
 0002:000019d8       $SG65553                   0040d9d8     Stdafx.obj
 0002:000019e0       $SG114706                  0040d9e0     Stdafx.obj
 0002:000019f4       $SG65554                   0040d9f4     Stdafx.obj
 0002:00001a00       $SG114707                  0040da00     Stdafx.obj
 0002:00001a14       $SG65555                   0040da14     Stdafx.obj
 0002:00001a1c       $SG114708                  0040da1c     Stdafx.obj
 0002:00001a28       $SG65556                   0040da28     Stdafx.obj
 0002:00001a30       $SG114709                  0040da30     Stdafx.obj
 0002:00001a38       $SG65557                   0040da38     Stdafx.obj
 0002:00001a48       $SG114710                  0040da48     Stdafx.obj
 0002:00001a5c       $SG65558                   0040da5c     Stdafx.obj
 0002:00001a68       $SG114711                  0040da68     Stdafx.obj
 0002:00001a78       $SG65559                   0040da78     Stdafx.obj
 0002:00001a80       $SG114712                  0040da80     Stdafx.obj
 0002:00001a94       $SG65560                   0040da94     Stdafx.obj
 0002:00001aa0       $SG114713                  0040daa0     Stdafx.obj
 0002:00001ab0       $SG65561                   0040dab0     Stdafx.obj
 0002:00001ab8       $SG65562                   0040dab8     Stdafx.obj
 0002:00001ac4       $SG65563                   0040dac4     Stdafx.obj
 0002:00001acc       $SG65564                   0040dacc     Stdafx.obj
 0002:00001ad8       $SG65565                   0040dad8     Stdafx.obj
 0002:00001ae4       $SG65566                   0040dae4     Stdafx.obj
 0002:00001aec       $SG65567                   0040daec     Stdafx.obj
 0002:00001af8       $SG65568                   0040daf8     Stdafx.obj
 0002:00001b04       $SG65569                   0040db04     Stdafx.obj
 0002:00001b0c       $SG65570                   0040db0c     Stdafx.obj
 0002:00001b18       $SG65571                   0040db18     Stdafx.obj
 0002:00001b20       $SG65572                   0040db20     Stdafx.obj
 0002:00001b2c       $SG65573                   0040db2c     Stdafx.obj
 0002:00001b34       $SG65574                   0040db34     Stdafx.obj
 0002:00001b40       $SG65575                   0040db40     Stdafx.obj
 0002:00001b4c       $SG65576                   0040db4c     Stdafx.obj
 0002:00001b58       $SG65577                   0040db58     Stdafx.obj
 0002:00001b64       $SG65578                   0040db64     Stdafx.obj
 0002:00001b6c       $SG65579                   0040db6c     Stdafx.obj
 0002:00001b78       $SG65580                   0040db78     Stdafx.obj
 0002:00001b84       $SG65581                   0040db84     Stdafx.obj
 0002:00001b90       $SG65582                   0040db90     Stdafx.obj
 0002:00001b98       $SG65583                   0040db98     Stdafx.obj
 0002:00001ba4       $SG65584                   0040dba4     Stdafx.obj
 0002:00001bac       $SG65585                   0040dbac     Stdafx.obj
 0002:00001bb8       $SG65586                   0040dbb8     Stdafx.obj
 0002:00001bc0       $SG65587                   0040dbc0     Stdafx.obj
 0002:00001bcc       $SG65588                   0040dbcc     Stdafx.obj
 0002:00001bd4       $SG65589                   0040dbd4     Stdafx.obj
 0002:00001be0       $SG65590                   0040dbe0     Stdafx.obj
 0002:00001bec       $SG65591                   0040dbec     Stdafx.obj
 0002:00001bfc       $SG65592                   0040dbfc     Stdafx.obj
 0002:00001c0c       $SG65593                   0040dc0c     Stdafx.obj
 0002:00001c1c       $SG64569                   0040dc1c     Stdafx.obj
 0002:00001c3c       $SG65594                   0040dc3c     Stdafx.obj
 0002:00001c44       $SG65595                   0040dc44     Stdafx.obj
 0002:00001c50       $SG65596                   0040dc50     Stdafx.obj
 0002:00001c58       $SG65597                   0040dc58     Stdafx.obj
 0002:00001c64       $SG65598                   0040dc64     Stdafx.obj
 0002:00001c6c       ?IID_IUDPNetworkEngine@@3U_GUID@@B 0040dc6c     Stdafx.obj
 0002:00001c7c       $SG65599                   0040dc7c     Stdafx.obj
 0002:00001c88       $SG65600                   0040dc88     Stdafx.obj
 0002:00001c94       $SG65601                   0040dc94     Stdafx.obj
 0002:00001ca0       $SG65602                   0040dca0     Stdafx.obj
 0002:00001cac       $SG65603                   0040dcac     Stdafx.obj
 0002:00001cb4       $SG65604                   0040dcb4     Stdafx.obj
 0002:00001cc0       $SG65605                   0040dcc0     Stdafx.obj
 0002:00001cc8       $SG65606                   0040dcc8     Stdafx.obj
 0002:00001cd4       $SG65607                   0040dcd4     Stdafx.obj
 0002:00001ce4       $SG65608                   0040dce4     Stdafx.obj
 0002:00001cf4       $SG65609                   0040dcf4     Stdafx.obj
 0002:00001d04       $SG65610                   0040dd04     Stdafx.obj
 0002:00001d14       $SG65611                   0040dd14     Stdafx.obj
 0002:00001d24       $SG65612                   0040dd24     Stdafx.obj
 0002:00001d34       $SG65613                   0040dd34     Stdafx.obj
 0002:00001d3c       $SG65614                   0040dd3c     Stdafx.obj
 0002:00001d48       $SG65615                   0040dd48     Stdafx.obj
 0002:00001d50       $SG65616                   0040dd50     Stdafx.obj
 0002:00001d68       $SG65617                   0040dd68     Stdafx.obj
 0002:00001d80       $SG65618                   0040dd80     Stdafx.obj
 0002:00001d98       $SG65619                   0040dd98     Stdafx.obj
 0002:00001db0       $SG65620                   0040ddb0     Stdafx.obj
 0002:00001db8       $SG65621                   0040ddb8     Stdafx.obj
 0002:00001dc4       $SG65622                   0040ddc4     Stdafx.obj
 0002:00001dd0       $SG65623                   0040ddd0     Stdafx.obj
 0002:00001dd8       $SG65624                   0040ddd8     Stdafx.obj
 0002:00001de4       $SG65625                   0040dde4     Stdafx.obj
 0002:00001dec       $SG65626                   0040ddec     Stdafx.obj
 0002:00001dfc       $SG65627                   0040ddfc     Stdafx.obj
 0002:00001e04       $SG65628                   0040de04     Stdafx.obj
 0002:00001e10       $SG65629                   0040de10     Stdafx.obj
 0002:00001e18       $SG65630                   0040de18     Stdafx.obj
 0002:00001e24       $SG65631                   0040de24     Stdafx.obj
 0002:00001e2c       $SG65632                   0040de2c     Stdafx.obj
 0002:00001e38       $SG65633                   0040de38     Stdafx.obj
 0002:00001e44       ?IID_ITCPNetworkEngine@@3U_GUID@@B 0040de44     Stdafx.obj
 0002:00001e54       $SG65634                   0040de54     Stdafx.obj
 0002:00001e5c       $SG65635                   0040de5c     Stdafx.obj
 0002:00001e68       $SG65636                   0040de68     Stdafx.obj
 0002:00001e70       $SG65637                   0040de70     Stdafx.obj
 0002:00001e7c       $SG65638                   0040de7c     Stdafx.obj
 0002:00001e84       $SG65639                   0040de84     Stdafx.obj
 0002:00001e90       $SG65640                   0040de90     Stdafx.obj
 0002:00001e98       $SG64616                   0040de98     Stdafx.obj
 0002:00001eb0       $SG65641                   0040deb0     Stdafx.obj
 0002:00001ebc       $SG65642                   0040debc     Stdafx.obj
 0002:00001ec4       $SG65643                   0040dec4     Stdafx.obj
 0002:00001edc       $SG65644                   0040dedc     Stdafx.obj
 0002:00001ef4       $SG65645                   0040def4     Stdafx.obj
 0002:00001efc       $SG64621                   0040defc     Stdafx.obj
 0002:00001f18       $SG65646                   0040df18     Stdafx.obj
 0002:00001f24       $SG65647                   0040df24     Stdafx.obj
 0002:00001f30       $SG65648                   0040df30     Stdafx.obj
 0002:00001f40       $SG65649                   0040df40     Stdafx.obj
 0002:00001f50       $SG65650                   0040df50     Stdafx.obj
 0002:00001f5c       $SG65651                   0040df5c     Stdafx.obj
 0002:00001f68       $SG65652                   0040df68     Stdafx.obj
 0002:00001f74       $SG65653                   0040df74     Stdafx.obj
 0002:00001f80       $SG65654                   0040df80     Stdafx.obj
 0002:00001f8c       $SG65655                   0040df8c     Stdafx.obj
 0002:00001f98       ?IID_ITCPSocketService@@3U_GUID@@B 0040df98     Stdafx.obj
 0002:00001fa8       $SG64668                   0040dfa8     Stdafx.obj
 0002:00001fcc       ?IID_IWEBSocketService@@3U_GUID@@B 0040dfcc     Stdafx.obj
 0002:00001fdc       $SG64715                   0040dfdc     Stdafx.obj
 0002:00001ff8       ?IID_ITimerEngine@@3U_GUID@@B 0040dff8     Stdafx.obj
 0002:00002008       ?IID_IAndroidUserItemSink@@3U_GUID@@B 0040e008     Stdafx.obj
 0002:00002018       $SG64762                   0040e018     Stdafx.obj
 0002:00002034       $SG63746                   0040e034     Stdafx.obj
 0002:00002054       ?IID_IGameServiceManager@@3U_GUID@@B 0040e054     Stdafx.obj
 0002:00002064       $SG63817                   0040e064     Stdafx.obj
 0002:0000207c       $SG114013                  0040e07c     Stdafx.obj
 0002:00002080       ?IID_IAttemperEngine@@3U_GUID@@B 0040e080     Stdafx.obj
 0002:00002090       $SG114015                  0040e090     Stdafx.obj
 0002:00002094       $SG114017                  0040e094     Stdafx.obj
 0002:00002098       $SG114019                  0040e098     Stdafx.obj
 0002:0000209c       $SG114021                  0040e09c     Stdafx.obj
 0002:000020a4       $SG114023                  0040e0a4     Stdafx.obj
 0002:000020bc       $SG114025                  0040e0bc     Stdafx.obj
 0002:000020d0       $SG114027                  0040e0d0     Stdafx.obj
 0002:000020e0       $SG63864                   0040e0e0     Stdafx.obj
 0002:000020f8       $SG63911                   0040e0f8     Stdafx.obj
 0002:0000211c       $SG63958                   0040e11c     Stdafx.obj
 0002:00002140       $SG86503                   0040e140     Stdafx.obj
 0002:00002164       $SG86505                   0040e164     Stdafx.obj
 0002:00002190       $SG64005                   0040e190     Stdafx.obj
 0002:000021b4       $SG64052                   0040e1b4     Stdafx.obj
 0002:000021d8       $SG64099                   0040e1d8     Stdafx.obj
 0002:000021f8       $SG64146                   0040e1f8     Stdafx.obj
 0002:0000221c       $SG65199                   0040e21c     Stdafx.obj
 0002:00002224       $SG65200                   0040e224     Stdafx.obj
 0002:0000222c       $SG65201                   0040e22c     Stdafx.obj
 0002:00002234       $SG65202                   0040e234     Stdafx.obj
 0002:00002244       $SG65203                   0040e244     Stdafx.obj
 0002:0000224c       $SG65204                   0040e24c     Stdafx.obj
 0002:00002254       $SG65205                   0040e254     Stdafx.obj
 0002:0000225c       $SG65206                   0040e25c     Stdafx.obj
 0002:00002264       $SG65207                   0040e264     Stdafx.obj
 0002:0000226c       $SG65208                   0040e26c     Stdafx.obj
 0002:00002274       $SG65209                   0040e274     Stdafx.obj
 0002:0000227c       $SG65210                   0040e27c     Stdafx.obj
 0002:00002284       $SG65211                   0040e284     Stdafx.obj
 0002:0000228c       $SG65212                   0040e28c     Stdafx.obj
 0002:00002294       $SG65213                   0040e294     Stdafx.obj
 0002:0000229c       $SG65214                   0040e29c     Stdafx.obj
 0002:000022a4       $SG65215                   0040e2a4     Stdafx.obj
 0002:000022ac       $SG65216                   0040e2ac     Stdafx.obj
 0002:000022b4       $SG65217                   0040e2b4     Stdafx.obj
 0002:000022bc       $SG64193                   0040e2bc     Stdafx.obj
 0002:000022e4       $SG65218                   0040e2e4     Stdafx.obj
 0002:000022ec       $SG65219                   0040e2ec     Stdafx.obj
 0002:000022f4       $SG65220                   0040e2f4     Stdafx.obj
 0002:000022fc       $SG65221                   0040e2fc     Stdafx.obj
 0002:00002304       $SG65222                   0040e304     Stdafx.obj
 0002:0000230c       $SG65223                   0040e30c     Stdafx.obj
 0002:00002314       $SG65224                   0040e314     Stdafx.obj
 0002:0000231c       $SG65225                   0040e31c     Stdafx.obj
 0002:00002324       $SG65226                   0040e324     Stdafx.obj
 0002:0000232c       $SG65227                   0040e32c     Stdafx.obj
 0002:00002334       $SG65228                   0040e334     Stdafx.obj
 0002:0000233c       $SG65229                   0040e33c     Stdafx.obj
 0002:00002344       $SG65230                   0040e344     Stdafx.obj
 0002:0000234c       $SG65231                   0040e34c     Stdafx.obj
 0002:00002354       $SG65232                   0040e354     Stdafx.obj
 0002:0000235c       $SG65233                   0040e35c     Stdafx.obj
 0002:00002364       $SG65234                   0040e364     Stdafx.obj
 0002:0000236c       $SG65235                   0040e36c     Stdafx.obj
 0002:00002374       $SG65236                   0040e374     Stdafx.obj
 0002:0000237c       $SG65237                   0040e37c     Stdafx.obj
 0002:00002384       $SG65238                   0040e384     Stdafx.obj
 0002:0000238c       $SG65239                   0040e38c     Stdafx.obj
 0002:00002394       $SG65240                   0040e394     Stdafx.obj
 0002:0000239c       $SG65241                   0040e39c     Stdafx.obj
 0002:000023a4       $SG65242                   0040e3a4     Stdafx.obj
 0002:000023ac       $SG65243                   0040e3ac     Stdafx.obj
 0002:000023b4       $SG65244                   0040e3b4     Stdafx.obj
 0002:000023bc       $SG65245                   0040e3bc     Stdafx.obj
 0002:000023c4       $SG65246                   0040e3c4     Stdafx.obj
 0002:000023cc       $SG65247                   0040e3cc     Stdafx.obj
 0002:000023d4       $SG65248                   0040e3d4     Stdafx.obj
 0002:000023dc       $SG65249                   0040e3dc     Stdafx.obj
 0002:000023e4       $SG65250                   0040e3e4     Stdafx.obj
 0002:000023ec       $SG65251                   0040e3ec     Stdafx.obj
 0002:000023f4       $SG65252                   0040e3f4     Stdafx.obj
 0002:000023fc       $SG65253                   0040e3fc     Stdafx.obj
 0002:00002404       $SG65254                   0040e404     Stdafx.obj
 0002:0000240c       $SG65255                   0040e40c     Stdafx.obj
 0002:00002414       $SG65256                   0040e414     Stdafx.obj
 0002:0000241c       $SG65257                   0040e41c     Stdafx.obj
 0002:00002424       $SG65258                   0040e424     Stdafx.obj
 0002:0000242c       $SG65259                   0040e42c     Stdafx.obj
 0002:00002434       $SG65260                   0040e434     Stdafx.obj
 0002:0000243c       $SG65261                   0040e43c     Stdafx.obj
 0002:00002444       $SG65262                   0040e444     Stdafx.obj
 0002:0000244c       $SG65263                   0040e44c     Stdafx.obj
 0002:00002454       $SG65264                   0040e454     Stdafx.obj
 0002:0000245c       $SG64240                   0040e45c     Stdafx.obj
 0002:0000247c       $SG65265                   0040e47c     Stdafx.obj
 0002:00002480       $SG65266                   0040e480     Stdafx.obj
 0002:0000248c       $SG65267                   0040e48c     Stdafx.obj
 0002:00002498       $SG65268                   0040e498     Stdafx.obj
 0002:000024a4       $SG65269                   0040e4a4     Stdafx.obj
 0002:000024b0       $SG65270                   0040e4b0     Stdafx.obj
 0002:000024bc       $SG65271                   0040e4bc     Stdafx.obj
 0002:000024c8       $SG65272                   0040e4c8     Stdafx.obj
 0002:000024d4       $SG65273                   0040e4d4     Stdafx.obj
 0002:000024e0       $SG65274                   0040e4e0     Stdafx.obj
 0002:000024ec       $SG65275                   0040e4ec     Stdafx.obj
 0002:000024f8       $SG65276                   0040e4f8     Stdafx.obj
 0002:00002504       $SG65277                   0040e504     Stdafx.obj
 0002:00002510       $SG65278                   0040e510     Stdafx.obj
 0002:0000251c       $SG65279                   0040e51c     Stdafx.obj
 0002:00002528       $SG65280                   0040e528     Stdafx.obj
 0002:00002534       $SG65281                   0040e534     Stdafx.obj
 0002:00002540       $SG65282                   0040e540     Stdafx.obj
 0002:0000254c       $SG65283                   0040e54c     Stdafx.obj
 0002:00002558       $SG65284                   0040e558     Stdafx.obj
 0002:00002564       $SG65285                   0040e564     Stdafx.obj
 0002:00002570       $SG65286                   0040e570     Stdafx.obj
 0002:0000257c       $SG65287                   0040e57c     Stdafx.obj
 0002:00002588       $SG65288                   0040e588     Stdafx.obj
 0002:00002594       $SG65289                   0040e594     Stdafx.obj
 0002:000025a0       $SG65290                   0040e5a0     Stdafx.obj
 0002:000025ac       $SG65291                   0040e5ac     Stdafx.obj
 0002:000025b8       $SG65292                   0040e5b8     Stdafx.obj
 0002:000025c4       $SG65293                   0040e5c4     Stdafx.obj
 0002:000025d0       $SG65294                   0040e5d0     Stdafx.obj
 0002:000025dc       $SG65295                   0040e5dc     Stdafx.obj
 0002:000025e8       $SG65296                   0040e5e8     Stdafx.obj
 0002:000025f4       $SG65297                   0040e5f4     Stdafx.obj
 0002:00002600       $SG65298                   0040e600     Stdafx.obj
 0002:0000260c       $SG65299                   0040e60c     Stdafx.obj
 0002:00002618       $SG65300                   0040e618     Stdafx.obj
 0002:00002624       $SG65301                   0040e624     Stdafx.obj
 0002:00002630       $SG65302                   0040e630     Stdafx.obj
 0002:0000263c       $SG65303                   0040e63c     Stdafx.obj
 0002:00002648       $SG65304                   0040e648     Stdafx.obj
 0002:00002654       $SG65305                   0040e654     Stdafx.obj
 0002:00002660       $SG65306                   0040e660     Stdafx.obj
 0002:00002678       $SG65307                   0040e678     Stdafx.obj
 0002:00002684       $SG65308                   0040e684     Stdafx.obj
 0002:00002690       $SG65309                   0040e690     Stdafx.obj
 0002:0000269c       $SG65310                   0040e69c     Stdafx.obj
 0002:000026a8       $SG65311                   0040e6a8     Stdafx.obj
 0002:000026b4       $SG64287                   0040e6b4     Stdafx.obj
 0002:000026d4       $SG65312                   0040e6d4     Stdafx.obj
 0002:000026e0       $SG65313                   0040e6e0     Stdafx.obj
 0002:000026ec       $SG65314                   0040e6ec     Stdafx.obj
 0002:000026f8       $SG65315                   0040e6f8     Stdafx.obj
 0002:00002704       $SG65316                   0040e704     Stdafx.obj
 0002:00002710       $SG65317                   0040e710     Stdafx.obj
 0002:0000271c       $SG65318                   0040e71c     Stdafx.obj
 0002:00002728       $SG65319                   0040e728     Stdafx.obj
 0002:00002734       $SG65320                   0040e734     Stdafx.obj
 0002:00002740       $SG65321                   0040e740     Stdafx.obj
 0002:0000274c       $SG65322                   0040e74c     Stdafx.obj
 0002:00002764       $SG65323                   0040e764     Stdafx.obj
 0002:00002770       $SG65324                   0040e770     Stdafx.obj
 0002:0000277c       $SG65325                   0040e77c     Stdafx.obj
 0002:00002788       $SG65326                   0040e788     Stdafx.obj
 0002:00002794       $SG65327                   0040e794     Stdafx.obj
 0002:000027a0       $SG65328                   0040e7a0     Stdafx.obj
 0002:000027ac       $SG65329                   0040e7ac     Stdafx.obj
 0002:000027b8       $SG65330                   0040e7b8     Stdafx.obj
 0002:000027c4       $SG65331                   0040e7c4     Stdafx.obj
 0002:000027d0       $SG65332                   0040e7d0     Stdafx.obj
 0002:000027dc       $SG65333                   0040e7dc     Stdafx.obj
 0002:000027e8       $SG65334                   0040e7e8     Stdafx.obj
 0002:000027f4       $SG65335                   0040e7f4     Stdafx.obj
 0002:00002800       $SG65336                   0040e800     Stdafx.obj
 0002:00002810       $SG65337                   0040e810     Stdafx.obj
 0002:00002820       $SG65338                   0040e820     Stdafx.obj
 0002:00002830       $SG65339                   0040e830     Stdafx.obj
 0002:00002840       $SG65340                   0040e840     Stdafx.obj
 0002:0000284c       $SG65341                   0040e84c     Stdafx.obj
 0002:00002858       $SG65342                   0040e858     Stdafx.obj
 0002:00002864       $SG65343                   0040e864     Stdafx.obj
 0002:00002870       $SG65344                   0040e870     Stdafx.obj
 0002:0000287c       $SG65345                   0040e87c     Stdafx.obj
 0002:00002888       $SG65346                   0040e888     Stdafx.obj
 0002:00002894       $SG65347                   0040e894     Stdafx.obj
 0002:000028a0       $SG65348                   0040e8a0     Stdafx.obj
 0002:000028ac       $SG65349                   0040e8ac     Stdafx.obj
 0002:000028b8       $SG65350                   0040e8b8     Stdafx.obj
 0002:000028c4       $SG65351                   0040e8c4     Stdafx.obj
 0002:000028d0       $SG65352                   0040e8d0     Stdafx.obj
 0002:000028e8       $SG65353                   0040e8e8     Stdafx.obj
 0002:000028f4       $SG65354                   0040e8f4     Stdafx.obj
 0002:0000290c       $SG65355                   0040e90c     Stdafx.obj
 0002:00002918       $SG65356                   0040e918     Stdafx.obj
 0002:00002924       $SG65357                   0040e924     Stdafx.obj
 0002:0000293c       $SG65358                   0040e93c     Stdafx.obj
 0002:0000294c       $SG64334                   0040e94c     Stdafx.obj
 0002:00002974       $SG65359                   0040e974     Stdafx.obj
 0002:00002980       $SG65360                   0040e980     Stdafx.obj
 0002:0000298c       $SG65361                   0040e98c     Stdafx.obj
 0002:00002998       $SG65362                   0040e998     Stdafx.obj
 0002:000029a4       $SG65363                   0040e9a4     Stdafx.obj
 0002:000029b0       $SG65364                   0040e9b0     Stdafx.obj
 0002:000029bc       $SG65365                   0040e9bc     Stdafx.obj
 0002:000029d4       $SG65366                   0040e9d4     Stdafx.obj
 0002:000029e0       $SG65367                   0040e9e0     Stdafx.obj
 0002:000029f0       $SG65368                   0040e9f0     Stdafx.obj
 0002:000029fc       $SG65369                   0040e9fc     Stdafx.obj
 0002:00002a08       $SG65370                   0040ea08     Stdafx.obj
 0002:00002a14       $SG65371                   0040ea14     Stdafx.obj
 0002:00002a20       $SG65372                   0040ea20     Stdafx.obj
 0002:00002a2c       $SG65373                   0040ea2c     Stdafx.obj
 0002:00002a38       $SG65374                   0040ea38     Stdafx.obj
 0002:00002a44       $SG65375                   0040ea44     Stdafx.obj
 0002:00002a54       $SG65376                   0040ea54     Stdafx.obj
 0002:00002a60       $SG65377                   0040ea60     Stdafx.obj
 0002:00002a6c       $SG65378                   0040ea6c     Stdafx.obj
 0002:00002a78       $SG65379                   0040ea78     Stdafx.obj
 0002:00002a84       $SG65380                   0040ea84     Stdafx.obj
 0002:00002a90       $SG65381                   0040ea90     Stdafx.obj
 0002:00002a9c       $SG65382                   0040ea9c     Stdafx.obj
 0002:00002ab4       $SG65383                   0040eab4     Stdafx.obj
 0002:00002ac4       $SG65384                   0040eac4     Stdafx.obj
 0002:00002ad0       $SG65385                   0040ead0     Stdafx.obj
 0002:00002adc       $SG65386                   0040eadc     Stdafx.obj
 0002:00002ae8       $SG65387                   0040eae8     Stdafx.obj
 0002:00002af4       $SG65388                   0040eaf4     Stdafx.obj
 0002:00002b0c       ?IID_ITraceServiceManager@@3U_GUID@@B 0040eb0c     Stdafx.obj
 0002:00002b1c       $SG65389                   0040eb1c     Stdafx.obj
 0002:00002b2c       $SG65390                   0040eb2c     Stdafx.obj
 0002:00002b38       $SG65391                   0040eb38     Stdafx.obj
 0002:00002b44       $SG65392                   0040eb44     Stdafx.obj
 0002:00002b50       $SG65393                   0040eb50     Stdafx.obj
 0002:00002b68       $SG65394                   0040eb68     Stdafx.obj
 0002:00002b78       $SG65395                   0040eb78     Stdafx.obj
 0002:00002b84       $SG65396                   0040eb84     Stdafx.obj
 0002:00002b90       $SG65397                   0040eb90     Stdafx.obj
 0002:00002b9c       $SG65398                   0040eb9c     Stdafx.obj
 0002:00002bac       $SG65399                   0040ebac     Stdafx.obj
 0002:00002bb8       $SG65400                   0040ebb8     Stdafx.obj
 0002:00002bc4       $SG65401                   0040ebc4     Stdafx.obj
 0002:00002bd0       $SG65402                   0040ebd0     Stdafx.obj
 0002:00002be0       $SG65403                   0040ebe0     Stdafx.obj
 0002:00002bec       $SG65404                   0040ebec     Stdafx.obj
 0002:00002bf8       $SG65405                   0040ebf8     Stdafx.obj
 0002:00002c04       $SG64381                   0040ec04     Stdafx.obj
 0002:00002c28       $SG65406                   0040ec28     Stdafx.obj
 0002:00002c34       $SG65407                   0040ec34     Stdafx.obj
 0002:00002c40       $SG65408                   0040ec40     Stdafx.obj
 0002:00002c4c       $SG65409                   0040ec4c     Stdafx.obj
 0002:00002c58       $SG65410                   0040ec58     Stdafx.obj
 0002:00002c64       $SG65411                   0040ec64     Stdafx.obj
 0002:00002c70       $SG65412                   0040ec70     Stdafx.obj
 0002:00002c7c       $SG65413                   0040ec7c     Stdafx.obj
 0002:00002c88       $SG65414                   0040ec88     Stdafx.obj
 0002:00002c94       $SG65415                   0040ec94     Stdafx.obj
 0002:00002ca0       $SG65416                   0040eca0     Stdafx.obj
 0002:00002cac       $SG65417                   0040ecac     Stdafx.obj
 0002:00002cb8       $SG65418                   0040ecb8     Stdafx.obj
 0002:00002cc4       $SG65419                   0040ecc4     Stdafx.obj
 0002:00002cd0       $SG65420                   0040ecd0     Stdafx.obj
 0002:00002cdc       $SG65421                   0040ecdc     Stdafx.obj
 0002:00002ce8       $SG65422                   0040ece8     Stdafx.obj
 0002:00002cf4       $SG65423                   0040ecf4     Stdafx.obj
 0002:00002d00       $SG65424                   0040ed00     Stdafx.obj
 0002:00002d0c       $SG65425                   0040ed0c     Stdafx.obj
 0002:00002d1c       $SG65426                   0040ed1c     Stdafx.obj
 0002:00002d24       $SG65428                   0040ed24     Stdafx.obj
 0002:00002d28       $SG65429                   0040ed28     Stdafx.obj
 0002:00002d30       $SG65430                   0040ed30     Stdafx.obj
 0002:00002d3c       $SG65431                   0040ed3c     Stdafx.obj
 0002:00002d44       ?IID_IAsynchronismEngine@@3U_GUID@@B 0040ed44     Stdafx.obj
 0002:00002d54       $SG65432                   0040ed54     Stdafx.obj
 0002:00002d60       $SG65433                   0040ed60     Stdafx.obj
 0002:00002d6c       $SG65434                   0040ed6c     Stdafx.obj
 0002:00002d78       $SG65435                   0040ed78     Stdafx.obj
 0002:00002d84       $SG65436                   0040ed84     Stdafx.obj
 0002:00002d90       $SG65437                   0040ed90     Stdafx.obj
 0002:00002d9c       $SG65438                   0040ed9c     Stdafx.obj
 0002:00002da8       $SG65439                   0040eda8     Stdafx.obj
 0002:00002db4       $SG65440                   0040edb4     Stdafx.obj
 0002:00002dc0       $SG65441                   0040edc0     Stdafx.obj
 0002:00002dcc       $SG65442                   0040edcc     Stdafx.obj
 0002:00002dd8       $SG65443                   0040edd8     Stdafx.obj
 0002:00002de4       $SG65444                   0040ede4     Stdafx.obj
 0002:00002df0       $SG65445                   0040edf0     Stdafx.obj
 0002:00002dfc       $SG65446                   0040edfc     Stdafx.obj
 0002:00002e08       $SG65447                   0040ee08     Stdafx.obj
 0002:00002e14       $SG65448                   0040ee14     Stdafx.obj
 0002:00002e1c       $SG65449                   0040ee1c     Stdafx.obj
 0002:00002e34       $SG65450                   0040ee34     Stdafx.obj
 0002:00002e4c       $SG65451                   0040ee4c     Stdafx.obj
 0002:00002e54       $SG65452                   0040ee54     Stdafx.obj
 0002:00002e60       $SG64428                   0040ee60     Stdafx.obj
 0002:00002e7c       $SG65453                   0040ee7c     Stdafx.obj
 0002:00002e84       $SG65454                   0040ee84     Stdafx.obj
 0002:00002e90       $SG65455                   0040ee90     Stdafx.obj
 0002:00002e9c       $SG65456                   0040ee9c     Stdafx.obj
 0002:00002eb4       $SG65457                   0040eeb4     Stdafx.obj
 0002:00002ebc       $SG65458                   0040eebc     Stdafx.obj
 0002:00002ec8       $SG65459                   0040eec8     Stdafx.obj
 0002:00002ed0       $SG65460                   0040eed0     Stdafx.obj
 0002:00002edc       $SG65461                   0040eedc     Stdafx.obj
 0002:00002ee8       $SG65462                   0040eee8     Stdafx.obj
 0002:00002ef0       $SG65463                   0040eef0     Stdafx.obj
 0002:00002efc       $SG65464                   0040eefc     Stdafx.obj
 0002:00002f04       $SG65465                   0040ef04     Stdafx.obj
 0002:00002f10       $SG65466                   0040ef10     Stdafx.obj
 0002:00002f1c       $SG65467                   0040ef1c     Stdafx.obj
 0002:00002f28       $SG65468                   0040ef28     Stdafx.obj
 0002:00002f34       $SG65469                   0040ef34     Stdafx.obj
 0002:00002f40       $SG65470                   0040ef40     Stdafx.obj
 0002:00002f48       $SG65471                   0040ef48     Stdafx.obj
 0002:00002f58       $SG65472                   0040ef58     Stdafx.obj
 0002:00002f60       $SG65473                   0040ef60     Stdafx.obj
 0002:00002f6c       $SG65474                   0040ef6c     Stdafx.obj
 0002:00002f74       $SG65475                   0040ef74     Stdafx.obj
 0002:00002f80       $SG65476                   0040ef80     Stdafx.obj
 0002:00002f8c       $SG65477                   0040ef8c     Stdafx.obj
 0002:00002f98       ?IID_IDataBase@@3U_GUID@@B 0040ef98     Stdafx.obj
 0002:00002fa8       $SG65478                   0040efa8     Stdafx.obj
 0002:00002fb4       $SG65479                   0040efb4     Stdafx.obj
 0002:00002fc0       $SG65480                   0040efc0     Stdafx.obj
 0002:00002fcc       $SG65481                   0040efcc     Stdafx.obj
 0002:00002fd8       $SG65482                   0040efd8     Stdafx.obj
 0002:00002fe4       $SG65483                   0040efe4     Stdafx.obj
 0002:00002ff0       $SG65484                   0040eff0     Stdafx.obj
 0002:00002ffc       $SG65485                   0040effc     Stdafx.obj
 0002:00003008       $SG65486                   0040f008     Stdafx.obj
 0002:00003014       $SG65487                   0040f014     Stdafx.obj
 0002:00003020       $SG65488                   0040f020     Stdafx.obj
 0002:00003028       $SG65489                   0040f028     Stdafx.obj
 0002:00003034       $SG65490                   0040f034     Stdafx.obj
 0002:00003040       $SG65491                   0040f040     Stdafx.obj
 0002:0000304c       $SG65492                   0040f04c     Stdafx.obj
 0002:00003058       $SG65493                   0040f058     Stdafx.obj
 0002:00003064       $SG65494                   0040f064     Stdafx.obj
 0002:00003070       $SG65495                   0040f070     Stdafx.obj
 0002:0000307c       $SG65496                   0040f07c     Stdafx.obj
 0002:00003088       $SG65497                   0040f088     Stdafx.obj
 0002:00003094       $SG65498                   0040f094     Stdafx.obj
 0002:000030a0       $SG65499                   0040f0a0     Stdafx.obj
 0002:000030ac       $SG64475                   0040f0ac     Stdafx.obj
 0002:000030c8       $SG65500                   0040f0c8     Stdafx.obj
 0002:000030d4       $SG65501                   0040f0d4     Stdafx.obj
 0002:000030e0       $SG65502                   0040f0e0     Stdafx.obj
 0002:000030ec       $SG65503                   0040f0ec     Stdafx.obj
 0002:000030f8       $SG65504                   0040f0f8     Stdafx.obj
 0002:00003104       $SG65505                   0040f104     Stdafx.obj
 0002:00003110       $SG65506                   0040f110     Stdafx.obj
 0002:0000311c       $SG65507                   0040f11c     Stdafx.obj
 0002:00003128       $SG65508                   0040f128     Stdafx.obj
 0002:00003130       $SG65509                   0040f130     Stdafx.obj
 0002:0000313c       $SG65510                   0040f13c     Stdafx.obj
 0002:00003144       $SG65511                   0040f144     Stdafx.obj
 0002:00003150       $SG65512                   0040f150     Stdafx.obj
 0002:00003158       $SG65513                   0040f158     Stdafx.obj
 0002:00003164       $SG65514                   0040f164     Stdafx.obj
 0002:0000316c       $SG65515                   0040f16c     Stdafx.obj
 0002:00003178       $SG65516                   0040f178     Stdafx.obj
 0002:00003180       $SG65517                   0040f180     Stdafx.obj
 0002:0000318c       $SG65518                   0040f18c     Stdafx.obj
 0002:00003194       $SG65519                   0040f194     Stdafx.obj
 0002:000031a0       $SG65520                   0040f1a0     Stdafx.obj
 0002:000031ac       $SG65521                   0040f1ac     Stdafx.obj
 0002:000031b8       $SG65522                   0040f1b8     Stdafx.obj
 0002:000031c4       $SG65523                   0040f1c4     Stdafx.obj
 0002:000031d0       $SG65524                   0040f1d0     Stdafx.obj
 0002:000031dc       $SG65525                   0040f1dc     Stdafx.obj
 0002:000031e4       $SG65526                   0040f1e4     Stdafx.obj
 0002:000031f0       $SG65527                   0040f1f0     Stdafx.obj
 0002:000031f8       $SG65528                   0040f1f8     Stdafx.obj
 0002:00003204       $SG65529                   0040f204     Stdafx.obj
 0002:0000320c       $SG65530                   0040f20c     Stdafx.obj
 0002:00003218       $SG65531                   0040f218     Stdafx.obj
 0002:00003220       $SG65532                   0040f220     Stdafx.obj
 0002:0000322c       $SG65533                   0040f22c     Stdafx.obj
 0002:00003234       ?IID_IDataBaseEngine@@3U_GUID@@B 0040f234     Stdafx.obj
 0002:00003244       $SG65534                   0040f244     Stdafx.obj
 0002:00003250       $SG65535                   0040f250     Stdafx.obj
 0002:000032d4       _GS_ExceptionPointers      0040f2d4     msvcrt:gs_report.obj
 0002:00004288       __unwindtable$??0CAttemperEngineSink@@QAE@XZ 00410288     AttemperEngineSink.obj
 0002:00004290       __catchsym$?OnAttemperEngineConclude@CAttemperEngineSink@@UAE_NPAUIUnknownEx@@@Z$2 00410290     AttemperEngineSink.obj
 0002:000042a0       __unwindtable$?OnAttemperEngineConclude@CAttemperEngineSink@@UAE_NPAUIUnknownEx@@@Z 004102a0     AttemperEngineSink.obj
 0002:000042b0       __tryblocktable$?OnAttemperEngineConclude@CAttemperEngineSink@@UAE_NPAUIUnknownEx@@@Z 004102b0     AttemperEngineSink.obj
 0002:000042c4       __ehfuncinfo$?OnAttemperEngineConclude@CAttemperEngineSink@@UAE_NPAUIUnknownEx@@@Z 004102c4     AttemperEngineSink.obj
 0002:000042e8       __ehfuncinfo$??0CAttemperEngineSink@@QAE@XZ 004102e8     AttemperEngineSink.obj
 0002:0000430c       __catchsym$?_Reallocate@?$vector@UtagOtherServerLogInfo@@V?$allocator@UtagOtherServerLogInfo@@@std@@@std@@IAEXI@Z$2 0041030c     AttemperEngineSink.obj
 0002:0000431c       __unwindtable$?_Reallocate@?$vector@UtagOtherServerLogInfo@@V?$allocator@UtagOtherServerLogInfo@@@std@@@std@@IAEXI@Z 0041031c     AttemperEngineSink.obj
 0002:0000432c       __tryblocktable$?_Reallocate@?$vector@UtagOtherServerLogInfo@@V?$allocator@UtagOtherServerLogInfo@@@std@@@std@@IAEXI@Z 0041032c     AttemperEngineSink.obj
 0002:00004340       __ehfuncinfo$?_Reallocate@?$vector@UtagOtherServerLogInfo@@V?$allocator@UtagOtherServerLogInfo@@@std@@@std@@IAEXI@Z 00410340     AttemperEngineSink.obj
 0002:00004364       __catchsym$?_Reallocate@?$vector@UtagLogUserInfo@@V?$allocator@UtagLogUserInfo@@@std@@@std@@IAEXI@Z$2 00410364     AttemperEngineSink.obj
 0002:00004374       __unwindtable$?_Reallocate@?$vector@UtagLogUserInfo@@V?$allocator@UtagLogUserInfo@@@std@@@std@@IAEXI@Z 00410374     AttemperEngineSink.obj
 0002:00004384       __tryblocktable$?_Reallocate@?$vector@UtagLogUserInfo@@V?$allocator@UtagLogUserInfo@@@std@@@std@@IAEXI@Z 00410384     AttemperEngineSink.obj
 0002:00004398       __ehfuncinfo$?_Reallocate@?$vector@UtagLogUserInfo@@V?$allocator@UtagLogUserInfo@@@std@@@std@@IAEXI@Z 00410398     AttemperEngineSink.obj
 0002:000043bc       __unwindtable$?InitInstance@CLogServerApp@@UAEHXZ 004103bc     LogServer.obj
 0002:000043c4       __ehfuncinfo$?InitInstance@CLogServerApp@@UAEHXZ 004103c4     LogServer.obj
 0002:000043e8       __catchsym$?OnBnClickedStopService@CLogServerDlg@@IAEXXZ$2 004103e8     LogServerServerDlg.obj
 0002:000043f8       __unwindtable$?OnBnClickedStopService@CLogServerDlg@@IAEXXZ 004103f8     LogServerServerDlg.obj
 0002:00004408       __catchsym$?OnBnClickedStartService@CLogServerDlg@@IAEXXZ$2 00410408     LogServerServerDlg.obj
 0002:00004418       __unwindtable$?OnBnClickedStartService@CLogServerDlg@@IAEXXZ 00410418     LogServerServerDlg.obj
 0002:00004428       __unwindtable$??0CLogServerDlg@@QAE@XZ 00410428     LogServerServerDlg.obj
 0002:00004438       __tryblocktable$?OnBnClickedStopService@CLogServerDlg@@IAEXXZ 00410438     LogServerServerDlg.obj
 0002:0000444c       __tryblocktable$?OnBnClickedStartService@CLogServerDlg@@IAEXXZ 0041044c     LogServerServerDlg.obj
 0002:00004460       __ehfuncinfo$?OnBnClickedStopService@CLogServerDlg@@IAEXXZ 00410460     LogServerServerDlg.obj
 0002:00004484       __ehfuncinfo$?OnBnClickedStartService@CLogServerDlg@@IAEXXZ 00410484     LogServerServerDlg.obj
 0002:000044a8       __ehfuncinfo$??0CLogServerDlg@@QAE@XZ 004104a8     LogServerServerDlg.obj
 0002:000044cc       __unwindtable$??0CGlobalServerItem@@IAE@XZ 004104cc     GlobalInfoManager.obj
 0002:000044d4       __catchsym$?CreateGlobalChatItem@CGlobalInfoManager@@AAEPAVCGlobalChatItem@@XZ$3 004104d4     GlobalInfoManager.obj
 0002:000044e4       __catchsym$?CreateGlobalServerItem@CGlobalInfoManager@@AAEPAVCGlobalServerItem@@XZ$3 004104e4     GlobalInfoManager.obj
 0002:000044f4       __catchsym$?CreateGlobalPlazaItem@CGlobalInfoManager@@AAEPAVCGlobalPlazaItem@@XZ$3 004104f4     GlobalInfoManager.obj
 0002:00004504       __catchsym$?CreateGlobalUserItem@CGlobalInfoManager@@AAEPAVCGlobalUserItem@@XZ$3 00410504     GlobalInfoManager.obj
 0002:00004514       __catchsym$??1CGlobalInfoManager@@UAE@XZ$29 00410514     GlobalInfoManager.obj
 0002:00004524       __catchsym$??1CGlobalInfoManager@@UAE@XZ$28 00410524     GlobalInfoManager.obj
 0002:00004534       __catchsym$??1CGlobalInfoManager@@UAE@XZ$27 00410534     GlobalInfoManager.obj
 0002:00004544       __catchsym$??1CGlobalInfoManager@@UAE@XZ$26 00410544     GlobalInfoManager.obj
 0002:00004554       __catchsym$??1CGlobalInfoManager@@UAE@XZ$25 00410554     GlobalInfoManager.obj
 0002:00004564       __catchsym$??1CGlobalInfoManager@@UAE@XZ$24 00410564     GlobalInfoManager.obj
 0002:00004574       __catchsym$??1CGlobalInfoManager@@UAE@XZ$23 00410574     GlobalInfoManager.obj
 0002:00004584       __catchsym$??1CGlobalInfoManager@@UAE@XZ$22 00410584     GlobalInfoManager.obj
 0002:00004594       __tryblocktable$?CreateGlobalChatItem@CGlobalInfoManager@@AAEPAVCGlobalChatItem@@XZ 00410594     GlobalInfoManager.obj
 0002:000045a8       __tryblocktable$?CreateGlobalServerItem@CGlobalInfoManager@@AAEPAVCGlobalServerItem@@XZ 004105a8     GlobalInfoManager.obj
 0002:000045bc       __tryblocktable$?CreateGlobalPlazaItem@CGlobalInfoManager@@AAEPAVCGlobalPlazaItem@@XZ 004105bc     GlobalInfoManager.obj
 0002:000045d0       __tryblocktable$?CreateGlobalUserItem@CGlobalInfoManager@@AAEPAVCGlobalUserItem@@XZ 004105d0     GlobalInfoManager.obj
 0002:000045e4       __unwindtable$?CreateGlobalChatItem@CGlobalInfoManager@@AAEPAVCGlobalChatItem@@XZ 004105e4     GlobalInfoManager.obj
 0002:000045fc       __unwindtable$?CreateGlobalServerItem@CGlobalInfoManager@@AAEPAVCGlobalServerItem@@XZ 004105fc     GlobalInfoManager.obj
 0002:00004614       __unwindtable$?CreateGlobalPlazaItem@CGlobalInfoManager@@AAEPAVCGlobalPlazaItem@@XZ 00410614     GlobalInfoManager.obj
 0002:0000462c       __unwindtable$?CreateGlobalUserItem@CGlobalInfoManager@@AAEPAVCGlobalUserItem@@XZ 0041062c     GlobalInfoManager.obj
 0002:00004644       __ehfuncinfo$?CreateGlobalChatItem@CGlobalInfoManager@@AAEPAVCGlobalChatItem@@XZ 00410644     GlobalInfoManager.obj
 0002:00004668       __ehfuncinfo$?CreateGlobalServerItem@CGlobalInfoManager@@AAEPAVCGlobalServerItem@@XZ 00410668     GlobalInfoManager.obj
 0002:0000468c       __ehfuncinfo$?CreateGlobalPlazaItem@CGlobalInfoManager@@AAEPAVCGlobalPlazaItem@@XZ 0041068c     GlobalInfoManager.obj
 0002:000046b0       __ehfuncinfo$?CreateGlobalUserItem@CGlobalInfoManager@@AAEPAVCGlobalUserItem@@XZ 004106b0     GlobalInfoManager.obj
 0002:000046d4       __ehfuncinfo$??1CGlobalInfoManager@@UAE@XZ 004106d4     GlobalInfoManager.obj
 0002:000046f8       __ehfuncinfo$??0CGlobalInfoManager@@QAE@XZ 004106f8     GlobalInfoManager.obj
 0002:0000471c       __ehfuncinfo$??0CGlobalServerItem@@IAE@XZ 0041071c     GlobalInfoManager.obj
 0002:00004740       __unwindtable$??0CGlobalInfoManager@@QAE@XZ 00410740     GlobalInfoManager.obj
 0002:00004770       __tryblocktable$??1CGlobalInfoManager@@UAE@XZ 00410770     GlobalInfoManager.obj
 0002:00004810       __unwindtable$??1CGlobalInfoManager@@UAE@XZ 00410810     GlobalInfoManager.obj
 0002:000048c0       __unwindtable$?NewAssoc@?$CMap@KKPAVCGlobalUserItem@@PAV1@@@IAEPAVCAssoc@1@K@Z 004108c0     GlobalInfoManager.obj
 0002:000048c0       __unwindtable$?NewAssoc@?$CMap@GGPAVCGlobalServerItem@@PAV1@@@IAEPAVCAssoc@1@G@Z 004108c0     GlobalInfoManager.obj
 0002:000048c0       __unwindtable$?NewAssoc@?$CMap@GGPAVCGlobalPlazaItem@@PAV1@@@IAEPAVCAssoc@1@G@Z 004108c0     GlobalInfoManager.obj
 0002:000048c0       __unwindtable$?NewAssoc@?$CMap@GGPAVCGlobalChatItem@@PAV1@@@IAEPAVCAssoc@1@G@Z 004108c0     GlobalInfoManager.obj
 0002:000048c8       __ehfuncinfo$?NewAssoc@?$CMap@GGPAVCGlobalPlazaItem@@PAV1@@@IAEPAVCAssoc@1@G@Z 004108c8     GlobalInfoManager.obj
 0002:000048c8       __ehfuncinfo$?NewAssoc@?$CMap@KKPAVCGlobalUserItem@@PAV1@@@IAEPAVCAssoc@1@K@Z 004108c8     GlobalInfoManager.obj
 0002:000048c8       __ehfuncinfo$?NewAssoc@?$CMap@GGPAVCGlobalChatItem@@PAV1@@@IAEPAVCAssoc@1@G@Z 004108c8     GlobalInfoManager.obj
 0002:000048c8       __ehfuncinfo$?NewAssoc@?$CMap@GGPAVCGlobalServerItem@@PAV1@@@IAEPAVCAssoc@1@G@Z 004108c8     GlobalInfoManager.obj
 0002:000048ec       __unwindtable$?LoadInitParameter@CInitParameter@@QAEXXZ 004108ec     InitParameter.obj
 0002:000048f4       __ehfuncinfo$?LoadInitParameter@CInitParameter@@QAEXXZ 004108f4     InitParameter.obj
 0002:00004918       __unwindtable$??0CCriticalSection@@QAE@XZ 00410918     ServiceUnits.obj
 0002:00004920       __ehfuncinfo$??0CCriticalSection@@QAE@XZ 00410920     ServiceUnits.obj
 0002:00004944       __unwindtable$?CreateInstance@?$CTempldateHelper@UITimerEngine@@@@QAE_NXZ 00410944     ServiceUnits.obj
 0002:00004954       __tryblocktable$?CreateInstance@?$CTempldateHelper@UITimerEngine@@@@QAE_NXZ 00410954     ServiceUnits.obj
 0002:00004968       __catchsym$?CreateInstance@?$CTempldateHelper@UITimerEngine@@@@QAE_NXZ$3 00410968     ServiceUnits.obj
 0002:00004988       __ehfuncinfo$?CreateInstance@?$CTempldateHelper@UITimerEngine@@@@QAE_NXZ 00410988     ServiceUnits.obj
 0002:000049ac       __ehfuncinfo$??1?$CTempldateHelper@UITimerEngine@@@@UAE@XZ 004109ac     ServiceUnits.obj
 0002:000049ac       __ehfuncinfo$??1?$CTempldateHelper@UIAttemperEngine@@@@UAE@XZ 004109ac     ServiceUnits.obj
 0002:000049ac       __ehfuncinfo$??1?$vector@UtagLogUserInfo@@V?$allocator@UtagLogUserInfo@@@std@@@std@@QAE@XZ 004109ac     AttemperEngineSink.obj
 0002:000049ac       __ehfuncinfo$??0?$vector@UtagLogUserInfo@@V?$allocator@UtagLogUserInfo@@@std@@@std@@QAE@XZ 004109ac     AttemperEngineSink.obj
 0002:000049ac       __ehfuncinfo$??1?$CMap@GGPAVCGlobalPlazaItem@@PAV1@@@UAE@XZ 004109ac     GlobalInfoManager.obj
 0002:000049ac       __ehfuncinfo$??1?$CMap@GGPAVCGlobalServerItem@@PAV1@@@UAE@XZ 004109ac     GlobalInfoManager.obj
 0002:000049ac       __ehfuncinfo$??1?$CMap@GGPAVCGlobalChatItem@@PAV1@@@UAE@XZ 004109ac     GlobalInfoManager.obj
 0002:000049ac       __ehfuncinfo$??1?$vector@UtagOtherServerLogInfo@@V?$allocator@UtagOtherServerLogInfo@@@std@@@std@@QAE@XZ 004109ac     AttemperEngineSink.obj
 0002:000049ac       __ehfuncinfo$??0?$vector@UtagOtherServerLogInfo@@V?$allocator@UtagOtherServerLogInfo@@@std@@@std@@QAE@XZ 004109ac     AttemperEngineSink.obj
 0002:000049ac       __ehfuncinfo$??1?$CTempldateHelper@UITCPNetworkEngine@@@@UAE@XZ 004109ac     ServiceUnits.obj
 0002:000049ac       __ehfuncinfo$??1?$CMap@KKPAVCGlobalUserItem@@PAV1@@@UAE@XZ 004109ac     GlobalInfoManager.obj
 0002:000049d0       __unwindtable$?CreateInstance@?$CTempldateHelper@UIAttemperEngine@@@@QAE_NXZ 004109d0     ServiceUnits.obj
 0002:000049e0       __tryblocktable$?CreateInstance@?$CTempldateHelper@UIAttemperEngine@@@@QAE_NXZ 004109e0     ServiceUnits.obj
 0002:000049f4       __catchsym$?CreateInstance@?$CTempldateHelper@UIAttemperEngine@@@@QAE_NXZ$3 004109f4     ServiceUnits.obj
 0002:00004a14       __ehfuncinfo$?CreateInstance@?$CTempldateHelper@UIAttemperEngine@@@@QAE_NXZ 00410a14     ServiceUnits.obj
 0002:00004a38       __unwindtable$?CreateInstance@?$CTempldateHelper@UITCPNetworkEngine@@@@QAE_NXZ 00410a38     ServiceUnits.obj
 0002:00004a48       __tryblocktable$?CreateInstance@?$CTempldateHelper@UITCPNetworkEngine@@@@QAE_NXZ 00410a48     ServiceUnits.obj
 0002:00004a5c       __catchsym$?CreateInstance@?$CTempldateHelper@UITCPNetworkEngine@@@@QAE_NXZ$3 00410a5c     ServiceUnits.obj
 0002:00004a7c       __ehfuncinfo$?CreateInstance@?$CTempldateHelper@UITCPNetworkEngine@@@@QAE_NXZ 00410a7c     ServiceUnits.obj
 0002:00004aa0       __ehfuncinfo$??1CServiceUnits@@UAE@XZ 00410aa0     ServiceUnits.obj
 0002:00004ac4       __ehfuncinfo$??0CServiceUnits@@QAE@XZ 00410ac4     ServiceUnits.obj
 0002:00004ae8       __unwindtable$??0CServiceUnits@@QAE@XZ 00410ae8     ServiceUnits.obj
 0002:00004b18       __sehtable$?__scrt_common_main_seh@@YAHXZ 00410b18     msvcrt:exe_wwinmain.obj
 0002:00004b38       __sehtable$___scrt_is_nonwritable_in_current_image 00410b38     msvcrt:utility.obj
 0002:0000510c       .idata$6                   0041110c     mfc140u:mfc140u.dll
 0002:0000532e       .idata$6                   0041132e     kernel32:KERNEL32.dll
 0002:00005374       .idata$6                   00411374     user32:USER32.dll
 0002:00005380       .idata$6                   00411380     comctl32:COMCTL32.dll
 0002:000053c8       .idata$6                   004113c8     msvcprt:MSVCP140.dll
 0002:000054ea       .idata$6                   004114ea     ServiceCore:ServiceCore.dll
 0002:00005578       .idata$6                   00411578     KernelEngine:KernelEngine.dll
 0002:0000562a       .idata$6                   0041162a     vcruntime:VCRUNTIME140.dll
 0002:000058b8       .idata$6                   004118b8     ucrt:api-ms-win-crt-runtime-l1-1-0.dll
 0002:000058da       .idata$6                   004118da     ucrt:api-ms-win-crt-filesystem-l1-1-0.dll
 0002:00005900       .idata$6                   00411900     ucrt:api-ms-win-crt-stdio-l1-1-0.dll
 0002:00005920       .idata$6                   00411920     ucrt:api-ms-win-crt-locale-l1-1-0.dll
 0002:00005942       .idata$6                   00411942     ucrt:api-ms-win-crt-time-l1-1-0.dll
 0002:00005962       .idata$6                   00411962     ucrt:api-ms-win-crt-utility-l1-1-0.dll
 0002:00005984       .idata$6                   00411984     ucrt:api-ms-win-crt-heap-l1-1-0.dll
 0002:000059a4       .idata$6                   004119a4     ucrt:api-ms-win-crt-math-l1-1-0.dll
 0003:00000000       ?PADDING@@3PAEA            00412000     Stdafx.obj
 0003:00000694       ?module_local_atexit_table@@3U_onexit_table_t@@A 00412694     msvcrt:utility.obj
 0003:000006a0       ?module_local_at_quick_exit_table@@3U_onexit_table_t@@A 004126a0     msvcrt:utility.obj
 0003:000006ac       ?is_initialized_as_dll@@3_NA 004126ac     msvcrt:utility.obj
 0003:000006b0       ?_Tss_mutex@@3U_RTL_CRITICAL_SECTION@@A 004126b0     msvcrt:thread_safe_statics.obj
 0003:000006c8       ?_Tss_cv@@3U_RTL_CONDITION_VARIABLE@@A 004126c8     msvcrt:thread_safe_statics.obj
 0003:000006cc       ?_Tss_event@@3PAXA         004126cc     msvcrt:thread_safe_statics.obj
 0003:000006d0       ?encoded_sleep_condition_variable_cs@@3P6GHPAU_RTL_CONDITION_VARIABLE@@PAU_RTL_CRITICAL_SECTION@@K@ZA 004126d0     msvcrt:thread_safe_statics.obj
 0003:000006d4       ?encoded_wake_all_condition_variable@@3P6GXPAU_RTL_CONDITION_VARIABLE@@@ZA 004126d4     msvcrt:thread_safe_statics.obj
 0003:00000700       _GS_ExceptionRecord        00412700     msvcrt:gs_report.obj
 0003:00000750       _GS_ContextRecord          00412750     msvcrt:gs_report.obj
 0004:00000000       __guard_fids__             00413000     msvcrt:exe_wwinmain.obj
 0004:00000004       __guard_fids__             00413004     msvcrt:exe_wwinmain.obj
 0004:00000008       __guard_fids__             00413008     msvcrt:exe_wwinmain.obj
 0004:0000000c       __guard_fids_?pre_c_initialization@@YAHXZ 0041300c     msvcrt:exe_wwinmain.obj
 0004:00000014       __guard_fids__             00413014     msvcrt:std_type_info_static.obj
 0004:00000018       __guard_fids__             00413018     msvcrt:thread_safe_statics.obj
 0004:0000001c       __guard_fids_?__scrt_initialize_thread_safe_statics@@YAHXZ 0041301c     msvcrt:thread_safe_statics.obj
 0004:00000020       __guard_fids___except_handler4 00413020     msvcrt:_chandler4gs_.obj
 0004:00000024       __guard_fids____scrt_set_unhandled_exception_filter 00413024     msvcrt:utility_desktop.obj
 0004:00000028       __guard_fids__             00413028     msvcrt:guard_support.obj
 0004:0000002c       __guard_fids_??__E_AtlBaseModule@ATL@@YAXXZ 0041302c     atls:atlbase.obj
 0004:00000030       __guard_fids__             00413030     atls:atlbase.obj
 0004:00000034       __guard_fids__             00413034     mfcs140u:appmodul.obj
 0006:00000180       $R000000                   00415180     LogServer.res
 0006:00001e28       $R001CA8                   00416e28     LogServer.res
 0006:00001e40       $R001CC0                   00416e40     LogServer.res
 0006:00002088       $R001F08                   00417088     LogServer.res
 0006:00002388       $R002208                   00417388     LogServer.res
